 AlertServer

 Timestamp is 5019e20f (Thu Aug 02 10:12:31 2012)

 Preferred load address is 00400000

 Start         Length     Name                   Class
 0001:00000000 0003328aH .text                   CODE
 0001:00033290 00000000H .text$AFX_COL1          CODE
 0001:00033290 00006b0cH .text$x                 CODE
 0001:00039da0 00000492H .text$yc                CODE
 0001:0003a240 00000290H .text$yd                CODE
 0002:00000000 000004acH .idata$5                DATA
 0002:000004b0 00003de0H .rdata                  DATA
 0002:00004290 00000069H .rdata$debug            DATA
 0002:000042fc 00000088H .rdata$r                DATA
 0002:00004390 00000250H .rdata$sxdata           DATA
 0002:000045e0 00000004H .rtc$IAA                DATA
 0002:000045e4 00000004H .rtc$IZZ                DATA
 0002:000045e8 00000004H .rtc$TAA                DATA
 0002:000045ec 00000004H .rtc$TZZ                DATA
 0002:000045f0 00005c98H .xdata$x                DATA
 0002:0000a288 00000000H ATL$__a                 DATA
 0002:0000a288 00000000H ATL$__z                 DATA
 0002:0000a288 000000dcH .idata$2                DATA
 0002:0000a364 00000014H .idata$3                DATA
 0002:0000a378 000004acH .idata$4                DATA
 0002:0000a824 0000274cH .idata$6                DATA
 0002:0000cf70 00000000H .edata                  DATA
 0003:00000000 00000004H .CRT$XCA                DATA
 0003:00000004 00000004H .CRT$XCAA               DATA
 0003:00000008 00000004H .CRT$XCL                DATA
 0003:0000000c 000000a4H .CRT$XCU                DATA
 0003:000000b0 00000004H .CRT$XCZ                DATA
 0003:000000b4 00000004H .CRT$XIA                DATA
 0003:000000b8 00000004H .CRT$XIZ                DATA
 0003:000000c0 000002a1H .data                   DATA
 0003:00000368 00000a28H .bss                    DATA
 0004:00000000 00000058H .rsrc$01                DATA
 0004:00000060 00000038H .rsrc$02                DATA

  Address         Publics by Value              Rva+Base     Lib:Object

 0000:00000000       __except_list              00000000     <absolute>
 0000:00000094       ___safe_se_handler_count   00000094     <absolute>
 0000:00009876       __ldused                   00009876     <absolute>
 0000:00009876       __fltused                  00009876     <absolute>
 0000:00000000       ___ImageBase               00400000     <linker-defined>
 0001:00000000       ??1logic_error@std@@UAE@XZ 00401000 f i AlertBaseObj.obj
 0001:00000060       ?what@logic_error@std@@UBEPBDXZ 00401060 f i AlertBaseObj.obj
 0001:00000070       ??_Glogic_error@std@@UAEPAXI@Z 00401070 f i AlertBaseObj.obj
 0001:00000070       ??_Elogic_error@std@@UAEPAXI@Z 00401070 f i AlertBaseObj.obj
 0001:00000090       ??_Elength_error@std@@UAEPAXI@Z 00401090 f i AlertBaseObj.obj
 0001:00000090       ??_Glength_error@std@@UAEPAXI@Z 00401090 f i AlertBaseObj.obj
 0001:000000b0       ??1length_error@std@@UAE@XZ 004010b0 f i AlertBaseObj.obj
 0001:000000c0       ??_Gout_of_range@std@@UAEPAXI@Z 004010c0 f i AlertBaseObj.obj
 0001:000000c0       ??_Eout_of_range@std@@UAEPAXI@Z 004010c0 f i AlertBaseObj.obj
 0001:000000e0       ??1out_of_range@std@@UAE@XZ 004010e0 f i AlertBaseObj.obj
 0001:000000f0       ?GetEventTypeString@CAlertEventObj@@QAE?AV?$basic_string@DU?$char_traits@D@std@@V?$allocator@D@2@@std@@XZ 004010f0 f i AlertBaseObj.obj
 0001:000001d0       ?GetEventTypeCHString@CAlertEventObj@@QAE?AV?$basic_string@DU?$char_traits@D@std@@V?$allocator@D@2@@std@@XZ 004011d0 f i AlertBaseObj.obj
 0001:000002b0       ?IsUpgradeMatching@CAlertBaseObj@@UAE_NPAVCAlertEventObj@@@Z 004012b0 f   AlertBaseObj.obj
 0001:000002c0       ?MakeSendObj@CAlertBaseObj@@UAEPAVCAlertSendObj@@PAVCAlertEventObj@@@Z 004012c0 f   AlertBaseObj.obj
 0001:000002d0       ?RefreshData@CAlertEmailObj@@UAEXXZ 004012d0 f   AlertBaseObj.obj
 0001:00000360       ?IsUpgradeMatching@CAlertEmailObj@@UAE_NPAVCAlertEventObj@@@Z 00401360 f   AlertBaseObj.obj
 0001:000004d0       ?RefreshData@CAlertSmsObj@@UAEXXZ 004014d0 f   AlertBaseObj.obj
 0001:00000560       ?MakeSendObj@CAlertSmsObj@@UAEPAVCAlertSendObj@@PAVCAlertEventObj@@@Z 00401560 f   AlertBaseObj.obj
 0001:00000710       ?IsUpgradeMatching@CAlertSmsObj@@UAE_NPAVCAlertEventObj@@@Z 00401710 f   AlertBaseObj.obj
 0001:00000880       ?MakeSendObj@CAlertScriptObj@@UAEPAVCAlertSendObj@@PAVCAlertEventObj@@@Z 00401880 f   AlertBaseObj.obj
 0001:000009c0       ?MakeSendObj@CAlertSoundObj@@UAEPAVCAlertSendObj@@PAVCAlertEventObj@@@Z 004019c0 f   AlertBaseObj.obj
 0001:00000ae0       ?MakeSendObj@CAlertPythonObj@@UAEPAVCAlertSendObj@@PAVCAlertEventObj@@@Z 00401ae0 f   AlertBaseObj.obj
 0001:00000c00       ??1?$pair@$$CBV?$basic_string@DU?$char_traits@D@std@@V?$allocator@D@2@@std@@H@std@@QAE@XZ 00401c00 f i AlertBaseObj.obj
 0001:00000c10       ??R?$less@V?$basic_string@DU?$char_traits@D@std@@V?$allocator@D@2@@std@@@std@@QBE_NABV?$basic_string@DU?$char_traits@D@std@@V?$allocator@D@2@@1@0@Z 00401c10 f i AlertBaseObj.obj
 0001:00000c30       ??1_Sentry_base@?$basic_ostream@DU?$char_traits@D@std@@@std@@QAE@XZ 00401c30 f i AlertBaseObj.obj
 0001:00000c30       ??1sentry@?$basic_istream@DU?$char_traits@D@std@@@std@@QAE@XZ 00401c30 f i AlertBaseObj.obj
 0001:00000c30       ??1_Sentry_base@?$basic_istream@DU?$char_traits@D@std@@@std@@QAE@XZ 00401c30 f i AlertBaseObj.obj
 0001:00000c50       ?_Rrotate@?$_Tree@V?$_Tmap_traits@V?$basic_string@DU?$char_traits@D@std@@V?$allocator@D@2@@std@@KU?$less@V?$basic_string@DU?$char_traits@D@std@@V?$allocator@D@2@@std@@@2@V?$allocator@U?$pair@$$CBV?$basic_string@DU?$char_traits@D@std@@V?$allocator@D@2@@std@@K@std@@@2@$0A@@std@@@std@@IAEXPAU_Node@?$_Tree_nod@V?$_Tmap_traits@V?$basic_string@DU?$char_traits@D@std@@V?$allocator@D@2@@std@@KU?$less@V?$basic_string@DU?$char_traits@D@std@@V?$allocator@D@2@@std@@@2@V?$allocator@U?$pair@$$CBV?$basic_string@DU?$char_traits@D@std@@V?$allocator@D@2@@std@@K@std@@@2@$0A@@std@@@2@@Z 00401c50 f i AlertSendObj.obj
 0001:00000c50       ?_Rrotate@?$_Tree@V?$_Tmap_traits@V?$basic_string@DU?$char_traits@D@std@@V?$allocator@D@2@@std@@HU?$less@V?$basic_string@DU?$char_traits@D@std@@V?$allocator@D@2@@std@@@2@V?$allocator@U?$pair@$$CBV?$basic_string@DU?$char_traits@D@std@@V?$allocator@D@2@@std@@H@std@@@2@$0A@@std@@@std@@IAEXPAU_Node@?$_Tree_nod@V?$_Tmap_traits@V?$basic_string@DU?$char_traits@D@std@@V?$allocator@D@2@@std@@HU?$less@V?$basic_string@DU?$char_traits@D@std@@V?$allocator@D@2@@std@@@2@V?$allocator@U?$pair@$$CBV?$basic_string@DU?$char_traits@D@std@@V?$allocator@D@2@@std@@H@std@@@2@$0A@@std@@@2@@Z 00401c50 f i AlertBaseObj.obj
 0001:00000c50       ?_Rrotate@?$_Tree@V?$_Tmap_traits@HV?$basic_string@DU?$char_traits@D@std@@V?$allocator@D@2@@std@@U?$less@H@2@V?$allocator@U?$pair@$$CBHV?$basic_string@DU?$char_traits@D@std@@V?$allocator@D@2@@std@@@std@@@2@$0A@@std@@@std@@IAEXPAU_Node@?$_Tree_nod@V?$_Tmap_traits@HV?$basic_string@DU?$char_traits@D@std@@V?$allocator@D@2@@std@@U?$less@H@2@V?$allocator@U?$pair@$$CBHV?$basic_string@DU?$char_traits@D@std@@V?$allocator@D@2@@std@@@std@@@2@$0A@@std@@@2@@Z 00401c50 f i AlertSendObj.obj
 0001:00000cb0       ?_Max@?$_Tree@V?$_Tmap_traits@HV?$basic_string@DU?$char_traits@D@std@@V?$allocator@D@2@@std@@U?$less@H@2@V?$allocator@U?$pair@$$CBHV?$basic_string@DU?$char_traits@D@std@@V?$allocator@D@2@@std@@@std@@@2@$0A@@std@@@std@@KAPAU_Node@?$_Tree_nod@V?$_Tmap_traits@HV?$basic_string@DU?$char_traits@D@std@@V?$allocator@D@2@@std@@U?$less@H@2@V?$allocator@U?$pair@$$CBHV?$basic_string@DU?$char_traits@D@std@@V?$allocator@D@2@@std@@@std@@@2@$0A@@std@@@2@PAU342@@Z 00401cb0 f i AlertSendObj.obj
 0001:00000cb0       ?_Max@?$_Tree@V?$_Tmap_traits@V?$basic_string@DU?$char_traits@D@std@@V?$allocator@D@2@@std@@HU?$less@V?$basic_string@DU?$char_traits@D@std@@V?$allocator@D@2@@std@@@2@V?$allocator@U?$pair@$$CBV?$basic_string@DU?$char_traits@D@std@@V?$allocator@D@2@@std@@H@std@@@2@$0A@@std@@@std@@KAPAU_Node@?$_Tree_nod@V?$_Tmap_traits@V?$basic_string@DU?$char_traits@D@std@@V?$allocator@D@2@@std@@HU?$less@V?$basic_string@DU?$char_traits@D@std@@V?$allocator@D@2@@std@@@2@V?$allocator@U?$pair@$$CBV?$basic_string@DU?$char_traits@D@std@@V?$allocator@D@2@@std@@H@std@@@2@$0A@@std@@@2@PAU342@@Z 00401cb0 f i AlertBaseObj.obj
 0001:00000cb0       ?_Max@?$_Tree@V?$_Tmap_traits@V?$basic_string@DU?$char_traits@D@std@@V?$allocator@D@2@@std@@KU?$less@V?$basic_string@DU?$char_traits@D@std@@V?$allocator@D@2@@std@@@2@V?$allocator@U?$pair@$$CBV?$basic_string@DU?$char_traits@D@std@@V?$allocator@D@2@@std@@K@std@@@2@$0A@@std@@@std@@KAPAU_Node@?$_Tree_nod@V?$_Tmap_traits@V?$basic_string@DU?$char_traits@D@std@@V?$allocator@D@2@@std@@KU?$less@V?$basic_string@DU?$char_traits@D@std@@V?$allocator@D@2@@std@@@2@V?$allocator@U?$pair@$$CBV?$basic_string@DU?$char_traits@D@std@@V?$allocator@D@2@@std@@K@std@@@2@$0A@@std@@@2@PAU342@@Z 00401cb0 f i AlertSendObj.obj
 0001:00000cd0       ?_Dec@const_iterator@?$_Tree@V?$_Tmap_traits@V?$basic_string@DU?$char_traits@D@std@@V?$allocator@D@2@@std@@HU?$less@V?$basic_string@DU?$char_traits@D@std@@V?$allocator@D@2@@std@@@2@V?$allocator@U?$pair@$$CBV?$basic_string@DU?$char_traits@D@std@@V?$allocator@D@2@@std@@H@std@@@2@$0A@@std@@@std@@QAEXXZ 00401cd0 f i AlertBaseObj.obj
 0001:00000d30       ?_Inc@const_iterator@?$_Tree@V?$_Tmap_traits@V?$basic_string@DU?$char_traits@D@std@@V?$allocator@D@2@@std@@HU?$less@V?$basic_string@DU?$char_traits@D@std@@V?$allocator@D@2@@std@@@2@V?$allocator@U?$pair@$$CBV?$basic_string@DU?$char_traits@D@std@@V?$allocator@D@2@@std@@H@std@@@2@$0A@@std@@@std@@QAEXXZ 00401d30 f i AlertBaseObj.obj
 0001:00000d30       ?_Inc@const_iterator@?$_Tree@V?$_Tmap_traits@V?$basic_string@DU?$char_traits@D@std@@V?$allocator@D@2@@std@@KU?$less@V?$basic_string@DU?$char_traits@D@std@@V?$allocator@D@2@@std@@@2@V?$allocator@U?$pair@$$CBV?$basic_string@DU?$char_traits@D@std@@V?$allocator@D@2@@std@@K@std@@@2@$0A@@std@@@std@@QAEXXZ 00401d30 f i AlertSendObj.obj
 0001:00000d30       ?_Inc@const_iterator@?$_Tree@V?$_Tmap_traits@HV?$basic_string@DU?$char_traits@D@std@@V?$allocator@D@2@@std@@U?$less@H@2@V?$allocator@U?$pair@$$CBHV?$basic_string@DU?$char_traits@D@std@@V?$allocator@D@2@@std@@@std@@@2@$0A@@std@@@std@@QAEXXZ 00401d30 f i AlertSendObj.obj
 0001:00000d90       ??$?HDU?$char_traits@D@std@@V?$allocator@D@1@@std@@YA?AV?$basic_string@DU?$char_traits@D@std@@V?$allocator@D@2@@0@ABV10@0@Z 00401d90 f i AlertBaseObj.obj
 0001:00000e10       ??$?HDU?$char_traits@D@std@@V?$allocator@D@1@@std@@YA?AV?$basic_string@DU?$char_traits@D@std@@V?$allocator@D@2@@0@PBDABV10@@Z 00401e10 f i AlertBaseObj.obj
 0001:00000e90       ??$?HDU?$char_traits@D@std@@V?$allocator@D@1@@std@@YA?AV?$basic_string@DU?$char_traits@D@std@@V?$allocator@D@2@@0@ABV10@PBD@Z 00401e90 f i AlertBaseObj.obj
 0001:00000f10       ??1_Node@?$_List_nod@V?$basic_string@DU?$char_traits@D@std@@V?$allocator@D@2@@std@@V?$allocator@V?$basic_string@DU?$char_traits@D@std@@V?$allocator@D@2@@std@@@2@@std@@QAE@XZ 00401f10 f i AlertBaseObj.obj
 0001:00000f20       ??1_Node@?$_Tree_nod@V?$_Tmap_traits@V?$basic_string@DU?$char_traits@D@std@@V?$allocator@D@2@@std@@KU?$less@V?$basic_string@DU?$char_traits@D@std@@V?$allocator@D@2@@std@@@2@V?$allocator@U?$pair@$$CBV?$basic_string@DU?$char_traits@D@std@@V?$allocator@D@2@@std@@K@std@@@2@$0A@@std@@@std@@QAE@XZ 00401f20 f i AlertSendObj.obj
 0001:00000f20       ??1_Node@?$_Tree_nod@V?$_Tmap_traits@V?$basic_string@DU?$char_traits@D@std@@V?$allocator@D@2@@std@@HU?$less@V?$basic_string@DU?$char_traits@D@std@@V?$allocator@D@2@@std@@@2@V?$allocator@U?$pair@$$CBV?$basic_string@DU?$char_traits@D@std@@V?$allocator@D@2@@std@@H@std@@@2@$0A@@std@@@std@@QAE@XZ 00401f20 f i AlertBaseObj.obj
 0001:00000f30       ?GetDebugInfo@CAlertBaseObj@@UAE?AV?$basic_string@DU?$char_traits@D@std@@V?$allocator@D@2@@std@@XZ 00401f30 f   AlertBaseObj.obj
 0001:00001400       ?MakeSendObj@CAlertEmailObj@@UAEPAVCAlertSendObj@@PAVCAlertEventObj@@@Z 00402400 f   AlertBaseObj.obj
 0001:00001540       ?GetDebugInfo@CAlertScriptObj@@UAE?AV?$basic_string@DU?$char_traits@D@std@@V?$allocator@D@2@@std@@XZ 00402540 f   AlertBaseObj.obj
 0001:00001540       ?GetDebugInfo@CAlertPythonObj@@UAE?AV?$basic_string@DU?$char_traits@D@std@@V?$allocator@D@2@@std@@XZ 00402540 f   AlertBaseObj.obj
 0001:00001540       ?GetDebugInfo@CAlertSmsObj@@UAE?AV?$basic_string@DU?$char_traits@D@std@@V?$allocator@D@2@@std@@XZ 00402540 f   AlertBaseObj.obj
 0001:00001540       ?GetDebugInfo@CAlertEmailObj@@UAE?AV?$basic_string@DU?$char_traits@D@std@@V?$allocator@D@2@@std@@XZ 00402540 f   AlertBaseObj.obj
 0001:00001540       ?GetDebugInfo@CAlertSoundObj@@UAE?AV?$basic_string@DU?$char_traits@D@std@@V?$allocator@D@2@@std@@XZ 00402540 f   AlertBaseObj.obj
 0001:00001560       ??0sentry@?$basic_istream@DU?$char_traits@D@std@@@std@@QAE@AAV12@_N@Z 00402560 f i AlertBaseObj.obj
 0001:000015d0       ??0sentry@?$basic_ostream@DU?$char_traits@D@std@@@std@@QAE@AAV12@@Z 004025d0 f i AlertBaseObj.obj
 0001:00001660       ??1sentry@?$basic_ostream@DU?$char_traits@D@std@@@std@@QAE@XZ 00402660 f i AlertBaseObj.obj
 0001:000016d0       ?_Lbound@?$_Tree@V?$_Tmap_traits@V?$basic_string@DU?$char_traits@D@std@@V?$allocator@D@2@@std@@HU?$less@V?$basic_string@DU?$char_traits@D@std@@V?$allocator@D@2@@std@@@2@V?$allocator@U?$pair@$$CBV?$basic_string@DU?$char_traits@D@std@@V?$allocator@D@2@@std@@H@std@@@2@$0A@@std@@@std@@IBEPAU_Node@?$_Tree_nod@V?$_Tmap_traits@V?$basic_string@DU?$char_traits@D@std@@V?$allocator@D@2@@std@@HU?$less@V?$basic_string@DU?$char_traits@D@std@@V?$allocator@D@2@@std@@@2@V?$allocator@U?$pair@$$CBV?$basic_string@DU?$char_traits@D@std@@V?$allocator@D@2@@std@@H@std@@@2@$0A@@std@@@2@ABV?$basic_string@DU?$char_traits@D@std@@V?$allocator@D@2@@2@@Z 004026d0 f i AlertBaseObj.obj
 0001:00001720       ?_Lrotate@?$_Tree@V?$_Tmap_traits@HV?$basic_string@DU?$char_traits@D@std@@V?$allocator@D@2@@std@@U?$less@H@2@V?$allocator@U?$pair@$$CBHV?$basic_string@DU?$char_traits@D@std@@V?$allocator@D@2@@std@@@std@@@2@$0A@@std@@@std@@IAEXPAU_Node@?$_Tree_nod@V?$_Tmap_traits@HV?$basic_string@DU?$char_traits@D@std@@V?$allocator@D@2@@std@@U?$less@H@2@V?$allocator@U?$pair@$$CBHV?$basic_string@DU?$char_traits@D@std@@V?$allocator@D@2@@std@@@std@@@2@$0A@@std@@@2@@Z 00402720 f i AlertSendObj.obj
 0001:00001720       ?_Lrotate@?$_Tree@V?$_Tmap_traits@V?$basic_string@DU?$char_traits@D@std@@V?$allocator@D@2@@std@@KU?$less@V?$basic_string@DU?$char_traits@D@std@@V?$allocator@D@2@@std@@@2@V?$allocator@U?$pair@$$CBV?$basic_string@DU?$char_traits@D@std@@V?$allocator@D@2@@std@@K@std@@@2@$0A@@std@@@std@@IAEXPAU_Node@?$_Tree_nod@V?$_Tmap_traits@V?$basic_string@DU?$char_traits@D@std@@V?$allocator@D@2@@std@@KU?$less@V?$basic_string@DU?$char_traits@D@std@@V?$allocator@D@2@@std@@@2@V?$allocator@U?$pair@$$CBV?$basic_string@DU?$char_traits@D@std@@V?$allocator@D@2@@std@@K@std@@@2@$0A@@std@@@2@@Z 00402720 f i AlertSendObj.obj
 0001:00001720       ?_Lrotate@?$_Tree@V?$_Tmap_traits@V?$basic_string@DU?$char_traits@D@std@@V?$allocator@D@2@@std@@HU?$less@V?$basic_string@DU?$char_traits@D@std@@V?$allocator@D@2@@std@@@2@V?$allocator@U?$pair@$$CBV?$basic_string@DU?$char_traits@D@std@@V?$allocator@D@2@@std@@H@std@@@2@$0A@@std@@@std@@IAEXPAU_Node@?$_Tree_nod@V?$_Tmap_traits@V?$basic_string@DU?$char_traits@D@std@@V?$allocator@D@2@@std@@HU?$less@V?$basic_string@DU?$char_traits@D@std@@V?$allocator@D@2@@std@@@2@V?$allocator@U?$pair@$$CBV?$basic_string@DU?$char_traits@D@std@@V?$allocator@D@2@@std@@H@std@@@2@$0A@@std@@@2@@Z 00402720 f i AlertBaseObj.obj
 0001:00001780       ??$getline@DU?$char_traits@D@std@@V?$allocator@D@2@@std@@YAAAV?$basic_istream@DU?$char_traits@D@std@@@0@AAV10@AAV?$basic_string@DU?$char_traits@D@std@@V?$allocator@D@2@@0@D@Z 00402780 f i AlertBaseObj.obj
 0001:000018f0       ??$?6DU?$char_traits@D@std@@V?$allocator@D@1@@std@@YAAAV?$basic_ostream@DU?$char_traits@D@std@@@0@AAV10@ABV?$basic_string@DU?$char_traits@D@std@@V?$allocator@D@2@@0@@Z 004028f0 f i AlertBaseObj.obj
 0001:00001af0       ?_Buynode@?$list@V?$basic_string@DU?$char_traits@D@std@@V?$allocator@D@2@@std@@V?$allocator@V?$basic_string@DU?$char_traits@D@std@@V?$allocator@D@2@@std@@@2@@std@@IAEPAU_Node@?$_List_nod@V?$basic_string@DU?$char_traits@D@std@@V?$allocator@D@2@@std@@V?$allocator@V?$basic_string@DU?$char_traits@D@std@@V?$allocator@D@2@@std@@@2@@2@XZ 00402af0 f i AlertBaseObj.obj
 0001:00001b10       ?_Buynode@?$list@V?$basic_string@DU?$char_traits@D@std@@V?$allocator@D@2@@std@@V?$allocator@V?$basic_string@DU?$char_traits@D@std@@V?$allocator@D@2@@std@@@2@@std@@IAEPAU_Node@?$_List_nod@V?$basic_string@DU?$char_traits@D@std@@V?$allocator@D@2@@std@@V?$allocator@V?$basic_string@DU?$char_traits@D@std@@V?$allocator@D@2@@std@@@2@@2@PAU342@0ABV?$basic_string@DU?$char_traits@D@std@@V?$allocator@D@2@@2@@Z 00402b10 f i AlertBaseObj.obj
 0001:00001ba0       ?_Incsize@?$list@V?$basic_string@DU?$char_traits@D@std@@V?$allocator@D@2@@std@@V?$allocator@V?$basic_string@DU?$char_traits@D@std@@V?$allocator@D@2@@std@@@2@@std@@IAEXI@Z 00402ba0 f i AlertBaseObj.obj
 0001:00001c40       ??0logic_error@std@@QAE@ABV01@@Z 00402c40 f i AlertBaseObj.obj
 0001:00001ca0       ??0length_error@std@@QAE@ABV01@@Z 00402ca0 f i AlertBaseObj.obj
 0001:00001cc0       ?_Buynode@?$_Tree@V?$_Tmap_traits@V?$basic_string@DU?$char_traits@D@std@@V?$allocator@D@2@@std@@KU?$less@V?$basic_string@DU?$char_traits@D@std@@V?$allocator@D@2@@std@@@2@V?$allocator@U?$pair@$$CBV?$basic_string@DU?$char_traits@D@std@@V?$allocator@D@2@@std@@K@std@@@2@$0A@@std@@@std@@IAEPAU_Node@?$_Tree_nod@V?$_Tmap_traits@V?$basic_string@DU?$char_traits@D@std@@V?$allocator@D@2@@std@@KU?$less@V?$basic_string@DU?$char_traits@D@std@@V?$allocator@D@2@@std@@@2@V?$allocator@U?$pair@$$CBV?$basic_string@DU?$char_traits@D@std@@V?$allocator@D@2@@std@@K@std@@@2@$0A@@std@@@2@XZ 00402cc0 f i AlertSendObj.obj
 0001:00001cc0       ?_Buynode@?$_Tree@V?$_Tmap_traits@V?$basic_string@DU?$char_traits@D@std@@V?$allocator@D@2@@std@@HU?$less@V?$basic_string@DU?$char_traits@D@std@@V?$allocator@D@2@@std@@@2@V?$allocator@U?$pair@$$CBV?$basic_string@DU?$char_traits@D@std@@V?$allocator@D@2@@std@@H@std@@@2@$0A@@std@@@std@@IAEPAU_Node@?$_Tree_nod@V?$_Tmap_traits@V?$basic_string@DU?$char_traits@D@std@@V?$allocator@D@2@@std@@HU?$less@V?$basic_string@DU?$char_traits@D@std@@V?$allocator@D@2@@std@@@2@V?$allocator@U?$pair@$$CBV?$basic_string@DU?$char_traits@D@std@@V?$allocator@D@2@@std@@H@std@@@2@$0A@@std@@@2@XZ 00402cc0 f i AlertBaseObj.obj
 0001:00001cc0       ?_Buynode@?$_Tree@V?$_Tmap_traits@HV?$basic_string@DU?$char_traits@D@std@@V?$allocator@D@2@@std@@U?$less@H@2@V?$allocator@U?$pair@$$CBHV?$basic_string@DU?$char_traits@D@std@@V?$allocator@D@2@@std@@@std@@@2@$0A@@std@@@std@@IAEPAU_Node@?$_Tree_nod@V?$_Tmap_traits@HV?$basic_string@DU?$char_traits@D@std@@V?$allocator@D@2@@std@@U?$less@H@2@V?$allocator@U?$pair@$$CBHV?$basic_string@DU?$char_traits@D@std@@V?$allocator@D@2@@std@@@std@@@2@$0A@@std@@@2@XZ 00402cc0 f i AlertSendObj.obj
 0001:00001d00       ?_Buynode@?$_Tree@V?$_Tmap_traits@V?$basic_string@DU?$char_traits@D@std@@V?$allocator@D@2@@std@@HU?$less@V?$basic_string@DU?$char_traits@D@std@@V?$allocator@D@2@@std@@@2@V?$allocator@U?$pair@$$CBV?$basic_string@DU?$char_traits@D@std@@V?$allocator@D@2@@std@@H@std@@@2@$0A@@std@@@std@@IAEPAU_Node@?$_Tree_nod@V?$_Tmap_traits@V?$basic_string@DU?$char_traits@D@std@@V?$allocator@D@2@@std@@HU?$less@V?$basic_string@DU?$char_traits@D@std@@V?$allocator@D@2@@std@@@2@V?$allocator@U?$pair@$$CBV?$basic_string@DU?$char_traits@D@std@@V?$allocator@D@2@@std@@H@std@@@2@$0A@@std@@@2@PAU342@00ABU?$pair@$$CBV?$basic_string@DU?$char_traits@D@std@@V?$allocator@D@2@@std@@H@2@D@Z 00402d00 f i AlertBaseObj.obj
 0001:00001da0       ?_Insert@?$_Tree@V?$_Tmap_traits@V?$basic_string@DU?$char_traits@D@std@@V?$allocator@D@2@@std@@HU?$less@V?$basic_string@DU?$char_traits@D@std@@V?$allocator@D@2@@std@@@2@V?$allocator@U?$pair@$$CBV?$basic_string@DU?$char_traits@D@std@@V?$allocator@D@2@@std@@H@std@@@2@$0A@@std@@@std@@IAE?AViterator@12@_NPAU_Node@?$_Tree_nod@V?$_Tmap_traits@V?$basic_string@DU?$char_traits@D@std@@V?$allocator@D@2@@std@@HU?$less@V?$basic_string@DU?$char_traits@D@std@@V?$allocator@D@2@@std@@@2@V?$allocator@U?$pair@$$CBV?$basic_string@DU?$char_traits@D@std@@V?$allocator@D@2@@std@@H@std@@@2@$0A@@std@@@2@ABU?$pair@$$CBV?$basic_string@DU?$char_traits@D@std@@V?$allocator@D@2@@std@@H@2@@Z 00402da0 f i AlertBaseObj.obj
 0001:00001f60       ?IsMatching@CAlertBaseObj@@UAE_NPAVCAlertEventObj@@@Z 00402f60 f   AlertBaseObj.obj
 0001:000024c0       ?IsMatching@CAlertEmailObj@@UAE_NPAVCAlertEventObj@@@Z 004034c0 f   AlertBaseObj.obj
 0001:000025f0       ?IsMatching@CAlertSmsObj@@UAE_NPAVCAlertEventObj@@@Z 004035f0 f   AlertBaseObj.obj
 0001:00002720       ?IsMatching@CAlertSoundObj@@UAE_NPAVCAlertEventObj@@@Z 00403720 f   AlertBaseObj.obj
 0001:00002720       ?IsMatching@CAlertScriptObj@@UAE_NPAVCAlertEventObj@@@Z 00403720 f   AlertBaseObj.obj
 0001:00002720       ?IsMatching@CAlertPythonObj@@UAE_NPAVCAlertEventObj@@@Z 00403720 f   AlertBaseObj.obj
 0001:00002830       ?push_back@?$list@V?$basic_string@DU?$char_traits@D@std@@V?$allocator@D@2@@std@@V?$allocator@V?$basic_string@DU?$char_traits@D@std@@V?$allocator@D@2@@std@@@2@@std@@QAEXABV?$basic_string@DU?$char_traits@D@std@@V?$allocator@D@2@@2@@Z 00403830 f i AlertBaseObj.obj
 0001:00002870       ?clear@?$list@V?$basic_string@DU?$char_traits@D@std@@V?$allocator@D@2@@std@@V?$allocator@V?$basic_string@DU?$char_traits@D@std@@V?$allocator@D@2@@std@@@2@@std@@QAEXXZ 00403870 f i AlertBaseObj.obj
 0001:000028b0       ?insert@?$_Tree@V?$_Tmap_traits@V?$basic_string@DU?$char_traits@D@std@@V?$allocator@D@2@@std@@HU?$less@V?$basic_string@DU?$char_traits@D@std@@V?$allocator@D@2@@std@@@2@V?$allocator@U?$pair@$$CBV?$basic_string@DU?$char_traits@D@std@@V?$allocator@D@2@@std@@H@std@@@2@$0A@@std@@@std@@QAE?AU?$pair@Viterator@?$_Tree@V?$_Tmap_traits@V?$basic_string@DU?$char_traits@D@std@@V?$allocator@D@2@@std@@HU?$less@V?$basic_string@DU?$char_traits@D@std@@V?$allocator@D@2@@std@@@2@V?$allocator@U?$pair@$$CBV?$basic_string@DU?$char_traits@D@std@@V?$allocator@D@2@@std@@H@std@@@2@$0A@@std@@@std@@_N@2@ABU?$pair@$$CBV?$basic_string@DU?$char_traits@D@std@@V?$allocator@D@2@@std@@H@2@@Z 004038b0 f i AlertBaseObj.obj
 0001:00002990       ?erase@?$_Tree@V?$_Tmap_traits@V?$basic_string@DU?$char_traits@D@std@@V?$allocator@D@2@@std@@HU?$less@V?$basic_string@DU?$char_traits@D@std@@V?$allocator@D@2@@std@@@2@V?$allocator@U?$pair@$$CBV?$basic_string@DU?$char_traits@D@std@@V?$allocator@D@2@@std@@H@std@@@2@$0A@@std@@@std@@QAE?AViterator@12@V312@@Z 00403990 f i AlertBaseObj.obj
 0001:00002c70       ??0out_of_range@std@@QAE@ABV01@@Z 00403c70 f i AlertBaseObj.obj
 0001:00002c90       ?_Erase@?$_Tree@V?$_Tmap_traits@V?$basic_string@DU?$char_traits@D@std@@V?$allocator@D@2@@std@@HU?$less@V?$basic_string@DU?$char_traits@D@std@@V?$allocator@D@2@@std@@@2@V?$allocator@U?$pair@$$CBV?$basic_string@DU?$char_traits@D@std@@V?$allocator@D@2@@std@@H@std@@@2@$0A@@std@@@std@@IAEXPAU_Node@?$_Tree_nod@V?$_Tmap_traits@V?$basic_string@DU?$char_traits@D@std@@V?$allocator@D@2@@std@@HU?$less@V?$basic_string@DU?$char_traits@D@std@@V?$allocator@D@2@@std@@@2@V?$allocator@U?$pair@$$CBV?$basic_string@DU?$char_traits@D@std@@V?$allocator@D@2@@std@@H@std@@@2@$0A@@std@@@2@@Z 00403c90 f i AlertBaseObj.obj
 0001:00002cd0       ?WriteAlertTargerById@CAlertBaseObj@@QAEXV?$basic_string@DU?$char_traits@D@std@@V?$allocator@D@2@@std@@@Z 00403cd0 f   AlertBaseObj.obj
 0001:00002e30       ?insert@?$_Tree@V?$_Tmap_traits@V?$basic_string@DU?$char_traits@D@std@@V?$allocator@D@2@@std@@HU?$less@V?$basic_string@DU?$char_traits@D@std@@V?$allocator@D@2@@std@@@2@V?$allocator@U?$pair@$$CBV?$basic_string@DU?$char_traits@D@std@@V?$allocator@D@2@@std@@H@std@@@2@$0A@@std@@@std@@QAE?AViterator@12@V312@ABU?$pair@$$CBV?$basic_string@DU?$char_traits@D@std@@V?$allocator@D@2@@std@@H@2@@Z 00403e30 f i AlertBaseObj.obj
 0001:00002ff0       ??1?$list@V?$basic_string@DU?$char_traits@D@std@@V?$allocator@D@2@@std@@V?$allocator@V?$basic_string@DU?$char_traits@D@std@@V?$allocator@D@2@@std@@@2@@std@@QAE@XZ 00403ff0 f i AlertBaseObj.obj
 0001:00003010       ??A?$map@V?$basic_string@DU?$char_traits@D@std@@V?$allocator@D@2@@std@@HU?$less@V?$basic_string@DU?$char_traits@D@std@@V?$allocator@D@2@@std@@@2@V?$allocator@U?$pair@$$CBV?$basic_string@DU?$char_traits@D@std@@V?$allocator@D@2@@std@@H@std@@@2@@std@@QAEAAHABV?$basic_string@DU?$char_traits@D@std@@V?$allocator@D@2@@1@@Z 00404010 f i AlertBaseObj.obj
 0001:000030b0       ?erase@?$_Tree@V?$_Tmap_traits@V?$basic_string@DU?$char_traits@D@std@@V?$allocator@D@2@@std@@HU?$less@V?$basic_string@DU?$char_traits@D@std@@V?$allocator@D@2@@std@@@2@V?$allocator@U?$pair@$$CBV?$basic_string@DU?$char_traits@D@std@@V?$allocator@D@2@@std@@H@std@@@2@$0A@@std@@@std@@QAE?AViterator@12@V312@0@Z 004040b0 f i AlertBaseObj.obj
 0001:00003170       ?AnalysisAlertTarget@CAlertBaseObj@@QAEXXZ 00404170 f   AlertBaseObj.obj
 0001:00003370       ??1?$map@V?$basic_string@DU?$char_traits@D@std@@V?$allocator@D@2@@std@@HU?$less@V?$basic_string@DU?$char_traits@D@std@@V?$allocator@D@2@@std@@@2@V?$allocator@U?$pair@$$CBV?$basic_string@DU?$char_traits@D@std@@V?$allocator@D@2@@std@@H@std@@@2@@std@@QAE@XZ 00404370 f i AlertBaseObj.obj
 0001:000033a0       ??1CAlertBaseObj@@QAE@XZ   004043a0 f i AlertBaseObj.obj
 0001:000034f0       ??0CAlertBaseObj@@QAE@XZ   004044f0 f   AlertBaseObj.obj
 0001:00003650       ??0CAlertEmailObj@@QAE@XZ  00404650 f   AlertBaseObj.obj
 0001:00003710       ??0CAlertSmsObj@@QAE@XZ    00404710 f   AlertBaseObj.obj
 0001:000037e0       ??0CAlertScriptObj@@QAE@XZ 004047e0 f   AlertBaseObj.obj
 0001:00003870       ??0CAlertSoundObj@@QAE@XZ  00404870 f   AlertBaseObj.obj
 0001:000038e0       ??0CAlertPythonObj@@QAE@XZ 004048e0 f   AlertBaseObj.obj
 0001:00003950       ??0CAlertEventObj@@QAE@XZ  00404950 f   AlertEventObj.obj
 0001:000039b0       ?GetCurrentTimeEx@TTime@svutil@@SA?AV12@XZ 004049b0 f i AlertMain.obj
 0001:000039e0       ??HTTime@svutil@@QBE?AV01@VTTimeSpan@1@@Z 004049e0 f i AlertMain.obj
 0001:00003a00       ?Format@TTime@svutil@@QBE?AV?$basic_string@DU?$char_traits@D@std@@V?$allocator@D@2@@std@@XZ 00404a00 f i AlertMain.obj
 0001:00003a90       ??1sv_dyn@@QAE@XZ          00404a90 f i AlertMain.obj
 0001:00003aa0       ?DebugePrint@@YAXV?$basic_string@DU?$char_traits@D@std@@V?$allocator@D@2@@std@@@Z 00404aa0 f   AlertMain.obj
 0001:00003b60       ?WriteLog@@YAHPBD@Z        00404b60 f   AlertMain.obj
 0001:00003b80       ??1otl_var_desc@@QAE@XZ    00404b80 f   AlertSendObj.obj
 0001:00003b80       ?WriteErr@@YAXPBD@Z        00404b80 f   AlertMain.obj
 0001:00003b80       ??3@YAXPAX0@Z              00404b80 f   AlertBaseObj.obj
 0001:00003b80       ?RefreshData@CAlertBaseObj@@UAEXXZ 00404b80 f   AlertBaseObj.obj
 0001:00003b80       ?AssertValid@CObject@@UBEXXZ 00404b80 f   MailMessage.obj
 0001:00003b90       ?urlEncoding@@YA?AV?$basic_string@DU?$char_traits@D@std@@V?$allocator@D@2@@std@@AAV12@@Z 00404b90 f   AlertMain.obj
 0001:00003d20       ?GetSourceHtml@@YAHPBDPAD@Z 00404d20 f   AlertMain.obj
 0001:00003e40       ??1CAlertEventObj@@QAE@XZ  00404e40 f i AlertMain.obj
 0001:00003ea0       ?GetIntFromAlertType@CAlertMain@@AAEHV?$basic_string@DU?$char_traits@D@std@@V?$allocator@D@2@@std@@@Z 00404ea0 f   AlertMain.obj
 0001:00003f70       ?InitSendApi@CAlertMain@@SA_NXZ 00404f70 f   AlertMain.obj
 0001:00003fc0       ?InitSoundAlertCom@CAlertMain@@SA_NXZ 00404fc0 f   AlertMain.obj
 0001:00004020       ?UnloadSoundAlertCom@CAlertMain@@SAXXZ 00405020 f   AlertMain.obj
 0001:00004040       ?InitScriptAlertCom@CAlertMain@@SA_NXZ 00405040 f   AlertMain.obj
 0001:000040a0       ?UnloadScriptAlertCom@CAlertMain@@SAXXZ 004050a0 f   AlertMain.obj
 0001:000040c0       ?ReplaceStdString@CAlertMain@@SA?AV?$basic_string@DU?$char_traits@D@std@@V?$allocator@D@2@@std@@V23@00@Z 004050c0 f   AlertMain.obj
 0001:000041c0       ?IsIdcGroup@CAlertMain@@SA_NPBD@Z 004051c0 f   AlertMain.obj
 0001:00004220       ??1_WATCH_LIST@@QAE@XZ     00405220 f i AlertMain.obj
 0001:00004290       ?GetMonitorPropValue@CAlertMain@@SA?AV?$basic_string@DU?$char_traits@D@std@@V?$allocator@D@2@@std@@V23@0@Z 00405290 f   AlertMain.obj
 0001:000043e0       ?GetMonitorParameterValue@CAlertMain@@SA?AV?$basic_string@DU?$char_traits@D@std@@V?$allocator@D@2@@std@@V23@0@Z 004053e0 f   AlertMain.obj
 0001:00004530       ?GetMonitorRecordDstr@CAlertMain@@SA?AV?$basic_string@DU?$char_traits@D@std@@V?$allocator@D@2@@std@@V23@@Z 00405530 f   AlertMain.obj
 0001:00004770       ?GetMonitorRecordState@CAlertMain@@SA?AV?$basic_string@DU?$char_traits@D@std@@V?$allocator@D@2@@std@@V23@@Z 00405770 f   AlertMain.obj
 0001:000049a0       ?InitSerialPort@CAlertMain@@SA_NXZ 004059a0 f   AlertMain.obj
 0001:00004b90       ?SendSmsFromComm@CAlertMain@@SAHV?$CStringT@DV?$StrTraitMFC_DLL@DV?$ChTraitsCRT@D@ATL@@@@@ATL@@0H@Z 00405b90 f   AlertMain.obj
 0001:00004cc0       ?TestSmsFromComm@CAlertMain@@SAHV?$CStringT@DV?$StrTraitMFC_DLL@DV?$ChTraitsCRT@D@ATL@@@@@ATL@@0@Z 00405cc0 f   AlertMain.obj
 0001:00005100       ??1ReceiveThread@@UAE@XZ   00406100 f   AlertMain.obj
 0001:00005110       ??1ProcessThread@@UAE@XZ   00406110 f   AlertMain.obj
 0001:00005120       ??1SendEmailAlertThread@@UAE@XZ 00406120 f   AlertMain.obj
 0001:00005130       ??1SendSmsAlertThread@@UAE@XZ 00406130 f   AlertMain.obj
 0001:00005140       ??1SendScriptAlertThread@@UAE@XZ 00406140 f   AlertMain.obj
 0001:00005150       ??1SendSoundAlertThread@@UAE@XZ 00406150 f   AlertMain.obj
 0001:00005160       ??0_WATCH_LIST@@QAE@ABU0@@Z 00406160 f i AlertMain.obj
 0001:00005240       ?_Lrotate@?$_Tree@V?$_Tmap_traits@V?$basic_string@DU?$char_traits@D@std@@V?$allocator@D@2@@std@@V12@U?$less@V?$basic_string@DU?$char_traits@D@std@@V?$allocator@D@2@@std@@@2@V?$allocator@U?$pair@$$CBV?$basic_string@DU?$char_traits@D@std@@V?$allocator@D@2@@std@@V12@@std@@@2@$0A@@std@@@std@@IAEXPAU_Node@?$_Tree_nod@V?$_Tmap_traits@V?$basic_string@DU?$char_traits@D@std@@V?$allocator@D@2@@std@@V12@U?$less@V?$basic_string@DU?$char_traits@D@std@@V?$allocator@D@2@@std@@@2@V?$allocator@U?$pair@$$CBV?$basic_string@DU?$char_traits@D@std@@V?$allocator@D@2@@std@@V12@@std@@@2@$0A@@std@@@2@@Z 00406240 f i AlertMain.obj
 0001:000052a0       ?_Max@?$_Tree@V?$_Tmap_traits@V?$basic_string@DU?$char_traits@D@std@@V?$allocator@D@2@@std@@V12@U?$less@V?$basic_string@DU?$char_traits@D@std@@V?$allocator@D@2@@std@@@2@V?$allocator@U?$pair@$$CBV?$basic_string@DU?$char_traits@D@std@@V?$allocator@D@2@@std@@V12@@std@@@2@$0A@@std@@@std@@KAPAU_Node@?$_Tree_nod@V?$_Tmap_traits@V?$basic_string@DU?$char_traits@D@std@@V?$allocator@D@2@@std@@V12@U?$less@V?$basic_string@DU?$char_traits@D@std@@V?$allocator@D@2@@std@@@2@V?$allocator@U?$pair@$$CBV?$basic_string@DU?$char_traits@D@std@@V?$allocator@D@2@@std@@V12@@std@@@2@$0A@@std@@@2@PAU342@@Z 004062a0 f i AlertMain.obj
 0001:000052c0       ?_Min@?$_Tree@V?$_Tmap_traits@V?$basic_string@DU?$char_traits@D@std@@V?$allocator@D@2@@std@@V12@U?$less@V?$basic_string@DU?$char_traits@D@std@@V?$allocator@D@2@@std@@@2@V?$allocator@U?$pair@$$CBV?$basic_string@DU?$char_traits@D@std@@V?$allocator@D@2@@std@@V12@@std@@@2@$0A@@std@@@std@@KAPAU_Node@?$_Tree_nod@V?$_Tmap_traits@V?$basic_string@DU?$char_traits@D@std@@V?$allocator@D@2@@std@@V12@U?$less@V?$basic_string@DU?$char_traits@D@std@@V?$allocator@D@2@@std@@@2@V?$allocator@U?$pair@$$CBV?$basic_string@DU?$char_traits@D@std@@V?$allocator@D@2@@std@@V12@@std@@@2@$0A@@std@@@2@PAU342@@Z 004062c0 f i AlertMain.obj
 0001:000052e0       ?_Rrotate@?$_Tree@V?$_Tmap_traits@V?$basic_string@DU?$char_traits@D@std@@V?$allocator@D@2@@std@@V12@U?$less@V?$basic_string@DU?$char_traits@D@std@@V?$allocator@D@2@@std@@@2@V?$allocator@U?$pair@$$CBV?$basic_string@DU?$char_traits@D@std@@V?$allocator@D@2@@std@@V12@@std@@@2@$0A@@std@@@std@@IAEXPAU_Node@?$_Tree_nod@V?$_Tmap_traits@V?$basic_string@DU?$char_traits@D@std@@V?$allocator@D@2@@std@@V12@U?$less@V?$basic_string@DU?$char_traits@D@std@@V?$allocator@D@2@@std@@@2@V?$allocator@U?$pair@$$CBV?$basic_string@DU?$char_traits@D@std@@V?$allocator@D@2@@std@@V12@@std@@@2@$0A@@std@@@2@@Z 004062e0 f i AlertMain.obj
 0001:00005340       ?_Inc@const_iterator@?$_Tree@V?$_Tmap_traits@V?$basic_string@DU?$char_traits@D@std@@V?$allocator@D@2@@std@@V12@U?$less@V?$basic_string@DU?$char_traits@D@std@@V?$allocator@D@2@@std@@@2@V?$allocator@U?$pair@$$CBV?$basic_string@DU?$char_traits@D@std@@V?$allocator@D@2@@std@@V12@@std@@@2@$0A@@std@@@std@@QAEXXZ 00406340 f i AlertMain.obj
 0001:000053a0       ??1_Node@?$_List_nod@U_WATCH_LIST@@V?$allocator@U_WATCH_LIST@@@std@@@std@@QAE@XZ 004063a0 f i AlertMain.obj
 0001:000053b0       ??1_Node@?$_List_nod@Usv_pair@@V?$allocator@Usv_pair@@@std@@@std@@QAE@XZ 004063b0 f i AlertMain.obj
 0001:000053c0       ??1?$pair@$$CBV?$basic_string@DU?$char_traits@D@std@@V?$allocator@D@2@@std@@V12@@std@@QAE@XZ 004063c0 f i AlertMain.obj
 0001:000053c0       ??1sv_pair@@QAE@XZ         004063c0 f i AlertMain.obj
 0001:00005410       ?GetDebugInfo@CAlertEventObj@@QAE?AV?$basic_string@DU?$char_traits@D@std@@V?$allocator@D@2@@std@@XZ 00406410 f i AlertMain.obj
 0001:00005780       ?GetMonitorTitle@CAlertMain@@SA?AV?$basic_string@DU?$char_traits@D@std@@V?$allocator@D@2@@std@@V23@@Z 00406780 f   AlertMain.obj
 0001:00005c10       ?GetDeviceTitle@CAlertMain@@SA?AV?$basic_string@DU?$char_traits@D@std@@V?$allocator@D@2@@std@@V23@@Z 00406c10 f   AlertMain.obj
 0001:00005d90       ?GetAllGroupTitle@CAlertMain@@SA?AV?$basic_string@DU?$char_traits@D@std@@V?$allocator@D@2@@std@@V23@@Z 00406d90 f   AlertMain.obj
 0001:000060c0       ??_EReceiveThread@@UAEPAXI@Z 004070c0 f i AlertMain.obj
 0001:000060c0       ??_GReceiveThread@@UAEPAXI@Z 004070c0 f i AlertMain.obj
 0001:000060e0       ??_GProcessThread@@UAEPAXI@Z 004070e0 f i AlertMain.obj
 0001:000060e0       ??_EProcessThread@@UAEPAXI@Z 004070e0 f i AlertMain.obj
 0001:00006100       ??_ESendEmailAlertThread@@UAEPAXI@Z 00407100 f i AlertMain.obj
 0001:00006100       ??_GSendEmailAlertThread@@UAEPAXI@Z 00407100 f i AlertMain.obj
 0001:00006120       ??_GSendSmsAlertThread@@UAEPAXI@Z 00407120 f i AlertMain.obj
 0001:00006120       ??_ESendSmsAlertThread@@UAEPAXI@Z 00407120 f i AlertMain.obj
 0001:00006140       ??_GSendScriptAlertThread@@UAEPAXI@Z 00407140 f i AlertMain.obj
 0001:00006140       ??_ESendScriptAlertThread@@UAEPAXI@Z 00407140 f i AlertMain.obj
 0001:00006160       ??_GSendSoundAlertThread@@UAEPAXI@Z 00407160 f i AlertMain.obj
 0001:00006160       ??_ESendSoundAlertThread@@UAEPAXI@Z 00407160 f i AlertMain.obj
 0001:00006180       ??1_Node@?$_Tree_nod@V?$_Tmap_traits@V?$basic_string@DU?$char_traits@D@std@@V?$allocator@D@2@@std@@V12@U?$less@V?$basic_string@DU?$char_traits@D@std@@V?$allocator@D@2@@std@@@2@V?$allocator@U?$pair@$$CBV?$basic_string@DU?$char_traits@D@std@@V?$allocator@D@2@@std@@V12@@std@@@2@$0A@@std@@@std@@QAE@XZ 00407180 f i AlertMain.obj
 0001:00006190       ?_Buynode@?$list@PAVCAlertEventObj@@V?$allocator@PAVCAlertEventObj@@@std@@@std@@IAEPAU_Node@?$_List_nod@PAVCAlertEventObj@@V?$allocator@PAVCAlertEventObj@@@std@@@2@XZ 00407190 f i AlertMain.obj
 0001:00006190       ?_Buynode@?$list@PAVCAlertBaseObj@@V?$allocator@PAVCAlertBaseObj@@@std@@@std@@IAEPAU_Node@?$_List_nod@PAVCAlertBaseObj@@V?$allocator@PAVCAlertBaseObj@@@std@@@2@XZ 00407190 f i AlertMain.obj
 0001:00006190       ?_Buynode@?$list@PAVCAlertSendObj@@V?$allocator@PAVCAlertSendObj@@@std@@@std@@IAEPAU_Node@?$_List_nod@PAVCAlertSendObj@@V?$allocator@PAVCAlertSendObj@@@std@@@2@XZ 00407190 f i AlertMain.obj
 0001:00006190       ?_Buynode@?$list@PAVThread@ost@@V?$allocator@PAVThread@ost@@@std@@@std@@IAEPAU_Node@?$_List_nod@PAVThread@ost@@V?$allocator@PAVThread@ost@@@std@@@2@XZ 00407190 f i AlertMain.obj
 0001:000061b0       ?_Buynode@?$list@U_WATCH_LIST@@V?$allocator@U_WATCH_LIST@@@std@@@std@@IAEPAU_Node@?$_List_nod@U_WATCH_LIST@@V?$allocator@U_WATCH_LIST@@@std@@@2@XZ 004071b0 f i AlertMain.obj
 0001:000061d0       ?_Buynode@?$list@Usv_pair@@V?$allocator@Usv_pair@@@std@@@std@@IAEPAU_Node@?$_List_nod@Usv_pair@@V?$allocator@Usv_pair@@@std@@@2@XZ 004071d0 f i AlertMain.obj
 0001:000061d0       ?_Buynode@?$list@USMSInfo@@V?$allocator@USMSInfo@@@std@@@std@@IAEPAU_Node@?$_List_nod@USMSInfo@@V?$allocator@USMSInfo@@@std@@@2@XZ 004071d0 f i AlertSendObj.obj
 0001:000061f0       ?clear@?$list@PAVThread@ost@@V?$allocator@PAVThread@ost@@@std@@@std@@QAEXXZ 004071f0 f i AlertMain.obj
 0001:000061f0       ?clear@?$list@PAVCAlertEventObj@@V?$allocator@PAVCAlertEventObj@@@std@@@std@@QAEXXZ 004071f0 f i AlertMain.obj
 0001:000061f0       ?clear@?$list@PAVCAlertSendObj@@V?$allocator@PAVCAlertSendObj@@@std@@@std@@QAEXXZ 004071f0 f i AlertMain.obj
 0001:000061f0       ?clear@?$list@PAVCAlertBaseObj@@V?$allocator@PAVCAlertBaseObj@@@std@@@std@@QAEXXZ 004071f0 f i AlertMain.obj
 0001:00006230       ?_Incsize@?$list@PAVCAlertSendObj@@V?$allocator@PAVCAlertSendObj@@@std@@@std@@IAEXI@Z 00407230 f i AlertMain.obj
 0001:00006230       ?_Incsize@?$list@PAVCAlertEventObj@@V?$allocator@PAVCAlertEventObj@@@std@@@std@@IAEXI@Z 00407230 f i AlertMain.obj
 0001:00006230       ?_Incsize@?$list@PAVCAlertBaseObj@@V?$allocator@PAVCAlertBaseObj@@@std@@@std@@IAEXI@Z 00407230 f i AlertMain.obj
 0001:000062d0       ?_Buynode@?$list@PAVCAlertEventObj@@V?$allocator@PAVCAlertEventObj@@@std@@@std@@IAEPAU_Node@?$_List_nod@PAVCAlertEventObj@@V?$allocator@PAVCAlertEventObj@@@std@@@2@PAU342@0ABQAVCAlertEventObj@@@Z 004072d0 f i AlertMain.obj
 0001:000062d0       ?_Buynode@?$list@PAVCAlertBaseObj@@V?$allocator@PAVCAlertBaseObj@@@std@@@std@@IAEPAU_Node@?$_List_nod@PAVCAlertBaseObj@@V?$allocator@PAVCAlertBaseObj@@@std@@@2@PAU342@0ABQAVCAlertBaseObj@@@Z 004072d0 f i AlertMain.obj
 0001:000062d0       ?_Buynode@?$list@PAVCAlertSendObj@@V?$allocator@PAVCAlertSendObj@@@std@@@std@@IAEPAU_Node@?$_List_nod@PAVCAlertSendObj@@V?$allocator@PAVCAlertSendObj@@@std@@@2@PAU342@0ABQAVCAlertSendObj@@@Z 004072d0 f i AlertMain.obj
 0001:00006300       ?_Buynode@?$list@U_WATCH_LIST@@V?$allocator@U_WATCH_LIST@@@std@@@std@@IAEPAU_Node@?$_List_nod@U_WATCH_LIST@@V?$allocator@U_WATCH_LIST@@@std@@@2@PAU342@0ABU_WATCH_LIST@@@Z 00407300 f i AlertMain.obj
 0001:00006390       ?_Incsize@?$list@U_WATCH_LIST@@V?$allocator@U_WATCH_LIST@@@std@@@std@@IAEXI@Z 00407390 f i AlertMain.obj
 0001:00006430       ?_Buynode@?$_Tree@V?$_Tmap_traits@V?$basic_string@DU?$char_traits@D@std@@V?$allocator@D@2@@std@@V12@U?$less@V?$basic_string@DU?$char_traits@D@std@@V?$allocator@D@2@@std@@@2@V?$allocator@U?$pair@$$CBV?$basic_string@DU?$char_traits@D@std@@V?$allocator@D@2@@std@@V12@@std@@@2@$0A@@std@@@std@@IAEPAU_Node@?$_Tree_nod@V?$_Tmap_traits@V?$basic_string@DU?$char_traits@D@std@@V?$allocator@D@2@@std@@V12@U?$less@V?$basic_string@DU?$char_traits@D@std@@V?$allocator@D@2@@std@@@2@V?$allocator@U?$pair@$$CBV?$basic_string@DU?$char_traits@D@std@@V?$allocator@D@2@@std@@V12@@std@@@2@$0A@@std@@@2@XZ 00407430 f i AlertMain.obj
 0001:00006470       ?erase@?$list@PAVCAlertSendObj@@V?$allocator@PAVCAlertSendObj@@@std@@@std@@QAE?AViterator@12@V312@0@Z 00407470 f i AlertMain.obj
 0001:000064e0       ?DoSendEmailAlert@CAlertMain@@QAEXXZ 004074e0 f   AlertMain.obj
 0001:000067c0       ?DoSendSmsAlert@CAlertMain@@QAEXXZ 004077c0 f   AlertMain.obj
 0001:00006a20       ?DoSendScriptAlert@CAlertMain@@QAEXXZ 00407a20 f   AlertMain.obj
 0001:00006c80       ?DoSendSoundAlert@CAlertMain@@QAEXXZ 00407c80 f   AlertMain.obj
 0001:00006ee0       ?DeleteAlertObjFromSection@CAlertMain@@AAEXV?$basic_string@DU?$char_traits@D@std@@V?$allocator@D@2@@std@@@Z 00407ee0 f   AlertMain.obj
 0001:00006fb0       ?DeleteAlertObjFromSection@CAlertMain@@AAEXV?$basic_string@DU?$char_traits@D@std@@V?$allocator@D@2@@std@@0@Z 00407fb0 f   AlertMain.obj
 0001:000070b0       ?GetFileLastLine@CAlertMain@@SA?AV?$basic_string@DU?$char_traits@D@std@@V?$allocator@D@2@@std@@V23@0@Z 004080b0 f   AlertMain.obj
 0001:00007270       ?run@SendEmailAlertThread@@UAEXXZ 00408270 f   AlertMain.obj
 0001:00007280       ?run@SendSmsAlertThread@@UAEXXZ 00408280 f   AlertMain.obj
 0001:000072a0       ?run@SendScriptAlertThread@@UAEXXZ 004082a0 f   AlertMain.obj
 0001:000072e0       ?run@SendSoundAlertThread@@UAEXXZ 004082e0 f   AlertMain.obj
 0001:00007320       ??1?$list@PAVCAlertEventObj@@V?$allocator@PAVCAlertEventObj@@@std@@@std@@QAE@XZ 00408320 f i AlertMain.obj
 0001:00007320       ??1?$list@PAVCAlertBaseObj@@V?$allocator@PAVCAlertBaseObj@@@std@@@std@@QAE@XZ 00408320 f i AlertMain.obj
 0001:00007320       ??1?$list@PAVThread@ost@@V?$allocator@PAVThread@ost@@@std@@@std@@QAE@XZ 00408320 f i AlertMain.obj
 0001:00007320       ??1?$list@PAVCAlertSendObj@@V?$allocator@PAVCAlertSendObj@@@std@@@std@@QAE@XZ 00408320 f i AlertMain.obj
 0001:00007340       ?push_back@?$list@PAVCAlertSendObj@@V?$allocator@PAVCAlertSendObj@@@std@@@std@@QAEXABQAVCAlertSendObj@@@Z 00408340 f i AlertMain.obj
 0001:00007340       ?push_back@?$list@PAVCAlertEventObj@@V?$allocator@PAVCAlertEventObj@@@std@@@std@@QAEXABQAVCAlertEventObj@@@Z 00408340 f i AlertMain.obj
 0001:00007380       ?clear@?$list@U_WATCH_LIST@@V?$allocator@U_WATCH_LIST@@@std@@@std@@QAEXXZ 00408380 f i AlertMain.obj
 0001:000073c0       ?clear@?$list@Usv_pair@@V?$allocator@Usv_pair@@@std@@@std@@QAEXXZ 004083c0 f i AlertMain.obj
 0001:00007400       ?DoProcess@CAlertMain@@QAEXXZ 00408400 f   AlertMain.obj
 0001:000076b0       ?ReadAlertObjFromIni@CAlertMain@@AAEXV?$basic_string@DU?$char_traits@D@std@@V?$allocator@D@2@@std@@@Z 004086b0 f   AlertMain.obj
 0001:0000a530       ?ReadAlertObjFromIni@CAlertMain@@AAEXV?$basic_string@DU?$char_traits@D@std@@V?$allocator@D@2@@std@@0@Z 0040b530 f   AlertMain.obj
 0001:0000d010       ?ParserToken@CAlertMain@@SA_NAAV?$list@V?$basic_string@DU?$char_traits@D@std@@V?$allocator@D@2@@std@@V?$allocator@V?$basic_string@DU?$char_traits@D@std@@V?$allocator@D@2@@std@@@2@@std@@PBDPAD@Z 0040e010 f   AlertMain.obj
 0001:0000d140       ?DeleteCfgFromWatchIniSection@CAlertMain@@SAXV?$basic_string@DU?$char_traits@D@std@@V?$allocator@D@2@@std@@@Z 0040e140 f   AlertMain.obj
 0001:0000d200       ?run@ProcessThread@@UAEXXZ 0040e200 f   AlertMain.obj
 0001:0000d210       ?pop_front@?$list@V?$basic_string@DU?$char_traits@D@std@@V?$allocator@D@2@@std@@V?$allocator@V?$basic_string@DU?$char_traits@D@std@@V?$allocator@D@2@@std@@@2@@std@@QAEXXZ 0040e210 f i AlertMain.obj
 0001:0000d250       ?erase@?$_Tree@V?$_Tmap_traits@V?$basic_string@DU?$char_traits@D@std@@V?$allocator@D@2@@std@@V12@U?$less@V?$basic_string@DU?$char_traits@D@std@@V?$allocator@D@2@@std@@@2@V?$allocator@U?$pair@$$CBV?$basic_string@DU?$char_traits@D@std@@V?$allocator@D@2@@std@@V12@@std@@@2@$0A@@std@@@std@@QAE?AViterator@12@V312@@Z 0040e250 f i AlertMain.obj
 0001:0000d550       ?_Erase@?$_Tree@V?$_Tmap_traits@V?$basic_string@DU?$char_traits@D@std@@V?$allocator@D@2@@std@@V12@U?$less@V?$basic_string@DU?$char_traits@D@std@@V?$allocator@D@2@@std@@@2@V?$allocator@U?$pair@$$CBV?$basic_string@DU?$char_traits@D@std@@V?$allocator@D@2@@std@@V12@@std@@@2@$0A@@std@@@std@@IAEXPAU_Node@?$_Tree_nod@V?$_Tmap_traits@V?$basic_string@DU?$char_traits@D@std@@V?$allocator@D@2@@std@@V12@U?$less@V?$basic_string@DU?$char_traits@D@std@@V?$allocator@D@2@@std@@@2@V?$allocator@U?$pair@$$CBV?$basic_string@DU?$char_traits@D@std@@V?$allocator@D@2@@std@@V12@@std@@@2@$0A@@std@@@2@@Z 0040e550 f i AlertMain.obj
 0001:0000d590       ?WebSmsTest@@YA_NV?$basic_string@DU?$char_traits@D@std@@V?$allocator@D@2@@std@@0@Z 0040e590 f   AlertMain.obj
 0001:0000e070       ?IsScheduleMatch@CAlertMain@@SA_NV?$basic_string@DU?$char_traits@D@std@@V?$allocator@D@2@@std@@@Z 0040f070 f   AlertMain.obj
 0001:0000e970       ?ReadCfgFromWatchIniSection@CAlertMain@@SAXV?$basic_string@DU?$char_traits@D@std@@V?$allocator@D@2@@std@@@Z 0040f970 f   AlertMain.obj
 0001:0000f500       ?GetCfgFromWatchList@CAlertMain@@SA?AV?$basic_string@DU?$char_traits@D@std@@V?$allocator@D@2@@std@@V23@_N@Z 00410500 f   AlertMain.obj
 0001:0000fa80       ??1?$list@Usv_pair@@V?$allocator@Usv_pair@@@std@@@std@@QAE@XZ 00410a80 f i AlertMain.obj
 0001:0000faa0       ?DoReceive@CAlertMain@@QAEXXZ 00410aa0 f   AlertMain.obj
 0001:00010f70       ?InitAlertObjList@CAlertMain@@AAEXXZ 00411f70 f   AlertMain.obj
 0001:00011410       ?run@ReceiveThread@@UAEXXZ 00412410 f   AlertMain.obj
 0001:00011420       ?erase@?$_Tree@V?$_Tmap_traits@V?$basic_string@DU?$char_traits@D@std@@V?$allocator@D@2@@std@@V12@U?$less@V?$basic_string@DU?$char_traits@D@std@@V?$allocator@D@2@@std@@@2@V?$allocator@U?$pair@$$CBV?$basic_string@DU?$char_traits@D@std@@V?$allocator@D@2@@std@@V12@@std@@@2@$0A@@std@@@std@@QAE?AViterator@12@V312@0@Z 00412420 f i AlertMain.obj
 0001:000114e0       ?Init@CAlertMain@@QAE_NXZ  004124e0 f   AlertMain.obj
 0001:00012240       ??_GMutex@ost@@UAEPAXI@Z   00413240 f i AlertMain.obj
 0001:00012240       ??_EMutex@ost@@UAEPAXI@Z   00413240 f i AlertMain.obj
 0001:00012260       ??1?$map@V?$basic_string@DU?$char_traits@D@std@@V?$allocator@D@2@@std@@V12@U?$less@V?$basic_string@DU?$char_traits@D@std@@V?$allocator@D@2@@std@@@2@V?$allocator@U?$pair@$$CBV?$basic_string@DU?$char_traits@D@std@@V?$allocator@D@2@@std@@V12@@std@@@2@@std@@QAE@XZ 00413260 f i AlertMain.obj
 0001:00012290       ??1CAlertMain@@QAE@XZ      00413290 f   AlertMain.obj
 0001:00012520       ??0CAlertMain@@QAE@XZ      00413520 f   AlertMain.obj
 0001:000126d0       ??1otl_select_struct_override@@QAE@XZ 004136d0 f i AlertSendObj.obj
 0001:00012700       ?add_override@otl_select_struct_override@@QAEXHHH@Z 00413700 f i AlertSendObj.obj
 0001:000127f0       ??0otl_column_desc@@QAE@XZ 004137f0 f i AlertSendObj.obj
 0001:00012810       ??1otl_column_desc@@QAE@XZ 00413810 f i AlertSendObj.obj
 0001:00012820       ??4otl_column_desc@@QAEAAV0@ABV0@@Z 00413820 f i AlertSendObj.obj
 0001:000128d0       ?set_name@otl_column_desc@@QAEXPBDH@Z 004138d0 f i AlertSendObj.obj
 0001:00012940       ??0otl_var_desc@@QAE@XZ    00413940 f i AlertSendObj.obj
 0001:00012960       ??1otl_long_string@@UAE@XZ 00413960 f i AlertSendObj.obj
 0001:00012980       ?null_terminate_string@otl_long_string@@UAEXH@Z 00413980 f i AlertSendObj.obj
 0001:00012990       ??_Eotl_long_string@@UAEPAXI@Z 00413990 f i AlertSendObj.obj
 0001:00012990       ??_Gotl_long_string@@UAEPAXI@Z 00413990 f i AlertSendObj.obj
 0001:000129d0       ?otl_var_type_name@@YAPBDH@Z 004139d0 f i AlertSendObj.obj
 0001:00012b40       ?otl_var_info_var@@YAXPBDHHPADI@Z 00413b40 f i AlertSendObj.obj
 0001:00012ca0       ?otl_itoa@@YAPADHPAD@Z     00413ca0 f i AlertSendObj.obj
 0001:00012d50       ?otl_var_info_col@@YAXHHHPADI@Z 00413d50 f i AlertSendObj.obj
 0001:00012eb0       ?otl_var_info_col3@@YAXHHPBDPADI@Z 00413eb0 f i AlertSendObj.obj
 0001:00013000       ??1otl_stream_shell_generic@@UAE@XZ 00414000 f i AlertSendObj.obj
 0001:00013010       ??_Gotl_stream_shell_generic@@UAEPAXI@Z 00414010 f i AlertSendObj.obj
 0001:00013010       ??_Eotl_stream_shell_generic@@UAEPAXI@Z 00414010 f i AlertSendObj.obj
 0001:00013030       ??_Eotl_exc@@UAEPAXI@Z     00414030 f i AlertSendObj.obj
 0001:00013030       ??_Gotl_exc@@UAEPAXI@Z     00414030 f i AlertSendObj.obj
 0001:00013050       ??1otl_conn@@UAE@XZ        00414050 f i AlertSendObj.obj
 0001:000130b0       ?rlogon@otl_conn@@QAEHPBDH@Z 004140b0 f i AlertSendObj.obj
 0001:00013540       ?error@otl_conn@@QAEXAAVotl_exc@@@Z 00414540 f i AlertSendObj.obj
 0001:000135a0       ?commit@otl_conn@@QAEHXZ   004145a0 f i AlertSendObj.obj
 0001:000135d0       ??_Eotl_conn@@UAEPAXI@Z    004145d0 f i AlertSendObj.obj
 0001:000135d0       ??_Gotl_conn@@UAEPAXI@Z    004145d0 f i AlertSendObj.obj
 0001:000135f0       ??_Gotl_cur0@@UAEPAXI@Z    004145f0 f i AlertSendObj.obj
 0001:000135f0       ??_Eotl_cur0@@UAEPAXI@Z    004145f0 f i AlertSendObj.obj
 0001:00013610       ?init@otl_var@@QAEXHAAHHPBXH@Z 00414610 f i AlertSendObj.obj
 0001:000136b0       ?set_len@otl_var@@QAEXHH@Z 004146b0 f i AlertSendObj.obj
 0001:00013750       ?int2ext@otl_var@@SAHH@Z   00414750 f i AlertSendObj.obj
 0001:00013890       ?datatype_size@otl_var@@SAHHHHH@Z 00414890 f i AlertSendObj.obj
 0001:000139c0       ?map_ftype@otl_var@@SAXAAVotl_column_desc@@HAAH1AAVotl_select_struct_override@@H@Z 004149c0 f i AlertSendObj.obj
 0001:00013c50       ??_Gotl_var@@UAEPAXI@Z     00414c50 f i AlertSendObj.obj
 0001:00013c50       ??_Eotl_var@@UAEPAXI@Z     00414c50 f i AlertSendObj.obj
 0001:00013c90       ??1otl_cur@@UAE@XZ         00414c90 f i AlertSendObj.obj
 0001:00013ca0       ?open@otl_cur@@QAEHAAVotl_conn@@@Z 00414ca0 f i AlertSendObj.obj
 0001:00013d30       ?close@otl_cur@@QAEHXZ     00414d30 f i AlertSendObj.obj
 0001:00013d60       ?parse@otl_cur@@QAEHPAD@Z  00414d60 f i AlertSendObj.obj
 0001:000143e0       ?exec@otl_cur@@QAEHHH@Z    004153e0 f i AlertSendObj.obj
 0001:000144b0       ?describe_column@otl_cur@@QAEHAAVotl_column_desc@@HAAH@Z 004154b0 f i AlertSendObj.obj
 0001:000145c0       ?error@otl_cur@@QAEXAAVotl_exc@@@Z 004155c0 f i AlertSendObj.obj
 0001:00014620       ??_Gotl_cur@@UAEPAXI@Z     00415620 f i AlertSendObj.obj
 0001:00014620       ??_Eotl_cur@@UAEPAXI@Z     00415620 f i AlertSendObj.obj
 0001:00014640       ??1otl_sel@@UAE@XZ         00415640 f i AlertSendObj.obj
 0001:00014650       ?first@otl_sel@@QAEHAAVotl_cur@@AAH111H@Z 00415650 f i AlertSendObj.obj
 0001:000147c0       ?next@otl_sel@@QAEHAAVotl_cur@@AAH111H@Z 004157c0 f i AlertSendObj.obj
 0001:000148d0       ??_Gotl_sel@@UAEPAXI@Z     004158d0 f i AlertSendObj.obj
 0001:000148d0       ??_Eotl_sel@@UAEPAXI@Z     004158d0 f i AlertSendObj.obj
 0001:000148f0       ?buildbuf@@YAPADV?$basic_string@DU?$char_traits@D@std@@V?$allocator@D@2@@std@@PADH@Z 004158f0 f   AlertSendObj.obj
 0001:00014990       ??0CAlertSendObj@@QAE@XZ   00415990 f   AlertSendObj.obj
 0001:00014a30       ??1CAlertSendObj@@UAE@XZ   00415a30 f   AlertSendObj.obj
 0001:00014ad0       ?SetUpgradeTrue@CAlertSendObj@@UAEXXZ 00415ad0 f   AlertSendObj.obj
 0001:00014ad0       ?SetUpgradeTrue@CAlertEmailSendObj@@UAEXXZ 00415ad0 f   AlertSendObj.obj
 0001:00014ad0       ?SetUpgradeTrue@CAlertSmsSendObj@@UAEXXZ 00415ad0 f   AlertSendObj.obj
 0001:00014ae0       ??0SendInfo@@QAE@XZ        00415ae0 f i AlertSendObj.obj
 0001:00014b40       ??1SendInfo@@QAE@XZ        00415b40 f i AlertSendObj.obj
 0001:00014ba0       ?ToChinese@CAlertEmailSendObj@@AAE_NAAV?$basic_string@DU?$char_traits@D@std@@V?$allocator@D@2@@std@@V23@@Z 00415ba0 f   AlertSendObj.obj
 0001:00014df0       ??0SMSInfo@@QAE@XZ         00415df0 f i AlertSendObj.obj
 0001:00014e40       ??1SMSInfo@@QAE@XZ         00415e40 f i AlertSendObj.obj
 0001:00014e90       ?SendSmsFromWeb@CAlertSmsSendObj@@QAE_NXZ 00415e90 f   AlertSendObj.obj
 0001:00015ab0       ?Run_DLL@CAlertSmsSendObj@@QAEHP6AHPAD00@Z000@Z 00416ab0 f   AlertSendObj.obj
 0001:00015b30       ??0CAlertScriptSendObj@@QAE@XZ 00416b30 f   AlertSendObj.obj
 0001:00015be0       ??1CAlertScriptSendObj@@UAE@XZ 00416be0 f   AlertSendObj.obj
 0001:00015c90       ?GetUserInfoFromServer@CAlertScriptSendObj@@QAEXXZ 00416c90 f   AlertSendObj.obj
 0001:00015f60       ?EidtQueryString@@YAXAAV?$basic_string@DU?$char_traits@D@std@@V?$allocator@D@2@@std@@PAD@Z 00416f60 f   AlertSendObj.obj
 0001:00015fb0       ??0CAlertSoundSendObj@@QAE@XZ 00416fb0 f   AlertSendObj.obj
 0001:00016030       ??1CAlertSoundSendObj@@UAE@XZ 00417030 f   AlertSendObj.obj
 0001:000160b0       ?DoMsgBeep@CAlertSoundSendObj@@QAE?AV?$CStringT@DV?$StrTraitMFC_DLL@DV?$ChTraitsCRT@D@ATL@@@@@ATL@@XZ 004170b0 f   AlertSendObj.obj
 0001:00016340       ??0CAlertPythonSendObj@@QAE@XZ 00417340 f   AlertSendObj.obj
 0001:000163c0       ??1CAlertPythonSendObj@@UAE@XZ 004173c0 f   AlertSendObj.obj
 0001:00016440       ??HATL@@YA?AV?$CStringT@DV?$StrTraitMFC_DLL@DV?$ChTraitsCRT@D@ATL@@@@@0@ABV10@PBD@Z 00417440 f i AlertSendObj.obj
 0001:000164e0       ??HATL@@YA?AV?$CStringT@DV?$StrTraitMFC_DLL@DV?$ChTraitsCRT@D@ATL@@@@@0@PBDABV10@@Z 004174e0 f i AlertSendObj.obj
 0001:00016580       ?bind@?$otl_tmpl_cursor@Votl_exc@@Votl_conn@@Votl_cur@@Votl_var@@@@UAEXAAV?$otl_tmpl_variable@Votl_var@@@@@Z 00417580 f i AlertSendObj.obj
 0001:000165c0       ??0?$otl_tmpl_exception@Votl_exc@@Votl_conn@@Votl_cur@@@@QAE@AAVotl_conn@@PBD@Z 004175c0 f i AlertSendObj.obj
 0001:00016620       ??0?$otl_tmpl_exception@Votl_exc@@Votl_conn@@Votl_cur@@@@QAE@AAVotl_cur@@PBD@Z 00417620 f i AlertSendObj.obj
 0001:00016680       ??0?$otl_tmpl_exception@Votl_exc@@Votl_conn@@Votl_cur@@@@QAE@PBDH00@Z 00417680 f i AlertSendObj.obj
 0001:00016720       ?clean@?$otl_tmpl_select_stream@Votl_exc@@Votl_conn@@Votl_cur@@Votl_var@@Votl_sel@@UtagTIMESTAMP_STRUCT@@@@QAEXXZ 00417720 f i AlertSendObj.obj
 0001:000167c0       ??0otl_exc@@QAE@ABV0@@Z    004177c0 f i AlertSendObj.obj
 0001:00016800       ??1?$otl_tmpl_exception@Votl_exc@@Votl_conn@@Votl_cur@@@@UAE@XZ 00417800 f i AlertSendObj.obj
 0001:00016810       ?destroy@?$otl_ptr@Votl_stream_shell@@@@QAEXXZ 00417810 f i AlertSendObj.obj
 0001:00016870       ??1?$otl_ptr@Votl_stream_shell@@@@QAE@XZ 00417870 f i AlertSendObj.obj
 0001:00016880       ?copy_var_desc@?$otl_tmpl_variable@Votl_var@@@@QAEXAAVotl_var_desc@@@Z 00417880 f i AlertSendObj.obj
 0001:000168f0       ??1?$otl_tmpl_variable@Votl_var@@@@UAE@XZ 004178f0 f i AlertSendObj.obj
 0001:00016920       ?size@?$vector@V?$basic_string@DU?$char_traits@D@std@@V?$allocator@D@2@@std@@V?$allocator@V?$basic_string@DU?$char_traits@D@std@@V?$allocator@D@2@@std@@@2@@std@@QBEIXZ 00417920 f i AlertSendObj.obj
 0001:00016950       ?commit@?$otl_tmpl_connect@Votl_exc@@Votl_conn@@Votl_cur@@@@QAEXXZ 00417950 f i AlertSendObj.obj
 0001:000169d0       ?parse@?$otl_tmpl_cursor@Votl_exc@@Votl_conn@@Votl_cur@@Votl_var@@@@QAEXXZ 004179d0 f i AlertSendObj.obj
 0001:00016ab0       ?parse@?$otl_tmpl_cursor@Votl_exc@@Votl_conn@@Votl_cur@@Votl_var@@@@QAEXPBD@Z 00417ab0 f i AlertSendObj.obj
 0001:00016b20       ?exec@?$otl_tmpl_cursor@Votl_exc@@Votl_conn@@Votl_cur@@Votl_var@@@@QAEXHH@Z 00417b20 f i AlertSendObj.obj
 0001:00016bb0       ?bind_all@?$otl_tmpl_select_stream@Votl_exc@@Votl_conn@@Votl_cur@@Votl_var@@Votl_sel@@UtagTIMESTAMP_STRUCT@@@@QAEXXZ 00417bb0 f i AlertSendObj.obj
 0001:00016c10       ?first@?$otl_tmpl_select_cursor@Votl_exc@@Votl_conn@@Votl_cur@@Votl_var@@Votl_sel@@@@QAEHXZ 00417c10 f i AlertSendObj.obj
 0001:00016cc0       ?cleanup@?$otl_tmpl_inout_stream@Votl_exc@@Votl_conn@@Votl_cur@@Votl_var@@UtagTIMESTAMP_STRUCT@@@@QAEXXZ 00417cc0 f i AlertSendObj.obj
 0001:00016d10       ?get_in_next@?$otl_tmpl_inout_stream@Votl_exc@@Votl_conn@@Votl_cur@@Votl_var@@UtagTIMESTAMP_STRUCT@@@@QAEXXZ 00417d10 f i AlertSendObj.obj
 0001:00016d70       ?cleanup@?$otl_tmpl_out_stream@Votl_exc@@Votl_conn@@Votl_cur@@Votl_var@@UtagTIMESTAMP_STRUCT@@@@QAEXXZ 00417d70 f i AlertSendObj.obj
 0001:00016db0       ?get_next@?$otl_tmpl_out_stream@Votl_exc@@Votl_conn@@Votl_cur@@Votl_var@@UtagTIMESTAMP_STRUCT@@@@QAEXXZ 00417db0 f i AlertSendObj.obj
 0001:00016e10       ?copy_name@?$otl_tmpl_variable@Votl_var@@@@QAEXPBD@Z 00417e10 f i AlertSendObj.obj
 0001:00016e70       ??0?$pair@$$CBV?$basic_string@DU?$char_traits@D@std@@V?$allocator@D@2@@std@@V12@@std@@QAE@ABV?$basic_string@DU?$char_traits@D@std@@V?$allocator@D@2@@1@0@Z 00417e70 f i AlertSendObj.obj
 0001:00016ed0       ??1?$otl_tmpl_ext_hv_decl@Votl_var@@UtagTIMESTAMP_STRUCT@@Votl_exc@@Votl_conn@@Votl_cur@@@@UAE@XZ 00417ed0 f i AlertSendObj.obj
 0001:00016f30       ??_E?$otl_tmpl_variable@Votl_var@@@@UAEPAXI@Z 00417f30 f i AlertSendObj.obj
 0001:00016f90       ??_E?$otl_tmpl_ext_hv_decl@Votl_var@@UtagTIMESTAMP_STRUCT@@Votl_exc@@Votl_conn@@Votl_cur@@@@UAEPAXI@Z 00417f90 f i AlertSendObj.obj
 0001:00016f90       ??_G?$otl_tmpl_ext_hv_decl@Votl_var@@UtagTIMESTAMP_STRUCT@@Votl_exc@@Votl_conn@@Votl_cur@@@@UAEPAXI@Z 00417f90 f i AlertSendObj.obj
 0001:00016fb0       ?open@?$otl_tmpl_cursor@Votl_exc@@Votl_conn@@Votl_cur@@Votl_var@@@@QAEXAAV?$otl_tmpl_connect@Votl_exc@@Votl_conn@@Votl_cur@@@@PAVotl_var@@@Z 00417fb0 f i AlertSendObj.obj
 0001:00017050       ?describe_column@?$otl_tmpl_cursor@Votl_exc@@Votl_conn@@Votl_cur@@Votl_var@@@@QAEHAAVotl_column_desc@@H@Z 00418050 f i AlertSendObj.obj
 0001:00017100       ?check_if_executed_throw@?$otl_tmpl_select_stream@Votl_exc@@Votl_conn@@Votl_cur@@Votl_var@@Votl_sel@@UtagTIMESTAMP_STRUCT@@@@QAEXXZ 00418100 f i AlertSendObj.obj
 0001:00017160       ?check_type_throw@?$otl_tmpl_select_stream@Votl_exc@@Votl_conn@@Votl_cur@@Votl_var@@Votl_sel@@UtagTIMESTAMP_STRUCT@@@@QAEHHH@Z 00418160 f i AlertSendObj.obj
 0001:00017210       ?check_in_type_throw@?$otl_tmpl_select_stream@Votl_exc@@Votl_conn@@Votl_cur@@Votl_var@@Votl_sel@@UtagTIMESTAMP_STRUCT@@@@QAEHH@Z 00418210 f i AlertSendObj.obj
 0001:000172b0       ?check_in_var_throw@?$otl_tmpl_select_stream@Votl_exc@@Votl_conn@@Votl_cur@@Votl_var@@Votl_sel@@UtagTIMESTAMP_STRUCT@@@@QAEXXZ 004182b0 f i AlertSendObj.obj
 0001:00017310       ?check_in_type_throw@?$otl_tmpl_inout_stream@Votl_exc@@Votl_conn@@Votl_cur@@Votl_var@@UtagTIMESTAMP_STRUCT@@@@QAEHH@Z 00418310 f i AlertSendObj.obj
 0001:000173b0       ?check_type_throw@?$otl_tmpl_out_stream@Votl_exc@@Votl_conn@@Votl_cur@@Votl_var@@UtagTIMESTAMP_STRUCT@@@@QAEHH@Z 004183b0 f i AlertSendObj.obj
 0001:00017450       ??0?$otl_tmpl_variable@Votl_var@@@@QAE@XZ 00418450 f i AlertSendObj.obj
 0001:000174a0       ?init@?$otl_tmpl_variable@Votl_var@@@@QAEXHHHPBXH@Z 004184a0 f i AlertSendObj.obj
 0001:000174e0       ?_Xlen@?$vector@V?$basic_string@DU?$char_traits@D@std@@V?$allocator@D@2@@std@@V?$allocator@V?$basic_string@DU?$char_traits@D@std@@V?$allocator@D@2@@std@@@2@@std@@IBEXXZ 004184e0 f i AlertSendObj.obj
 0001:000174e0       ?_Xlen@?$vector@HV?$allocator@H@std@@@std@@IBEXXZ 004184e0 f i AlertSendObj.obj
 0001:00017560       ?parse_var@?$otl_tmpl_ext_hv_decl@Votl_var@@UtagTIMESTAMP_STRUCT@@Votl_exc@@Votl_conn@@Votl_cur@@@@QAEHPAV?$otl_tmpl_connect@Votl_exc@@Votl_conn@@Votl_cur@@@@PADAAH21@Z 00418560 f i AlertSendObj.obj
 0001:00017a70       ??0?$otl_auto_array_ptr@Votl_column_desc@@@@QAE@H@Z 00418a70 f i AlertSendObj.obj
 0001:00017af0       ?double_size@?$otl_auto_array_ptr@Votl_column_desc@@@@QAEXXZ 00418af0 f i AlertSendObj.obj
 0001:00017bb0       ??1?$otl_auto_array_ptr@Votl_column_desc@@@@UAE@XZ 00418bb0 f i AlertSendObj.obj
 0001:00017be0       ??1?$otl_auto_array_ptr@PAV?$otl_tmpl_variable@Votl_var@@@@@@UAE@XZ 00418be0 f i AlertSendObj.obj
 0001:00017c00       ??_G?$otl_auto_array_ptr@Votl_column_desc@@@@UAEPAXI@Z 00418c00 f i AlertSendObj.obj
 0001:00017c00       ??_E?$otl_auto_array_ptr@Votl_column_desc@@@@UAEPAXI@Z 00418c00 f i AlertSendObj.obj
 0001:00017c50       ??_G?$otl_auto_array_ptr@PAV?$otl_tmpl_variable@Votl_var@@@@@@UAEPAXI@Z 00418c50 f i AlertSendObj.obj
 0001:00017c50       ??_E?$otl_auto_array_ptr@PAV?$otl_tmpl_variable@Votl_var@@@@@@UAEPAXI@Z 00418c50 f i AlertSendObj.obj
 0001:00017c80       ?next_throw@?$otl_tmpl_select_cursor@Votl_exc@@Votl_conn@@Votl_cur@@Votl_var@@Votl_sel@@@@QAEHXZ 00418c80 f i AlertSendObj.obj
 0001:00017ce0       ?name_comp@?$otl_tmpl_ext_hv_decl@Votl_var@@UtagTIMESTAMP_STRUCT@@Votl_exc@@Votl_conn@@Votl_cur@@@@QAEHPAD0@Z 00418ce0 f i AlertSendObj.obj
 0001:00017d60       ??0SendInfo@@QAE@ABU0@@Z   00418d60 f i AlertSendObj.obj
 0001:00017dd0       ??0?$pair@$$CBV?$basic_string@DU?$char_traits@D@std@@V?$allocator@D@2@@std@@V12@@std@@QAE@ABU01@@Z 00418dd0 f i AlertSendObj.obj
 0001:00017dd0       ??0SMSInfo@@QAE@ABU0@@Z    00418dd0 f i AlertSendObj.obj
 0001:00017e30       ?_Dec@const_iterator@?$_Tree@V?$_Tmap_traits@V?$basic_string@DU?$char_traits@D@std@@V?$allocator@D@2@@std@@V12@U?$less@V?$basic_string@DU?$char_traits@D@std@@V?$allocator@D@2@@std@@@2@V?$allocator@U?$pair@$$CBV?$basic_string@DU?$char_traits@D@std@@V?$allocator@D@2@@std@@V12@@std@@@2@$0A@@std@@@std@@QAEXXZ 00418e30 f i AlertSendObj.obj
 0001:00017e90       ?_Min@?$_Tree@V?$_Tmap_traits@HV?$basic_string@DU?$char_traits@D@std@@V?$allocator@D@2@@std@@U?$less@H@2@V?$allocator@U?$pair@$$CBHV?$basic_string@DU?$char_traits@D@std@@V?$allocator@D@2@@std@@@std@@@2@$0A@@std@@@std@@KAPAU_Node@?$_Tree_nod@V?$_Tmap_traits@HV?$basic_string@DU?$char_traits@D@std@@V?$allocator@D@2@@std@@U?$less@H@2@V?$allocator@U?$pair@$$CBHV?$basic_string@DU?$char_traits@D@std@@V?$allocator@D@2@@std@@@std@@@2@$0A@@std@@@2@PAU342@@Z 00418e90 f i AlertSendObj.obj
 0001:00017e90       ?_Min@?$_Tree@V?$_Tmap_traits@V?$basic_string@DU?$char_traits@D@std@@V?$allocator@D@2@@std@@KU?$less@V?$basic_string@DU?$char_traits@D@std@@V?$allocator@D@2@@std@@@2@V?$allocator@U?$pair@$$CBV?$basic_string@DU?$char_traits@D@std@@V?$allocator@D@2@@std@@K@std@@@2@$0A@@std@@@std@@KAPAU_Node@?$_Tree_nod@V?$_Tmap_traits@V?$basic_string@DU?$char_traits@D@std@@V?$allocator@D@2@@std@@KU?$less@V?$basic_string@DU?$char_traits@D@std@@V?$allocator@D@2@@std@@@2@V?$allocator@U?$pair@$$CBV?$basic_string@DU?$char_traits@D@std@@V?$allocator@D@2@@std@@K@std@@@2@$0A@@std@@@2@PAU342@@Z 00418e90 f i AlertSendObj.obj
 0001:00017e90       ?_Min@?$_Tree@V?$_Tmap_traits@V?$basic_string@DU?$char_traits@D@std@@V?$allocator@D@2@@std@@HU?$less@V?$basic_string@DU?$char_traits@D@std@@V?$allocator@D@2@@std@@@2@V?$allocator@U?$pair@$$CBV?$basic_string@DU?$char_traits@D@std@@V?$allocator@D@2@@std@@H@std@@@2@$0A@@std@@@std@@KAPAU_Node@?$_Tree_nod@V?$_Tmap_traits@V?$basic_string@DU?$char_traits@D@std@@V?$allocator@D@2@@std@@HU?$less@V?$basic_string@DU?$char_traits@D@std@@V?$allocator@D@2@@std@@@2@V?$allocator@U?$pair@$$CBV?$basic_string@DU?$char_traits@D@std@@V?$allocator@D@2@@std@@H@std@@@2@$0A@@std@@@2@PAU342@@Z 00418e90 f i AlertBaseObj.obj
 0001:00017eb0       ??$fill@PAV?$basic_string@DU?$char_traits@D@std@@V?$allocator@D@2@@std@@V12@@std@@YAXPAV?$basic_string@DU?$char_traits@D@std@@V?$allocator@D@2@@0@0ABV10@@Z 00418eb0 f i AlertSendObj.obj
 0001:00017ee0       ??$fill@PAHH@std@@YAXPAH0ABH@Z 00418ee0 f i AlertSendObj.obj
 0001:00017f00       ??1_Node@?$_List_nod@USendInfo@@V?$allocator@USendInfo@@@std@@@std@@QAE@XZ 00418f00 f i AlertSendObj.obj
 0001:00017f10       ??1_Node@?$_List_nod@USMSInfo@@V?$allocator@USMSInfo@@@std@@@std@@QAE@XZ 00418f10 f i AlertSendObj.obj
 0001:00017f20       ??$otl_numeric_convert_T@H@@YAHHPBXAAH@Z 00418f20 f i AlertSendObj.obj
 0001:00017fa0       ??$_Copy_backward_opt@PAV?$basic_string@DU?$char_traits@D@std@@V?$allocator@D@2@@std@@PAV12@@std@@YAPAV?$basic_string@DU?$char_traits@D@std@@V?$allocator@D@2@@0@PAV10@00U_Nonscalar_ptr_iterator_tag@0@@Z 00418fa0 f i AlertSendObj.obj
 0001:00017fe0       ??0otl_select_struct_override@@QAE@XZ 00418fe0 f i AlertSendObj.obj
 0001:00018030       ?logoff@otl_conn@@QAEHXZ   00419030 f i AlertSendObj.obj
 0001:00018090       ??0?$otl_tmpl_exception@Votl_exc@@Votl_conn@@Votl_cur@@@@QAE@ABV0@@Z 00419090 f i AlertSendObj.obj
 0001:00018100       ??_G?$otl_tmpl_exception@Votl_exc@@Votl_conn@@Votl_cur@@@@UAEPAXI@Z 00419100 f i AlertSendObj.obj
 0001:00018100       ??_E?$otl_tmpl_exception@Votl_exc@@Votl_conn@@Votl_cur@@@@UAEPAXI@Z 00419100 f i AlertSendObj.obj
 0001:00018120       ??0otl_stream_shell@@QAE@H@Z 00419120 f i AlertSendObj.obj
 0001:000181d0       ??_Gotl_stream_shell@@UAEPAXI@Z 004191d0 f i AlertSendObj.obj
 0001:000181d0       ??_Eotl_stream_shell@@UAEPAXI@Z 004191d0 f i AlertSendObj.obj
 0001:000181f0       ??1otl_stream_shell@@UAE@XZ 004191f0 f i AlertSendObj.obj
 0001:000182f0       ?create_var_desc@otl_stream@@QAEXXZ 004192f0 f i AlertSendObj.obj
 0001:000186a0       ?init_stream@otl_stream@@QAEXXZ 004196a0 f i AlertSendObj.obj
 0001:00018790       ?clean@otl_stream@@QAEXH@Z 00419790 f i AlertSendObj.obj
 0001:000187e0       ?intern_cleanup@otl_stream@@QAEXXZ 004197e0 f i AlertSendObj.obj
 0001:00018990       ??1?$shared_ptr@V?$vector@U?$Pair_impl@V?$basic_string@DU?$char_traits@D@std@@V?$allocator@D@2@@std@@@json_spirit@@V?$allocator@U?$Pair_impl@V?$basic_string@DU?$char_traits@D@std@@V?$allocator@D@2@@std@@@json_spirit@@@std@@@std@@@boost@@QAE@XZ 00419990 f i AlertSendObj.obj
 0001:000189d0       ?InsertRecord@@YA_NV?$basic_string@DU?$char_traits@D@std@@V?$allocator@D@2@@std@@000000HH@Z 004199d0 f   AlertSendObj.obj
 0001:00018db0       ?InsertRecord@@YA_NV?$basic_string@DU?$char_traits@D@std@@V?$allocator@D@2@@std@@0000000HH@Z 00419db0 f   AlertSendObj.obj
 0001:000191f0       ??_ECAlertSendObj@@UAEPAXI@Z 0041a1f0 f i AlertSendObj.obj
 0001:000191f0       ??_GCAlertSendObj@@UAEPAXI@Z 0041a1f0 f i AlertSendObj.obj
 0001:00019210       ?InsertRecord@CAlertSendObj@@QAEXV?$basic_string@DU?$char_traits@D@std@@V?$allocator@D@2@@std@@HH@Z 0041a210 f   AlertSendObj.obj
 0001:000193d0       ?InsertRecord@CAlertSendObj@@QAEXV?$basic_string@DU?$char_traits@D@std@@V?$allocator@D@2@@std@@0HH@Z 0041a3d0 f   AlertSendObj.obj
 0001:000195d0       ?GetDebugInfo@CAlertSendObj@@UAE?AV?$basic_string@DU?$char_traits@D@std@@V?$allocator@D@2@@std@@XZ 0041a5d0 f   AlertSendObj.obj
 0001:00019a10       ?GetDebugInfo@CAlertEmailSendObj@@UAE?AV?$basic_string@DU?$char_traits@D@std@@V?$allocator@D@2@@std@@XZ 0041aa10 f   AlertSendObj.obj
 0001:00019e50       ?MakeAlertTitle@CAlertEmailSendObj@@AAEXXZ 0041ae50 f   AlertSendObj.obj
 0001:0001ab60       ?GetDebugInfo@CAlertSmsSendObj@@UAE?AV?$basic_string@DU?$char_traits@D@std@@V?$allocator@D@2@@std@@XZ 0041bb60 f   AlertSendObj.obj
 0001:0001afa0       ?MakeComAlertContent@CAlertSmsSendObj@@AAEXXZ 0041bfa0 f   AlertSendObj.obj
 0001:0001b980       ?MakeWebAlertContent@CAlertSmsSendObj@@AAEXXZ 0041c980 f   AlertSendObj.obj
 0001:0001c4d0       ??_ECAlertScriptSendObj@@UAEPAXI@Z 0041d4d0 f i AlertSendObj.obj
 0001:0001c4d0       ??_GCAlertScriptSendObj@@UAEPAXI@Z 0041d4d0 f i AlertSendObj.obj
 0001:0001c4f0       ?GetDebugInfo@CAlertScriptSendObj@@UAE?AV?$basic_string@DU?$char_traits@D@std@@V?$allocator@D@2@@std@@XZ 0041d4f0 f   AlertSendObj.obj
 0001:0001c930       ?DoWinScript@CAlertScriptSendObj@@QAE?AV?$CStringT@DV?$StrTraitMFC_DLL@DV?$ChTraitsCRT@D@ATL@@@@@ATL@@XZ 0041d930 f   AlertSendObj.obj
 0001:0001d800       ??_ECAlertSoundSendObj@@UAEPAXI@Z 0041e800 f i AlertSendObj.obj
 0001:0001d800       ??_GCAlertSoundSendObj@@UAEPAXI@Z 0041e800 f i AlertSendObj.obj
 0001:0001d820       ?GetDebugInfo@CAlertSoundSendObj@@UAE?AV?$basic_string@DU?$char_traits@D@std@@V?$allocator@D@2@@std@@XZ 0041e820 f   AlertSendObj.obj
 0001:0001dbf0       ?SendAlert@CAlertSoundSendObj@@UAE_NXZ 0041ebf0 f   AlertSendObj.obj
 0001:0001e2b0       ??_ECAlertPythonSendObj@@UAEPAXI@Z 0041f2b0 f i AlertSendObj.obj
 0001:0001e2b0       ??_GCAlertPythonSendObj@@UAEPAXI@Z 0041f2b0 f i AlertSendObj.obj
 0001:0001e2d0       ?GetDebugInfo@CAlertPythonSendObj@@UAE?AV?$basic_string@DU?$char_traits@D@std@@V?$allocator@D@2@@std@@XZ 0041f2d0 f   AlertSendObj.obj
 0001:0001e6a0       ?SendAlert@CAlertSendObj@@UAE_NXZ 0041f6a0 f   AlertSendObj.obj
 0001:0001e6a0       ?SendAlert@CAlertPythonSendObj@@UAE_NXZ 0041f6a0 f   AlertSendObj.obj
 0001:0001e6b0       ?rlogon@?$otl_tmpl_connect@Votl_exc@@Votl_conn@@Votl_cur@@@@QAEXPBDH@Z 0041f6b0 f i AlertSendObj.obj
 0001:0001e730       ?logoff@?$otl_tmpl_connect@Votl_exc@@Votl_conn@@Votl_cur@@@@QAEXXZ 0041f730 f i AlertSendObj.obj
 0001:0001e790       ?rollback@?$otl_tmpl_connect@Votl_exc@@Votl_conn@@Votl_cur@@@@QAEXXZ 0041f790 f i AlertSendObj.obj
 0001:0001e810       ?close@?$otl_tmpl_cursor@Votl_exc@@Votl_conn@@Votl_cur@@Votl_var@@@@UAEXXZ 0041f810 f i AlertSendObj.obj
 0001:0001e8a0       ?flush@?$otl_tmpl_out_stream@Votl_exc@@Votl_conn@@Votl_cur@@Votl_var@@UtagTIMESTAMP_STRUCT@@@@UAEXH_N@Z 0041f8a0 f i AlertSendObj.obj
 0001:0001eae0       ??0?$otl_tmpl_cursor@Votl_exc@@Votl_conn@@Votl_cur@@Votl_var@@@@QAE@AAV?$otl_tmpl_connect@Votl_exc@@Votl_conn@@Votl_cur@@@@@Z 0041fae0 f i AlertSendObj.obj
 0001:0001eb70       ?valid_binding@?$otl_tmpl_cursor@Votl_exc@@Votl_conn@@Votl_cur@@Votl_var@@@@UAE_NABV?$otl_tmpl_variable@Votl_var@@@@H@Z 0041fb70 f i AlertSendObj.obj
 0001:0001ebc0       ?bind@?$otl_tmpl_cursor@Votl_exc@@Votl_conn@@Votl_cur@@Votl_var@@@@UAEXPBDAAV?$otl_tmpl_variable@Votl_var@@@@@Z 0041fbc0 f i AlertSendObj.obj
 0001:0001ed10       ?otl_var_info_var2@@YAXPBDHPADI@Z 0041fd10 f i AlertSendObj.obj
 0001:0001ee00       ?bind@otl_cur@@QAEHPBDAAVotl_var@@HHHHH@Z 0041fe00 f i AlertSendObj.obj
 0001:0001f070       ?bind@?$otl_tmpl_cursor@Votl_exc@@Votl_conn@@Votl_cur@@Votl_var@@@@UAEXHAAV?$otl_tmpl_variable@Votl_var@@@@@Z 00420070 f i AlertSendObj.obj
 0001:0001f1c0       ?otl_var_info_col2@@YAXHHPADI@Z 004201c0 f i AlertSendObj.obj
 0001:0001f2d0       ?bind@otl_cur@@QAEHHAAVotl_var@@HHH@Z 004202d0 f i AlertSendObj.obj
 0001:0001f400       ?cleanup@?$otl_tmpl_select_stream@Votl_exc@@Votl_conn@@Votl_cur@@Votl_var@@Votl_sel@@UtagTIMESTAMP_STRUCT@@@@QAEXXZ 00420400 f i AlertSendObj.obj
 0001:0001f480       ?get_select_list@?$otl_tmpl_select_stream@Votl_exc@@Votl_conn@@Votl_cur@@Votl_var@@Votl_sel@@UtagTIMESTAMP_STRUCT@@@@QAEXXZ 00420480 f i AlertSendObj.obj
 0001:0001f810       ?is_null_intern@?$otl_tmpl_inout_stream@Votl_exc@@Votl_conn@@Votl_cur@@Votl_var@@UtagTIMESTAMP_STRUCT@@@@QAEHXZ 00420810 f i AlertSendObj.obj
 0001:0001f850       ?set_not_null@?$otl_tmpl_variable@Votl_var@@@@QAEXH@Z 00420850 f i AlertSendObj.obj
 0001:0001f870       ?alloc_var@?$otl_tmpl_ext_hv_decl@Votl_var@@UtagTIMESTAMP_STRUCT@@Votl_exc@@Votl_conn@@Votl_cur@@@@QAEPAV?$otl_tmpl_variable@Votl_var@@@@PADHHAAV?$otl_tmpl_connect@Votl_exc@@Votl_conn@@Votl_cur@@@@H@Z 00420870 f i AlertSendObj.obj
 0001:0001fe60       ?alloc_host_var_list@?$otl_tmpl_ext_hv_decl@Votl_var@@UtagTIMESTAMP_STRUCT@@Votl_exc@@Votl_conn@@Votl_cur@@@@QAEXAAPAPAV?$otl_tmpl_variable@Votl_var@@@@AAHAAV?$otl_tmpl_connect@Votl_exc@@Votl_conn@@Votl_cur@@@@H@Z 00420e60 f i AlertSendObj.obj
 0001:0001fff0       ?_Lbound@?$_Tree@V?$_Tmap_traits@V?$basic_string@DU?$char_traits@D@std@@V?$allocator@D@2@@std@@V12@U?$less@V?$basic_string@DU?$char_traits@D@std@@V?$allocator@D@2@@std@@@2@V?$allocator@U?$pair@$$CBV?$basic_string@DU?$char_traits@D@std@@V?$allocator@D@2@@std@@V12@@std@@@2@$0A@@std@@@std@@IBEPAU_Node@?$_Tree_nod@V?$_Tmap_traits@V?$basic_string@DU?$char_traits@D@std@@V?$allocator@D@2@@std@@V12@U?$less@V?$basic_string@DU?$char_traits@D@std@@V?$allocator@D@2@@std@@@2@V?$allocator@U?$pair@$$CBV?$basic_string@DU?$char_traits@D@std@@V?$allocator@D@2@@std@@V12@@std@@@2@$0A@@std@@@2@ABV?$basic_string@DU?$char_traits@D@std@@V?$allocator@D@2@@2@@Z 00420ff0 f i AlertSendObj.obj
 0001:00020040       ?next@?$otl_tmpl_select_cursor@Votl_exc@@Votl_conn@@Votl_cur@@Votl_var@@Votl_sel@@@@QAEHXZ 00421040 f i AlertSendObj.obj
 0001:000200a0       ?add_var@?$otl_tmpl_ext_hv_decl@Votl_var@@UtagTIMESTAMP_STRUCT@@Votl_exc@@Votl_conn@@Votl_cur@@@@QAEXAAHPADFH@Z 004210a0 f i AlertSendObj.obj
 0001:00020230       ??$?5H$03@?$otl_tmpl_inout_stream@Votl_exc@@Votl_conn@@Votl_cur@@Votl_var@@UtagTIMESTAMP_STRUCT@@@@QAEAAV0@AAH@Z 00421230 f i AlertSendObj.obj
 0001:000202c0       ??$copy_backward@PAHPAH@std@@YAPAHPAH00@Z 004212c0 f i AlertSendObj.obj
 0001:000202f0       ??1_Node@?$_Tree_nod@V?$_Tmap_traits@HV?$basic_string@DU?$char_traits@D@std@@V?$allocator@D@2@@std@@U?$less@H@2@V?$allocator@U?$pair@$$CBHV?$basic_string@DU?$char_traits@D@std@@V?$allocator@D@2@@std@@@std@@@2@$0A@@std@@@std@@QAE@XZ 004212f0 f i AlertSendObj.obj
 0001:00020300       ??$_Uninit_copy@PAV?$basic_string@DU?$char_traits@D@std@@V?$allocator@D@2@@std@@PAV12@V?$allocator@V?$basic_string@DU?$char_traits@D@std@@V?$allocator@D@2@@std@@@2@@std@@YAPAV?$basic_string@DU?$char_traits@D@std@@V?$allocator@D@2@@0@PAV10@00AAV?$allocator@V?$basic_string@DU?$char_traits@D@std@@V?$allocator@D@2@@std@@@0@U_Nonscalar_ptr_iterator_tag@0@@Z 00421300 f i AlertSendObj.obj
 0001:00020390       ??1otl_stream@@UAE@XZ      00421390 f i AlertSendObj.obj
 0001:00020460       ??_Gotl_stream@@UAEPAXI@Z  00421460 f i AlertSendObj.obj
 0001:00020460       ??_Eotl_stream@@UAEPAXI@Z  00421460 f i AlertSendObj.obj
 0001:00020480       ??1?$Value_impl@V?$basic_string@DU?$char_traits@D@std@@V?$allocator@D@2@@std@@@json_spirit@@QAE@XZ 00421480 f i AlertSendObj.obj
 0001:00020530       ?MakeAlertContent@CAlertEmailSendObj@@AAEXXZ 00421530 f   AlertSendObj.obj
 0001:000218d0       ??1?$otl_tmpl_connect@Votl_exc@@Votl_conn@@Votl_cur@@@@UAE@XZ 004228d0 f i AlertSendObj.obj
 0001:00021920       ??1?$otl_tmpl_cursor@Votl_exc@@Votl_conn@@Votl_cur@@Votl_var@@@@UAE@XZ 00422920 f i AlertSendObj.obj
 0001:000219a0       ?direct_exec@?$otl_tmpl_cursor@Votl_exc@@Votl_conn@@Votl_cur@@Votl_var@@@@SAJAAV?$otl_tmpl_connect@Votl_exc@@Votl_conn@@Votl_cur@@@@PBDH@Z 004229a0 f i AlertSendObj.obj
 0001:00021a50       ?rewind@?$otl_tmpl_select_stream@Votl_exc@@Votl_conn@@Votl_cur@@Votl_var@@Votl_sel@@UtagTIMESTAMP_STRUCT@@@@QAEXXZ 00422a50 f i AlertSendObj.obj
 0001:00021b60       ??5?$otl_tmpl_inout_stream@Votl_exc@@Votl_conn@@Votl_cur@@Votl_var@@UtagTIMESTAMP_STRUCT@@@@QAEAAV0@AAVotl_long_string@@@Z 00422b60 f i AlertSendObj.obj
 0001:00021d20       ??1?$otl_tmpl_out_stream@Votl_exc@@Votl_conn@@Votl_cur@@Votl_var@@UtagTIMESTAMP_STRUCT@@@@UAE@XZ 00422d20 f i AlertSendObj.obj
 0001:00021db0       ?clean@?$otl_tmpl_out_stream@Votl_exc@@Votl_conn@@Votl_cur@@Votl_var@@UtagTIMESTAMP_STRUCT@@@@UAEXHH@Z 00422db0 f i AlertSendObj.obj
 0001:00021e30       ?bulk_set_len@otl_var@@QAEXHH@Z 00422e30 f i AlertSendObj.obj
 0001:00021f40       ??6?$otl_tmpl_out_stream@Votl_exc@@Votl_conn@@Votl_cur@@Votl_var@@UtagTIMESTAMP_STRUCT@@@@QAEAAV0@ABUtagTIMESTAMP_STRUCT@@@Z 00422f40 f i AlertSendObj.obj
 0001:00022020       ??6?$otl_tmpl_out_stream@Votl_exc@@Votl_conn@@Votl_cur@@Votl_var@@UtagTIMESTAMP_STRUCT@@@@QAEAAV0@ABVotl_long_string@@@Z 00423020 f i AlertSendObj.obj
 0001:00022270       ??_E?$otl_tmpl_connect@Votl_exc@@Votl_conn@@Votl_cur@@@@UAEPAXI@Z 00423270 f i AlertSendObj.obj
 0001:00022270       ??_G?$otl_tmpl_connect@Votl_exc@@Votl_conn@@Votl_cur@@@@UAEPAXI@Z 00423270 f i AlertSendObj.obj
 0001:00022290       ??_G?$otl_tmpl_cursor@Votl_exc@@Votl_conn@@Votl_cur@@Votl_var@@@@UAEPAXI@Z 00423290 f i AlertSendObj.obj
 0001:00022290       ??_E?$otl_tmpl_cursor@Votl_exc@@Votl_conn@@Votl_cur@@Votl_var@@@@UAEPAXI@Z 00423290 f i AlertSendObj.obj
 0001:000222b0       ??1?$otl_tmpl_select_cursor@Votl_exc@@Votl_conn@@Votl_cur@@Votl_var@@Votl_sel@@@@UAE@XZ 004232b0 f i AlertSendObj.obj
 0001:000222f0       ??_G?$otl_tmpl_out_stream@Votl_exc@@Votl_conn@@Votl_cur@@Votl_var@@UtagTIMESTAMP_STRUCT@@@@UAEPAXI@Z 004232f0 f i AlertSendObj.obj
 0001:000222f0       ??_E?$otl_tmpl_out_stream@Votl_exc@@Votl_conn@@Votl_cur@@Votl_var@@UtagTIMESTAMP_STRUCT@@@@UAEPAXI@Z 004232f0 f i AlertSendObj.obj
 0001:00022310       ?_Buynode@?$list@USendInfo@@V?$allocator@USendInfo@@@std@@@std@@IAEPAU_Node@?$_List_nod@USendInfo@@V?$allocator@USendInfo@@@std@@@2@XZ 00423310 f i AlertSendObj.obj
 0001:00022330       ?get_next@?$otl_tmpl_select_stream@Votl_exc@@Votl_conn@@Votl_cur@@Votl_var@@Votl_sel@@UtagTIMESTAMP_STRUCT@@@@QAEXXZ 00423330 f i AlertSendObj.obj
 0001:00022390       ?look_ahead@?$otl_tmpl_select_stream@Votl_exc@@Votl_conn@@Votl_cur@@Votl_var@@Votl_sel@@UtagTIMESTAMP_STRUCT@@@@QAEXXZ 00423390 f i AlertSendObj.obj
 0001:000223d0       ??0?$otl_tmpl_select_cursor@Votl_exc@@Votl_conn@@Votl_cur@@Votl_var@@Votl_sel@@@@QAE@AAV?$otl_tmpl_connect@Votl_exc@@Votl_conn@@Votl_cur@@@@HPBD@Z 004233d0 f i AlertSendObj.obj
 0001:00022510       ?close@?$otl_tmpl_select_cursor@Votl_exc@@Votl_conn@@Votl_cur@@Votl_var@@Votl_sel@@@@UAEXXZ 00423510 f i AlertSendObj.obj
 0001:00022530       ??0?$otl_tmpl_out_stream@Votl_exc@@Votl_conn@@Votl_cur@@Votl_var@@UtagTIMESTAMP_STRUCT@@@@QAE@AAV?$otl_tmpl_connect@Votl_exc@@Votl_conn@@Votl_cur@@@@_NPBD@Z 00423530 f i AlertSendObj.obj
 0001:00022600       ??0?$otl_tmpl_ext_hv_decl@Votl_var@@UtagTIMESTAMP_STRUCT@@Votl_exc@@Votl_conn@@Votl_cur@@@@QAE@PADH0PAPAVotl_select_struct_override@@PAV?$otl_tmpl_connect@Votl_exc@@Votl_conn@@Votl_cur@@@@@Z 00423600 f i AlertSendObj.obj
 0001:00022b00       ??_G?$otl_tmpl_select_cursor@Votl_exc@@Votl_conn@@Votl_cur@@Votl_var@@Votl_sel@@@@UAEPAXI@Z 00423b00 f i AlertSendObj.obj
 0001:00022b00       ??_E?$otl_tmpl_select_cursor@Votl_exc@@Votl_conn@@Votl_cur@@Votl_var@@Votl_sel@@@@UAEPAXI@Z 00423b00 f i AlertSendObj.obj
 0001:00022b20       ?_Buynode@?$list@USendInfo@@V?$allocator@USendInfo@@@std@@@std@@IAEPAU_Node@?$_List_nod@USendInfo@@V?$allocator@USendInfo@@@std@@@2@PAU342@0ABUSendInfo@@@Z 00423b20 f i AlertSendObj.obj
 0001:00022bb0       ?_Incsize@?$list@USendInfo@@V?$allocator@USendInfo@@@std@@@std@@IAEXI@Z 00423bb0 f i AlertSendObj.obj
 0001:00022c50       ?_Buynode@?$list@USMSInfo@@V?$allocator@USMSInfo@@@std@@@std@@IAEPAU_Node@?$_List_nod@USMSInfo@@V?$allocator@USMSInfo@@@std@@@2@PAU342@0ABUSMSInfo@@@Z 00423c50 f i AlertSendObj.obj
 0001:00022ce0       ?_Incsize@?$list@USMSInfo@@V?$allocator@USMSInfo@@@std@@@std@@IAEXI@Z 00423ce0 f i AlertSendObj.obj
 0001:00022d80       ?_Buynode@?$_Tree@V?$_Tmap_traits@V?$basic_string@DU?$char_traits@D@std@@V?$allocator@D@2@@std@@V12@U?$less@V?$basic_string@DU?$char_traits@D@std@@V?$allocator@D@2@@std@@@2@V?$allocator@U?$pair@$$CBV?$basic_string@DU?$char_traits@D@std@@V?$allocator@D@2@@std@@V12@@std@@@2@$0A@@std@@@std@@IAEPAU_Node@?$_Tree_nod@V?$_Tmap_traits@V?$basic_string@DU?$char_traits@D@std@@V?$allocator@D@2@@std@@V12@U?$less@V?$basic_string@DU?$char_traits@D@std@@V?$allocator@D@2@@std@@@2@V?$allocator@U?$pair@$$CBV?$basic_string@DU?$char_traits@D@std@@V?$allocator@D@2@@std@@V12@@std@@@2@$0A@@std@@@2@PAU342@00ABU?$pair@$$CBV?$basic_string@DU?$char_traits@D@std@@V?$allocator@D@2@@std@@V12@@2@D@Z 00423d80 f i AlertSendObj.obj
 0001:00022e20       ??$?5H$03@?$otl_tmpl_select_stream@Votl_exc@@Votl_conn@@Votl_cur@@Votl_var@@Votl_sel@@UtagTIMESTAMP_STRUCT@@@@QAEAAV0@AAH@Z 00423e20 f i AlertSendObj.obj
 0001:00022ef0       ??0?$Value_impl@V?$basic_string@DU?$char_traits@D@std@@V?$allocator@D@2@@std@@@json_spirit@@QAE@XZ 00423ef0 f i AlertSendObj.obj
 0001:00022f20       ??$_Ucopy@PAH@?$vector@HV?$allocator@H@std@@@std@@IAEPAHPAH00@Z 00423f20 f i AlertSendObj.obj
 0001:00022f50       ??$_Uninit_fill_n@PAV?$basic_string@DU?$char_traits@D@std@@V?$allocator@D@2@@std@@IV12@V?$allocator@V?$basic_string@DU?$char_traits@D@std@@V?$allocator@D@2@@std@@@2@@std@@YAXPAV?$basic_string@DU?$char_traits@D@std@@V?$allocator@D@2@@0@IABV10@AAV?$allocator@V?$basic_string@DU?$char_traits@D@std@@V?$allocator@D@2@@std@@@0@U_Nonscalar_ptr_iterator_tag@0@@Z 00423f50 f i AlertSendObj.obj
 0001:00022fe0       ??1otl_connect@@UAE@XZ     00423fe0 f i AlertSendObj.obj
 0001:00023050       ??_Gotl_connect@@UAEPAXI@Z 00424050 f i AlertSendObj.obj
 0001:00023050       ??_Eotl_connect@@UAEPAXI@Z 00424050 f i AlertSendObj.obj
 0001:00023070       ??0?$otl_tmpl_select_stream@Votl_exc@@Votl_conn@@Votl_cur@@Votl_var@@Votl_sel@@UtagTIMESTAMP_STRUCT@@@@QAE@PAVotl_select_struct_override@@HPBDAAV?$otl_tmpl_connect@Votl_exc@@Votl_conn@@Votl_cur@@@@H1@Z 00424070 f i AlertSendObj.obj
 0001:00023230       ?eof@?$otl_tmpl_select_stream@Votl_exc@@Votl_conn@@Votl_cur@@Votl_var@@Votl_sel@@UtagTIMESTAMP_STRUCT@@@@QAEHXZ 00424230 f i AlertSendObj.obj
 0001:00023290       ??5?$otl_tmpl_select_stream@Votl_exc@@Votl_conn@@Votl_cur@@Votl_var@@Votl_sel@@UtagTIMESTAMP_STRUCT@@@@QAEAAV0@AAVotl_long_string@@@Z 00424290 f i AlertSendObj.obj
 0001:00023530       ??6?$otl_tmpl_select_stream@Votl_exc@@Votl_conn@@Votl_cur@@Votl_var@@Votl_sel@@UtagTIMESTAMP_STRUCT@@@@QAEAAV0@ABVotl_long_string@@@Z 00424530 f i AlertSendObj.obj
 0001:00023770       ??6?$otl_tmpl_select_stream@Votl_exc@@Votl_conn@@Votl_cur@@Votl_var@@Votl_sel@@UtagTIMESTAMP_STRUCT@@@@QAEAAV0@ABUtagTIMESTAMP_STRUCT@@@Z 00424770 f i AlertSendObj.obj
 0001:00023850       ??0?$otl_tmpl_inout_stream@Votl_exc@@Votl_conn@@Votl_cur@@Votl_var@@UtagTIMESTAMP_STRUCT@@@@QAE@HPBDAAV?$otl_tmpl_connect@Votl_exc@@Votl_conn@@Votl_cur@@@@_N0@Z 00424850 f i AlertSendObj.obj
 0001:00023d00       ?flush@?$otl_tmpl_inout_stream@Votl_exc@@Votl_conn@@Votl_cur@@Votl_var@@UtagTIMESTAMP_STRUCT@@@@UAEXH_N@Z 00424d00 f i AlertSendObj.obj
 0001:00023d30       ?clean@?$otl_tmpl_inout_stream@Votl_exc@@Votl_conn@@Votl_cur@@Votl_var@@UtagTIMESTAMP_STRUCT@@@@UAEXHH@Z 00424d30 f i AlertSendObj.obj
 0001:00023d60       ??_G?$otl_tmpl_select_stream@Votl_exc@@Votl_conn@@Votl_cur@@Votl_var@@Votl_sel@@UtagTIMESTAMP_STRUCT@@@@UAEPAXI@Z 00424d60 f i AlertSendObj.obj
 0001:00023d60       ??_E?$otl_tmpl_select_stream@Votl_exc@@Votl_conn@@Votl_cur@@Votl_var@@Votl_sel@@UtagTIMESTAMP_STRUCT@@@@UAEPAXI@Z 00424d60 f i AlertSendObj.obj
 0001:00023d80       ??1?$otl_tmpl_select_stream@Votl_exc@@Votl_conn@@Votl_cur@@Votl_var@@Votl_sel@@UtagTIMESTAMP_STRUCT@@@@UAE@XZ 00424d80 f i AlertSendObj.obj
 0001:00023e00       ??_E?$otl_tmpl_inout_stream@Votl_exc@@Votl_conn@@Votl_cur@@Votl_var@@UtagTIMESTAMP_STRUCT@@@@UAEPAXI@Z 00424e00 f i AlertSendObj.obj
 0001:00023e00       ??_G?$otl_tmpl_inout_stream@Votl_exc@@Votl_conn@@Votl_cur@@Votl_var@@UtagTIMESTAMP_STRUCT@@@@UAEPAXI@Z 00424e00 f i AlertSendObj.obj
 0001:00023e20       ??1?$otl_tmpl_inout_stream@Votl_exc@@Votl_conn@@Votl_cur@@Votl_var@@UtagTIMESTAMP_STRUCT@@@@UAE@XZ 00424e20 f i AlertSendObj.obj
 0001:00023eb0       ?_Ufill@?$vector@HV?$allocator@H@std@@@std@@IAEPAHPAHIABH@Z 00424eb0 f i AlertSendObj.obj
 0001:00023ee0       ?_Insert@?$_Tree@V?$_Tmap_traits@V?$basic_string@DU?$char_traits@D@std@@V?$allocator@D@2@@std@@V12@U?$less@V?$basic_string@DU?$char_traits@D@std@@V?$allocator@D@2@@std@@@2@V?$allocator@U?$pair@$$CBV?$basic_string@DU?$char_traits@D@std@@V?$allocator@D@2@@std@@V12@@std@@@2@$0A@@std@@@std@@IAE?AViterator@12@_NPAU_Node@?$_Tree_nod@V?$_Tmap_traits@V?$basic_string@DU?$char_traits@D@std@@V?$allocator@D@2@@std@@V12@U?$less@V?$basic_string@DU?$char_traits@D@std@@V?$allocator@D@2@@std@@@2@V?$allocator@U?$pair@$$CBV?$basic_string@DU?$char_traits@D@std@@V?$allocator@D@2@@std@@V12@@std@@@2@$0A@@std@@@2@ABU?$pair@$$CBV?$basic_string@DU?$char_traits@D@std@@V?$allocator@D@2@@std@@V12@@2@@Z 00424ee0 f i AlertSendObj.obj
 0001:000240a0       ?_Insert_n@?$vector@HV?$allocator@H@std@@@std@@IAEXViterator@12@IABH@Z 004250a0 f i AlertSendObj.obj
 0001:00024290       ?open@otl_stream@@QAEXHPBDAAVotl_connect@@H0@Z 00425290 f i AlertSendObj.obj
 0001:00024640       ??6otl_stream@@QAEAAV0@ABUtagTIMESTAMP_STRUCT@@@Z 00425640 f i AlertSendObj.obj
 0001:000246b0       ??6otl_stream@@QAEAAV0@ABVotl_datetime@@@Z 004256b0 f i AlertSendObj.obj
 0001:00024770       ??5otl_stream@@QAEAAV0@AAH@Z 00425770 f i AlertSendObj.obj
 0001:00024820       ??5otl_stream@@QAEAAV0@AAVotl_long_string@@@Z 00425820 f i AlertSendObj.obj
 0001:000248d0       ??6otl_stream@@QAEAAV0@ABVotl_long_string@@@Z 004258d0 f i AlertSendObj.obj
 0001:00024960       ?push_back@?$list@USendInfo@@V?$allocator@USendInfo@@@std@@@std@@QAEXABUSendInfo@@@Z 00425960 f i AlertSendObj.obj
 0001:000249a0       ?clear@?$list@USendInfo@@V?$allocator@USendInfo@@@std@@@std@@QAEXXZ 004259a0 f i AlertSendObj.obj
 0001:000249e0       ?push_back@?$list@USMSInfo@@V?$allocator@USMSInfo@@@std@@@std@@QAEXABUSMSInfo@@@Z 004259e0 f i AlertSendObj.obj
 0001:00024a20       ?clear@?$list@USMSInfo@@V?$allocator@USMSInfo@@@std@@@std@@QAEXXZ 00425a20 f i AlertSendObj.obj
 0001:00024a60       ??1?$vector@HV?$allocator@H@std@@@std@@QAE@XZ 00425a60 f i AlertSendObj.obj
 0001:00024a90       ?_Ufill@?$vector@V?$basic_string@DU?$char_traits@D@std@@V?$allocator@D@2@@std@@V?$allocator@V?$basic_string@DU?$char_traits@D@std@@V?$allocator@D@2@@std@@@2@@std@@IAEPAV?$basic_string@DU?$char_traits@D@std@@V?$allocator@D@2@@2@PAV32@IABV32@@Z 00425a90 f i AlertSendObj.obj
 0001:00024ac0       ?insert@?$_Tree@V?$_Tmap_traits@V?$basic_string@DU?$char_traits@D@std@@V?$allocator@D@2@@std@@V12@U?$less@V?$basic_string@DU?$char_traits@D@std@@V?$allocator@D@2@@std@@@2@V?$allocator@U?$pair@$$CBV?$basic_string@DU?$char_traits@D@std@@V?$allocator@D@2@@std@@V12@@std@@@2@$0A@@std@@@std@@QAE?AU?$pair@Viterator@?$_Tree@V?$_Tmap_traits@V?$basic_string@DU?$char_traits@D@std@@V?$allocator@D@2@@std@@V12@U?$less@V?$basic_string@DU?$char_traits@D@std@@V?$allocator@D@2@@std@@@2@V?$allocator@U?$pair@$$CBV?$basic_string@DU?$char_traits@D@std@@V?$allocator@D@2@@std@@V12@@std@@@2@$0A@@std@@@std@@_N@2@ABU?$pair@$$CBV?$basic_string@DU?$char_traits@D@std@@V?$allocator@D@2@@std@@V12@@2@@Z 00425ac0 f i AlertSendObj.obj
 0001:00024ba0       ?_Destroy@?$vector@V?$basic_string@DU?$char_traits@D@std@@V?$allocator@D@2@@std@@V?$allocator@V?$basic_string@DU?$char_traits@D@std@@V?$allocator@D@2@@std@@@2@@std@@IAEXPAV?$basic_string@DU?$char_traits@D@std@@V?$allocator@D@2@@2@0@Z 00425ba0 f i AlertSendObj.obj
 0001:00024bd0       ?_Insert_n@?$vector@V?$basic_string@DU?$char_traits@D@std@@V?$allocator@D@2@@std@@V?$allocator@V?$basic_string@DU?$char_traits@D@std@@V?$allocator@D@2@@std@@@2@@std@@IAEXViterator@12@IABV?$basic_string@DU?$char_traits@D@std@@V?$allocator@D@2@@2@@Z 00425bd0 f i AlertSendObj.obj
 0001:00024f00       ?erase@?$_Tree@V?$_Tmap_traits@V?$basic_string@DU?$char_traits@D@std@@V?$allocator@D@2@@std@@KU?$less@V?$basic_string@DU?$char_traits@D@std@@V?$allocator@D@2@@std@@@2@V?$allocator@U?$pair@$$CBV?$basic_string@DU?$char_traits@D@std@@V?$allocator@D@2@@std@@K@std@@@2@$0A@@std@@@std@@QAE?AViterator@12@V312@@Z 00425f00 f i AlertSendObj.obj
 0001:000251e0       ?_Erase@?$_Tree@V?$_Tmap_traits@V?$basic_string@DU?$char_traits@D@std@@V?$allocator@D@2@@std@@KU?$less@V?$basic_string@DU?$char_traits@D@std@@V?$allocator@D@2@@std@@@2@V?$allocator@U?$pair@$$CBV?$basic_string@DU?$char_traits@D@std@@V?$allocator@D@2@@std@@K@std@@@2@$0A@@std@@@std@@IAEXPAU_Node@?$_Tree_nod@V?$_Tmap_traits@V?$basic_string@DU?$char_traits@D@std@@V?$allocator@D@2@@std@@KU?$less@V?$basic_string@DU?$char_traits@D@std@@V?$allocator@D@2@@std@@@2@V?$allocator@U?$pair@$$CBV?$basic_string@DU?$char_traits@D@std@@V?$allocator@D@2@@std@@K@std@@@2@$0A@@std@@@2@@Z 004261e0 f i AlertSendObj.obj
 0001:00025220       ??0otl_stream@@QAE@HPBDAAVotl_connect@@H0@Z 00426220 f i AlertSendObj.obj
 0001:000252f0       ?ParserReturnInList@@YAXPBDAAV?$list@V?$basic_string@DU?$char_traits@D@std@@V?$allocator@D@2@@std@@V?$allocator@V?$basic_string@DU?$char_traits@D@std@@V?$allocator@D@2@@std@@@2@@std@@@Z 004262f0 f   AlertSendObj.obj
 0001:000253b0       ??1?$list@USendInfo@@V?$allocator@USendInfo@@@std@@@std@@QAE@XZ 004263b0 f i AlertSendObj.obj
 0001:000253d0       ??1?$list@USMSInfo@@V?$allocator@USMSInfo@@@std@@@std@@QAE@XZ 004263d0 f i AlertSendObj.obj
 0001:000253f0       ?insert@?$_Tree@V?$_Tmap_traits@V?$basic_string@DU?$char_traits@D@std@@V?$allocator@D@2@@std@@V12@U?$less@V?$basic_string@DU?$char_traits@D@std@@V?$allocator@D@2@@std@@@2@V?$allocator@U?$pair@$$CBV?$basic_string@DU?$char_traits@D@std@@V?$allocator@D@2@@std@@V12@@std@@@2@$0A@@std@@@std@@QAE?AViterator@12@V312@ABU?$pair@$$CBV?$basic_string@DU?$char_traits@D@std@@V?$allocator@D@2@@std@@V12@@2@@Z 004263f0 f i AlertSendObj.obj
 0001:000255b0       ?insert@?$vector@V?$basic_string@DU?$char_traits@D@std@@V?$allocator@D@2@@std@@V?$allocator@V?$basic_string@DU?$char_traits@D@std@@V?$allocator@D@2@@std@@@2@@std@@QAE?AViterator@12@V312@ABV?$basic_string@DU?$char_traits@D@std@@V?$allocator@D@2@@2@@Z 004265b0 f i AlertSendObj.obj
 0001:00025620       ?_Tidy@?$vector@V?$basic_string@DU?$char_traits@D@std@@V?$allocator@D@2@@std@@V?$allocator@V?$basic_string@DU?$char_traits@D@std@@V?$allocator@D@2@@std@@@2@@std@@IAEXXZ 00426620 f i AlertSendObj.obj
 0001:00025670       ?erase@?$_Tree@V?$_Tmap_traits@HV?$basic_string@DU?$char_traits@D@std@@V?$allocator@D@2@@std@@U?$less@H@2@V?$allocator@U?$pair@$$CBHV?$basic_string@DU?$char_traits@D@std@@V?$allocator@D@2@@std@@@std@@@2@$0A@@std@@@std@@QAE?AViterator@12@V312@@Z 00426670 f i AlertSendObj.obj
 0001:00025950       ?_Erase@?$_Tree@V?$_Tmap_traits@HV?$basic_string@DU?$char_traits@D@std@@V?$allocator@D@2@@std@@U?$less@H@2@V?$allocator@U?$pair@$$CBHV?$basic_string@DU?$char_traits@D@std@@V?$allocator@D@2@@std@@@std@@@2@$0A@@std@@@std@@IAEXPAU_Node@?$_Tree_nod@V?$_Tmap_traits@HV?$basic_string@DU?$char_traits@D@std@@V?$allocator@D@2@@std@@U?$less@H@2@V?$allocator@U?$pair@$$CBHV?$basic_string@DU?$char_traits@D@std@@V?$allocator@D@2@@std@@@std@@@2@$0A@@std@@@2@@Z 00426950 f i AlertSendObj.obj
 0001:00025990       ??0CAlertEmailSendObj@@QAE@XZ 00426990 f   AlertSendObj.obj
 0001:00025ab0       ??1CAlertEmailSendObj@@UAE@XZ 00426ab0 f   AlertSendObj.obj
 0001:00025bb0       ??0CAlertSmsSendObj@@QAE@XZ 00426bb0 f   AlertSendObj.obj
 0001:00025cd0       ??1CAlertSmsSendObj@@UAE@XZ 00426cd0 f   AlertSendObj.obj
 0001:00025de0       ??A?$map@V?$basic_string@DU?$char_traits@D@std@@V?$allocator@D@2@@std@@V12@U?$less@V?$basic_string@DU?$char_traits@D@std@@V?$allocator@D@2@@std@@@2@V?$allocator@U?$pair@$$CBV?$basic_string@DU?$char_traits@D@std@@V?$allocator@D@2@@std@@V12@@std@@@2@@std@@QAEAAV?$basic_string@DU?$char_traits@D@std@@V?$allocator@D@2@@1@ABV21@@Z 00426de0 f i AlertSendObj.obj
 0001:00025e90       ??1?$vector@V?$basic_string@DU?$char_traits@D@std@@V?$allocator@D@2@@std@@V?$allocator@V?$basic_string@DU?$char_traits@D@std@@V?$allocator@D@2@@std@@@2@@std@@QAE@XZ 00426e90 f i AlertSendObj.obj
 0001:00025ea0       ?push_back@?$vector@V?$basic_string@DU?$char_traits@D@std@@V?$allocator@D@2@@std@@V?$allocator@V?$basic_string@DU?$char_traits@D@std@@V?$allocator@D@2@@std@@@2@@std@@QAEXABV?$basic_string@DU?$char_traits@D@std@@V?$allocator@D@2@@2@@Z 00426ea0 f i AlertSendObj.obj
 0001:00025f30       ?erase@?$_Tree@V?$_Tmap_traits@V?$basic_string@DU?$char_traits@D@std@@V?$allocator@D@2@@std@@KU?$less@V?$basic_string@DU?$char_traits@D@std@@V?$allocator@D@2@@std@@@2@V?$allocator@U?$pair@$$CBV?$basic_string@DU?$char_traits@D@std@@V?$allocator@D@2@@std@@K@std@@@2@$0A@@std@@@std@@QAE?AViterator@12@V312@0@Z 00426f30 f i AlertSendObj.obj
 0001:00025ff0       ??_GCAlertEmailSendObj@@UAEPAXI@Z 00426ff0 f i AlertSendObj.obj
 0001:00025ff0       ??_ECAlertEmailSendObj@@UAEPAXI@Z 00426ff0 f i AlertSendObj.obj
 0001:00026010       ?GetInfoFromEmailAddress@CAlertEmailSendObj@@AAE_NV?$basic_string@DU?$char_traits@D@std@@V?$allocator@D@2@@std@@@Z 00427010 f   AlertSendObj.obj
 0001:00026c40       ??_ECAlertSmsSendObj@@UAEPAXI@Z 00427c40 f i AlertSendObj.obj
 0001:00026c40       ??_GCAlertSmsSendObj@@UAEPAXI@Z 00427c40 f i AlertSendObj.obj
 0001:00026c60       ?GetInfoFromSmsAddress@CAlertSmsSendObj@@AAE_NV?$basic_string@DU?$char_traits@D@std@@V?$allocator@D@2@@std@@@Z 00427c60 f   AlertSendObj.obj
 0001:000278d0       ?String2Array@CAlertSmsSendObj@@QAEXAAV?$vector@V?$basic_string@DU?$char_traits@D@std@@V?$allocator@D@2@@std@@V?$allocator@V?$basic_string@DU?$char_traits@D@std@@V?$allocator@D@2@@std@@@2@@std@@V?$basic_string@DU?$char_traits@D@std@@V?$allocator@D@2@@3@1@Z 004288d0 f   AlertSendObj.obj
 0001:00027a20       ?process_msg@CAlertSmsSendObj@@QAEHAAV?$vector@V?$basic_string@DU?$char_traits@D@std@@V?$allocator@D@2@@std@@V?$allocator@V?$basic_string@DU?$char_traits@D@std@@V?$allocator@D@2@@std@@@2@@std@@V?$basic_string@DU?$char_traits@D@std@@V?$allocator@D@2@@3@1H@Z 00428a20 f   AlertSendObj.obj
 0001:00027d20       ?SendSmsFromDatabase@CAlertSmsSendObj@@QAE_NAAV?$basic_string@DU?$char_traits@D@std@@V?$allocator@D@2@@std@@@Z 00428d20 f   AlertSendObj.obj
 0001:00029d30       ?SendSmsFromCom@CAlertSmsSendObj@@QAE_NXZ 0042ad30 f   AlertSendObj.obj
 0001:0002a0e0       ?SendSmsFromSelfDefine@CAlertSmsSendObj@@QAE_NXZ 0042b0e0 f   AlertSendObj.obj
 0001:0002a960       ?erase@?$_Tree@V?$_Tmap_traits@HV?$basic_string@DU?$char_traits@D@std@@V?$allocator@D@2@@std@@U?$less@H@2@V?$allocator@U?$pair@$$CBHV?$basic_string@DU?$char_traits@D@std@@V?$allocator@D@2@@std@@@std@@@2@$0A@@std@@@std@@QAE?AViterator@12@V312@0@Z 0042b960 f i AlertSendObj.obj
 0001:0002aa20       ?SendAlert@CAlertEmailSendObj@@UAE_NXZ 0042ba20 f   AlertSendObj.obj
 0001:0002c690       ?SendAlert@CAlertSmsSendObj@@UAE_NXZ 0042d690 f   AlertSendObj.obj
 0001:0002e150       ??1?$map@V?$basic_string@DU?$char_traits@D@std@@V?$allocator@D@2@@std@@KU?$less@V?$basic_string@DU?$char_traits@D@std@@V?$allocator@D@2@@std@@@2@V?$allocator@U?$pair@$$CBV?$basic_string@DU?$char_traits@D@std@@V?$allocator@D@2@@std@@K@std@@@2@@std@@QAE@XZ 0042f150 f i AlertSendObj.obj
 0001:0002e180       ??1?$map@HV?$basic_string@DU?$char_traits@D@std@@V?$allocator@D@2@@std@@U?$less@H@2@V?$allocator@U?$pair@$$CBHV?$basic_string@DU?$char_traits@D@std@@V?$allocator@D@2@@std@@@std@@@2@@std@@QAE@XZ 0042f180 f i AlertSendObj.obj
 0001:0002e1b0       ?GetDeviceRunParam@@YA?AV?$basic_string@DU?$char_traits@D@std@@V?$allocator@D@2@@std@@V12@@Z 0042f1b0 f   AlertSendObj.obj
 0001:0002e7a0       ?DoUnixScript@CAlertScriptSendObj@@QAE_NXZ 0042f7a0 f   AlertSendObj.obj
 0001:0002e9e0       ??0?$map@V?$basic_string@DU?$char_traits@D@std@@V?$allocator@D@2@@std@@KU?$less@V?$basic_string@DU?$char_traits@D@std@@V?$allocator@D@2@@std@@@2@V?$allocator@U?$pair@$$CBV?$basic_string@DU?$char_traits@D@std@@V?$allocator@D@2@@std@@K@std@@@2@@std@@QAE@XZ 0042f9e0 f i AlertSendObj.obj
 0001:0002e9e0       ??0?$map@HV?$basic_string@DU?$char_traits@D@std@@V?$allocator@D@2@@std@@U?$less@H@2@V?$allocator@U?$pair@$$CBHV?$basic_string@DU?$char_traits@D@std@@V?$allocator@D@2@@std@@@std@@@2@@std@@QAE@XZ 0042f9e0 f i AlertSendObj.obj
 0001:0002ea10       ?SendAlert@CAlertScriptSendObj@@UAE_NXZ 0042fa10 f   AlertSendObj.obj
 0001:0002f310       ?hasrun@@YA_NXZ            00430310 f   AlertServer.obj
 0001:0002f360       _main                      00430360 f   AlertServer.obj
 0001:00030070       ?FuncGetInstallPath@@YA?AV?$CStringT@DV?$StrTraitMFC_DLL@DV?$ChTraitsCRT@D@ATL@@@@@ATL@@XZ 00431070 f   funcGeneral.obj
 0001:00030110       ?FuncGetLeftStringByMark@@YA?AV?$CStringT@DV?$StrTraitMFC_DLL@DV?$ChTraitsCRT@D@ATL@@@@@ATL@@V12@0H@Z 00431110 f   funcGeneral.obj
 0001:00030280       ?FuncGetRightString@@YA?AV?$CStringT@DV?$StrTraitMFC_DLL@DV?$ChTraitsCRT@D@ATL@@@@@ATL@@V12@0@Z 00431280 f   funcGeneral.obj
 0001:000303e0       ??0CGsmOperate@@QAE@XZ     004313e0 f   GsmOperate.obj
 0001:00030420       ??1CGsmOperate@@UAE@XZ     00431420 f   GsmOperate.obj
 0001:00030450       ?gsmEncodeUcs2@CGsmOperate@@QAEHPBDPAEH@Z 00431450 f   GsmOperate.obj
 0001:000304e0       ?gsmString2Bytes@CGsmOperate@@QAEHPBDPAEH@Z 004314e0 f   GsmOperate.obj
 0001:00030540       ?gsmBytes2String@CGsmOperate@@QAEHPBEPADH@Z 00431540 f   GsmOperate.obj
 0001:000305d0       ?gsmInvertNumbers@CGsmOperate@@QAEHPBDPADH@Z 004315d0 f   GsmOperate.obj
 0001:00030610       ??_GCGsmOperate@@UAEPAXI@Z 00431610 f i GsmOperate.obj
 0001:00030610       ??_ECGsmOperate@@UAEPAXI@Z 00431610 f i GsmOperate.obj
 0001:00030630       ?gsmEncodePdu@CGsmOperate@@QAEHPBUSM_PARAM@1@PAD@Z 00431630 f   GsmOperate.obj
 0001:000307f0       ?Dump@CObject@@UBEXAAVCDumpContext@@@Z 004317f0 f i MailMessage.obj
 0001:000307f0       ?Serialize@CObject@@UAEXAAVCArchive@@@Z 004317f0 f i MIMEMessage.obj
 0001:00030800       ?Init@CCriticalSection@@AAEHXZ 00431800 f i MIMEMessage.obj
 0001:00030880       ??0CCriticalSection@@QAE@XZ 00431880 f i MIMEMessage.obj
 0001:000308e0       ?Unlock@CSyncObject@@UAEHJPAJ@Z 004318e0 f i MIMEMessage.obj
 0001:000308f0       ??1CCriticalSection@@UAE@XZ 004318f0 f i MIMEMessage.obj
 0001:00030910       ?Lock@CCriticalSection@@QAEHXZ 00431910 f i MIMEMessage.obj
 0001:00030980       ?Lock@CCriticalSection@@UAEHK@Z 00431980 f i MIMEMessage.obj
 0001:00030990       ?Unlock@CCriticalSection@@UAEHXZ 00431990 f i MIMEMessage.obj
 0001:000309a0       ??_GCCriticalSection@@UAEPAXI@Z 004319a0 f i MIMEMessage.obj
 0001:000309a0       ??_ECCriticalSection@@UAEPAXI@Z 004319a0 f i MIMEMessage.obj
 0001:000309c0       ??1?$CList@PAVCMIMEContentAgent@@PAV1@@@UAE@XZ 004319c0 f i MIMEMessage.obj
 0001:00030a00       ?Serialize@?$CList@PAVCMIMEContentAgent@@PAV1@@@UAEXAAVCArchive@@@Z 00431a00 f i MIMEMessage.obj
 0001:00030ae0       ??$SerializeElements@PAVCMIMEContentAgent@@@@YGXAAVCArchive@@PAPAVCMIMEContentAgent@@H@Z 00431ae0 f i MIMEMessage.obj
 0001:00030b70       ??_G?$CList@PAVCMIMEContentAgent@@PAV1@@@UAEPAXI@Z 00431b70 f i MIMEMessage.obj
 0001:00030b70       ??_E?$CList@PAVCMIMEContentAgent@@PAV1@@@UAEPAXI@Z 00431b70 f i MIMEMessage.obj
 0001:00030b90       ??0CMIMETypeManager@CMIMEMessage@@QAE@XZ 00431b90 f   MIMEMessage.obj
 0001:00030bd0       ??1CMIMETypeManager@CMIMEMessage@@UAE@XZ 00431bd0 f   MIMEMessage.obj
 0001:00030c90       ??_GCMIMETypeManager@CMIMEMessage@@UAEPAXI@Z 00431c90 f i MIMEMessage.obj
 0001:00030c90       ??_ECMIMETypeManager@CMIMEMessage@@UAEPAXI@Z 00431c90 f i MIMEMessage.obj
 0001:00030cb0       ??0CSerialPort@@QAE@XZ     00431cb0 f   SerialPort.obj
 0001:00030ce0       ??1CSerialPort@@UAE@XZ     00431ce0 f   SerialPort.obj
 0001:00030d10       ?OpenPort@CSerialPort@@AAEPAXPBDHHHH@Z 00431d10 f   SerialPort.obj
 0001:00030dc0       ?page@CSerialPort@@AAEHPADPAUMsgList@1@H@Z 00431dc0 f   SerialPort.obj
 0001:00030f20       ?gsmSendMessage@CSerialPort@@AAE_NPBUSM_PARAM@CGsmOperate@@@Z 00431f20 f   SerialPort.obj
 0001:00031180       ?InitPort@CSerialPort@@QAEHV?$CStringT@DV?$StrTraitMFC_DLL@DV?$ChTraitsCRT@D@ATL@@@@@ATL@@@Z 00432180 f   SerialPort.obj
 0001:000313c0       ?CloseCom@CSerialPort@@QAEXXZ 004323c0 f   SerialPort.obj
 0001:000313e0       ?SendLongMsg@CSerialPort@@QAEHV?$CStringT@DV?$StrTraitMFC_DLL@DV?$ChTraitsCRT@D@ATL@@@@@ATL@@00@Z 004323e0 f   SerialPort.obj
 0001:00031550       ??_GCSerialPort@@UAEPAXI@Z 00432550 f i SerialPort.obj
 0001:00031550       ??_ECSerialPort@@UAEPAXI@Z 00432550 f i SerialPort.obj
 0001:00031570       ?SendMsg@CSerialPort@@QAEHV?$CStringT@DV?$StrTraitMFC_DLL@DV?$ChTraitsCRT@D@ATL@@@@@ATL@@0H@Z 00432570 f   SerialPort.obj
 0001:00031994       ?notify@Thread@ost@@MAEXPAV12@@Z 00432994 f   ccgnu2:ccgnu2.dll
 0001:0003199a       ?getExtended@Thread@ost@@MAEPAXXZ 0043299a f   ccgnu2:ccgnu2.dll
 0001:000319a0       ?initial@Thread@ost@@MAEXXZ 004329a0 f   ccgnu2:ccgnu2.dll
 0001:000319a6       ?final@Thread@ost@@MAEXXZ  004329a6 f   ccgnu2:ccgnu2.dll
 0001:000319b0       ??0Des@@QAE@XZ             004329b0 f   svdes:Des.obj
 0001:000319c0       ??1Des@@UAE@XZ             004329c0 f   svdes:Des.obj
 0001:000319d0       ?bitsel@Des@@AAEIPAIPBHH@Z 004329d0 f   svdes:Des.obj
 0001:00031a30       ?des_decipher@Des@@AAEXPAIIIPAUDESContext@@@Z 00432a30 f   svdes:Des.obj
 0001:000323b0       ??_GDes@@UAEPAXI@Z         004333b0 f i svdes:Des.obj
 0001:000323b0       ??_EDes@@UAEPAXI@Z         004333b0 f i svdes:Des.obj
 0001:000323d0       ?des_key_setup@Des@@AAEXIIPAUDESContext@@@Z 004333d0 f   svdes:Des.obj
 0001:00032550       ?des_cbc_decrypt@Des@@AAEXPAEPBEIPAUDESContext@@@Z 00433550 f   svdes:Des.obj
 0001:00032680       ?Decrypt@Des@@QAE_NPBDPAD@Z 00433680 f   svdes:Des.obj
 0001:00032898       ??2@YAPAXI@Z               00433898 f   msvcprt:newop_s.obj
 0001:000328bd       ??_U@YAPAXI@Z              004338bd f   msvcprt:newaop_s.obj
 0001:000328c2       ??3@YAXPAX@Z               004338c2 f   mfc71:MFC71.DLL
 0001:000328c8       ?AfxThrowMemoryException@@YGXXZ 004338c8 f   mfc71:MFC71.DLL
 0001:000328ce       ??1CInternetSession@@UAE@XZ 004338ce f   mfc71:MFC71.DLL
 0001:000328d4       ?OpenURL@CInternetSession@@QAEPAVCStdioFile@@PBDKK0K@Z 004338d4 f   mfc71:MFC71.DLL
 0001:000328da       ??0CInternetSession@@QAE@PBDKK00K@Z 004338da f   mfc71:MFC71.DLL
 0001:000328e0       ??_V@YAXPAX@Z              004338e0 f   mfc71:MFC71.DLL
 0001:000328f0       ?GetRuntimeClass@CObject@@UBEPAUCRuntimeClass@@XZ 004338f0 f   mfc71:MFC71.DLL
 0001:000328f6       ?ReadCount@CArchive@@QAEKXZ 004338f6 f   mfc71:MFC71.DLL
 0001:000328fc       ?WriteCount@CArchive@@QAEXK@Z 004338fc f   mfc71:MFC71.DLL
 0001:00032902       ?Read@CArchive@@QAEIPAXI@Z 00433902 f   mfc71:MFC71.DLL
 0001:00032908       ?Write@CArchive@@QAEXPBXI@Z 00433908 f   mfc71:MFC71.DLL
 0001:0003290e       ?GetRuntimeClass@CCriticalSection@@UBEPAUCRuntimeClass@@XZ 0043390e f   mfc71:MFC71.DLL
 0001:00032914       ??1CSyncObject@@UAE@XZ     00433914 f   mfc71:MFC71.DLL
 0001:0003291a       ??0CSyncObject@@QAE@PBD@Z  0043391a f   mfc71:MFC71.DLL
 0001:00032920       ?Create@CPlex@@SGPAU1@AAPAU1@II@Z 00433920 f   mfc71:MFC71.DLL
 0001:00032926       ?FreeDataChain@CPlex@@QAEXXZ 00433926 f   mfc71:MFC71.DLL
 0001:0003292c       ??0CComCriticalSection@ATL@@QAE@XZ 0043392c f i mfcs71:stdafx.obj
 0001:00032940       ?Init@CComCriticalSection@ATL@@QAEJXZ 00433940 f i mfcs71:stdafx.obj
 0001:00032990       ___CxxFrameHandler         00433990 f   msvcrt:MSVCR71.dll
 0001:000329a0       _malloc                    004339a0 f   msvcrt:MSVCR71.dll
 0001:000329a6       _free                      004339a6 f   msvcrt:MSVCR71.dll
 0001:000329ac       __except_handler3          004339ac f   msvcrt:MSVCR71.dll
 0001:000329c0       __chkstk                   004339c0 f   msvcrt:chkstk.obj
 0001:000329c0       __alloca_probe             004339c0     msvcrt:chkstk.obj
 0001:00032a2e       @__security_check_cookie@4 00433a2e f   msvcrt:secchk.obj
 0001:00032a3c       ??0exception@@QAE@ABV0@@Z  00433a3c f   msvcrt:MSVCR71.dll
 0001:00032a42       ??_Etype_info@@UAEPAXI@Z   00433a42 f i msvcrt:ti_inst.obj
 0001:00032a8e       __CxxThrowException@8      00433a8e f   msvcrt:MSVCR71.dll
 0001:00032a94       __onexit                   00433a94 f   msvcrt:atonexit.obj
 0001:00032aba       _atexit                    00433aba f   msvcrt:atonexit.obj
 0001:00032acc       ?__ArrayUnwind@@YGXPAXIHP6EX0@Z@Z 00433acc f   msvcrt:ehvecdtr.obj
 0001:00032b2a       ??_M@YGXPAXIHP6EX0@Z@Z     00433b2a f   msvcrt:ehvecdtr.obj
 0001:00032b8a       ??_L@YGXPAXIHP6EX0@Z1@Z    00433b8a f   msvcrt:ehvecctr.obj
 0001:00032bec       __ftol2                    00433bec f   msvcrt:ftol2.obj
 0001:00032c70       __allmul                   00433c70 f   msvcrt:llmul.obj
 0001:00032ca4       _mainCRTStartup            00433ca4 f   msvcrt:crtexe.obj
 0001:00032e3c       __callnewh                 00433e3c f   msvcrt:MSVCR71.dll
 0001:00032e44       __SEH_prolog               00433e44 f   msvcrt:sehprolg.obj
 0001:00032e7f       __SEH_epilog               00433e7f f   msvcrt:sehprolg.obj
 0001:00032e90       _memset                    00433e90 f   msvcrt:MSVCR71.dll
 0001:00032e98       __EH_prolog                00433e98 f   msvcrt:ehprolog.obj
 0001:00032eb7       ___security_init_cookie    00433eb7 f   msvcrt:seccinit.obj
 0001:00032f1e       ___security_error_handler  00433f1e f   msvcrt:MSVCR71.dll
 0001:00032f24       ??1type_info@@UAE@XZ       00433f24 f   msvcrt:MSVCR71.dll
 0001:00032f2a       ___dllonexit               00433f2a f   msvcrt:MSVCR71.dll
 0001:00032f30       ?terminate@@YAXXZ          00433f30 f   msvcrt:MSVCR71.dll
 0001:00032f36       __XcptFilter               00433f36 f   msvcrt:MSVCR71.dll
 0001:00032f3c       __amsg_exit                00433f3c f   msvcrt:MSVCR71.dll
 0001:00032f42       __RTC_Initialize           00433f42 f   msvcrt:initsect.obj
 0001:00032f86       __RTC_Terminate            00433f86 f   msvcrt:initsect.obj
 0001:00032fca       __initterm                 00433fca f   msvcrt:MSVCR71.dll
 0001:00032fd0       __setdefaultprecision      00433fd0 f   msvcrt:fp8.obj
 0001:00032fe2       __setargv                  00433fe2 f   msvcrt:dllargv.obj
 0001:00032fe2       __matherr                  00433fe2 f   msvcrt:merr.obj
 0001:00032fe6       __controlfp                00433fe6 f   msvcrt:MSVCR71.dll
 0001:00032ff0       ?_com_issue_error@@YGXJ@Z  00433ff0 f   comsupp:comsupp.obj
 0001:00033000       ?_com_raise_error@@YGXJPAUIErrorInfo@@@Z 00434000 f   comsupp:comraise.obj
 0001:00033040       ??0_com_error@@QAE@ABV0@@Z 00434040 f i comsupp:comraise.obj
 0001:00033080       ??1_com_error@@UAE@XZ      00434080 f i comsupp:comraise.obj
 0001:000330b0       ??_E_com_error@@UAEPAXI@Z  004340b0 f i comsupp:comraise.obj
 0001:000330b0       ??_G_com_error@@UAEPAXI@Z  004340b0 f i comsupp:comraise.obj
 0001:000330ea       _SQLFreeHandle@8           004340ea f   odbc32:ODBC32.dll
 0001:000330f0       _SQLDriverConnect@32       004340f0 f   odbc32:ODBC32.dll
 0001:000330f6       _SQLConnect@28             004340f6 f   odbc32:ODBC32.dll
 0001:000330fc       _SQLSetConnectAttr@16      004340fc f   odbc32:ODBC32.dll
 0001:00033102       _SQLSetEnvAttr@16          00434102 f   odbc32:ODBC32.dll
 0001:00033108       _SQLAllocHandle@12         00434108 f   odbc32:ODBC32.dll
 0001:0003310e       _SQLGetDiagRec@32          0043410e f   odbc32:ODBC32.dll
 0001:00033114       _SQLEndTran@12             00434114 f   odbc32:ODBC32.dll
 0001:0003311a       _SQLSetStmtAttr@16         0043411a f   odbc32:ODBC32.dll
 0001:00033120       _SQLPrepare@12             00434120 f   odbc32:ODBC32.dll
 0001:00033126       _SQLRowCount@8             00434126 f   odbc32:ODBC32.dll
 0001:0003312c       _SQLExecDirect@12          0043412c f   odbc32:ODBC32.dll
 0001:00033132       _SQLForeignKeys@52         00434132 f   odbc32:ODBC32.dll
 0001:00033138       _SQLProcedureColumns@36    00434138 f   odbc32:ODBC32.dll
 0001:0003313e       _SQLPrimaryKeys@28         0043413e f   odbc32:ODBC32.dll
 0001:00033144       _SQLTablePrivileges@28     00434144 f   odbc32:ODBC32.dll
 0001:0003314a       _SQLColumnPrivileges@36    0043414a f   odbc32:ODBC32.dll
 0001:00033150       _SQLProcedures@28          00434150 f   odbc32:ODBC32.dll
 0001:00033156       _SQLColumns@36             00434156 f   odbc32:ODBC32.dll
 0001:0003315c       _SQLTables@36              0043415c f   odbc32:ODBC32.dll
 0001:00033162       _SQLExecute@4              00434162 f   odbc32:ODBC32.dll
 0001:00033168       _SQLDescribeCol@36         00434168 f   odbc32:ODBC32.dll
 0001:0003316e       _SQLNumResultCols@8        0043416e f   odbc32:ODBC32.dll
 0001:00033174       _SQLFreeStmt@8             00434174 f   odbc32:ODBC32.dll
 0001:0003317a       _SQLFetchScroll@12         0043417a f   odbc32:ODBC32.dll
 0001:00033180       _SQLDisconnect@4           00434180 f   odbc32:ODBC32.dll
 0001:00033186       _SQLBindParameter@40       00434186 f   odbc32:ODBC32.dll
 0001:0003318c       _SQLBindCol@24             0043418c f   odbc32:ODBC32.dll
 0001:00033192       ?RemoveAll@?$CSimpleArray@PAUHINSTANCE__@@V?$CSimpleArrayEqualHelper@PAUHINSTANCE__@@@ATL@@@ATL@@QAEXXZ 00434192 f i atls:atlbase.obj
 0001:000331af       ??0_ATL_BASE_MODULE70@ATL@@QAE@XZ 004341af f i atls:atlbase.obj
 0001:000331c9       ??1CAtlBaseModule@ATL@@QAE@XZ 004341c9 f   atls:atlbase.obj
 0001:000331df       ??0CAtlBaseModule@ATL@@QAE@XZ 004341df f   atls:atlbase.obj
 0002:00000000       __imp__GetTickCount@0      0043c000     kernel32:KERNEL32.dll
 0002:00000004       __imp__Sleep@4             0043c004     kernel32:KERNEL32.dll
 0002:00000008       __imp__GetProcAddress@8    0043c008     kernel32:KERNEL32.dll
 0002:0000000c       __imp__LoadLibraryA@4      0043c00c     kernel32:KERNEL32.dll
 0002:00000010       __imp__FreeLibrary@4       0043c010     kernel32:KERNEL32.dll
 0002:00000014       __imp__LocalFree@4         0043c014     kernel32:KERNEL32.dll
 0002:00000018       __imp__FormatMessageA@28   0043c018     kernel32:KERNEL32.dll
 0002:0000001c       __imp__OutputDebugStringA@4 0043c01c     kernel32:KERNEL32.dll
 0002:00000020       __imp__WinExec@8           0043c020     kernel32:KERNEL32.dll
 0002:00000024       __imp__GetLocalTime@4      0043c024     kernel32:KERNEL32.dll
 0002:00000028       __imp__SetLastError@4      0043c028     kernel32:KERNEL32.dll
 0002:0000002c       __imp__CreateEventA@16     0043c02c     kernel32:KERNEL32.dll
 0002:00000030       __imp__InitializeCriticalSection@4 0043c030     kernel32:KERNEL32.dll
 0002:00000034       __imp__DeleteCriticalSection@4 0043c034     kernel32:KERNEL32.dll
 0002:00000038       __imp__EnterCriticalSection@4 0043c038     kernel32:KERNEL32.dll
 0002:0000003c       __imp__LeaveCriticalSection@4 0043c03c     kernel32:KERNEL32.dll
 0002:00000040       __imp__CloseHandle@4       0043c040     kernel32:KERNEL32.dll
 0002:00000044       __imp__SetCommTimeouts@8   0043c044     kernel32:KERNEL32.dll
 0002:00000048       __imp__SetupComm@12        0043c048     kernel32:KERNEL32.dll
 0002:0000004c       __imp__SetCommState@8      0043c04c     kernel32:KERNEL32.dll
 0002:00000050       __imp__GetCommState@8      0043c050     kernel32:KERNEL32.dll
 0002:00000054       __imp__CreateFileA@28      0043c054     kernel32:KERNEL32.dll
 0002:00000058       __imp__ReadFile@20         0043c058     kernel32:KERNEL32.dll
 0002:0000005c       __imp__WriteFile@20        0043c05c     kernel32:KERNEL32.dll
 0002:00000060       __imp__GetSystemTimeAsFileTime@4 0043c060     kernel32:KERNEL32.dll
 0002:00000064       __imp__GetCurrentProcessId@0 0043c064     kernel32:KERNEL32.dll
 0002:00000068       __imp__GetCurrentThreadId@0 0043c068     kernel32:KERNEL32.dll
 0002:0000006c       __imp__QueryPerformanceCounter@4 0043c06c     kernel32:KERNEL32.dll
 0002:00000070       __imp__GetModuleHandleA@4  0043c070     kernel32:KERNEL32.dll
 0002:00000074       __imp__ExitProcess@4       0043c074     kernel32:KERNEL32.dll
 0002:00000078       __imp__GetLastError@0      0043c078     kernel32:KERNEL32.dll
 0002:0000007c       __imp__MultiByteToWideChar@24 0043c07c     kernel32:KERNEL32.dll
 0002:00000080       __imp__GetVersionExA@4     0043c080     kernel32:KERNEL32.dll
 0002:00000084       \177KERNEL32_NULL_THUNK_DATA 0043c084     kernel32:KERNEL32.dll
 0002:00000088       __imp_?AllocSysString@?$CStringT@DV?$StrTraitMFC_DLL@DV?$ChTraitsCRT@D@ATL@@@@@ATL@@QBEPA_WXZ 0043c088     mfc71:MFC71.DLL
 0002:00000088       __imp_?AllocSysString@?$CStringT@DV?$StrTraitMFC_DLL@DV?$ChTraitsCRT@D@ATL@@@@@ATL@@QBEPAGXZ 0043c088     mfc71:MFC71.DLL
 0002:0000008c       __imp_??0?$CStringT@DV?$StrTraitMFC_DLL@DV?$ChTraitsCRT@D@ATL@@@@@ATL@@QAE@PB_W@Z 0043c08c     mfc71:MFC71.DLL
 0002:0000008c       __imp_??0?$CStringT@DV?$StrTraitMFC_DLL@DV?$ChTraitsCRT@D@ATL@@@@@ATL@@QAE@PBG@Z 0043c08c     mfc71:MFC71.DLL
 0002:00000090       __imp_?GetAt@?$CSimpleStringT@D$00@ATL@@QBEDH@Z 0043c090     mfc71:MFC71.DLL
 0002:00000094       __imp_?FreeDataChain@CPlex@@QAEXXZ 0043c094     mfc71:MFC71.DLL
 0002:00000098       __imp_?Create@CPlex@@SGPAU1@AAPAU1@II@Z 0043c098     mfc71:MFC71.DLL
 0002:0000009c       __imp_??0CSyncObject@@QAE@PBD@Z 0043c09c     mfc71:MFC71.DLL
 0002:000000a0       __imp_??1CSyncObject@@UAE@XZ 0043c0a0     mfc71:MFC71.DLL
 0002:000000a4       __imp_?GetRuntimeClass@CCriticalSection@@UBEPAUCRuntimeClass@@XZ 0043c0a4     mfc71:MFC71.DLL
 0002:000000a8       __imp_?Write@CArchive@@QAEXPBXI@Z 0043c0a8     mfc71:MFC71.DLL
 0002:000000ac       __imp_?Read@CArchive@@QAEIPAXI@Z 0043c0ac     mfc71:MFC71.DLL
 0002:000000b0       __imp_?WriteCount@CArchive@@QAEXK@Z 0043c0b0     mfc71:MFC71.DLL
 0002:000000b4       __imp_?ReadCount@CArchive@@QAEKXZ 0043c0b4     mfc71:MFC71.DLL
 0002:000000b8       __imp_?GetRuntimeClass@CObject@@UBEPAUCRuntimeClass@@XZ 0043c0b8     mfc71:MFC71.DLL
 0002:000000bc       __imp_?Left@?$CStringT@DV?$StrTraitMFC_DLL@DV?$ChTraitsCRT@D@ATL@@@@@ATL@@QBE?AV12@H@Z 0043c0bc     mfc71:MFC71.DLL
 0002:000000c0       __imp_?Find@?$CStringT@DV?$StrTraitMFC_DLL@DV?$ChTraitsCRT@D@ATL@@@@@ATL@@QBEHPBDH@Z 0043c0c0     mfc71:MFC71.DLL
 0002:000000c4       __imp_?Right@?$CStringT@DV?$StrTraitMFC_DLL@DV?$ChTraitsCRT@D@ATL@@@@@ATL@@QBE?AV12@H@Z 0043c0c4     mfc71:MFC71.DLL
 0002:000000c8       __imp_?Mid@?$CStringT@DV?$StrTraitMFC_DLL@DV?$ChTraitsCRT@D@ATL@@@@@ATL@@QBE?AV12@HH@Z 0043c0c8     mfc71:MFC71.DLL
 0002:000000cc       __imp_?Format@?$CStringT@DV?$StrTraitMFC_DLL@DV?$ChTraitsCRT@D@ATL@@@@@ATL@@QAAXPBDZZ 0043c0cc     mfc71:MFC71.DLL
 0002:000000d0       __imp_?Replace@?$CStringT@DV?$StrTraitMFC_DLL@DV?$ChTraitsCRT@D@ATL@@@@@ATL@@QAEHPBD0@Z 0043c0d0     mfc71:MFC71.DLL
 0002:000000d4       __imp_?Compare@?$CStringT@DV?$StrTraitMFC_DLL@DV?$ChTraitsCRT@D@ATL@@@@@ATL@@QBEHPBD@Z 0043c0d4     mfc71:MFC71.DLL
 0002:000000d8       __imp_?GetManager@?$CSimpleStringT@D$00@ATL@@QBEPAUIAtlStringMgr@2@XZ 0043c0d8     mfc71:MFC71.DLL
 0002:000000dc       __imp_??0?$CStringT@DV?$StrTraitMFC_DLL@DV?$ChTraitsCRT@D@ATL@@@@@ATL@@QAE@PAUIAtlStringMgr@1@@Z 0043c0dc     mfc71:MFC71.DLL
 0002:000000e0       __imp_?Concatenate@?$CSimpleStringT@D$00@ATL@@KAXAAV12@PBDH1H@Z 0043c0e0     mfc71:MFC71.DLL
 0002:000000e4       __imp_??4?$CStringT@DV?$StrTraitMFC_DLL@DV?$ChTraitsCRT@D@ATL@@@@@ATL@@QAEAAV01@PBD@Z 0043c0e4     mfc71:MFC71.DLL
 0002:000000e8       __imp_?GetBuffer@?$CSimpleStringT@D$00@ATL@@QAEPADXZ 0043c0e8     mfc71:MFC71.DLL
 0002:000000ec       __imp_??4?$CStringT@DV?$StrTraitMFC_DLL@DV?$ChTraitsCRT@D@ATL@@@@@ATL@@QAEAAV01@ABV01@@Z 0043c0ec     mfc71:MFC71.DLL
 0002:000000f0       __imp_??_V@YAXPAX@Z        0043c0f0     mfc71:MFC71.DLL
 0002:000000f4       __imp_?GetBuffer@?$CSimpleStringT@D$00@ATL@@QAEPADH@Z 0043c0f4     mfc71:MFC71.DLL
 0002:000000f8       __imp_??0?$CStringT@DV?$StrTraitMFC_DLL@DV?$ChTraitsCRT@D@ATL@@@@@ATL@@QAE@PBD@Z 0043c0f8     mfc71:MFC71.DLL
 0002:000000fc       __imp_??Y?$CStringT@DV?$StrTraitMFC_DLL@DV?$ChTraitsCRT@D@ATL@@@@@ATL@@QAEAAV01@PBD@Z 0043c0fc     mfc71:MFC71.DLL
 0002:00000100       __imp_??0?$CStringT@DV?$StrTraitMFC_DLL@DV?$ChTraitsCRT@D@ATL@@@@@ATL@@QAE@ABV01@@Z 0043c100     mfc71:MFC71.DLL
 0002:00000104       __imp_??0CInternetSession@@QAE@PBDKK00K@Z 0043c104     mfc71:MFC71.DLL
 0002:00000108       __imp_?OpenURL@CInternetSession@@QAEPAVCStdioFile@@PBDKK0K@Z 0043c108     mfc71:MFC71.DLL
 0002:0000010c       __imp_??0?$CStringT@DV?$StrTraitMFC_DLL@DV?$ChTraitsCRT@D@ATL@@@@@ATL@@QAE@XZ 0043c10c     mfc71:MFC71.DLL
 0002:00000110       __imp_??1?$CStringT@DV?$StrTraitMFC_DLL@DV?$ChTraitsCRT@D@ATL@@@@@ATL@@QAE@XZ 0043c110     mfc71:MFC71.DLL
 0002:00000114       __imp_??1CInternetSession@@UAE@XZ 0043c114     mfc71:MFC71.DLL
 0002:00000118       __imp_?AfxThrowMemoryException@@YGXXZ 0043c118     mfc71:MFC71.DLL
 0002:0000011c       __imp_??3@YAXPAX@Z         0043c11c     mfc71:MFC71.DLL
 0002:00000120       \177MFC71_NULL_THUNK_DATA  0043c120     mfc71:MFC71.DLL
 0002:00000124       __imp_?_Nomemory@std@@YAXXZ 0043c124     msvcprt:MSVCP71.dll
 0002:00000128       __imp_??0?$basic_string@DU?$char_traits@D@std@@V?$allocator@D@2@@std@@QAE@ABV01@@Z 0043c128     msvcprt:MSVCP71.dll
 0002:0000012c       __imp_??1?$basic_string@DU?$char_traits@D@std@@V?$allocator@D@2@@std@@QAE@XZ 0043c12c     msvcprt:MSVCP71.dll
 0002:00000130       __imp_??4?$basic_string@DU?$char_traits@D@std@@V?$allocator@D@2@@std@@QAEAAV01@ABV01@@Z 0043c130     msvcprt:MSVCP71.dll
 0002:00000134       __imp_??0?$basic_string@DU?$char_traits@D@std@@V?$allocator@D@2@@std@@QAE@PBD@Z 0043c134     msvcprt:MSVCP71.dll
 0002:00000138       __imp_?_Unlock@_Mutex@std@@QAEXXZ 0043c138     msvcprt:MSVCP71.dll
 0002:0000013c       __imp_?_Lock@_Mutex@std@@QAEXXZ 0043c13c     msvcprt:MSVCP71.dll
 0002:00000140       __imp_??$?MDU?$char_traits@D@std@@V?$allocator@D@1@@std@@YA_NABV?$basic_string@DU?$char_traits@D@std@@V?$allocator@D@2@@0@0@Z 0043c140     msvcprt:MSVCP71.dll
 0002:00000144       __imp_??Y?$basic_string@DU?$char_traits@D@std@@V?$allocator@D@2@@std@@QAEAAV01@ABV01@@Z 0043c144     msvcprt:MSVCP71.dll
 0002:00000148       __imp_??Y?$basic_string@DU?$char_traits@D@std@@V?$allocator@D@2@@std@@QAEAAV01@PBD@Z 0043c148     msvcprt:MSVCP71.dll
 0002:0000014c       __imp_??Y?$basic_string@DU?$char_traits@D@std@@V?$allocator@D@2@@std@@QAEAAV01@D@Z 0043c14c     msvcprt:MSVCP71.dll
 0002:00000150       __imp_??4?$basic_string@DU?$char_traits@D@std@@V?$allocator@D@2@@std@@QAEAAV01@PBD@Z 0043c150     msvcprt:MSVCP71.dll
 0002:00000154       __imp_?uncaught_exception@std@@YA_NXZ 0043c154     msvcprt:MSVCP71.dll
 0002:00000158       __imp_?_Ipfx@?$basic_istream@DU?$char_traits@D@std@@@std@@QAE_N_N@Z 0043c158     msvcprt:MSVCP71.dll
 0002:0000015c       __imp_?flush@?$basic_ostream@DU?$char_traits@D@std@@@std@@QAEAAV12@XZ 0043c15c     msvcprt:MSVCP71.dll
 0002:00000160       __imp_?_Osfx@?$basic_ostream@DU?$char_traits@D@std@@@std@@QAEXXZ 0043c160     msvcprt:MSVCP71.dll
 0002:00000164       __imp_?clear@ios_base@std@@QAEXH_N@Z 0043c164     msvcprt:MSVCP71.dll
 0002:00000168       __imp_?snextc@?$basic_streambuf@DU?$char_traits@D@std@@@std@@QAEHXZ 0043c168     msvcprt:MSVCP71.dll
 0002:0000016c       __imp_?sgetc@?$basic_streambuf@DU?$char_traits@D@std@@@std@@QAEHXZ 0043c16c     msvcprt:MSVCP71.dll
 0002:00000170       __imp_?max_size@?$basic_string@DU?$char_traits@D@std@@V?$allocator@D@2@@std@@QBEIXZ 0043c170     msvcprt:MSVCP71.dll
 0002:00000174       __imp_?erase@?$basic_string@DU?$char_traits@D@std@@V?$allocator@D@2@@std@@QAEAAV12@II@Z 0043c174     msvcprt:MSVCP71.dll
 0002:00000178       __imp_?npos@?$basic_string@DU?$char_traits@D@std@@V?$allocator@D@2@@std@@2IB 0043c178     msvcprt:MSVCP71.dll
 0002:0000017c       __imp_?sbumpc@?$basic_streambuf@DU?$char_traits@D@std@@@std@@QAEHXZ 0043c17c     msvcprt:MSVCP71.dll
 0002:00000180       __imp_?sputc@?$basic_streambuf@DU?$char_traits@D@std@@@std@@QAEHD@Z 0043c180     msvcprt:MSVCP71.dll
 0002:00000184       __imp_?widen@?$basic_ios@DU?$char_traits@D@std@@@std@@QBEDD@Z 0043c184     msvcprt:MSVCP71.dll
 0002:00000188       __imp_??$?8DU?$char_traits@D@std@@V?$allocator@D@1@@std@@YA_NABV?$basic_string@DU?$char_traits@D@std@@V?$allocator@D@2@@0@PBD@Z 0043c188     msvcprt:MSVCP71.dll
 0002:0000018c       __imp_??$?8DU?$char_traits@D@std@@V?$allocator@D@1@@std@@YA_NABV?$basic_string@DU?$char_traits@D@std@@V?$allocator@D@2@@0@0@Z 0043c18c     msvcprt:MSVCP71.dll
 0002:00000190       __imp_?substr@?$basic_string@DU?$char_traits@D@std@@V?$allocator@D@2@@std@@QBE?AV12@II@Z 0043c190     msvcprt:MSVCP71.dll
 0002:00000194       __imp_?rfind@?$basic_string@DU?$char_traits@D@std@@V?$allocator@D@2@@std@@QBEIPBDII@Z 0043c194     msvcprt:MSVCP71.dll
 0002:00000198       __imp_?_Xran@_String_base@std@@QBEXXZ 0043c198     msvcprt:MSVCP71.dll
 0002:0000019c       __imp_?find@?$basic_string@DU?$char_traits@D@std@@V?$allocator@D@2@@std@@QBEIPBDII@Z 0043c19c     msvcprt:MSVCP71.dll
 0002:000001a0       __imp_??0?$basic_string@DU?$char_traits@D@std@@V?$allocator@D@2@@std@@QAE@XZ 0043c1a0     msvcprt:MSVCP71.dll
 0002:000001a4       __imp_??6?$basic_ostream@DU?$char_traits@D@std@@@std@@QAEAAV01@P6AAAV01@AAV01@@Z@Z 0043c1a4     msvcprt:MSVCP71.dll
 0002:000001a8       __imp_??$?6U?$char_traits@D@std@@@std@@YAAAV?$basic_ostream@DU?$char_traits@D@std@@@0@AAV10@PBD@Z 0043c1a8     msvcprt:MSVCP71.dll
 0002:000001ac       __imp_?cout@std@@3V?$basic_ostream@DU?$char_traits@D@std@@@1@A 0043c1ac     msvcprt:MSVCP71.dll
 0002:000001b0       __imp_?endl@std@@YAAAV?$basic_ostream@DU?$char_traits@D@std@@@1@AAV21@@Z 0043c1b0     msvcprt:MSVCP71.dll
 0002:000001b4       __imp_?replace@?$basic_string@DU?$char_traits@D@std@@V?$allocator@D@2@@std@@QAEAAV12@IIABV12@@Z 0043c1b4     msvcprt:MSVCP71.dll
 0002:000001b8       __imp_??6?$basic_ostream@DU?$char_traits@D@std@@@std@@QAEAAV01@H@Z 0043c1b8     msvcprt:MSVCP71.dll
 0002:000001bc       __imp_?compare@?$basic_string@DU?$char_traits@D@std@@V?$allocator@D@2@@std@@QBEHABV12@@Z 0043c1bc     msvcprt:MSVCP71.dll
 0002:000001c0       __imp_?clear@?$basic_string@DU?$char_traits@D@std@@V?$allocator@D@2@@std@@QAEXXZ 0043c1c0     msvcprt:MSVCP71.dll
 0002:000001c4       __imp_?begin@?$basic_string@DU?$char_traits@D@std@@V?$allocator@D@2@@std@@QAE?AViterator@12@XZ 0043c1c4     msvcprt:MSVCP71.dll
 0002:000001c8       __imp_?end@?$basic_string@DU?$char_traits@D@std@@V?$allocator@D@2@@std@@QAE?AViterator@12@XZ 0043c1c8     msvcprt:MSVCP71.dll
 0002:000001cc       __imp_??$?9DU?$char_traits@D@std@@V?$allocator@D@1@@std@@YA_NABV?$basic_string@DU?$char_traits@D@std@@V?$allocator@D@2@@0@PBD@Z 0043c1cc     msvcprt:MSVCP71.dll
 0002:000001d0       __imp_?compare@?$basic_string@DU?$char_traits@D@std@@V?$allocator@D@2@@std@@QBEHIIPBDI@Z 0043c1d0     msvcprt:MSVCP71.dll
 0002:000001d4       __imp_?replace@?$basic_string@DU?$char_traits@D@std@@V?$allocator@D@2@@std@@QAEAAV12@IIPBD@Z 0043c1d4     msvcprt:MSVCP71.dll
 0002:000001d8       __imp_??_D?$basic_ifstream@DU?$char_traits@D@std@@@std@@QAEXXZ 0043c1d8     msvcprt:MSVCP71.dll
 0002:000001dc       __imp_?close@?$basic_ifstream@DU?$char_traits@D@std@@@std@@QAEXXZ 0043c1dc     msvcprt:MSVCP71.dll
 0002:000001e0       __imp_??0?$basic_ifstream@DU?$char_traits@D@std@@@std@@QAE@PBDHH@Z 0043c1e0     msvcprt:MSVCP71.dll
 0002:000001e4       __imp_?find_last_not_of@?$basic_string@DU?$char_traits@D@std@@V?$allocator@D@2@@std@@QBEIPBDII@Z 0043c1e4     msvcprt:MSVCP71.dll
 0002:000001e8       __imp_?find_first_not_of@?$basic_string@DU?$char_traits@D@std@@V?$allocator@D@2@@std@@QBEIPBDII@Z 0043c1e8     msvcprt:MSVCP71.dll
 0002:000001ec       __imp_?push_back@?$basic_string@DU?$char_traits@D@std@@V?$allocator@D@2@@std@@QAEXD@Z 0043c1ec     msvcprt:MSVCP71.dll
 0002:000001f0       \177MSVCP71_NULL_THUNK_DATA 0043c1f0     msvcprt:MSVCP71.dll
 0002:000001f4       __imp___callnewh           0043c1f4     msvcrt:MSVCR71.dll
 0002:000001f8       __imp___itoa               0043c1f8     msvcrt:MSVCR71.dll
 0002:000001f8       __imp__itoa                0043c1f8     msvcrt:MSVCR71.dll
 0002:000001fc       __imp__strdup              0043c1fc     msvcrt:MSVCR71.dll
 0002:000001fc       __imp___strdup             0043c1fc     msvcrt:MSVCR71.dll
 0002:00000200       __imp__exit                0043c200     msvcrt:MSVCR71.dll
 0002:00000204       __imp__strtol              0043c204     msvcrt:MSVCR71.dll
 0002:00000208       __imp__strncmp             0043c208     msvcrt:MSVCR71.dll
 0002:0000020c       __imp__memmove             0043c20c     msvcrt:MSVCR71.dll
 0002:00000210       __imp__isdigit             0043c210     msvcrt:MSVCR71.dll
 0002:00000214       __imp__isalpha             0043c214     msvcrt:MSVCR71.dll
 0002:00000218       __imp__toupper             0043c218     msvcrt:MSVCR71.dll
 0002:0000021c       __imp__fread               0043c21c     msvcrt:MSVCR71.dll
 0002:00000220       __imp__atoi                0043c220     msvcrt:MSVCR71.dll
 0002:00000224       __imp__puts                0043c224     msvcrt:MSVCR71.dll
 0002:00000228       __imp__strtok              0043c228     msvcrt:MSVCR71.dll
 0002:0000022c       __imp__strncpy             0043c22c     msvcrt:MSVCR71.dll
 0002:00000230       __imp___controlfp          0043c230     msvcrt:MSVCR71.dll
 0002:00000234       __imp____set_app_type      0043c234     msvcrt:MSVCR71.dll
 0002:00000238       __imp____p__fmode          0043c238     msvcrt:MSVCR71.dll
 0002:0000023c       __imp____p__commode        0043c23c     msvcrt:MSVCR71.dll
 0002:00000240       __imp___adjust_fdiv        0043c240     msvcrt:MSVCR71.dll
 0002:00000244       __imp____setusermatherr    0043c244     msvcrt:MSVCR71.dll
 0002:00000248       __imp___initterm           0043c248     msvcrt:MSVCR71.dll
 0002:0000024c       __imp____getmainargs       0043c24c     msvcrt:MSVCR71.dll
 0002:00000250       __imp___amsg_exit          0043c250     msvcrt:MSVCR71.dll
 0002:00000254       __imp____p___initenv       0043c254     msvcrt:MSVCR71.dll
 0002:00000258       __imp___cexit              0043c258     msvcrt:MSVCR71.dll
 0002:0000025c       __imp___XcptFilter         0043c25c     msvcrt:MSVCR71.dll
 0002:00000260       __imp___exit               0043c260     msvcrt:MSVCR71.dll
 0002:00000264       __imp___c_exit             0043c264     msvcrt:MSVCR71.dll
 0002:00000268       __imp_?terminate@@YAXXZ    0043c268     msvcrt:MSVCR71.dll
 0002:0000026c       __imp___onexit             0043c26c     msvcrt:MSVCR71.dll
 0002:00000270       __imp____dllonexit         0043c270     msvcrt:MSVCR71.dll
 0002:00000274       __imp_??1type_info@@UAE@XZ 0043c274     msvcrt:MSVCR71.dll
 0002:00000278       __imp____security_error_handler 0043c278     msvcrt:MSVCR71.dll
 0002:0000027c       __imp_??1exception@@UAE@XZ 0043c27c     msvcrt:MSVCR71.dll
 0002:00000280       __imp_??0exception@@QAE@XZ 0043c280     msvcrt:MSVCR71.dll
 0002:00000284       __imp____CxxFrameHandler   0043c284     msvcrt:MSVCR71.dll
 0002:00000288       __imp__malloc              0043c288     msvcrt:MSVCR71.dll
 0002:0000028c       __imp__free                0043c28c     msvcrt:MSVCR71.dll
 0002:00000290       __imp___except_handler3    0043c290     msvcrt:MSVCR71.dll
 0002:00000294       __imp__sscanf              0043c294     msvcrt:MSVCR71.dll
 0002:00000298       __imp__sprintf             0043c298     msvcrt:MSVCR71.dll
 0002:0000029c       __imp_??0exception@@QAE@ABV0@@Z 0043c29c     msvcrt:MSVCR71.dll
 0002:000002a0       __imp___CxxThrowException@8 0043c2a0     msvcrt:MSVCR71.dll
 0002:000002a4       __imp__printf              0043c2a4     msvcrt:MSVCR71.dll
 0002:000002a8       __imp__time                0043c2a8     msvcrt:MSVCR71.dll
 0002:000002ac       __imp__localtime           0043c2ac     msvcrt:MSVCR71.dll
 0002:000002b0       __imp__fprintf             0043c2b0     msvcrt:MSVCR71.dll
 0002:000002b4       __imp__fclose              0043c2b4     msvcrt:MSVCR71.dll
 0002:000002b8       __imp__fseek               0043c2b8     msvcrt:MSVCR71.dll
 0002:000002bc       __imp__fopen               0043c2bc     msvcrt:MSVCR71.dll
 0002:000002c0       __imp__isspace             0043c2c0     msvcrt:MSVCR71.dll
 0002:000002c4       __imp__isalnum             0043c2c4     msvcrt:MSVCR71.dll
 0002:000002c8       __imp__memset              0043c2c8     msvcrt:MSVCR71.dll
 0002:000002cc       \177MSVCR71_NULL_THUNK_DATA 0043c2cc     msvcrt:MSVCR71.dll
 0002:000002d0       __imp__SQLBindCol@24       0043c2d0     odbc32:ODBC32.dll
 0002:000002d4       __imp__SQLBindParameter@40 0043c2d4     odbc32:ODBC32.dll
 0002:000002d8       __imp__SQLDisconnect@4     0043c2d8     odbc32:ODBC32.dll
 0002:000002dc       __imp__SQLFreeHandle@8     0043c2dc     odbc32:ODBC32.dll
 0002:000002e0       __imp__SQLDriverConnect@32 0043c2e0     odbc32:ODBC32.dll
 0002:000002e4       __imp__SQLConnect@28       0043c2e4     odbc32:ODBC32.dll
 0002:000002e8       __imp__SQLSetConnectAttr@16 0043c2e8     odbc32:ODBC32.dll
 0002:000002ec       __imp__SQLSetEnvAttr@16    0043c2ec     odbc32:ODBC32.dll
 0002:000002f0       __imp__SQLAllocHandle@12   0043c2f0     odbc32:ODBC32.dll
 0002:000002f4       __imp__SQLGetDiagRec@32    0043c2f4     odbc32:ODBC32.dll
 0002:000002f8       __imp__SQLEndTran@12       0043c2f8     odbc32:ODBC32.dll
 0002:000002fc       __imp__SQLSetStmtAttr@16   0043c2fc     odbc32:ODBC32.dll
 0002:00000300       __imp__SQLPrepare@12       0043c300     odbc32:ODBC32.dll
 0002:00000304       __imp__SQLRowCount@8       0043c304     odbc32:ODBC32.dll
 0002:00000308       __imp__SQLExecDirect@12    0043c308     odbc32:ODBC32.dll
 0002:0000030c       __imp__SQLForeignKeys@52   0043c30c     odbc32:ODBC32.dll
 0002:00000310       __imp__SQLProcedureColumns@36 0043c310     odbc32:ODBC32.dll
 0002:00000314       __imp__SQLPrimaryKeys@28   0043c314     odbc32:ODBC32.dll
 0002:00000318       __imp__SQLTablePrivileges@28 0043c318     odbc32:ODBC32.dll
 0002:0000031c       __imp__SQLColumnPrivileges@36 0043c31c     odbc32:ODBC32.dll
 0002:00000320       __imp__SQLProcedures@28    0043c320     odbc32:ODBC32.dll
 0002:00000324       __imp__SQLColumns@36       0043c324     odbc32:ODBC32.dll
 0002:00000328       __imp__SQLTables@36        0043c328     odbc32:ODBC32.dll
 0002:0000032c       __imp__SQLExecute@4        0043c32c     odbc32:ODBC32.dll
 0002:00000330       __imp__SQLDescribeCol@36   0043c330     odbc32:ODBC32.dll
 0002:00000334       __imp__SQLNumResultCols@8  0043c334     odbc32:ODBC32.dll
 0002:00000338       __imp__SQLFreeStmt@8       0043c338     odbc32:ODBC32.dll
 0002:0000033c       __imp__SQLFetchScroll@12   0043c33c     odbc32:ODBC32.dll
 0002:00000340       \177ODBC32_NULL_THUNK_DATA 0043c340     odbc32:ODBC32.dll
 0002:00000344       __imp__VariantInit@4       0043c344     oleaut32:OLEAUT32.dll
 0002:00000348       __imp__VariantClear@4      0043c348     oleaut32:OLEAUT32.dll
 0002:0000034c       \177OLEAUT32_NULL_THUNK_DATA 0043c34c     oleaut32:OLEAUT32.dll
 0002:00000350       __imp__TranslateMessage@4  0043c350     user32:USER32.dll
 0002:00000354       __imp__DispatchMessageA@4  0043c354     user32:USER32.dll
 0002:00000358       __imp__GetMessageA@16      0043c358     user32:USER32.dll
 0002:0000035c       \177USER32_NULL_THUNK_DATA 0043c35c     user32:USER32.dll
 0002:00000360       __imp_??0Datetime@ost@@QAE@HIIHHH@Z 0043c360     ccext2:ccext2.dll
 0002:00000364       __imp_?getMonth@Date@ost@@QBEIXZ 0043c364     ccext2:ccext2.dll
 0002:00000368       __imp_??PDatetime@ost@@QAEHABV01@@Z 0043c368     ccext2:ccext2.dll
 0002:0000036c       __imp_??NDatetime@ost@@QAEHABV01@@Z 0043c36c     ccext2:ccext2.dll
 0002:00000370       __imp_??0Datetime@ost@@QAE@XZ 0043c370     ccext2:ccext2.dll
 0002:00000374       __imp_?getDayOfWeek@Date@ost@@QBEIXZ 0043c374     ccext2:ccext2.dll
 0002:00000378       __imp_?getHour@Time@ost@@QBEHXZ 0043c378     ccext2:ccext2.dll
 0002:0000037c       __imp_?getMinute@Time@ost@@QBEHXZ 0043c37c     ccext2:ccext2.dll
 0002:00000380       __imp_?getYear@Date@ost@@QBEHXZ 0043c380     ccext2:ccext2.dll
 0002:00000384       __imp_?getDay@Date@ost@@QBEIXZ 0043c384     ccext2:ccext2.dll
 0002:00000388       \177ccext2_NULL_THUNK_DATA 0043c388     ccext2:ccext2.dll
 0002:0000038c       __imp_??0Mutex@ost@@QAE@PBD@Z 0043c38c     ccgnu2:ccgnu2.dll
 0002:00000390       __imp_?start@Thread@ost@@QAEHPAVSemaphore@2@@Z 0043c390     ccgnu2:ccgnu2.dll
 0002:00000394       __imp_?tryEnterMutex@Mutex@ost@@QAE_NXZ 0043c394     ccgnu2:ccgnu2.dll
 0002:00000398       __imp_??0Thread@ost@@QAE@HI@Z 0043c398     ccgnu2:ccgnu2.dll
 0002:0000039c       __imp_?final@Thread@ost@@MAEXXZ 0043c39c     ccgnu2:ccgnu2.dll
 0002:000003a0       __imp_?initial@Thread@ost@@MAEXXZ 0043c3a0     ccgnu2:ccgnu2.dll
 0002:000003a4       __imp_?getExtended@Thread@ost@@MAEPAXXZ 0043c3a4     ccgnu2:ccgnu2.dll
 0002:000003a8       __imp_??1Mutex@ost@@UAE@XZ 0043c3a8     ccgnu2:ccgnu2.dll
 0002:000003ac       __imp_??1Thread@ost@@UAE@XZ 0043c3ac     ccgnu2:ccgnu2.dll
 0002:000003b0       __imp_?leaveMutex@Mutex@ost@@QAEXXZ 0043c3b0     ccgnu2:ccgnu2.dll
 0002:000003b4       __imp_?notify@Thread@ost@@MAEXPAV12@@Z 0043c3b4     ccgnu2:ccgnu2.dll
 0002:000003b8       \177ccgnu2_NULL_THUNK_DATA 0043c3b8     ccgnu2:ccgnu2.dll
 0002:000003bc       __imp__CoCreateInstance@20 0043c3bc     ole32:ole32.dll
 0002:000003c0       __imp__CoUninitialize@0    0043c3c0     ole32:ole32.dll
 0002:000003c4       __imp__CoInitialize@4      0043c3c4     ole32:ole32.dll
 0002:000003c8       \177ole32_NULL_THUNK_DATA  0043c3c8     ole32:ole32.dll
 0002:000003cc       __imp_?GetTaskValue@@YA?AV?$basic_string@DU?$char_traits@D@std@@V?$allocator@D@2@@std@@V12@PAX@Z 0043c3cc     svapi:svapi.dll
 0002:000003d0       __imp_?GetTask@@YAPAXV?$basic_string@DU?$char_traits@D@std@@V?$allocator@D@2@@std@@00@Z 0043c3d0     svapi:svapi.dll
 0002:000003d4       __imp_?GetIniFileKeys@@YA_NV?$basic_string@DU?$char_traits@D@std@@V?$allocator@D@2@@std@@AAV?$list@V?$basic_string@DU?$char_traits@D@std@@V?$allocator@D@2@@std@@V?$allocator@V?$basic_string@DU?$char_traits@D@std@@V?$allocator@D@2@@std@@@2@@2@000@Z 0043c3d4     svapi:svapi.dll
 0002:000003d8       __imp_?GetIniFileSections@@YA_NAAV?$list@V?$basic_string@DU?$char_traits@D@std@@V?$allocator@D@2@@std@@V?$allocator@V?$basic_string@DU?$char_traits@D@std@@V?$allocator@D@2@@std@@@2@@std@@V?$basic_string@DU?$char_traits@D@std@@V?$allocator@D@2@@2@11@Z 0043c3d8     svapi:svapi.dll
 0002:000003dc       __imp_?PushMessage@@YA_NV?$basic_string@DU?$char_traits@D@std@@V?$allocator@D@2@@std@@0PBDI00@Z 0043c3dc     svapi:svapi.dll
 0002:000003e0       __imp_?BuildDynByData@@YA_NPBDIAAUsv_dyn@@@Z 0043c3e0     svapi:svapi.dll
 0002:000003e4       __imp_?GetCgiVersion@@YA?AV?$basic_string@DU?$char_traits@D@std@@V?$allocator@D@2@@std@@XZ 0043c3e4     svapi:svapi.dll
 0002:000003e8       __imp_?CloseMQRecord@@YA_NAAPAX@Z 0043c3e8     svapi:svapi.dll
 0002:000003ec       __imp_?GetMessageData@@YA_NPAXAAV?$basic_string@DU?$char_traits@D@std@@V?$allocator@D@2@@std@@AAVTTime@svutil@@PADAAI@Z 0043c3ec     svapi:svapi.dll
 0002:000003f0       __imp_?BlockPopMessage@@YAPAXV?$basic_string@DU?$char_traits@D@std@@V?$allocator@D@2@@std@@00@Z 0043c3f0     svapi:svapi.dll
 0002:000003f4       __imp_?GetAllGroupsInfo@@YA_NAAV?$list@Usv_pair@@V?$allocator@Usv_pair@@@std@@@std@@V?$basic_string@DU?$char_traits@D@std@@V?$allocator@D@2@@2@11@Z 0043c3f4     svapi:svapi.dll
 0002:000003f8       __imp_?CloseTask@@YAXAAPAX@Z 0043c3f8     svapi:svapi.dll
 0002:000003fc       __imp_?CreateQueue@@YA_NV?$basic_string@DU?$char_traits@D@std@@V?$allocator@D@2@@std@@H00@Z 0043c3fc     svapi:svapi.dll
 0002:00000400       __imp_?CloseResource@@YA_NAAPAX@Z 0043c400     svapi:svapi.dll
 0002:00000404       __imp_?GetResourceNode@@YAPAXPAX@Z 0043c404     svapi:svapi.dll
 0002:00000408       __imp_?SetSvdbAddrByFile@@YA_NV?$basic_string@DU?$char_traits@D@std@@V?$allocator@D@2@@std@@@Z 0043c408     svapi:svapi.dll
 0002:0000040c       __imp_?LoadResource@@YAPAXV?$basic_string@DU?$char_traits@D@std@@V?$allocator@D@2@@std@@0@Z 0043c40c     svapi:svapi.dll
 0002:00000410       __imp_?CloseMonitorTemplet@@YAXAAPAX@Z 0043c410     svapi:svapi.dll
 0002:00000414       __imp_?FindNext@@YAPAXABUsv_list@@@Z 0043c414     svapi:svapi.dll
 0002:00000418       __imp_?FindMTReturnFirst@@YA_NPAXAAUsv_list@@@Z 0043c418     svapi:svapi.dll
 0002:0000041c       __imp_?GetMonitorTemplet@@YAPAXHV?$basic_string@DU?$char_traits@D@std@@V?$allocator@D@2@@std@@0@Z 0043c41c     svapi:svapi.dll
 0002:00000420       __imp_?AppendRecord@@YA_NV?$basic_string@DU?$char_traits@D@std@@V?$allocator@D@2@@std@@PBDI00@Z 0043c420     svapi:svapi.dll
 0002:00000424       __imp_?GetSiteViewRootPath@@YA?AV?$basic_string@DU?$char_traits@D@std@@V?$allocator@D@2@@std@@XZ 0043c424     svapi:svapi.dll
 0002:00000428       __imp_?CloseEntity@@YA_NAAPAX@Z 0043c428     svapi:svapi.dll
 0002:0000042c       __imp_?WriteIniFileString@@YA_NV?$basic_string@DU?$char_traits@D@std@@V?$allocator@D@2@@std@@00000@Z 0043c42c     svapi:svapi.dll
 0002:00000430       __imp_?GetIniFileInt@@YAHV?$basic_string@DU?$char_traits@D@std@@V?$allocator@D@2@@std@@0H000@Z 0043c430     svapi:svapi.dll
 0002:00000434       __imp_?GetSVSE@@YAPAXV?$basic_string@DU?$char_traits@D@std@@V?$allocator@D@2@@std@@00@Z 0043c434     svapi:svapi.dll
 0002:00000438       __imp_?GetSVSELabel@@YA?AV?$basic_string@DU?$char_traits@D@std@@V?$allocator@D@2@@std@@PAX@Z 0043c438     svapi:svapi.dll
 0002:0000043c       __imp_?CloseSVSE@@YA_NAAPAX@Z 0043c43c     svapi:svapi.dll
 0002:00000440       __imp_?GetEntityMainAttribNode@@YAPAXPAX@Z 0043c440     svapi:svapi.dll
 0002:00000444       __imp_?InsertTable@@YA_NV?$basic_string@DU?$char_traits@D@std@@V?$allocator@D@2@@std@@H00@Z 0043c444     svapi:svapi.dll
 0002:00000448       __imp_?GetEntity@@YAPAXV?$basic_string@DU?$char_traits@D@std@@V?$allocator@D@2@@std@@00@Z 0043c448     svapi:svapi.dll
 0002:0000044c       __imp_?GetIniFileString@@YA?AV?$basic_string@DU?$char_traits@D@std@@V?$allocator@D@2@@std@@V12@00000@Z 0043c44c     svapi:svapi.dll
 0002:00000450       __imp_?QueryRecords@@YAPAXV?$basic_string@DU?$char_traits@D@std@@V?$allocator@D@2@@std@@H00@Z 0043c450     svapi:svapi.dll
 0002:00000454       __imp_?FindRecordFirst@@YA_NPAXAAUsv_list@@@Z 0043c454     svapi:svapi.dll
 0002:00000458       __imp_?FindNextRecord@@YAPAXAAUsv_list@@@Z 0043c458     svapi:svapi.dll
 0002:0000045c       __imp_?GetRecordDisplayString@@YA_NPAXAAHAAV?$basic_string@DU?$char_traits@D@std@@V?$allocator@D@2@@std@@@Z 0043c45c     svapi:svapi.dll
 0002:00000460       __imp_?ReleaseRecordList@@YAXAAUsv_list@@@Z 0043c460     svapi:svapi.dll
 0002:00000464       __imp_?CloseRecordSet@@YAXAAPAX@Z 0043c464     svapi:svapi.dll
 0002:00000468       __imp_?GetGroup@@YAPAXV?$basic_string@DU?$char_traits@D@std@@V?$allocator@D@2@@std@@00@Z 0043c468     svapi:svapi.dll
 0002:0000046c       __imp_?GetGroupMainAttribNode@@YAPAXPAX@Z 0043c46c     svapi:svapi.dll
 0002:00000470       __imp_?CloseGroup@@YA_NAAPAX@Z 0043c470     svapi:svapi.dll
 0002:00000474       __imp_?GetMonitorParameter@@YAPAXPAX@Z 0043c474     svapi:svapi.dll
 0002:00000478       __imp_?GetMonitor@@YAPAXV?$basic_string@DU?$char_traits@D@std@@V?$allocator@D@2@@std@@00@Z 0043c478     svapi:svapi.dll
 0002:0000047c       __imp_?GetMonitorMainAttribNode@@YAPAXPAX@Z 0043c47c     svapi:svapi.dll
 0002:00000480       __imp_?FindNodeValue@@YA_NPAXV?$basic_string@DU?$char_traits@D@std@@V?$allocator@D@2@@std@@AAV12@@Z 0043c480     svapi:svapi.dll
 0002:00000484       __imp_?CloseMonitor@@YAXAAPAX@Z 0043c484     svapi:svapi.dll
 0002:00000488       __imp_?FindParentID@@YA?AV?$basic_string@DU?$char_traits@D@std@@V?$allocator@D@2@@std@@V12@@Z 0043c488     svapi:svapi.dll
 0002:0000048c       __imp_?GetMonitorErrorAlertCondition@@YAPAXPAX@Z 0043c48c     svapi:svapi.dll
 0002:00000490       __imp_?GetMonitorWarningAlertCondition@@YAPAXPAX@Z 0043c490     svapi:svapi.dll
 0002:00000494       __imp_?GetMonitorGoodAlertCondition@@YAPAXPAX@Z 0043c494     svapi:svapi.dll
 0002:00000498       __imp_?CloseEntityTemplet@@YA_NAAPAX@Z 0043c498     svapi:svapi.dll
 0002:0000049c       __imp_?FindETContrlFirst@@YA_NPAXAAUsv_list@@@Z 0043c49c     svapi:svapi.dll
 0002:000004a0       __imp_?GetEntityTemplet@@YAPAXV?$basic_string@DU?$char_traits@D@std@@V?$allocator@D@2@@std@@00@Z 0043c4a0     svapi:svapi.dll
 0002:000004a4       __imp_?DeleteIniFileSection@@YA_NV?$basic_string@DU?$char_traits@D@std@@V?$allocator@D@2@@std@@000@Z 0043c4a4     svapi:svapi.dll
 0002:000004a8       \177svapi_NULL_THUNK_DATA  0043c4a8     svapi:svapi.dll
 0002:000004cc       ??_7logic_error@std@@6B@   0043c4cc     AlertBaseObj.obj
 0002:000004d4       ??_7length_error@std@@6B@  0043c4d4     AlertBaseObj.obj
 0002:000004dc       ??_7out_of_range@std@@6B@  0043c4dc     AlertBaseObj.obj
 0002:000004e4       ??_C@_00CNPNBAHC@?$AA@     0043c4e4     AlertBaseObj.obj
 0002:000004e8       ??_C@_02DPKJAMEF@?$CFd?$AA@ 0043c4e8     AlertBaseObj.obj
 0002:000004ec       ??_C@_02DKCKIIND@?$CFs?$AA@ 0043c4ec     AlertBaseObj.obj
 0002:000004f0       ??_C@_0BJ@CIPKHJJP@GetEventObj?5ptr?5is?5null?$CB?$AA@ 0043c4f0     AlertBaseObj.obj
 0002:0000050c       ??_C@_0CC@HKPKODPO@?9?9?9?9?9?9?9?9MakeSendObj?5Start?9?9?9?9?9?9?9@ 0043c50c     AlertBaseObj.obj
 0002:00000530       ??_C@_0ED@BNLPBAOD@?9?9?9?9?9?9?9?9?9?9?9?9?9?9?9?9?9?9?$LB?$KI?$LO?$KP?E?d?V?C?P?E?O?$KC?$LN?a@ 0043c530     AlertBaseObj.obj
 0002:00000574       ??_C@_0N@JBEOLDOI@?5SelTimes2?$KD?$LK?$AA@ 0043c574     AlertBaseObj.obj
 0002:00000584       ??_C@_0N@IDPLBMAG@?5SelTimes1?$KD?$LK?$AA@ 0043c584     AlertBaseObj.obj
 0002:00000594       ??_C@_0N@CBPEMIN@?5OnlyTimes?$KD?$LK?$AA@ 0043c594     AlertBaseObj.obj
 0002:000005a4       ??_C@_0BM@MKPHEFEC@?$LB?$KI?$LO?$KP?L?u?$LM?$PO?V?$LF?$KD?$LK?$KB?$KBAlwaysTimes?$KD?$LK?$AA@ 0043c5a4     AlertBaseObj.obj
 0002:000005c0       ??_C@_0L@HLEBBHIF@?$LB?$KI?$LO?$KP?L?u?$LM?$PO?$KD?$LK?$AA@ 0043c5c0     AlertBaseObj.obj
 0002:000005cc       ??_C@_08CKDBCIFL@?$LE?m?N?s?$LF?D?V?$LF?$AA@ 0043c5cc     AlertBaseObj.obj
 0002:000005d8       ??_C@_08GELENFB@SelTimes?$AA@ 0043c5d8     AlertBaseObj.obj
 0002:000005e4       ??_C@_0P@JEEEANOC@OnlyTimesValue?$AA@ 0043c5e4     AlertBaseObj.obj
 0002:000005f4       ??_C@_0M@MEEPNOAG@AlwaysTimes?$AA@ 0043c5f4     AlertBaseObj.obj
 0002:00000600       ??_C@_0L@ECEKCBJO@?$LB?$KI?$LO?$KP?W?$LE?L?$KM?$KD?$LK?$AA@ 0043c600     AlertBaseObj.obj
 0002:0000060c       ??_C@_0L@LFDDIOPP@?$LB?$KI?$LO?$KP?V?V?$MA?$OA?$KD?$LK?$AA@ 0043c60c     AlertBaseObj.obj
 0002:00000618       ??_C@_0L@FBKGCDNK@?$LB?$KI?$LO?$KP?$MA?$OA?P?M?$KD?$LK?$AA@ 0043c618     AlertBaseObj.obj
 0002:00000624       ??_C@_02PCIJFNDE@?$AN?6?$AA@ 0043c624     AlertBaseObj.obj
 0002:00000628       ??_C@_0L@MMEBID@?$LB?$KI?$LO?$KP?C?$PL?$LD?F?$KD?$LK?$AA@ 0043c628     AlertBaseObj.obj
 0002:00000638       ??_C@_0EE@IIFLKDD@?$AN?6?9?9?9?9?9?9?9?9?9?9?9?9?9?9?9?9?9?9?$LB?$KI?$LO?$KP?E?d?V?C?P?E?O?$KC@ 0043c638     AlertBaseObj.obj
 0002:0000067c       ??_C@_0BB@MOGOBHAF@list?$DMT?$DO?5too?5long?$AA@ 0043c67c     AlertBaseObj.obj
 0002:00000690       ??_C@_0BE@JONHPENG@map?1set?$DMT?$DO?5too?5long?$AA@ 0043c690     AlertBaseObj.obj
 0002:000006a4       ??_C@_03HGEDNHCE@ff?6?$AA@ 0043c6a4     AlertBaseObj.obj
 0002:000006a8       ??_C@_0L@HIIJDDPI@?$LL?V?$LI?$LE?H?$LH?H?O?$KD?$KB?$AA@ 0043c6a8     AlertBaseObj.obj
 0002:000006b4       ??_C@_0BD@CONBKIFK@?$LH?$KC?K?M?$LE?N?J?$PN?F?$KF?E?d?$LD?I?$LJ?$KG?$KD?$KB?$AA@ 0043c6b4     AlertBaseObj.obj
 0002:000006c8       ??_C@_0BB@PAJLBNBH@?J?B?$LM?$PO?$MA?$OA?P?M?F?$KF?E?d?$LD?I?$LJ?$KG?$AA@ 0043c6c8     AlertBaseObj.obj
 0002:000006dc       ??_C@_04FMCPDGOH@?$LE?m?N?s?$AA@ 0043c6dc     AlertBaseObj.obj
 0002:000006e4       ??_C@_04FGJKAIJE@?N?$KD?O?U?$AA@ 0043c6e4     AlertBaseObj.obj
 0002:000006ec       ??_C@_0BD@MKJIKEDM@strAlertCategory?5?$DN?$AA@ 0043c6ec     AlertBaseObj.obj
 0002:00000700       ??_C@_0DF@FCNHGPIE@nCond?5?$DN?5?$CFd?7eventObj?9?$DOnEventCount@ 0043c700     AlertBaseObj.obj
 0002:00000738       ??_C@_0EC@JKANAOOD@eventObj?9?$DOGetEventTypeString?5?$DN?5?$CF@ 0043c738     AlertBaseObj.obj
 0002:0000077c       ??_C@_01LFCBOECM@?4?$AA@   0043c77c     AlertBaseObj.obj
 0002:00000780       ??_C@_08PKPAGFCJ@?U?R?$LF?$LNID?$KD?$KB?$AA@ 0043c780     AlertBaseObj.obj
 0002:0000078c       ??_C@_0BK@IKLOGDBB@pAlertTargetList?5is?5empty?$AA@ 0043c78c     AlertBaseObj.obj
 0002:000007a8       ??_C@_0BM@PAPJHAGI@invalid?5map?1set?$DMT?$DO?5iterator?$AA@ 0043c7a8     AlertBaseObj.obj
 0002:000007c4       ??_C@_01IHBHIGKO@?0?$AA@   0043c7c4     AlertBaseObj.obj
 0002:000007c8       ??_7CAlertBaseObj@@6B@     0043c7c8     AlertBaseObj.obj
 0002:000007dc       ??_7CAlertEmailObj@@6B@    0043c7dc     AlertBaseObj.obj
 0002:000007f0       ??_7CAlertSmsObj@@6B@      0043c7f0     AlertBaseObj.obj
 0002:00000804       ??_7CAlertScriptObj@@6B@   0043c804     AlertBaseObj.obj
 0002:00000818       ??_7CAlertSoundObj@@6B@    0043c818     AlertBaseObj.obj
 0002:0000082c       ??_7CAlertPythonObj@@6B@   0043c82c     AlertBaseObj.obj
 0002:00000840       ??_C@_0BM@DAFDJKHJ@?$CFd?9?$CF02d?9?$CF02d?5?$CF02d?3?$CF02d?3?$CF02d?$AA@ 0043c840     AlertMain.obj
 0002:0000085c       ??_C@_01NOFIACDB@w?$AA@    0043c85c     AlertMain.obj
 0002:00000860       ??_C@_0BA@ONJGLGMF@alertServer?4log?$AA@ 0043c860     AlertMain.obj
 0002:00000870       ??_C@_02DPNLHKJD@a?$CL?$AA@ 0043c870     AlertMain.obj
 0002:00000874       ??_C@_03OFAPEBGM@?$CFs?6?$AA@ 0043c874     AlertMain.obj
 0002:00000878       ??_C@_02HJDGIJBC@sp?$AA@   0043c878     AlertMain.obj
 0002:0000087c       ??_C@_05KKCIMGE@error?$AA@ 0043c87c     AlertMain.obj
 0002:00000884       ??_C@_0M@HPHNMIGD@PythonAlert?$AA@ 0043c884     AlertMain.obj
 0002:00000890       ??_C@_0L@NNHMLCFG@SoundAlert?$AA@ 0043c890     AlertMain.obj
 0002:0000089c       ??_C@_0M@DIOKACNP@ScriptAlert?$AA@ 0043c89c     AlertMain.obj
 0002:000008a8       ??_C@_08EMFPKNEG@SmsAlert?$AA@ 0043c8a8     AlertMain.obj
 0002:000008b4       ??_C@_0L@FHMMDIOA@EmailAlert?$AA@ 0043c8b4     AlertMain.obj
 0002:000008c0       ??_C@_06OPMGJGJF@SCRIPT?$AA@ 0043c8c0     AlertMain.obj
 0002:000008c8       ??_C@_0M@IHBKAGDO@Monitor?4dll?$AA@ 0043c8c8     AlertMain.obj
 0002:000008d4       ??_C@_09NBNJNIBH@SendEmail?$AA@ 0043c8d4     AlertMain.obj
 0002:000008e0       ??_C@_0P@OLOPHDJF@emailalert?4dll?$AA@ 0043c8e0     AlertMain.obj
 0002:000008f0       ??_C@_0CE@GOKFEAEM@CAlertSoundSendObj?5creat?5com?5fai@ 0043c8f0     AlertMain.obj
 0002:00000914       ??_C@_0CF@OGHOAEBO@CAlertSoundSendObj?5creat?5com?5suc@ 0043c914     AlertMain.obj
 0002:0000093c       ??_C@_0CF@DJBGLLAH@CAlertScriptSendObj?5creat?5com?5fa@ 0043c93c     AlertMain.obj
 0002:00000964       ??_C@_0CG@HCHCPPN@CAlertScriptSendObj?5creat?5com?5su@ 0043c964     AlertMain.obj
 0002:0000098c       ??_C@_07DLHCIBDH@default?$AA@ 0043c98c     AlertMain.obj
 0002:00000994       ??_C@_09IPAEKDAI@localhost?$AA@ 0043c994     AlertMain.obj
 0002:000009a0       ??_C@_07DHHPHHAN@sv_name?$AA@ 0043c9a0     AlertMain.obj
 0002:000009a8       ??_C@_0L@EHFBINFL@?O?j?O?$LI?P?E?O?$KC?$KD?$LK?$AA@ 0043c9a8     AlertMain.obj
 0002:000009b4       ??_C@_06GDOAEKEF@?W?$LE?L?$KM?$KD?$LK?$AA@ 0043c9b4     AlertMain.obj
 0002:000009bc       ??_C@_02PIIAPNOC@?3?7?$AA@ 0043c9bc     AlertMain.obj
 0002:000009c0       ??_C@_0BF@GHLKJANE@?$CD?$CD?$CD?$CD?$CD?$CD?$CD?$CD?$CD?$CD?$CD?$CD?$CD?$CD?$CD?$CD?$CD?$CD?$CD?$CD?$AA@ 0043c9c0     AlertMain.obj
 0002:000009d8       ??_C@_04HIBGFPH@NULL?$AA@  0043c9d8     AlertMain.obj
 0002:000009e0       ??_C@_03KOLNNKD@BAD?$AA@   0043c9e0     AlertMain.obj
 0002:000009e4       ??_C@_07MMIDIINJ@DISABLE?$AA@ 0043c9e4     AlertMain.obj
 0002:000009ec       ??_C@_05MBDEGLCK@ERROR?$AA@ 0043c9ec     AlertMain.obj
 0002:000009f4       ??_C@_07KCOHIFOP@WARNING?$AA@ 0043c9f4     AlertMain.obj
 0002:000009fc       ??_C@_02GIPFHKNO@OK?$AA@   0043c9fc     AlertMain.obj
 0002:00000a00       ??_C@_0BC@HMGCLJFD@?C?$LL?S?P?I?h?V?C?$LG?L?P?E?V?P?P?D?6?$AA@ 0043ca00     AlertMain.obj
 0002:00000a14       ??_C@_0O@NIECIAAP@?$LE?r?$LP?$KK?$LG?K?$LP?Z?J?$KH?$LA?$NM?6?$AA@ 0043ca14     AlertMain.obj
 0002:00000a24       ??_C@_03GJALCMIF@COM?$AA@  0043ca24     AlertMain.obj
 0002:00000a28       ??_C@_0O@JEFKFMIK@SMSCommConfig?$AA@ 0043ca28     AlertMain.obj
 0002:00000a38       ??_C@_04HOKNCALA@Port?$AA@ 0043ca38     AlertMain.obj
 0002:00000a40       ??_C@_0O@MMIIMLA@smsconfig?4ini?$AA@ 0043ca40     AlertMain.obj
 0002:00000a50       ??_C@_06KJFADLGN@result?$AA@ 0043ca50     AlertMain.obj
 0002:00000a58       ??_C@_06HNFKAFLO@comsms?$AA@ 0043ca58     AlertMain.obj
 0002:00000a60       ??_C@_05NFNLPBIM@phone?$AA@ 0043ca60     AlertMain.obj
 0002:00000a68       ??_C@_0BC@CGMBEMKJ@smstestresult?4ini?$AA@ 0043ca68     AlertMain.obj
 0002:00000a7c       ??_C@_0BF@HFAINKCJ@?J?$KH?$LA?$NM?$CF?$LD?u?J?$LM?$LL?$KP?$LE?$KO?$LP?Z?J?$KH?$LA?$NM?6?$AA@ 0043ca7c     AlertMain.obj
 0002:00000a94       ??_C@_0BJ@BIODCLEO@?J?$KH?$LA?$NM?$CF?$LH?$KC?K?M?$LG?L?P?E?$LF?$LN?$LE?$KO?$LP?Z?J?$KH?$LA?$NM?6?$AA@ 0043ca94     AlertMain.obj
 0002:00000ab0       ??_C@_0BJ@FCIJOKAN@?$LD?I?$LJ?$KG?$CF?$LH?$KC?K?M?$LG?L?P?E?$LF?$LN?$LE?$KO?$LP?Z?U?$PN?$LD?$KD?6?$AA@ 0043cab0     AlertMain.obj
 0002:00000acc       ??_C@_06IJDLPEM@length?$AA@ 0043cacc     AlertMain.obj
 0002:00000ad4       ??_C@_02PONMODAL@70?$AA@   0043cad4     AlertMain.obj
 0002:00000ad8       ??_7ReceiveThread@@6B@     0043cad8     AlertMain.obj
 0002:00000af0       ??_7ProcessThread@@6B@     0043caf0     AlertMain.obj
 0002:00000b08       ??_7SendEmailAlertThread@@6B@ 0043cb08     AlertMain.obj
 0002:00000b20       ??_7SendSmsAlertThread@@6B@ 0043cb20     AlertMain.obj
 0002:00000b38       ??_7SendScriptAlertThread@@6B@ 0043cb38     AlertMain.obj
 0002:00000b50       ??_7SendSoundAlertThread@@6B@ 0043cb50     AlertMain.obj
 0002:00000b68       ??_C@_0ED@PMNPBLML@?9?9?9?9?9?9?9?9?9?9?9?9?9?9?9?9?9?9?J?d?H?k?J?B?$LM?$PO?P?E?O?$KC?$LN?a@ 0043cb68     AlertMain.obj
 0002:00000bac       ??_C@_0P@CJPJAAKG@?J?B?$LM?$PO?$LH?$KC?I?z?J?$LB?$LM?d?$KD?$LK?$AA@ 0043cbac     AlertMain.obj
 0002:00000bbc       ??_C@_0L@CNNLNBHJ@?J?B?$LM?$PO?C?h?J?v?$KD?$LK?$AA@ 0043cbbc     AlertMain.obj
 0002:00000bc8       ??_C@_0L@NNFMJCPM@?J?B?$LM?$PO?$LM?F?J?$PN?$KD?$LK?$AA@ 0043cbc8     AlertMain.obj
 0002:00000bd4       ??_C@_0L@PNBKLJAK@?J?B?$LM?$PO?$MA?$OA?P?M?$KD?$LK?$AA@ 0043cbd4     AlertMain.obj
 0002:00000be0       ??_C@_0L@NCIFBJFG@?$LM?$OA?$LC?b?F?wId?$KD?$LK?$AA@ 0043cbe0     AlertMain.obj
 0002:00000bf0       ??_C@_0EE@GGBGIKHI@?$AN?6?9?9?9?9?9?9?9?9?9?9?9?9?9?9?9?9?9?9?J?d?H?k?J?B?$LM?$PO?P?E?O?$KC@ 0043cbf0     AlertMain.obj
 0002:00000c34       ??_C@_0P@HGHFBFID@itsmConfig?4ini?$AA@ 0043cc34     AlertMain.obj
 0002:00000c44       ??_C@_01JLIPDDHJ@?3?$AA@   0043cc44     AlertMain.obj
 0002:00000c48       ??_C@_0BA@MBCKGGFE@_InterfaceIndex?$AA@ 0043cc48     AlertMain.obj
 0002:00000c58       ??_C@_09IOGNHHEE@_SelValue?$AA@ 0043cc58     AlertMain.obj
 0002:00000c64       ??_C@_08JCHHBJCG@_Service?$AA@ 0043cc64     AlertMain.obj
 0002:00000c70       ??_C@_0BE@JPGBDHNL@_monitorProcessList?$AA@ 0043cc70     AlertMain.obj
 0002:00000c84       ??_C@_03BFDJIOIE@175?$AA@  0043cc84     AlertMain.obj
 0002:00000c88       ??_C@_03MCCLPMF@174?$AA@   0043cc88     AlertMain.obj
 0002:00000c8c       ??_C@_03HFNIDHDC@111?$AA@  0043cc8c     AlertMain.obj
 0002:00000c90       ??_C@_02OFIBGMBD@41?$AA@   0043cc90     AlertMain.obj
 0002:00000c94       ??_C@_07MNGBFJEN@Process?$AA@ 0043cc94     AlertMain.obj
 0002:00000c9c       ??_C@_02NCPIBIBE@33?$AA@   0043cc9c     AlertMain.obj
 0002:00000ca0       ??_C@_07LMLHFMEG@Service?$AA@ 0043cca0     AlertMain.obj
 0002:00000ca8       ??_C@_02JODNFKLN@14?$AA@   0043cca8     AlertMain.obj
 0002:00000cac       ??_C@_0P@MHFALFJ@sv_monitortype?$AA@ 0043ccac     AlertMain.obj
 0002:00000cbc       ??_C@_03MCPBMLDJ@?5?3?5?$AA@ 0043ccbc     AlertMain.obj
 0002:00000cc0       ??_C@_0EK@FAOBNDNM@?9?9?9?9?9?9?9?9?9?9?9?9?9?9?9?9?9?9?9?9?9?9?9?9?9?9?9?9?9?9Do@ 0043ccc0     AlertMain.obj
 0002:00000d0c       ??_C@_0CH@EIBNCJHP@DoSendEmailAlert?5?3?5The?5SendCount@ 0043cd0c     AlertMain.obj
 0002:00000d34       ??_C@_0CF@HCJCJGPM@?5DoSendEmailAlert?5SendAlert?5Erro@ 0043cd34     AlertMain.obj
 0002:00000d5c       ??_C@_0O@BGJMEIPD@?O?$PL?O?$KC?R?Q?$LO?$KN?$LJ?$PN?F?Z?0?$AA@ 0043cd5c     AlertMain.obj
 0002:00000d6c       ??_C@_0BB@KCIPNEFA@?O?$PL?O?$KC?R?Q?$LO?$KN?$LJ?$PN?F?Z?3?$CFs?6?$AA@ 0043cd6c     AlertMain.obj
 0002:00000d80       ??_C@_0DE@FFALKDHF@Error?0?5m_WaitSendEmailList?4size?$CI@ 0043cd80     AlertMain.obj
 0002:00000db4       ??_C@_0CF@FFCAMIIN@DoSendSmsAlert?5?3?5The?5SendCount?5i@ 0043cdb4     AlertMain.obj
 0002:00000ddc       ??_C@_0CD@BEDHMODF@?5DoSendSmsAlert?5SendAlert?5Error?$CB@ 0043cddc     AlertMain.obj
 0002:00000e00       ??_C@_0DC@NFCINDKM@Error?0?5m_WaitSendSmsList?4size?$CI?$CJ?5@ 0043ce00     AlertMain.obj
 0002:00000e34       ??_C@_0CI@HKPMABFL@DoSendScriptAlert?5?3?5The?5SendCoun@ 0043ce34     AlertMain.obj
 0002:00000e5c       ??_C@_0CG@DCJAHKJF@?5DoSendScriptAlert?5SendAlert?5Err@ 0043ce5c     AlertMain.obj
 0002:00000e84       ??_C@_0DF@EHAAOPHH@Error?0?5m_WaitSendScriptList?4size@ 0043ce84     AlertMain.obj
 0002:00000ebc       ??_C@_0CH@NBCDAHDM@DoSendSoundAlert?5?3?5The?5SendCount@ 0043cebc     AlertMain.obj
 0002:00000ee4       ??_C@_0CF@NHEHBMBI@?5DoSendSoundAlert?5SendAlert?5Erro@ 0043cee4     AlertMain.obj
 0002:00000f0c       ??_C@_0DE@FCIJCLEC@Error?0?5m_WaitSendSoundList?4size?$CI@ 0043cf0c     AlertMain.obj
 0002:00000f40       ??_C@_01KDCPPGHE@r?$AA@    0043cf40     AlertMain.obj
 0002:00000f48       ??_C@_0EF@LKJBMHGP@?9?9?9?9?9?9?9?9?9?9?9?9?9?9?9?9?9?9?9?9?9?9?9?9?9?9?9?9?9?9?5?F@ 0043cf48     AlertMain.obj
 0002:00000f90       ??_C@_0BE@GLEEKKDF@sendobj?9?$DOnType?5?$DN?5?$CFd?$AA@ 0043cf90     AlertMain.obj
 0002:00000fa4       ??_C@_07HLHPKMFI@Content?$AA@ 0043cfa4     AlertMain.obj
 0002:00000fac       ??_C@_0M@BHCNGMBB@PythonLevel?$AA@ 0043cfac     AlertMain.obj
 0002:00000fb8       ??_C@_0O@FCNPNCEN@PythonReceive?$AA@ 0043cfb8     AlertMain.obj
 0002:00000fc8       ??_C@_08PEFBJDFE@LoginPwd?$AA@ 0043cfc8     AlertMain.obj
 0002:00000fd4       ??_C@_09NBALEBLD@LoginName?$AA@ 0043cfd4     AlertMain.obj
 0002:00000fe0       ??_C@_06LGMEBDBC@Server?$AA@ 0043cfe0     AlertMain.obj
 0002:00000fe8       ??_C@_0M@EAFOMMEH@ScriptParam?$AA@ 0043cfe8     AlertMain.obj
 0002:00000ff4       ??_C@_0L@OKAEDNLM@ScriptFile?$AA@ 0043cff4     AlertMain.obj
 0002:00001000       ??_C@_0P@CHEFGADA@ScriptServerID?$AA@ 0043d000     AlertMain.obj
 0002:00001010       ??_C@_0P@LCMBEEJC@ScriptServerId?$AA@ 0043d010     AlertMain.obj
 0002:00001020       ??_C@_0N@JMFFPHJO@ScriptServer?$AA@ 0043d020     AlertMain.obj
 0002:00001030       ??_C@_0CA@JCLDDONC@strOtherNumberValue?4c_str?$CI?$CJ?$DN?$CFs?6?$AA@ 0043d030     AlertMain.obj
 0002:00001050       ??_C@_0M@ILCNJPMN@SmsTemplate?$AA@ 0043d050     AlertMain.obj
 0002:0000105c       ??_C@_0M@EGLLHKOD@SmsSendMode?$AA@ 0043d05c     AlertMain.obj
 0002:00001068       ??_C@_0M@FONECKHP@OtherNumber?$AA@ 0043d068     AlertMain.obj
 0002:00001074       ??_C@_09CNOGFGNP@SmsNumber?$AA@ 0043d074     AlertMain.obj
 0002:00001080       ??_C@_04MOIHHPNJ@Stop?$AA@ 0043d080     AlertMain.obj
 0002:00001088       ??_C@_09DIAAIKLH@UpgradeTo?$AA@ 0043d088     AlertMain.obj
 0002:00001094       ??_C@_01GBGANLPD@0?$AA@    0043d094     AlertMain.obj
 0002:00001098       ??_C@_07CJFOONCK@Upgrade?$AA@ 0043d098     AlertMain.obj
 0002:000010a0       ??_C@_0O@DDOIACKF@EmailTemplate?$AA@ 0043d0a0     AlertMain.obj
 0002:000010b0       ??_C@_0M@BOMBFNMB@OtherAdress?$AA@ 0043d0b0     AlertMain.obj
 0002:000010bc       ??_C@_0M@FCFNLECJ@EmailAdress?$AA@ 0043d0bc     AlertMain.obj
 0002:000010c8       ??_C@_09PBBKHOFO@SelTimes2?$AA@ 0043d0c8     AlertMain.obj
 0002:000010d4       ??_C@_09NKDHCNJN@SelTimes1?$AA@ 0043d0d4     AlertMain.obj
 0002:000010e0       ??_C@_09JJKOOCGD@OnlyTimes?$AA@ 0043d0e0     AlertMain.obj
 0002:000010ec       ??_C@_0CE@OLJGCLAD@?$LE?SINI?$MA?o?C?f?$LL?q?H?$KB?$LF?DnIndex?N?$KK?$CFs?$LF?DnCond@ 0043d0ec     AlertMain.obj
 0002:00001110       ??_C@_0BC@GCKLNIMN@?N?$LE?H?$KB?$LD?v?5nCond?5?$DN?5?$CFd?$AA@ 0043d110     AlertMain.obj
 0002:00001124       ??_C@_01EKENIIDA@3?$AA@    0043d124     AlertMain.obj
 0002:00001128       ??_C@_0M@BDEOILGI@?5nCond?5?$DN?5?$CFd?$AA@ 0043d128     AlertMain.obj
 0002:00001134       ??_C@_09JLNLCEOI@AlertCond?$AA@ 0043d134     AlertMain.obj
 0002:00001140       ??_C@_0M@IADNKFIK@AlertTarget?$AA@ 0043d140     AlertMain.obj
 0002:0000114c       ??_C@_0L@OGGDDJKC@AlertState?$AA@ 0043d14c     AlertMain.obj
 0002:00001158       ??_C@_0O@NFDJOBGN@AlertCategory?$AA@ 0043d158     AlertMain.obj
 0002:00001168       ??_C@_09DDMKNIAC@AlertType?$AA@ 0043d168     AlertMain.obj
 0002:00001174       ??_C@_09JIMJBIHC@AlertName?$AA@ 0043d174     AlertMain.obj
 0002:00001180       ??_C@_06KKPBBPNA@nIndex?$AA@ 0043d180     AlertMain.obj
 0002:00001188       ??_C@_09CFOBLFFF@alert?4ini?$AA@ 0043d188     AlertMain.obj
 0002:00001194       ??_C@_0BI@MFDELEJ@strOtherNumberValue?$DN?$CFs?6?$AA@ 0043d194     AlertMain.obj
 0002:000011ac       ??_C@_0BG@OAMICGON@strSmsNumberValue?$DN?$CFs?6?$AA@ 0043d1ac     AlertMain.obj
 0002:000011c4       ??_C@_09NKKNICDJ@TempCount?$AA@ 0043d1c4     AlertMain.obj
 0002:000011d0       ??_C@_06MNAAAJNE@websms?$AA@ 0043d1d0     AlertMain.obj
 0002:000011d8       ??_C@_0BJ@KEHKBKHD@?J?$KH?$LA?$NM?$CF?A?$KM?$LN?S?$LG?L?P?E?$LH?$PO?N?q?F?w?J?$KH?$LA?$NM?6?$AA@ 0043d1d8     AlertMain.obj
 0002:000011f4       ??_C@_0BP@GAFPKLCH@?$LD?I?$LJ?$KG?$CF?$LH?$KC?K?M?P?E?O?$KC?$LF?$LN?$LG?L?P?E?$LH?$PO?N?q?F?w?U?$PN?$LD?$KD?6?$AA@ 0043d1f4     AlertMain.obj
 0002:00001214       ??_C@_03LDADCOBN@sxc?$AA@  0043d214     AlertMain.obj
 0002:00001218       ??_C@_01HNPIGOCE@?$CG?$AA@ 0043d218     AlertMain.obj
 0002:0000121c       ??_C@_09MLJALMLG@smstotal?$DN?$AA@ 0043d21c     AlertMain.obj
 0002:00001228       ??_C@_09OILJCBH@?$EAContent?$EA?$AA@ 0043d228     AlertMain.obj
 0002:00001234       ??_C@_07KMMKAJJ@?$EAPhone?$EA?$AA@ 0043d234     AlertMain.obj
 0002:0000123c       ??_C@_05DADJCPCH@?$EAPwd?$EA?$AA@ 0043d23c     AlertMain.obj
 0002:00001244       ??_C@_0L@NBPGNGMM@?$EAUserName?$EA?$AA@ 0043d244     AlertMain.obj
 0002:00001250       ??_C@_03EFJJPPDH@Pwd?$AA@  0043d250     AlertMain.obj
 0002:00001254       ??_C@_0N@NBNKPLC@SMSWebConfig?$AA@ 0043d254     AlertMain.obj
 0002:00001264       ??_C@_04ODLBFFJE@User?$AA@ 0043d264     AlertMain.obj
 0002:0000126c       ??_C@_02FJKKBOAB@?2?$DL?$AA@ 0043d26c     AlertMain.obj
 0002:00001270       ??_C@_0CA@FMJELGIP@?$LE?S?$LG?L?P?E?D?$KD?$LA?e?V?P?$LG?A?$LD?v?$LG?L?P?E?M?$LH?$LF?D?D?$KD?$LA?e?3?$CFs?$AA@ 0043d270     AlertMain.obj
 0002:00001290       ??_C@_0O@FKAAFIEB@WebSmsConfige?$AA@ 0043d290     AlertMain.obj
 0002:000012a0       ??_C@_09CBGFOFLK@WebDefine?$AA@ 0043d2a0     AlertMain.obj
 0002:000012ac       ??_C@_0BA@KJGCAKDG@TxtTemplate?4Ini?$AA@ 0043d2ac     AlertMain.obj
 0002:000012bc       ??_C@_0L@BJHDHPJ@testpwd123?$AA@ 0043d2bc     AlertMain.obj
 0002:000012c8       ??_C@_04CEJDCDCH@test?$AA@ 0043d2c8     AlertMain.obj
 0002:000012d0       ??_C@_0BO@CNDPELOK@TaskVal?$DN?$CFs?0?5size?$DN?$CFd?0?5Hour?$DN?$CFd?6?$AA@ 0043d2d0     AlertMain.obj
 0002:000012f0       ??_C@_01CLKCMJKC@?5?$AA@   0043d2f0     AlertMain.obj
 0002:000012f4       ??_C@_0CK@JNGPEGHN@nTaskEndHour?$DN?$CFd?0?5nTaskEndMin?$DN?$CFd?0@ 0043d2f4     AlertMain.obj
 0002:00001320       ??_C@_0M@EMDFJAPC@?J?$LB?$LM?d?P?E?O?$KC?$KD?$LK?6?$AA@ 0043d320     AlertMain.obj
 0002:0000132c       ??_C@_03JBJLGPFL@end?$AA@  0043d32c     AlertMain.obj
 0002:00001330       ??_C@_05FAGFPHJG@start?$AA@ 0043d330     AlertMain.obj
 0002:00001338       ??_C@_01HIHLOKLC@1?$AA@    0043d338     AlertMain.obj
 0002:0000133c       ??_C@_05IEPODGEO@Allow?$AA@ 0043d33c     AlertMain.obj
 0002:00001344       ??_C@_04KOACHJEN@Type?$AA@ 0043d344     AlertMain.obj
 0002:0000134c       ??_C@_01FDFGLJHB@2?$AA@    0043d34c     AlertMain.obj
 0002:00001350       ??_C@_08IBCPEAHO@strItem?$DN?$AA@ 0043d350     AlertMain.obj
 0002:0000135c       ??_C@_04NHONDGDE@item?$AA@ 0043d35c     AlertMain.obj
 0002:00001364       ??_C@_09BNKLBIPA@strCount?$DN?$AA@ 0043d364     AlertMain.obj
 0002:00001370       ??_C@_0O@CLCKAID@strWatchType?$DN?$AA@ 0043d370     AlertMain.obj
 0002:00001380       ??_C@_04GPMDFGEJ@type?$AA@ 0043d380     AlertMain.obj
 0002:00001388       ??_C@_05IOMEMJEC@count?$AA@ 0043d388     AlertMain.obj
 0002:00001390       ??_C@_0BC@FMEJOAKO@watchsheetcfg?4ini?$AA@ 0043d390     AlertMain.obj
 0002:000013a4       ??_C@_0L@MILBIIBP@bEmail?5?$DN?$CFd?$AA@ 0043d3a4     AlertMain.obj
 0002:000013b0       ??_C@_0P@BLENENLB@nCurTmStat?5?$DN?$CFd?$AA@ 0043d3b0     AlertMain.obj
 0002:000013c0       ??_C@_0BB@GKBLKLAO@nItemEndStat?5?$DN?$CFd?$AA@ 0043d3c0     AlertMain.obj
 0002:000013d4       ??_C@_0BD@JLAAIFBJ@nItemStartStat?5?$DN?$CFd?$AA@ 0043d3d4     AlertMain.obj
 0002:000013e8       ??_C@_0BA@MMFBDOKM@bWatchMatch?5?$DN?$CFd?$AA@ 0043d3e8     AlertMain.obj
 0002:000013f8       ??_C@_0M@NPJHEFFJ@day?5of?5week?$AA@ 0043d3f8     AlertMain.obj
 0002:00001404       ??_C@_0N@JHMKMFKK@day?5of?5month?$AA@ 0043d404     AlertMain.obj
 0002:00001414       ??_C@_03NNBHCDBP@day?$AA@  0043d414     AlertMain.obj
 0002:00001418       ??_C@_0BK@DCPPOJFA@GetCfgFromWatchList?5End?3?6?$AA@ 0043d418     AlertMain.obj
 0002:00001434       ??_C@_0BH@HJKCJHOF@m_pListWatch?$LF?D?$LE?s?P?$KB?$KD?$LK?$CFd?$AA@ 0043d434     AlertMain.obj
 0002:0000144c       ??_C@_0BO@BKNPLDFJ@ReadCfgFromWatchIniSection?50k?$AA@ 0043d44c     AlertMain.obj
 0002:0000146c       ??_C@_0P@MEDNGJIJ@strWatchSheet?$DN?$AA@ 0043d46c     AlertMain.obj
 0002:0000147c       ??_C@_02DCPDKOJK@?$LP?U?$AA@ 0043d47c     AlertMain.obj
 0002:00001480       ??_C@_0L@JKEFCKCE@WatchSheet?$AA@ 0043d480     AlertMain.obj
 0002:0000148c       ??_C@_0BM@HKKKBDAD@GetCfgFromWatchList?5Start?3?6?$AA@ 0043d48c     AlertMain.obj
 0002:000014a8       ??_C@_0BJ@OHGLKJIJ@BlockPopMessage?5Error?$CB?$CB?$CB?$AA@ 0043d4a8     AlertMain.obj
 0002:000014c4       ??_C@_0BH@NCFKEKLO@alerteventlist?5size?$DN?$CFd?$AA@ 0043d4c4     AlertMain.obj
 0002:000014dc       ??_C@_0M@FLGCGFHL@ExportQueue?$AA@ 0043d4dc     AlertMain.obj
 0002:000014e8       ??_C@_06CKGENIKG@Enable?$AA@ 0043d4e8     AlertMain.obj
 0002:000014f0       ??_C@_0M@FCJCHHPA@general?4ini?$AA@ 0043d4f0     AlertMain.obj
 0002:000014fc       ??_C@_0BJ@BIEDHOII@Id?3?$CFs?5?5Type?3?$CFd?5?5Count?3?$CFd?$AA@ 0043d4fc     AlertMain.obj
 0002:00001518       ??_C@_09JNEFCAPE@alertlogs?$AA@ 0043d518     AlertMain.obj
 0002:00001524       ??_C@_06FKDAMKFP@DELETE?$AA@ 0043d524     AlertMain.obj
 0002:0000152c       ??_C@_03BOJFLAKG@ADD?$AA@  0043d52c     AlertMain.obj
 0002:00001530       ??_C@_03JEGAAOIO@IDC?$AA@  0043d530     AlertMain.obj
 0002:00001534       ??_C@_0BA@KOEKACJJ@?E?d?V?C?$LC?Y?W?w?C?$PL?$KD?$LK?$CFs?6?$AA@ 0043d534     AlertMain.obj
 0002:00001544       ??_C@_0BA@GOPJFDBH@?E?d?V?C?$LC?N?J?$PN?C?$PL?$KD?$LK?$CFs?6?$AA@ 0043d544     AlertMain.obj
 0002:00001554       ??_C@_0BA@GPMMAOPM@?E?d?V?C?N?D?$LM?$PO?C?$PL?$KD?$LK?$CFs?6?$AA@ 0043d554     AlertMain.obj
 0002:00001564       ??_C@_01EEMJAFIK@?6?$AA@   0043d564     AlertMain.obj
 0002:00001568       ??_C@_09JOCCCEBM@IniChange?$AA@ 0043d568     AlertMain.obj
 0002:00001574       ??_C@_0CC@JDEJGBGH@This?5is?5a?5Test?$CB?U?b?J?G?R?$LL?$LI?v?$LC?b?J?T?P?E?O?$KC?$KD@ 0043d574     AlertMain.obj
 0002:00001598       ??_C@_07PKCMICDI@SmsTest?$AA@ 0043d598     AlertMain.obj
 0002:000015a0       ??_C@_0P@BAEBEGPH@this?5is?5atest?$CB?$AA@ 0043d5a0     AlertMain.obj
 0002:000015b0       ??_C@_0CD@LKOCCMJG@?5This?5is?5a?5test?$CB?U?b?J?G?R?$LL?$LI?v?$LC?b?J?T?P?E?O?$KC@ 0043d5b0     AlertMain.obj
 0002:000015d4       ??_C@_08LCNCODBM@DataBase?$AA@ 0043d5d4     AlertMain.obj
 0002:000015e0       ??_C@_0L@OAFHECAM@WebSmsTest?$AA@ 0043d5e0     AlertMain.obj
 0002:000015ec       ??_C@_09MKMFPAIN@label?$DN?$CFs?6?$AA@ 0043d5ec     AlertMain.obj
 0002:000015f8       ??_C@_0BK@CAHIABB@waitSendEmailList?5size?$DN?$CFd?$AA@ 0043d5f8     AlertMain.obj
 0002:00001614       ??_C@_0O@FOFLKJJO@?O?$PL?O?$KC?$LB?j?G?$KJ?$KD?$LK?$CFs?6?$AA@ 0043d614     AlertMain.obj
 0002:00001624       ??_C@_0BI@KMGDLJMJ@Get?5message?5data?5failed?$AA@ 0043d624     AlertMain.obj
 0002:0000163c       ??_C@_0BB@IPJEIMHB@SiteView70?9Alert?$AA@ 0043d63c     AlertMain.obj
 0002:00001650       ??_C@_0BA@NNENJLGD@wait?5message?4?4?4?$AA@ 0043d650     AlertMain.obj
 0002:00001660       ??_C@_0DK@JKODACIP@?9?9?9?9?9?9?9?9?9?9?9?9?9?9?9alert?5idcinfo?5?5lo@ 0043d660     AlertMain.obj
 0002:0000169c       ??_SMutex@ost@@6B@         0043d69c     AlertMain.obj
 0002:000016a0       ??_C@_0O@JNFJFLCI@XiaoshouIdcId?$AA@ 0043d6a0     AlertMain.obj
 0002:000016b0       ??_C@_09LNJPDBJL@YeWuIdcId?$AA@ 0043d6b0     AlertMain.obj
 0002:000016bc       ??_C@_0BC@EGAIKFJJ@SysWeihuUserIdcId?$AA@ 0043d6bc     AlertMain.obj
 0002:000016d0       ??_C@_0L@HALFNHGB@IdcUserCfg?$AA@ 0043d6d0     AlertMain.obj
 0002:000016dc       ??_C@_0P@GDPFAOJE@WeiHuUserIdcId?$AA@ 0043d6dc     AlertMain.obj
 0002:000016ec       ??_C@_0BE@HJOAECKF@?5InsertTable?5failed?$AA@ 0043d6ec     AlertMain.obj
 0002:00001700       ??_C@_0BA@HFBFPHCO@?5InsertTable?5ok?$AA@ 0043d700     AlertMain.obj
 0002:00001710       ??_C@_08KONAGGOF@smsport?$DN?$AA@ 0043d710     AlertMain.obj
 0002:0000171c       ??_C@_07EPEJJPN@smsurl?$DN?$AA@ 0043d71c     AlertMain.obj
 0002:00001724       ??_C@_0L@JBNIPMBN@smslength?$DN?$AA@ 0043d724     AlertMain.obj
 0002:00001730       ??_C@_0M@MLNEOOBF@smspara?4ini?$AA@ 0043d730     AlertMain.obj
 0002:0000173c       ??_C@_07CNNBJDHA@english?$AA@ 0043d73c     AlertMain.obj
 0002:00001744       ??_C@_09KMELLHHG@IDS_Other?$AA@ 0043d744     AlertMain.obj
 0002:00001750       ??_C@_09LAKDFDJN@IDS_Error?$AA@ 0043d750     AlertMain.obj
 0002:0000175c       ??_C@_0N@BLBHIBAM@IDS_Warnning?$AA@ 0043d75c     AlertMain.obj
 0002:0000176c       ??_C@_0L@EOGAPIBM@IDS_Normal?$AA@ 0043d76c     AlertMain.obj
 0002:00001778       ??_C@_0M@OCMMBLON@IDS_Disable?$AA@ 0043d778     AlertMain.obj
 0002:00001784       ??_C@_07DHNMFMCI@chinese?$AA@ 0043d784     AlertMain.obj
 0002:0000178c       ??_C@_0BB@LDLOEHCP@IDS_Clique_Value?$AA@ 0043d78c     AlertMain.obj
 0002:000017a0       ??_C@_0L@FCEDNOLN@IDS_Minute?$AA@ 0043d7a0     AlertMain.obj
 0002:000017ac       ??_C@_08GNAAJOAA@IDS_Hour?$AA@ 0043d7ac     AlertMain.obj
 0002:000017b8       ??_C@_0P@DOKFIIFA@IDS_MontioFreq?$AA@ 0043d7b8     AlertMain.obj
 0002:000017c8       ??_C@_09JDMJCCPJ@svapi?4ini?$AA@ 0043d7c8     AlertMain.obj
 0002:000017d4       ??_C@_0CJ@MHMECOOK@?9?9?9?9?9?9?9?9?9?9wait?5for?5svdb?9?9?9?9?9?9?9?9?9@ 0043d7d4     AlertMain.obj
 0002:0000180c       ??_7otl_long_string@@6B@   0043d80c     AlertSendObj.obj
 0002:00001814       ??_C@_07NFANNNEC@UNKNOWN?$AA@ 0043d814     AlertSendObj.obj
 0002:0000181c       ??_C@_0DG@GJKMKNKC@User?9defined?5type?5?$CIobject?5type?0?5@ 0043d81c     AlertSendObj.obj
 0002:00001854       ??_C@_0BB@CJLMGKCL@otl_lob_stream?$CK?$CG?$AA@ 0043d854     AlertSendObj.obj
 0002:00001868       ??_C@_0BC@OCHFENBO@otl_long_string?$CI?$CJ?$AA@ 0043d868     AlertSendObj.obj
 0002:0000187c       ??_C@_03DLBNMLKO@RAW?$AA@  0043d87c     AlertSendObj.obj
 0002:00001880       ??_C@_04HDKFADDE@BLOB?$AA@ 0043d880     AlertSendObj.obj
 0002:00001888       ??_C@_04EOMFCKIE@CLOB?$AA@ 0043d888     AlertSendObj.obj
 0002:00001890       ??_C@_08NKPDBGPG@RAW?5LONG?$AA@ 0043d890     AlertSendObj.obj
 0002:0000189c       ??_C@_0N@PKOGIOH@VARCHAR?5LONG?$AA@ 0043d89c     AlertSendObj.obj
 0002:000018ac       ??_C@_06DBEMLEAB@BIGINT?$AA@ 0043d8ac     AlertSendObj.obj
 0002:000018b4       ??_C@_0BP@KCBILDLN@TIMESTAMP?5WITH?5LOCAL?5TIME?5ZONE?$AA@ 0043d8b4     AlertSendObj.obj
 0002:000018d4       ??_C@_0BJ@BBFEGHGL@TIMESTAMP?5WITH?5TIME?5ZONE?$AA@ 0043d8d4     AlertSendObj.obj
 0002:000018f0       ??_C@_07HDOPPFBI@DB2TIME?$AA@ 0043d8f0     AlertSendObj.obj
 0002:000018f8       ??_C@_07MFEMNCIK@DB2DATE?$AA@ 0043d8f8     AlertSendObj.obj
 0002:00001900       ??_C@_09NMMIOGMI@TIMESTAMP?$AA@ 0043d900     AlertSendObj.obj
 0002:0000190c       ??_C@_08FEIKPPNK@LONG?5INT?$AA@ 0043d90c     AlertSendObj.obj
 0002:00001918       ??_C@_09HLPKGJMK@SHORT?5INT?$AA@ 0043d918     AlertSendObj.obj
 0002:00001924       ??_C@_0N@DJJPGCCC@UNSIGNED?5INT?$AA@ 0043d924     AlertSendObj.obj
 0002:00001934       ??_C@_03JMHEAPMO@INT?$AA@  0043d934     AlertSendObj.obj
 0002:00001938       ??_C@_05GGMHDFKJ@FLOAT?$AA@ 0043d938     AlertSendObj.obj
 0002:00001940       ??_C@_06BJLJNGLL@DOUBLE?$AA@ 0043d940     AlertSendObj.obj
 0002:00001948       ??_C@_04IBPLICII@CHAR?$AA@ 0043d948     AlertSendObj.obj
 0002:00001950       ??_C@_0CA@POIDEJGN@?$DO?0?5datatype?5in?5operator?5?$DM?$DM?1?$DO?$DO?3?5?$AA@ 0043d950     AlertSendObj.obj
 0002:00001970       ??_C@_01MNNFJEPP@?$DM?$AA@ 0043d970     AlertSendObj.obj
 0002:00001974       ??_C@_0L@KPBIFGGA@Variable?3?5?$AA@ 0043d974     AlertSendObj.obj
 0002:00001980       ??_C@_0L@FPFMPDDA@0123456789?$AA@ 0043d980     AlertSendObj.obj
 0002:0000198c       ??_C@_08OGPIKLEP@Column?3?5?$AA@ 0043d98c     AlertSendObj.obj
 0002:00001998       ??_C@_01PPODPGHN@?$DO?$AA@ 0043d998     AlertSendObj.obj
 0002:0000199c       ??_C@_02ELAABJPC@?5?$DM?$AA@ 0043d99c     AlertSendObj.obj
 0002:000019a0       ??_C@_03NIBMKKKC@?5?1?5?$AA@ 0043d9a0     AlertSendObj.obj
 0002:000019a4       ??_7otl_stream_shell_generic@@6B@ 0043d9a4     AlertSendObj.obj
 0002:000019a8       ??_7otl_exc@@6B@           0043d9a8     AlertSendObj.obj
 0002:000019ac       ??_7otl_conn@@6B@          0043d9ac     AlertSendObj.obj
 0002:000019b0       ??_C@_03OIFAJNHF@PWD?$AA@  0043d9b0     AlertSendObj.obj
 0002:000019b4       ??_C@_03MJDGODDN@UID?$AA@  0043d9b4     AlertSendObj.obj
 0002:000019b8       ??_C@_03MKMNBNOL@DSN?$AA@  0043d9b8     AlertSendObj.obj
 0002:000019bc       ??_7otl_cur0@@6B@          0043d9bc     AlertSendObj.obj
 0002:000019c0       ??_7otl_var@@6B@           0043d9c0     AlertSendObj.obj
 0002:000019c4       ??_7otl_cur@@6B@           0043d9c4     AlertSendObj.obj
 0002:000019c8       ??_C@_0P@BNGDCBBK@SQLForeignKeys?$AA@ 0043d9c8     AlertSendObj.obj
 0002:000019d8       ??_C@_0BE@BJPANBHM@SQLProcedureColumns?$AA@ 0043d9d8     AlertSendObj.obj
 0002:000019ec       ??_C@_0P@HGCKCDC@SQLPrimaryKeys?$AA@ 0043d9ec     AlertSendObj.obj
 0002:000019fc       ??_C@_0BD@JKHCMPB@SQLTablePrivileges?$AA@ 0043d9fc     AlertSendObj.obj
 0002:00001a10       ??_C@_0BE@DBGFGJEI@SQLColumnPrivileges?$AA@ 0043da10     AlertSendObj.obj
 0002:00001a24       ??_C@_0O@DDAGBHAP@SQLProcedures?$AA@ 0043da24     AlertSendObj.obj
 0002:00001a34       ??_C@_0L@KLFCAO@SQLColumns?$AA@ 0043da34     AlertSendObj.obj
 0002:00001a40       ??_C@_09JJHDHGGG@SQLTables?$AA@ 0043da40     AlertSendObj.obj
 0002:00001a4c       ??_7otl_sel@@6B@           0043da4c     AlertSendObj.obj
 0002:00001a50       ??_7CAlertSendObj@@6B@     0043da50     AlertSendObj.obj
 0002:00001a60       ??_C@_08KCGFJGDM@sv_label?$AA@ 0043da60     AlertSendObj.obj
 0002:00001a6c       ??_C@_09GDOAGIAJ@?$EAProcess?$EA?$AA@ 0043da6c     AlertSendObj.obj
 0002:00001a78       ??_C@_06FCIMGDDF@?$EATime?$EA?$AA@ 0043da78     AlertSendObj.obj
 0002:00001a80       ??_C@_08DBDPLLBJ@?$EAStatus?$EA?$AA@ 0043da80     AlertSendObj.obj
 0002:00001a8c       ??_C@_0L@CKBGIMHM@?$EAAllGroup?$EA?$AA@ 0043da8c     AlertSendObj.obj
 0002:00001a98       ??_C@_09BKEBHPIG@?$EAmonitor?$EA?$AA@ 0043da98     AlertSendObj.obj
 0002:00001aa4       ??_C@_07JHANJCCB@?$EAGroup?$EA?$AA@ 0043daa4     AlertSendObj.obj
 0002:00001aac       ??_C@_03OONHJAKL@SMS?$AA@  0043daac     AlertSendObj.obj
 0002:00001ab0       ??_C@_0P@HNBBLCHA@?$LG?L?P?E?$LH?$KC?K?M?J?$KH?$LA?$NM?$KD?$KB?$AA@ 0043dab0     AlertSendObj.obj
 0002:00001ac0       ??_C@_0P@DPINGLCL@?$LG?L?P?E?$LH?$KC?K?M?$LD?I?$LJ?$KG?$KD?$KB?$AA@ 0043dac0     AlertSendObj.obj
 0002:00001ad0       ??_C@_0O@ONDAKKJP@?$LB?$KI?$LO?$KP?D?Z?H?$NN?N?$KK?$LP?U?$CB?$AA@ 0043dad0     AlertSendObj.obj
 0002:00001ae0       ??_C@_03MGLAHEEG@?5?6?$AN?$AA@ 0043dae0     AlertSendObj.obj
 0002:00001ae4       ??_C@_0BE@PFMFIKAI@?$LL?q?H?$KB?$LF?$LN?$LF?D?$LG?L?P?E?$LD?$KE?$LG?H?$DN?$CFs?$AA@ 0043dae4     AlertSendObj.obj
 0002:00001af8       ??_C@_06MHCOIGNA@Length?$AA@ 0043daf8     AlertSendObj.obj
 0002:00001b00       ??_C@_0BI@CENNLFJN@?$LL?q?H?$KB?$LF?$LN?$LF?D?U?K?$LK?E?$DN?$CFs?7?C?$NM?B?k?$DN?$CFs?$AA@ 0043db00     AlertSendObj.obj
 0002:00001b18       ??_C@_0BA@EMPBODEO@TXTTemplate?4ini?$AA@ 0043db18     AlertSendObj.obj
 0002:00001b28       ??_C@_0CG@DCFGBGDK@?9?9?9?9?9?9?9?9?9SendSmsFromWeb?5Start?9?9?9@ 0043db28     AlertSendObj.obj
 0002:00001b5c       ??_7CAlertScriptSendObj@@6B@ 0043db5c     AlertSendObj.obj
 0002:00001b6c       ??_C@_09NFNNPINF@_PassWord?$AA@ 0043db6c     AlertSendObj.obj
 0002:00001b78       ??_C@_0N@GLGCGFKF@_UserAccount?$AA@ 0043db78     AlertSendObj.obj
 0002:00001b88       ??_C@_0N@EMEEJLAO@_MachineName?$AA@ 0043db88     AlertSendObj.obj
 0002:00001b98       ??_C@_0BD@BEFEKPNB@strScriptServerId?5?$AA@ 0043db98     AlertSendObj.obj
 0002:00001bac       ??_C@_09PFCHIMEP@127?40?40?41?$AA@ 0043dbac     AlertSendObj.obj
 0002:00001bb8       ??_7CAlertSoundSendObj@@6B@ 0043dbb8     AlertSendObj.obj
 0002:00001bc8       ??_C@_0P@MBDGOCEP@?6?$LH?$PO?N?q?F?w?P?E?O?$KC3?$KD?$LK?$AA@ 0043dbc8     AlertSendObj.obj
 0002:00001bd8       ??_7CAlertPythonSendObj@@6B@ 0043dbd8     AlertSendObj.obj
 0002:00001be8       ??_7?$otl_tmpl_connect@Votl_exc@@Votl_conn@@Votl_cur@@@@6B@ 0043dbe8     AlertSendObj.obj
 0002:00001bec       ??_7?$otl_tmpl_exception@Votl_exc@@Votl_conn@@Votl_cur@@@@6B@ 0043dbec     AlertSendObj.obj
 0002:00001bf0       ??_7?$otl_tmpl_variable@Votl_var@@@@6B@ 0043dbf0     AlertSendObj.obj
 0002:00001bf8       ??_C@_0NG@KMAEEMFP@ODBC?5?1?5DB2?5CLI?5function?5name?5is?5@ 0043dbf8     AlertSendObj.obj
 0002:00001cd0       ??_7?$otl_tmpl_ext_hv_decl@Votl_var@@UtagTIMESTAMP_STRUCT@@Votl_exc@@Votl_conn@@Votl_cur@@@@6B@ 0043dcd0     AlertSendObj.obj
 0002:00001cd4       ??_C@_0CO@PLDOCPAP@Not?5all?5input?5variables?5have?5bee@ 0043dcd4     AlertSendObj.obj
 0002:00001d04       ??_C@_0CM@HENNCKHG@Incompatible?5data?5types?5in?5strea@ 0043dd04     AlertSendObj.obj
 0002:00001d30       ??_C@_0DG@LCBCECID@No?5input?5variables?5have?5been?5def@ 0043dd30     AlertSendObj.obj
 0002:00001d68       ??_C@_0BD@OLBABOEK@vector?$DMT?$DO?5too?5long?$AA@ 0043dd68     AlertSendObj.obj
 0002:00001d7c       ??_7?$otl_auto_array_ptr@Votl_column_desc@@@@6B@ 0043dd7c     AlertSendObj.obj
 0002:00001d80       ??_7?$otl_auto_array_ptr@PAV?$otl_tmpl_variable@Votl_var@@@@@@6B@ 0043dd80     AlertSendObj.obj
 0002:00001d84       ??_7otl_stream_shell@@6B@  0043dd84     AlertSendObj.obj
 0002:00001d88       ??_C@_09DNACFLMF@DynString?$AA@ 0043dd88     AlertSendObj.obj
 0002:00001d98       ??_C@_0ED@IHONJLJE@?9?9?9?9?9?9?9?9?9?9?9?9?9?9?9?9?9?9?$LH?$KC?K?M?J?B?$LM?$PO?P?E?O?$KC?$LN?a@ 0043dd98     AlertSendObj.obj
 0002:00001ddc       ??_C@_0M@KGEDBFI@IDCUSERID?$KD?$LK?$AA@ 0043dddc     AlertSendObj.obj
 0002:00001de8       ??_C@_0BF@ELOGBLDH@?$LC?z?I?z?$LH?$KC?K?M?J?B?$LM?$PO?$LF?D?$LB?$KI?$LO?$KP?$KD?$LK?$AA@ 0043dde8     AlertSendObj.obj
 0002:00001e00       ??_C@_0P@KEJNFLHF@?T?$KN?J?$LM?J?B?$LM?$PO?$MA?$OA?P?M?$KD?$LK?$AA@ 0043de00     AlertSendObj.obj
 0002:00001e10       ??_C@_0P@JLGLCDCI@?T?$KN?J?$LM?J?B?$LM?$PO?P?r?$LK?E?$KD?$LK?$AA@ 0043de10     AlertSendObj.obj
 0002:00001e20       ??_C@_0P@PMMFKMFK@?$LH?$KC?K?M?J?B?$LM?$PO?P?r?$LK?E?$KD?$LK?$AA@ 0043de20     AlertSendObj.obj
 0002:00001e30       ??_C@_0BM@LGMIBFJM@?$LH?$KC?K?M?J?B?$LM?$PO?$MA?$OA?P?M?$KD?$LK?$KB?$KBSendObj?$KB?$KB?$AN?6?$AA@ 0043de30     AlertSendObj.obj
 0002:00001e4c       ??_C@_0P@HPNDEHDC@?$LB?$KI?$LO?$KP?$LM?$OA?$LC?b?F?wId?$KD?$LK?$AA@ 0043de4c     AlertSendObj.obj
 0002:00001e60       ??_C@_0EE@OFLNHLLC@?$AN?6?9?9?9?9?9?9?9?9?9?9?9?9?9?9?9?9?9?9?$LH?$KC?K?M?J?B?$LM?$PO?P?E?O?$KC@ 0043de60     AlertSendObj.obj
 0002:00001ea4       ??_C@_0BK@KNLFGEDG@?$LH?$KC?K?M?J?B?$LM?$PO?$MA?$OA?P?M?$KD?$LK?$KB?$KBEmail?$KB?$KB?$AN?6?$AA@ 0043dea4     AlertSendObj.obj
 0002:00001ec0       ??_C@_0EB@LPPNKJPB@?$DN?$DN?$DN?$DN?$DN?$DN?$DN?$DN?$DN?$DN?$DN?$DN?$DN?5CAlertEmailSendObj@ 0043dec0     AlertSendObj.obj
 0002:00001f04       ??_C@_09DDIOLEDH@?$EAWarning?$EA?$AA@ 0043df04     AlertSendObj.obj
 0002:00001f10       ??_C@_05NAOIJFC@Error?$AA@ 0043df10     AlertSendObj.obj
 0002:00001f18       ??_C@_07MIKIFGAL@Disable?$AA@ 0043df18     AlertSendObj.obj
 0002:00001f20       ??_C@_07KGMMFLDN@Warning?$AA@ 0043df20     AlertSendObj.obj
 0002:00001f28       ??_C@_02PNHBFOHM@Ok?$AA@   0043df28     AlertSendObj.obj
 0002:00001f2c       ??_C@_0BC@GOBMBBLP@?$EAMonitorAlertDes?$EA?$AA@ 0043df2c     AlertSendObj.obj
 0002:00001f40       ??_C@_0P@HIONBOCF@sv_description?$AA@ 0043df40     AlertSendObj.obj
 0002:00001f50       ??_C@_0BA@MOHBJJDM@?$EAFullPathGroup?$EA?$AA@ 0043df50     AlertSendObj.obj
 0002:00001f60       ??_C@_08GNJCKCMA@?$EADevice?$EA?$AA@ 0043df60     AlertSendObj.obj
 0002:00001f6c       ??_C@_09JILAPNCF@?$EAMonitor?$EA?$AA@ 0043df6c     AlertSendObj.obj
 0002:00001f78       ??_C@_0CE@NOAKANI@?$LO?$KP?$LB?$KI?$MA?$LE?W?TSiteView?$KB?$KD?$EAGroup?$EA?3?$EAmonit@ 0043df78     AlertSendObj.obj
 0002:00001f9c       ??_C@_05HNNODCBN@Email?$AA@ 0043df9c     AlertSendObj.obj
 0002:00001fa4       ??_C@_0BI@KLFNCEEK@?$LH?$KC?K?M?J?B?$LM?$PO?$MA?$OA?P?M?$KD?$LK?$KB?$KBSms?$KB?$KB?$AN?6?$AA@ 0043dfa4     AlertSendObj.obj
 0002:00001fbc       ??_C@_05CMCJEIN@?$EALog?$EA?$AA@ 0043dfbc     AlertSendObj.obj
 0002:00001fc4       ??_C@_09FPKNPJGM@data?2Temp?$AA@ 0043dfc4     AlertSendObj.obj
 0002:00001fd0       ??_C@_0GP@JPDIDEAK@?$DN?$DN?$DN?$DN?$DN?$DN?$DN?$DN?$DN?$DN?$DN?$DN?$DN?$DN?$DN?5CAlertSmsSendObj@ 0043dfd0     AlertSendObj.obj
 0002:00002040       ??_C@_0GG@KPIHFDNF@?$DN?$DN?$DN?$DN?$DN?$DN?$DN?$DN?$DN?$DN?$DN?$DN?$DN?$DN?$DN?5CAlertSmsSendObj@ 0043e040     AlertSendObj.obj
 0002:000020a8       ??_C@_0GH@ENDBPBIN@?$DN?$DN?$DN?$DN?$DN?$DN?$DN?$DN?$DN?$DN?$DN?$DN?$DN?$DN?$DN?5CAlertSmsSendObj@ 0043e0a8     AlertSendObj.obj
 0002:00002110       ??_C@_0FD@FECCFJCK@?$DN?$DN?$DN?$DN?$DN?$DN?$DN?$DN?$DN?$DN?$DN?$DN?$DN?$DN?$DN?5CAlertSmsSendObj@ 0043e110     AlertSendObj.obj
 0002:00002164       ??_C@_0CI@DCCPBLAA@?9?9?9?9?9?9?9?9MakeWebAlertContent?5End?9@ 0043e164     AlertSendObj.obj
 0002:0000218c       ??_C@_0M@MKDLDOCF@?$EAfrequency?$EA?$AA@ 0043e18c     AlertSendObj.obj
 0002:00002198       ??_C@_0L@MKCONOGM@_frequency?$AA@ 0043e198     AlertSendObj.obj
 0002:000021a4       ??_C@_0P@KBAOPONF@_frequencyUnit?$AA@ 0043e1a4     AlertSendObj.obj
 0002:000021b4       ??_C@_04OFFCAMCD@Test?$AA@ 0043e1b4     AlertSendObj.obj
 0002:000021bc       ??_C@_0L@LFFIBMPE@strTempTo?3?$AA@ 0043e1bc     AlertSendObj.obj
 0002:000021c8       ??_C@_0CE@OINMFACB@?$LC?N?J?$PN?$CFs?$LE?S?$LG?L?P?E?D?$KD?$LA?e?V?P?$LL?q?$LF?C?$LF?D?D?$KD?$LA?e?$LC?N?J?$PN@ 0043e1c8     AlertSendObj.obj
 0002:000021ec       ??_C@_0CK@LMBGDAMJ@?9?9?9?9?9?9?9?9MakeWebAlertContent?5Star@ 0043e1ec     AlertSendObj.obj
 0002:00002218       ??_C@_0BL@BIEAEDOG@?$LH?$KC?K?M?J?B?$LM?$PO?$MA?$OA?P?M?$KD?$LK?$KB?$KBScript?$KB?$KB?$AN?6?$AA@ 0043e218     AlertSendObj.obj
 0002:00002234       ??_C@_02MFDMBIJM@ok?$AA@   0043e234     AlertSendObj.obj
 0002:00002238       ??_C@_0BK@BNNNHPIE@cscript?5?$CFs?2cscripts?2?$CFs?5?$CFs?$AA@ 0043e238     AlertSendObj.obj
 0002:00002254       ??_C@_0L@IAMAOOAI@?$LH?$LF?$LL?X?$LN?a?$LJ?$PL?$KD?$LK?$AA@ 0043e254     AlertSendObj.obj
 0002:00002260       ??_C@_0M@HKKFHBOK@?6?$LH?$LF?$LL?X?$LN?a?$LJ?$PL?$KD?$LK?$AA@ 0043e260     AlertSendObj.obj
 0002:0000226c       ??_C@_0L@BJFNOAJM@strLast?5?$DN?5?$AA@ 0043e26c     AlertSendObj.obj
 0002:00002278       ??_C@_01BJJEKLCA@?$CC?$AA@ 0043e278     AlertSendObj.obj
 0002:0000227c       ??_C@_03ELHPEHJG@?$CC?5?$CC?$AA@ 0043e27c     AlertSendObj.obj
 0002:00002280       ??_C@_0BC@FLBAHIKN@strScriptParam?5?$DN?5?$AA@ 0043e280     AlertSendObj.obj
 0002:00002294       ??_C@_0BG@COKPPJDF@PlayRemoteSound?4vbs?$AN?6?$AA@ 0043e294     AlertSendObj.obj
 0002:000022ac       ??_C@_0BE@ILKAHKOC@PlayRemoteSound?4vbs?$AA@ 0043e2ac     AlertSendObj.obj
 0002:000022c0       ??_C@_0P@DDCPMMBJ@Shutdown?4vbs?$AN?6?$AA@ 0043e2c0     AlertSendObj.obj
 0002:000022d0       ??_C@_0N@HGNDJKAJ@Shutdown?4vbs?$AA@ 0043e2d0     AlertSendObj.obj
 0002:000022e0       ??_C@_0BF@LELIFFHA@RestartService?4vbs?$AN?6?$AA@ 0043e2e0     AlertSendObj.obj
 0002:000022f8       ??_C@_0BD@PDIMKOEP@RestartService?4vbs?$AA@ 0043e2f8     AlertSendObj.obj
 0002:0000230c       ??_C@_0BB@LLKPBCFP@RestartIIS?4vbs?$AN?6?$AA@ 0043e30c     AlertSendObj.obj
 0002:00002320       ??_C@_0P@PKCJKENB@RestartIIS?4vbs?$AA@ 0043e320     AlertSendObj.obj
 0002:00002330       ??_C@_0N@IAIOHNNP@Reboot?4vbs?$AN?6?$AA@ 0043e330     AlertSendObj.obj
 0002:00002340       ??_C@_0L@GKJDNGHC@Reboot?4vbs?$AA@ 0043e340     AlertSendObj.obj
 0002:0000234c       ??_C@_06HHINJIAO@?$LN?a?$LJ?$PL?$KD?$LK?$AA@ 0043e34c     AlertSendObj.obj
 0002:00002354       ??_C@_06OMCGJKMH@?$LC?N?J?$PN?$KD?$LK?$AA@ 0043e354     AlertSendObj.obj
 0002:0000235c       ??_C@_05DNIIFBMG@?$CFs?5?$CFs?$AA@ 0043e35c     AlertSendObj.obj
 0002:00002364       ??_C@_0BC@NFJHHJPA@SendMessage?4vbs?$AN?6?$AA@ 0043e364     AlertSendObj.obj
 0002:00002378       ??_C@_0BA@CEPCADCD@SendMessage?4vbs?$AA@ 0043e378     AlertSendObj.obj
 0002:00002388       ??_C@_0O@FNIJDHOC@DoWinScript?$AN?6?$AA@ 0043e388     AlertSendObj.obj
 0002:00002398       ??_C@_07BFDHHBBI@Scripts?$AA@ 0043e398     AlertSendObj.obj
 0002:000023a0       ??_C@_0N@NADAGKCB@?$LH?$PO?N?q?F?w?P?E?O?$KC3?3?$AA@ 0043e3a0     AlertSendObj.obj
 0002:000023b0       ??_C@_0O@BIONICBM@?$LH?$PO?N?q?F?w?P?E?O?$KC2?$KD?$LK?$AA@ 0043e3b0     AlertSendObj.obj
 0002:000023c0       ??_C@_0O@KFICNPC@?$LH?$PO?N?q?F?w?P?E?O?$KC1?$KD?$LK?$AA@ 0043e3c0     AlertSendObj.obj
 0002:000023d0       ??_C@_0BK@HIPGDOCN@?$LH?$KC?K?M?J?B?$LM?$PO?$MA?$OA?P?M?$KD?$LK?$KB?$KBSound?$KB?$KB?$AN?6?$AA@ 0043e3d0     AlertSendObj.obj
 0002:000023f0       ??_C@_0ED@KPBLFCK@?9?9?9?9?9?9?9?9?9?9?9?9?9?9?9?9?9?9?$LH?$KC?K?M?I?y?R?t?$LB?$KI?$LO?$KP?$LN?a@ 0043e3f0     AlertSendObj.obj
 0002:00002434       ??_C@_0BD@OGBMMJCJ@strLoginPwdValue?$KD?$LK?$AA@ 0043e434     AlertSendObj.obj
 0002:00002448       ??_C@_0BE@POIKPDHA@strLoginNameValue?$KD?$LK?$AA@ 0043e448     AlertSendObj.obj
 0002:0000245c       ??_C@_0BB@OCBIJEBF@strServerValue?$KD?$LK?$AA@ 0043e45c     AlertSendObj.obj
 0002:00002470       ??_C@_0EE@PBJODAKN@?$AN?6?9?9?9?9?9?9?9?9?9?9?9?9?9?9?9?9?9?9?$LH?$KC?K?M?I?y?R?t?$LB?$KI?$LO?$KP@ 0043e470     AlertSendObj.obj
 0002:000024b4       ??_C@_0BL@DNEFIAAI@?$LH?$KC?K?M?J?B?$LM?$PO?$MA?$OA?P?M?$KD?$LK?$KB?$KBPython?$KB?$KB?$AN?6?$AA@ 0043e4b4     AlertSendObj.obj
 0002:000024d0       ??_C@_07GHIAJMBC@?5?5?5?5?5?5?5?$AA@ 0043e4d0     AlertSendObj.obj
 0002:000024d8       ??_C@_0BA@LGICCOFJ@sv_paramvalue?$CFd?$AA@ 0043e4d8     AlertSendObj.obj
 0002:000024e8       ??_C@_0N@BICCOAFN@sv_operate?$CFd?$AA@ 0043e4e8     AlertSendObj.obj
 0002:000024f8       ??_C@_0P@OGMJOHM@sv_paramname?$CFd?$AA@ 0043e4f8     AlertSendObj.obj
 0002:00002508       ??_C@_03FDCLAKJL@?$CD?$CFd?$AA@ 0043e508     AlertSendObj.obj
 0002:0000250c       ??_C@_03LICAGLHC@?$CFd?$CD?$AA@ 0043e50c     AlertSendObj.obj
 0002:00002510       ??_C@_0O@CCOOCICD@sv_expression?$AA@ 0043e510     AlertSendObj.obj
 0002:00002520       ??_C@_0BC@FODCJCHA@sv_conditioncount?$AA@ 0043e520     AlertSendObj.obj
 0002:00002534       ??_C@_0CM@KIFOGJAH@Row?5must?5be?5full?5for?5flushing?5ou@ 0043e534     AlertSendObj.obj
 0002:00002560       ??_7?$otl_tmpl_cursor@Votl_exc@@Votl_conn@@Votl_cur@@Votl_var@@@@6B@ 0043e560     AlertSendObj.obj
 0002:00002578       ??_C@_0CN@IJNPPIPE@Stream?5buffer?5size?5can?8t?5be?5?$DO?51?5@ 0043e578     AlertSendObj.obj
 0002:000025a8       ??_C@_0BN@CKKMBMEO@Unsupported?5column?5data?5type?$AA@ 0043e5a8     AlertSendObj.obj
 0002:000025c8       ??_C@_0CC@HFOBOCLJ@Invalid?5bind?5variable?5declaratio@ 0043e5c8     AlertSendObj.obj
 0002:000025ec       ??_C@_0CB@CNLJMNOO@otl_connect?5is?5already?5connected@ 0043e5ec     AlertSendObj.obj
 0002:00002610       ??_7otl_stream@@6B@        0043e610     AlertSendObj.obj
 0002:00002614       ??_C@_0BG@NDHGKOFK@MonitorDstr?5strTmp?5?$DN?5?$AA@ 0043e614     AlertSendObj.obj
 0002:0000262c       ??_C@_0O@FGFDBGLI@?$EAMonitorDstr?$EA?$AA@ 0043e62c     AlertSendObj.obj
 0002:0000263c       ??_C@_0BK@CPMOIBNK@MonitorAlertDes?5strTmp?5?$DN?5?$AA@ 0043e63c     AlertSendObj.obj
 0002:00002658       ??_7?$otl_tmpl_out_stream@Votl_exc@@Votl_conn@@Votl_cur@@Votl_var@@UtagTIMESTAMP_STRUCT@@@@6B@ 0043e658     AlertSendObj.obj
 0002:00002678       ??_C@_0DK@PGADPPPK@Input?5otl_long_string?5is?5too?5lar@ 0043e678     AlertSendObj.obj
 0002:000026b4       ??_7?$otl_tmpl_select_cursor@Votl_exc@@Votl_conn@@Votl_cur@@Votl_var@@Votl_sel@@@@6B@ 0043e6b4     AlertSendObj.obj
 0002:000026cc       ??_7otl_connect@@6B@       0043e6cc     AlertSendObj.obj
 0002:000026d0       ??_7?$otl_tmpl_select_stream@Votl_exc@@Votl_conn@@Votl_cur@@Votl_var@@Votl_sel@@UtagTIMESTAMP_STRUCT@@@@6B@ 0043e6d0     AlertSendObj.obj
 0002:000026e8       ??_7?$otl_tmpl_inout_stream@Votl_exc@@Votl_conn@@Votl_cur@@Votl_var@@UtagTIMESTAMP_STRUCT@@@@6B@ 0043e6e8     AlertSendObj.obj
 0002:00002708       ??_C@_04GOHEPOP@WITH?$AA@  0043e708     AlertSendObj.obj
 0002:00002710       ??_C@_06LCPJPOPK@SELECT?$AA@ 0043e710     AlertSendObj.obj
 0002:00002718       ??_C@_0BL@DKELAHGK@otl_stream?5is?5already?5open?$AA@ 0043e718     AlertSendObj.obj
 0002:00002734       ??_7CAlertEmailSendObj@@6B@ 0043e734     AlertSendObj.obj
 0002:00002744       ??_7CAlertSmsSendObj@@6B@  0043e744     AlertSendObj.obj
 0002:00002754       ??_C@_08NLCKCAFE@Template?$AA@ 0043e754     AlertSendObj.obj
 0002:00002760       ??_C@_08INLLAOAJ@MailList?$AA@ 0043e760     AlertSendObj.obj
 0002:0000276c       ??_C@_08EENCMAF@?P?r?A?P?$LB?m?$KD?$LK?$AA@ 0043e76c     AlertSendObj.obj
 0002:00002778       ??_C@_08IFDJIBFE@Schedule?$AA@ 0043e778     AlertSendObj.obj
 0002:00002784       ??_C@_07BLLBCIHD@MailTo?$DN?$AA@ 0043e784     AlertSendObj.obj
 0002:0000278c       ??_C@_06JOFEPJCH@bCheck?$AA@ 0043e78c     AlertSendObj.obj
 0002:00002794       ??_C@_04FABLJDN@Name?$AA@  0043e794     AlertSendObj.obj
 0002:0000279c       ??_C@_0BA@EMILMBOM@emailAdress?4ini?$AA@ 0043e79c     AlertSendObj.obj
 0002:000027ac       ??_C@_0CI@MAECOECE@Get?5Template?5from?5smsphoneset?4in@ 0043e7ac     AlertSendObj.obj
 0002:000027d4       ??_C@_05NCHHPELK@Phone?$AA@ 0043e7d4     AlertSendObj.obj
 0002:000027dc       ??_C@_04MCFFGIKM@Plan?$AA@ 0043e7dc     AlertSendObj.obj
 0002:000027e4       ??_C@_06PGDKHFME@Status?$AA@ 0043e7e4     AlertSendObj.obj
 0002:000027ec       ??_C@_03CCLAEDDF@Yes?$AA@  0043e7ec     AlertSendObj.obj
 0002:000027f0       ??_C@_0BA@OGMDEDFK@smsphoneset?4ini?$AA@ 0043e7f0     AlertSendObj.obj
 0002:00002800       ??_C@_0BA@OOBJMKHJ@break?0break?0?$CFs?6?$AA@ 0043e800     AlertSendObj.obj
 0002:00002810       ??_C@_05JENMFHJH@?$DN?$DN?$CFs?6?$AA@ 0043e810     AlertSendObj.obj
 0002:00002818       ??_C@_06BLJBAJJG@?$LE?m?N?s?$KD?$LK?$AA@ 0043e818     AlertSendObj.obj
 0002:00002820       ??_C@_0BH@OJHJMGNK@?$LD?I?$LJ?$KG?$KD?$LK?$LC?e?H?k?J?$PN?$LO?$NN?$LP?b?$LD?I?$LJ?$KG?$KB?$KD?$AA@ 0043e820     AlertSendObj.obj
 0002:00002838       ??_C@_0N@FALAGDIC@strTmpSql?5?$DN?5?$AA@ 0043e838     AlertSendObj.obj
 0002:00002848       ??_C@_09NPEDKOIF@getdate?$CI?$CJ?$AA@ 0043e848     AlertSendObj.obj
 0002:00002854       ??_C@_08EOMKIIPG@?$LH?$KC?K?M?J?$LB?$LM?d?$AA@ 0043e854     AlertSendObj.obj
 0002:00002860       ??_C@_08BLDBOHDA@?$LG?L?P?E?D?Z?H?$NN?$AA@ 0043e860     AlertSendObj.obj
 0002:0000286c       ??_C@_01GEODFPGF@?8?$AA@   0043e86c     AlertSendObj.obj
 0002:00002870       ??_C@_08FGFDFKLB@?J?V?$LL?z?$LK?E?B?k?$AA@ 0043e870     AlertSendObj.obj
 0002:0000287c       ??_C@_0M@JIOJCBEN@r?$CIint?0out?$CJ?$DN?$AA@ 0043e87c     AlertSendObj.obj
 0002:00002888       ??_C@_06HCNGHCAC@Sybase?$AA@ 0043e888     AlertSendObj.obj
 0002:00002890       ??_C@_0BD@POMPGHML@?$DN?$DN?$DN?$DN?$DN?$DN?$CK?$CK?$CK?$CK?$CKSQL?3?$CFs?6?$AA@ 0043e890     AlertSendObj.obj
 0002:000028a4       ??_C@_0P@IEHAACPH@for?5strPhones?6?$AA@ 0043e8a4     AlertSendObj.obj
 0002:000028b4       ??_C@_0BD@PCGKDFPD@strAlertContent?$DN?$CFs?$AA@ 0043e8b4     AlertSendObj.obj
 0002:000028c8       ??_C@_0O@NJBHMIOD@strPhones?$DN?$CFd?6?$AA@ 0043e8c8     AlertSendObj.obj
 0002:000028d8       ??_C@_0M@JFCDPJCH@szSmsto?$DN?$CFs?6?$AA@ 0043e8d8     AlertSendObj.obj
 0002:000028e4       ??_C@_02KNLDFMDJ@?$CJ?$HN?$AA@ 0043e8e4     AlertSendObj.obj
 0002:000028e8       ??_C@_05MBLGCDAI@call?5?$AA@ 0043e8e8     AlertSendObj.obj
 0002:000028f0       ??_C@_02MNJOIFPO@?$HL?5?$AA@ 0043e8f0     AlertSendObj.obj
 0002:000028f4       ??_C@_0BD@GAKKHEDB@?$HL?5?3r?$CIvarchar?0out?$CJ?$DN?$AA@ 0043e8f4     AlertSendObj.obj
 0002:00002908       ??_C@_0P@BMAFGLEG@?$HL?5?3r?$CIint?0out?$CJ?$DN?$AA@ 0043e908     AlertSendObj.obj
 0002:00002918       ??_C@_08CHNFGJ@PorcType?$AA@ 0043e918     AlertSendObj.obj
 0002:00002924       ??_C@_0L@FMNAAKAA@PorcReturn?$AA@ 0043e924     AlertSendObj.obj
 0002:00002930       ??_C@_08KLCEBFBJ@PorcName?$AA@ 0043e930     AlertSendObj.obj
 0002:0000293c       ??_C@_0N@MJCEMEMD@strSql?5?$DN?5?$CFs?6?$AA@ 0043e93c     AlertSendObj.obj
 0002:0000294c       ??_C@_01PKGAHCOL@?$CJ?$AA@ 0043e94c     AlertSendObj.obj
 0002:00002950       ??_C@_08JFOPGJLI@?5values?$CI?$AA@ 0043e950     AlertSendObj.obj
 0002:0000295c       ??_C@_01ODHLEDKK@?$CI?$AA@ 0043e95c     AlertSendObj.obj
 0002:00002960       ??_C@_0N@OKNJGIHE@insert?5into?5?$AA@ 0043e960     AlertSendObj.obj
 0002:00002970       ??_C@_09FNKPIKDN@TableName?$AA@ 0043e970     AlertSendObj.obj
 0002:0000297c       ??_C@_0BG@IPJLANFE@?$DN?$DN?$DN?$DN?5?H?$KB?$LC?N?J?$PN?$LD?I?$LJ?$KG?A?K?$DN?$DN?$DN?6?$AA@ 0043e97c     AlertSendObj.obj
 0002:00002994       ??_C@_0L@FOAHMBMG@PramDesc?$CFd?$AA@ 0043e994     AlertSendObj.obj
 0002:000029a0       ??_C@_0BD@KGFOELON@?3P?$CFd?$DMtimestamp?0in?$DO?$AA@ 0043e9a0     AlertSendObj.obj
 0002:000029b4       ??_C@_08BFOPGFLN@DateTime?$AA@ 0043e9b4     AlertSendObj.obj
 0002:000029c0       ??_C@_06ICGJLFIM@string?$AA@ 0043e9c0     AlertSendObj.obj
 0002:000029c8       ??_C@_0BB@KCKODEGN@?3P?$CFd?$DMvarchar?0in?$DO?$AA@ 0043e9c8     AlertSendObj.obj
 0002:000029dc       ??_C@_06ENNEIMBA@String?$AA@ 0043e9dc     AlertSendObj.obj
 0002:000029e4       ??_C@_03JBIPMCLC@int?$AA@  0043e9e4     AlertSendObj.obj
 0002:000029e8       ??_C@_0N@NDBJJIAF@?3P?$CFd?$DMint?0in?$DO?$AA@ 0043e9e8     AlertSendObj.obj
 0002:000029f8       ??_C@_03DBLNGNIM@Int?$AA@  0043e9f8     AlertSendObj.obj
 0002:000029fc       ??_C@_0N@CHDBLCIC@PramLength?$CFd?$AA@ 0043e9fc     AlertSendObj.obj
 0002:00002a0c       ??_C@_0L@CPAGLKOE@PramType?$CFd?$AA@ 0043ea0c     AlertSendObj.obj
 0002:00002a18       ??_C@_0L@JLFNKKKB@PramName?$CFd?$AA@ 0043ea18     AlertSendObj.obj
 0002:00002a24       ??_C@_0BF@OPKBHJGC@?$LE?m?N?s?$KD?$LK?I?h?V?C?$LF?D?$LC?N?J?$PN?L?$KL?I?Y?$AA@ 0043ea24     AlertSendObj.obj
 0002:00002a3c       ??_C@_0DL@FALPBLHB@?$DN?$DNInsertWay?3?$CFs?0DataBaseType?3?$CFs?0c@ 0043ea3c     AlertSendObj.obj
 0002:00002a78       ??_C@_0BB@CBIJNEKD@ConnectionString?$AA@ 0043ea78     AlertSendObj.obj
 0002:00002a8c       ??_C@_0N@LANFICEM@DataBaseType?$AA@ 0043ea8c     AlertSendObj.obj
 0002:00002a9c       ??_C@_09LKKAKKJC@InsertWay?$AA@ 0043ea9c     AlertSendObj.obj
 0002:00002aa8       ??_C@_0P@IIFDJKNE@DataBaseConfig?$AA@ 0043eaa8     AlertSendObj.obj
 0002:00002ab8       ??_C@_0L@EFJLOIB@PramsCount?$AA@ 0043eab8     AlertSendObj.obj
 0002:00002ac4       ??_C@_0BE@OONCLDLM@call?5?$CFs?5run?5error?$CB?6?$AA@ 0043eac4     AlertSendObj.obj
 0002:00002ad8       ??_C@_0CC@FGLDDKOB@?$DN?$DN?$DN?$DN?$DNSend?5Mesage?3Phone?3?$CFs?0Msg?3?$CFs@ 0043ead8     AlertSendObj.obj
 0002:00002afc       ??_C@_0BF@HJLCPKJG@smsTo?3?$CFs?0content?3?$CFs?6?$AA@ 0043eafc     AlertSendObj.obj
 0002:00002b14       ??_C@_03LGMJKEGG@run?$AA@  0043eb14     AlertSendObj.obj
 0002:00002b18       ??_C@_0DO@PJJOOCML@?9?9?9?9?9?9?9?9?9?9?9?9?9start?5loadlibrary?5s@ 0043eb18     AlertSendObj.obj
 0002:00002b58       ??_C@_0M@LFHOKGOK@?2smsplugin?2?$AA@ 0043eb58     AlertSendObj.obj
 0002:00002b64       ??_C@_0DL@IPKMJCEO@?9?9?9?9?9?9?9?9?9?9?9?9?9?9?9?9?9?9?9?5TelephoneDll@ 0043eb64     AlertSendObj.obj
 0002:00002ba0       ??_C@_0ED@JIEAJMDJ@?9?9?9?9?9?9?9?9?9?9?9?9?9?9?9?9?9?9?9?5TelephoneDll@ 0043eba0     AlertSendObj.obj
 0002:00002be4       ??_C@_01ICJEACDI@?$DL?$AA@ 0043ebe4     AlertSendObj.obj
 0002:00002be8       ??_C@_0BB@BBDJLOAL@TelephoneDll?4dll?$AA@ 0043ebe8     AlertSendObj.obj
 0002:00002bfc       ??_C@_0CE@OPGPHJFI@?$DN?$DN?$DN?$DN?$DNcall?5SendSmsFromSelfDefine?$KB@ 0043ebfc     AlertSendObj.obj
 0002:00002c20       ??_C@_0BF@OPACOMJM@?$LE?$KL?H?k?$LF?D?$LG?$KP?L?$KM?$LP?b?C?$PL?N?$KK?$LP?U?$KD?$KB?$AA@ 0043ec20     AlertSendObj.obj
 0002:00002c38       ??_C@_0CC@JMJIDELA@strDllName?3?$CFs?0strDllFuncParam?3?$CFs@ 0043ec38     AlertSendObj.obj
 0002:00002c60       ??_C@_0EE@OFKPMGFC@?$DN?$DN?$DN?$DN?$DNcall?5SendSmsFromSelfDefine?$KB@ 0043ec60     AlertSendObj.obj
 0002:00002ca8       ??_C@_0FB@GMCNEEOL@?9?9?9?9?9?9?9?9?9?9?9?9?9?9?9?9SendSmsFromSelfD@ 0043eca8     AlertSendObj.obj
 0002:00002d00       ??_C@_0EM@NCAMPMNB@?9?9?9?9?9?9?9?9?9?9?9?9?9?9?9?9SendSmsFromSelfD@ 0043ed00     AlertSendObj.obj
 0002:00002d4c       ??_C@_0M@EEEHANDP@DllFunParam?$AA@ 0043ed4c     AlertSendObj.obj
 0002:00002d58       ??_C@_03OPIBJLCE@DLL?$AA@  0043ed58     AlertSendObj.obj
 0002:00002d5c       ??_C@_07DIPGLEOO@DllName?$AA@ 0043ed5c     AlertSendObj.obj
 0002:00002d64       ??_C@_0BB@LAEPJCKI@interfacedll?4ini?$AA@ 0043ed64     AlertSendObj.obj
 0002:00002d78       ??_C@_0EE@PLMBJINP@?9?9?9?9?9?9?9?9?9?9?9?9?9?9?9?9SendSmsFromSelfD@ 0043ed78     AlertSendObj.obj
 0002:00002dc0       ??_C@_0EE@GDOMGPJK@?$DN?$DN?$DN?$DN?$DN?$DN?$DN?$DN?$DN?$DN?$DN?$DN?5CAlertSmsSendObj?3?3S@ 0043edc0     AlertSendObj.obj
 0002:00002e04       ??_C@_0CD@MJJDFLKF@?$AN?6?$CK?$CK?$CK?$CK?$CK?$CK?$CK?$CK?$CK?$CK?$LH?$KC?K?M?S?J?$LM?$PO?R?l?$LD?$KD?$CK?$CK?$CK?$CK?$CK?$CK?$CK?$CK@ 0043ee04     AlertSendObj.obj
 0002:00002e28       ??_C@_0DP@ECENDOMO@?9?9?9?9?9?9?9?9?9?9?9?9?9?9?9?9?9?9?$LH?$KC?K?M?S?J?$LM?$PO?$LN?a?J?x?9?9@ 0043ee28     AlertSendObj.obj
 0002:00002e68       ??_C@_0HG@KFOAAJCD@szEmailServer?$DN?$CFs?6?7szEmailfrom?$DN?$CFs@ 0043ee68     AlertSendObj.obj
 0002:00002ee0       ??_C@_0CA@IPPMILGG@?9?9?9?9?9?9?9?9input?5parameter?9?9?9?9?9?9?9?9?$AA@ 0043eee0     AlertSendObj.obj
 0002:00002f00       ??_C@_0DD@MOENCNGH@?$DN?$DN?$DN?$DN?$DN?$DN?$DN?$DN?$DN?$DN?$DN?$DN?$DN?$DN?$DN?$DN?$DN?$DN?$DN?$DN?$DN?$DN?$DN?$DN?$DN?$DN?$DN?$DN?$DN?$DN?$DN?$DN@ 0043ef00     AlertSendObj.obj
 0002:00002f34       ??_C@_0CH@GFLHMACN@?$DN?$DN?$DN?$DN?$DN?$DN?$DN?$DN?$DN?$DN?$DN?$DN?5?V?$LF?$LA?$OA?$LB?m?$LH?$LN?J?$LN?5?5?$DN?$DN?$DN?$DN?$DN?$DN?$DN@ 0043ef34     AlertSendObj.obj
 0002:00002f5c       ??_C@_09OFOKOILM@szMailTo?$DN?$AA@ 0043ef5c     AlertSendObj.obj
 0002:00002f68       ??_C@_0BF@JNJNKPNB@strOtherAdressValue?$DN?$AA@ 0043ef68     AlertSendObj.obj
 0002:00002f80       ??_C@_0CE@NPPLJOFD@?$DN?$DN?$DN?$DN?$DN?$DN?$DN?$DN?$DN?$DN?$DN?$DN?5?$LG?$MA?A?$KC?$LH?$LN?J?$LN?5?$DN?$DN?$DN?$DN?$DN?$DN?$DN?$DN?$DN?$DN@ 0043ef80     AlertSendObj.obj
 0002:00002fa4       ??_C@_0BI@GNGEEJNP@?W?n?$LK?s?R?$LL?$LI?v?$LF?D?$LN?S?J?U?S?J?$LM?$PO?$LF?X?V?$LH?3?$AA@ 0043efa4     AlertSendObj.obj
 0002:00002fbc       ??_C@_0O@FIHIAOBC@?$LN?S?J?U?S?J?$LM?$PO?$LF?X?V?$LH?3?$AA@ 0043efbc     AlertSendObj.obj
 0002:00002fcc       ??_C@_0CE@DMBOMFEI@?$DN?$DN?$DN?$DN?$DN?$DN?$DN?$DN?$DN?$DN?$DN?$DN?5?$LA?s?$LG?$KI?$LH?$LN?J?$LN?5?$DN?$DN?$DN?$DN?$DN?$DN?$DN?$DN?$DN?$DN@ 0043efcc     AlertSendObj.obj
 0002:00002ff0       ??_C@_0CE@DMKHFJBG@?$DN?$DN?$DN?$DN?$DN?$DN?$DN?$DN?$DN?$DN?$DN?$DN?5?I?$PN?$LM?$LG?S?J?$LM?$PO?5?$DN?$DN?$DN?$DN?$DN?$DN?$DN?$DN?$DN?$DN@ 0043eff0     AlertSendObj.obj
 0002:00003014       ??_C@_0N@MAGMOELE@backupserver?$AA@ 0043f014     AlertSendObj.obj
 0002:00003024       ??_C@_08NLHBPEGP@password?$AA@ 0043f024     AlertSendObj.obj
 0002:00003030       ??_C@_04CCHAHKJA@user?$AA@ 0043f030     AlertSendObj.obj
 0002:00003038       ??_C@_04HNEBHLOP@from?$AA@ 0043f038     AlertSendObj.obj
 0002:00003040       ??_C@_0N@MJFKMPIF@email_config?$AA@ 0043f040     AlertSendObj.obj
 0002:00003050       ??_C@_06HJHJCKIO@server?$AA@ 0043f050     AlertSendObj.obj
 0002:00003058       ??_C@_09DFGHEHFE@email?4ini?$AA@ 0043f058     AlertSendObj.obj
 0002:00003068       ??_C@_0EL@JGPHKHDK@?6?6?$DN?$DN?$DN?$DN?$DN?$DN?$DN?$DN?$DN?$DN?$DN?$DN?$DN?$DN?$DN?$DN?$DN?$DN?$DN?$DNCAlertEmai@ 0043f068     AlertSendObj.obj
 0002:000030b4       ??_C@_07PEJIEDMJ@stmp?5?$DN?5?$AA@ 0043f0b4     AlertSendObj.obj
 0002:000030bc       ??_C@_0CF@FDFGAHIJ@?$DN?$DN?$DN?$DN?$DN?$DN?$DN?$DN?$DN?$DN?$DNSendSmsFromSelfDefine@ 0043f0bc     AlertSendObj.obj
 0002:000030e4       ??_C@_08JIGBLAPO@szSmsTo?$DN?$AA@ 0043f0e4     AlertSendObj.obj
 0002:000030f0       ??_C@_0BF@OBPCMLGG@strOtherNumberValue?$DN?$AA@ 0043f0f0     AlertSendObj.obj
 0002:00003108       ??_C@_08HDBDMMBI@Database?$AA@ 0043f108     AlertSendObj.obj
 0002:00003114       ??_C@_0BH@PNCEPCAL@?$DN?$DN?$DN?$DN?$DN?$DN?$DN?$DN?$DN?$DN?$DN?$DN?5?$LH?$KC?K?M?$LH?$LN?J?$LN?3?$AA@ 0043f114     AlertSendObj.obj
 0002:0000312c       ??_C@_0CF@CADJFOCN@?$DN?$DN?$DN?$DN?$DN?$DN?$DN?$DN?$DN?$DN?$DN?$DN?5?$LG?$MA?A?$KC?$LH?$LN?J?$LN?5?5?$DN?$DN?$DN?$DN?$DN?$DN?$DN?$DN?$DN@ 0043f12c     AlertSendObj.obj
 0002:00003154       ??_C@_0BG@GKNINFFP@?W?n?$LK?s?R?$LL?$LI?v?$LN?S?J?U?$LG?L?P?E?$LK?E?B?k?3?$AA@ 0043f154     AlertSendObj.obj
 0002:0000316c       ??_C@_0BB@BNNBPJMG@strSmsSendMode?5?$DN?$AA@ 0043f16c     AlertSendObj.obj
 0002:00003180       ??_C@_0O@OCHHAKAK@?$LN?S?J?U?$LG?L?P?E?$LK?E?B?k?3?$AA@ 0043f180     AlertSendObj.obj
 0002:00003190       ??_C@_03MEMCEOMH@Com?$AA@  0043f190     AlertSendObj.obj
 0002:00003194       ??_C@_03JBLGBHBG@Web?$AA@  0043f194     AlertSendObj.obj
 0002:00003198       ??_C@_0CE@CKODKDBE@?$DN?$DN?$DN?$DN?$DN?$DN?$DN?$DN?$DN?$DN?$DN?$DN?5?I?$PN?$LM?$LG?$LG?L?P?E?5?$DN?$DN?$DN?$DN?$DN?$DN?$DN?$DN?$DN?$DN@ 0043f198     AlertSendObj.obj
 0002:000031bc       ??_C@_01FNNCDEML@?$AL?$AA@ 0043f1bc     AlertSendObj.obj
 0002:000031c0       ??_C@_01NEMOKFLO@?$DN?$AA@ 0043f1c0     AlertSendObj.obj
 0002:000031c4       ??_C@_04LOAJBDKD@true?$AA@ 0043f1c4     AlertSendObj.obj
 0002:000031cc       ??_C@_07JMHMLHHN@sv_type?$AA@ 0043f1cc     AlertSendObj.obj
 0002:000031d4       ??_C@_06LAFJNIHE@sv_run?$AA@ 0043f1d4     AlertSendObj.obj
 0002:000031dc       ??_C@_0O@MDBDMLPJ@sv_devicetype?$AA@ 0043f1dc     AlertSendObj.obj
 0002:000031ec       ??_C@_0BA@MNGEGLKN@SelSeverChanged?$AA@ 0043f1ec     AlertSendObj.obj
 0002:000031fc       ??_C@_0N@GEJMBPON@_Parameters?$DN?$AA@ 0043f1fc     AlertSendObj.obj
 0002:0000320c       ??_C@_08FFANFGPD@_Script?$DN?$AA@ 0043f20c     AlertSendObj.obj
 0002:00003218       ??_C@_0ED@LDEMFECH@?9?9?9?9?9?9?9?9?9?9?9?9?9?9?9?9?9?9?$LH?$KC?K?M?$LN?E?$LB?$LO?$LB?$KI?$LO?$KP?$LN?a@ 0043f218     AlertSendObj.obj
 0002:0000325c       ??_C@_0N@DFHENEDI@strUserPwd?$KD?$LK?$AA@ 0043f25c     AlertSendObj.obj
 0002:0000326c       ??_C@_0O@JJLCMHDJ@strUserName?$KD?$LK?$AA@ 0043f26c     AlertSendObj.obj
 0002:0000327c       ??_C@_0BG@FNJGHOFL@strScriptParamValue?$KD?$LK?$AA@ 0043f27c     AlertSendObj.obj
 0002:00003294       ??_C@_0BF@NCIKGMMJ@strScriptFileValue?$KD?$LK?$AA@ 0043f294     AlertSendObj.obj
 0002:000032ac       ??_C@_0BE@MJJFFAG@strScriptServerId?$KD?$LK?$AA@ 0043f2ac     AlertSendObj.obj
 0002:000032c0       ??_C@_0BF@FIGHJMML@strServerTextValue?$KD?$LK?$AA@ 0043f2c0     AlertSendObj.obj
 0002:000032d8       ??_C@_04MJAOHOFL@_win?$AA@ 0043f2d8     AlertSendObj.obj
 0002:000032e0       ??_C@_0EE@CKKLDENL@?$AN?6?9?9?9?9?9?9?9?9?9?9?9?9?9?9?9?9?9?9?$LH?$KC?K?M?$LN?E?$LB?$LO?$LB?$KI?$LO?$KP@ 0043f2e0     AlertSendObj.obj
 0002:00003324       ??_C@_0DF@EJFPGFNB@?9?9?9?9?9?9?9CAlertScriptSendObj?3?3Send@ 0043f324     AlertSendObj.obj
 0002:0000335c       ??_C@_0BD@ODOPAIDB@Instance?5has?5exist?$AA@ 0043f35c     AlertServer.obj
 0002:00003370       ??_C@_0CB@EJFMFJPK@Create?5event?5of?5instance?5?5failed@ 0043f370     AlertServer.obj
 0002:00003394       ??_C@_0BM@EIPEPHEC@Global?2SiteView?9AlertServer?$AA@ 0043f394     AlertServer.obj
 0002:000033b0       ??_C@_0BA@NBKJLMDJ@OfbizConfig?4ini?$AA@ 0043f3b0     AlertServer.obj
 0002:000033c0       ??_C@_0BA@JFAKFAI@TxtTemplate?4ini?$AA@ 0043f3c0     AlertServer.obj
 0002:000033d0       ??_C@_0M@LFGMKJFE@testsection?$AA@ 0043f3d0     AlertServer.obj
 0002:000033dc       ??_C@_07LGGLFOKI@testkey?$AA@ 0043f3dc     AlertServer.obj
 0002:000033e4       ??_C@_09INLCNJAI@testvalue?$AA@ 0043f3e4     AlertServer.obj
 0002:000033f0       ??_C@_0EB@NFPJKBDG@ABCDEFGHIJKLMNOPQRSTUVWXYZabcdef@ 0043f3f0     Base64.obj
 0002:00003434       _LIBID_Dragonflow          0043f434     Dragonflow.obj
 0002:00003444       _IID__Alert                0043f444     Dragonflow.obj
 0002:00003454       _CLSID_Alert               0043f454     Dragonflow.obj
 0002:00003464       ??_7CGsmOperate@@6B@       0043f464     GsmOperate.obj
 0002:00003468       ??_C@_0BB@JGGOGLEG@0123456789ABCDEF?$AA@ 0043f468     GsmOperate.obj
 0002:0000348c       ??_7CCriticalSection@@6B@  0043f48c     MIMEMessage.obj
 0002:000034bc       ??_7?$CList@PAVCMIMEContentAgent@@PAV1@@@6B@ 0043f4bc     MIMEMessage.obj
 0002:000034d0       ??_7CMIMETypeManager@CMIMEMessage@@6B@ 0043f4d0     MIMEMessage.obj
 0002:000034d4       ??_7CSerialPort@@6B@       0043f4d4     SerialPort.obj
 0002:000034d8       ??_C@_0BB@PHIONOHP@?$LH?$KC?K?M?$LF?D?S?$KG?$LE?p?$KD?$LK?$CFs?6?$AA?$AA@ 0043f4d8     SerialPort.obj
 0002:000034ec       ??_C@_0CB@DFKJCMCI@?$LH?$KC?K?M?P?E?O?$KC?C?$PM?A?n?$KD?$LK?$CFs?0?5?P?E?O?$KC?D?Z?H?$NN?$KD?$LK?$CFs?6?$AA@ 0043f4ec     SerialPort.obj
 0002:00003510       ??_C@_02BBAPAAEL@?$BK?$AA?$AA@ 0043f510     SerialPort.obj
 0002:00003514       ??_C@_0M@DKCKHDFE@AT?$CLCMGS?$DN?$CFd?$AN?$AA@ 0043f514     SerialPort.obj
 0002:00003520       ??_C@_01OALBHNL@?$BK?$AA@  0043f520     SerialPort.obj
 0002:00003524       ??_C@_03KOMCNIB@?$CL86?$AA@ 0043f524     SerialPort.obj
 0002:00003528       ??_C@_07HGNALODE@ansStr?$DN?$AA@ 0043f528     SerialPort.obj
 0002:00003530       ??_C@_09LPDEEBPB@AT?$CLCSCA?$DP?$AN?$AA@ 0043f530     SerialPort.obj
 0002:0000353c       ??_C@_08FEJEGEDN@?$LE?r?$LP?$KK?$LG?K?$LP?Z?$AA@ 0043f53c     SerialPort.obj
 0002:00003548       ??_C@_0CF@BOLIGGGF@?$LE?r?$LP?$KK?V?$LI?$LG?$KI?$LE?$KO?$LP?Z?$CFs?J?$KH?$LA?$NM?$KD?$KM?G?k?V?X?P?B?Q?$KB?T?q?$LE?$KO@ 0043f548     SerialPort.obj
 0002:00003570       ??_C@_0CC@KAALHMKD@FreeLibrary?5sendLongMsg?4dll?5erro@ 0043f570     SerialPort.obj
 0002:00003594       ??_C@_0BC@OEOFPNKK@sendLongMsg?5error?$AA@ 0043f594     SerialPort.obj
 0002:000035a8       ??_C@_0BA@JCGMOBEG@sendLongMessage?$AA@ 0043f5a8     SerialPort.obj
 0002:000035b8       ??_C@_0CC@DBBHPCJB@LoadLibrary?5sendLongMsg?4dll?5erro@ 0043f5b8     SerialPort.obj
 0002:000035dc       ??_C@_0BA@CEOPKHNP@sendLongMsg?4dll?$AA@ 0043f5dc     SerialPort.obj
 0002:000035ec       ??_C@_0BA@GEMMMMEO@Send?5SMS?5Failed?$AA@ 0043f5ec     SerialPort.obj
 0002:000035fc       ??_C@_0BB@GLOPEINB@Send?5SMS?5Failed?6?$AA@ 0043f5fc     SerialPort.obj
 0002:00003610       ??_C@_08BNLBIPIB@?$CFd?1?$CFd?5?$CFs?$AA@ 0043f610     SerialPort.obj
 0002:0000361c       ??_C@_0L@OHEBEPFL@AT?$CLCMGF?$DN0?$AN?$AA@ 0043f61c     SerialPort.obj
 0002:00003628       ??_C@_0L@NJDLJDFM@AT?$CLCSMS?$DN0?$AN?$AA@ 0043f628     SerialPort.obj
 0002:00003634       ??_C@_05HKKFNNEM@ATE0?$AN?$AA@ 0043f634     SerialPort.obj
 0002:0000363c       ??_C@_03CDAIOHJK@AT?$AN?$AA@ 0043f63c     SerialPort.obj
 0002:00003640       ??_C@_0M@PLLMBFLL@?$LG?L?P?E?D?Z?H?$NN2?$KD?$LK?$AA@ 0043f640     SerialPort.obj
 0002:0000364c       ??_C@_0M@OJAJLKFF@?$LG?L?P?E?D?Z?H?$NN1?$KD?$LK?$AA@ 0043f64c     SerialPort.obj
 0002:00003658       ??_C@_0L@IBKINO@?$LB?$KI?$LO?$KP?D?Z?H?$NN?$KD?$LK?$AA@ 0043f658     SerialPort.obj
 0002:00003664       ??_C@_0BJ@MFOBIADE@SMTP?5server?5auth?5success?$AA@ 0043f664     SMTP.obj
 0002:00003680       ??_C@_0BP@MOIKHODM@SMTP?5server?5not?5ready?5for?5auth?$AA@ 0043f680     SMTP.obj
 0002:000036a0       ??_C@_0CF@KPJDAHNL@SMTP?5server?5didn?8t?5terminate?5ses@ 0043f6a0     SMTP.obj
 0002:000036c8       ??_C@_0BP@INDIKMN@SMTP?5server?5not?5ready?5for?5data?$AA@ 0043f6c8     SMTP.obj
 0002:000036e8       ??_C@_0BK@BBNLIPJL@SMTP?5server?5not?5available?$AA@ 0043f6e8     SMTP.obj
 0002:00003704       ??_C@_0BC@GPFELDFK@SMTP?5server?5error?$AA@ 0043f704     SMTP.obj
 0002:00003f18       ??_7Des@@6B@               0043ff18     svdes:Des.obj
 0002:00004160       ??_C@_06JBKGCNBB@Delete?$AA@ 00440160     mfcs71:stdafx.obj
 0002:00004168       ??_C@_08KAAPDIAN@NoRemove?$AA@ 00440168     mfcs71:stdafx.obj
 0002:00004174       ??_C@_0M@DBGDLGLL@ForceRemove?$AA@ 00440174     mfcs71:stdafx.obj
 0002:00004180       ??_C@_03LAIAPFCB@Val?$AA@  00440180     mfcs71:stdafx.obj
 0002:00004184       ??_C@_01HMGJMAIH@B?$AA@    00440184     mfcs71:stdafx.obj
 0002:00004188       ??_C@_01CKDDGHAB@D?$AA@    00440188     mfcs71:stdafx.obj
 0002:0000418c       ??_C@_01PLPBNMEI@M?$AA@    0044018c     mfcs71:stdafx.obj
 0002:00004190       ??_C@_01CPLAODJH@S?$AA@    00440190     mfcs71:stdafx.obj
 0002:000041b8       ??_7type_info@@6B@         004401b8     msvcrt:ti_inst.obj
 0002:00004220       ??_7_com_error@@6B@        00440220     comsupp:comraise.obj
 0002:00004224       _GUID_ATLVer30             00440224     atls:atlbase.obj
 0002:00004234       _GUID_ATLVer70             00440234     atls:atlbase.obj
 0002:00004248       __load_config_used         00440248     msvcrt:loadcfg.obj
 0002:000042fc       ??_R1A@?0A@A@type_info@@8  004402fc     msvcrt:ti_inst.obj
 0002:00004314       ??_R2type_info@@8          00440314     msvcrt:ti_inst.obj
 0002:0000431c       ??_R3type_info@@8          0044031c     msvcrt:ti_inst.obj
 0002:0000432c       ??_R4type_info@@6B@        0044032c     msvcrt:ti_inst.obj
 0002:00004340       ??_R1A@?0A@A@_com_error@@8 00440340     comsupp:comraise.obj
 0002:00004358       ??_R2_com_error@@8         00440358     comsupp:comraise.obj
 0002:00004360       ??_R3_com_error@@8         00440360     comsupp:comraise.obj
 0002:00004370       ??_R4_com_error@@6B@       00440370     comsupp:comraise.obj
 0002:00004390       ___safe_se_handler_table   00440390     <linker-defined>
 0002:000045e0       ___rtc_iaa                 004405e0     msvcrt:initsect.obj
 0002:000045e4       ___rtc_izz                 004405e4     msvcrt:initsect.obj
 0002:000045e8       ___rtc_taa                 004405e8     msvcrt:initsect.obj
 0002:000045ec       ___rtc_tzz                 004405ec     msvcrt:initsect.obj
 0002:000046e0       __CT??_R0?AVexception@@@8??0exception@@QAE@ABV0@@Z12 004406e0     AlertBaseObj.obj
 0002:00004944       __CT??_R0?AVlogic_error@std@@@8??0logic_error@std@@QAE@ABV01@@Z40 00440944     AlertBaseObj.obj
 0002:00004960       __CT??_R0?AVlength_error@std@@@8??0length_error@std@@QAE@ABV01@@Z40 00440960     AlertBaseObj.obj
 0002:0000497c       __CTA3?AVlength_error@std@@ 0044097c     AlertBaseObj.obj
 0002:0000498c       __TI3?AVlength_error@std@@ 0044098c     AlertBaseObj.obj
 0002:00004ba0       __CT??_R0?AVout_of_range@std@@@8??0out_of_range@std@@QAE@ABV01@@Z40 00440ba0     AlertBaseObj.obj
 0002:00004bbc       __CTA3?AVout_of_range@std@@ 00440bbc     AlertBaseObj.obj
 0002:00004bcc       __TI3?AVout_of_range@std@@ 00440bcc     AlertBaseObj.obj
 0002:00007230       __CT??_R0H@84              00443230     AlertSendObj.obj
 0002:0000724c       __CTA1H                    0044324c     AlertSendObj.obj
 0002:00007254       __TI1H                     00443254     AlertSendObj.obj
 0002:000073b4       __CT??_R0?AVotl_exc@@@8??0otl_exc@@QAE@ABV0@@Z2008 004433b4     AlertSendObj.obj
 0002:000073d0       __CT??_R0?AV?$otl_tmpl_exception@Votl_exc@@Votl_conn@@Votl_cur@@@@@8??0?$otl_tmpl_exception@Votl_exc@@Votl_conn@@Votl_cur@@@@QAE@ABV0@@Z4312 004433d0     AlertSendObj.obj
 0002:000073ec       __CTA2?AV?$otl_tmpl_exception@Votl_exc@@Votl_conn@@Votl_cur@@@@ 004433ec     AlertSendObj.obj
 0002:000073f8       __TI2?AV?$otl_tmpl_exception@Votl_exc@@Votl_conn@@Votl_cur@@@@ 004433f8     AlertSendObj.obj
 0002:0000a254       __CT??_R0?AV_com_error@@@8??0_com_error@@QAE@ABV0@@Z16 00446254     comsupp:comraise.obj
 0002:0000a270       __CTA1?AV_com_error@@      00446270     comsupp:comraise.obj
 0002:0000a278       __TI1?AV_com_error@@       00446278     comsupp:comraise.obj
 0002:0000a288       __IMPORT_DESCRIPTOR_KERNEL32 00446288     kernel32:KERNEL32.dll
 0002:0000a29c       __IMPORT_DESCRIPTOR_ccgnu2 0044629c     ccgnu2:ccgnu2.dll
 0002:0000a2b0       __IMPORT_DESCRIPTOR_ccext2 004462b0     ccext2:ccext2.dll
 0002:0000a2c4       __IMPORT_DESCRIPTOR_svapi  004462c4     svapi:svapi.dll
 0002:0000a2d8       __IMPORT_DESCRIPTOR_MSVCP71 004462d8     msvcprt:MSVCP71.dll
 0002:0000a2ec       __IMPORT_DESCRIPTOR_MFC71  004462ec     mfc71:MFC71.DLL
 0002:0000a300       __IMPORT_DESCRIPTOR_MSVCR71 00446300     msvcrt:MSVCR71.dll
 0002:0000a314       __IMPORT_DESCRIPTOR_USER32 00446314     user32:USER32.dll
 0002:0000a328       __IMPORT_DESCRIPTOR_ole32  00446328     ole32:ole32.dll
 0002:0000a33c       __IMPORT_DESCRIPTOR_OLEAUT32 0044633c     oleaut32:OLEAUT32.dll
 0002:0000a350       __IMPORT_DESCRIPTOR_ODBC32 00446350     odbc32:ODBC32.dll
 0002:0000a364       __NULL_IMPORT_DESCRIPTOR   00446364     kernel32:KERNEL32.dll
 0003:00000000       ___xc_a                    00449000     msvcrt:cinitexe.obj
 0003:000000b0       ___xc_z                    004490b0     msvcrt:cinitexe.obj
 0003:000000b4       ___xi_a                    004490b4     msvcrt:cinitexe.obj
 0003:000000b8       ___xi_z                    004490b8     msvcrt:cinitexe.obj
 0003:000000c0       ??_R0?AVexception@@@8      004490c0     AlertBaseObj.obj
 0003:000000d8       ??_R0?AVlogic_error@std@@@8 004490d8     AlertBaseObj.obj
 0003:000000f8       ??_R0?AVlength_error@std@@@8 004490f8     AlertBaseObj.obj
 0003:00000118       ??_R0?AVout_of_range@std@@@8 00449118     AlertBaseObj.obj
 0003:00000138       ?nSMSSendLength@CAlertMain@@2HA 00449138     AlertMain.obj
 0003:0000013c       ??_R0H@8                   0044913c     AlertSendObj.obj
 0003:00000148       ??_R0?AVotl_exc@@@8        00449148     AlertSendObj.obj
 0003:00000160       ??_R0?AV?$otl_tmpl_exception@Votl_exc@@Votl_conn@@Votl_cur@@@@@8 00449160     AlertSendObj.obj
 0003:000001a4       ?m_nMask@CBase64@@1PAHA    004491a4     Base64.obj
 0003:000001cc       ?response_table@CSMTP@@1PAUresponse_code@1@A 004491cc     SMTP.obj
 0003:00000200       ?map@@3PAY0BA@DA           00449200     svdes:Des.obj
 0003:00000300       ?key8@@3PAEA               00449300     svdes:Des.obj
 0003:00000310       ___security_cookie         00449310     msvcrt:seccook.obj
 0003:00000314       ??_R0?AVtype_info@@@8      00449314     msvcrt:ti_inst.obj
 0003:00000330       ___defaultmatherr          00449330     msvcrt:merr.obj
 0003:00000334       ?__errorPfn@@3P6GXJPAUIErrorInfo@@@ZA 00449334     comsupp:comsupp.obj
 0003:00000338       ?vtMissing@@3V_variant_t@@A 00449338     comsupp:comutil.obj
 0003:00000348       ??_R0?AV_com_error@@@8     00449348     comsupp:comraise.obj
 0003:00000368       ?m_bInitFailed@CAtlBaseModule@ATL@@2_NA 00449368     AlertBaseObj.obj
 0003:00000370       ?strTemp@@3PADA            00449370     AlertMain.obj
 0003:00000770       ?nSendCount@@3HA           00449770     AlertMain.obj
 0003:00000774       ?hEmailDll@CAlertMain@@2PAUHINSTANCE__@@A 00449774     AlertMain.obj
 0003:00000778       ?hMonitorDll@CAlertMain@@2PAUHINSTANCE__@@A 00449778     AlertMain.obj
 0003:0000077c       ?pSendEmail@CAlertMain@@2P6A_NPBD0000000@ZA 0044977c     AlertMain.obj
 0003:00000780       ?pExcuteScript@CAlertMain@@2P6A_NPBDPADAAH@ZA 00449780     AlertMain.obj
 0003:00000784       ?mySoundRef@CAlertMain@@2PAU_Alert@@A 00449784     AlertMain.obj
 0003:00000788       ?myScriptRef@CAlertMain@@2PAU_Alert@@A 00449788     AlertMain.obj
 0003:0000078c       ?bInitSerialPort@CAlertMain@@2_NA 0044978c     AlertMain.obj
 0003:00000790       ?strSysWeihuUserIdcId@CAlertMain@@2V?$basic_string@DU?$char_traits@D@std@@V?$allocator@D@2@@std@@A 00449790     AlertMain.obj
 0003:000007ac       ?strDisable@CAlertMain@@2V?$basic_string@DU?$char_traits@D@std@@V?$allocator@D@2@@std@@A 004497ac     AlertMain.obj
 0003:000007c8       ?m_pListWatchItem@CAlertMain@@2Viterator@?$list@U_WATCH_LIST@@V?$allocator@U_WATCH_LIST@@@std@@@std@@A 004497c8     AlertMain.obj
 0003:000007cc       ?strENOther@CAlertMain@@2V?$basic_string@DU?$char_traits@D@std@@V?$allocator@D@2@@std@@A 004497cc     AlertMain.obj
 0003:000007e8       ?strOther@CAlertMain@@2V?$basic_string@DU?$char_traits@D@std@@V?$allocator@D@2@@std@@A 004497e8     AlertMain.obj
 0003:00000804       ?strXiaoshouIdcId@CAlertMain@@2V?$basic_string@DU?$char_traits@D@std@@V?$allocator@D@2@@std@@A 00449804     AlertMain.obj
 0003:00000820       ?strSMSSendPort@CAlertMain@@2V?$basic_string@DU?$char_traits@D@std@@V?$allocator@D@2@@std@@A 00449820     AlertMain.obj
 0003:0000083c       ?strENNormal@CAlertMain@@2V?$basic_string@DU?$char_traits@D@std@@V?$allocator@D@2@@std@@A 0044983c     AlertMain.obj
 0003:00000858       ?m_pListWatch@CAlertMain@@2V?$list@U_WATCH_LIST@@V?$allocator@U_WATCH_LIST@@@std@@@std@@A 00449858     AlertMain.obj
 0003:0000095c       ?strNormal@CAlertMain@@2V?$basic_string@DU?$char_traits@D@std@@V?$allocator@D@2@@std@@A 0044995c     AlertMain.obj
 0003:00000978       ?strHour@CAlertMain@@2V?$basic_string@DU?$char_traits@D@std@@V?$allocator@D@2@@std@@A 00449978     AlertMain.obj
 0003:00000994       ?strError@CAlertMain@@2V?$basic_string@DU?$char_traits@D@std@@V?$allocator@D@2@@std@@A 00449994     AlertMain.obj
 0003:000009b0       ?strENError@CAlertMain@@2V?$basic_string@DU?$char_traits@D@std@@V?$allocator@D@2@@std@@A 004499b0     AlertMain.obj
 0003:000009cc       ?strENWarning@CAlertMain@@2V?$basic_string@DU?$char_traits@D@std@@V?$allocator@D@2@@std@@A 004499cc     AlertMain.obj
 0003:000009e8       ?strENDisable@CAlertMain@@2V?$basic_string@DU?$char_traits@D@std@@V?$allocator@D@2@@std@@A 004499e8     AlertMain.obj
 0003:00000a04       ?pSender@CAlertMain@@2V?$_com_ptr_t@V?$_com_IIID@UIUMSmSend@@$1?_GUID_d05fdf91_df00_4c3b_a5c8_6a94f1147723@@3U__s_GUID@@B@@@@A 00449a04     AlertMain.obj
 0003:00000a08       ?strMonitorFazhi@CAlertMain@@2V?$basic_string@DU?$char_traits@D@std@@V?$allocator@D@2@@std@@A 00449a08     AlertMain.obj
 0003:00000a24       ?strMinute@CAlertMain@@2V?$basic_string@DU?$char_traits@D@std@@V?$allocator@D@2@@std@@A 00449a24     AlertMain.obj
 0003:00000a40       ?strWarning@CAlertMain@@2V?$basic_string@DU?$char_traits@D@std@@V?$allocator@D@2@@std@@A 00449a40     AlertMain.obj
 0003:00000a5c       ?strSMSSendURL@CAlertMain@@2V?$basic_string@DU?$char_traits@D@std@@V?$allocator@D@2@@std@@A 00449a5c     AlertMain.obj
 0003:00000a78       ?strMontorFreq@CAlertMain@@2V?$basic_string@DU?$char_traits@D@std@@V?$allocator@D@2@@std@@A 00449a78     AlertMain.obj
 0003:00000a94       ?strWeiHuUserIdcId@CAlertMain@@2V?$basic_string@DU?$char_traits@D@std@@V?$allocator@D@2@@std@@A 00449a94     AlertMain.obj
 0003:00000ab0       ?strYeWuIdcId@CAlertMain@@2V?$basic_string@DU?$char_traits@D@std@@V?$allocator@D@2@@std@@A 00449ab0     AlertMain.obj
 0003:00000b10       ?null@?$Value_impl@V?$basic_string@DU?$char_traits@D@std@@V?$allocator@D@2@@std@@@json_spirit@@2V12@B 00449b10     AlertSendObj.obj
 0003:00000b74       ?lsDeviceId@@3V?$map@HV?$basic_string@DU?$char_traits@D@std@@V?$allocator@D@2@@std@@U?$less@H@2@V?$allocator@U?$pair@$$CBHV?$basic_string@DU?$char_traits@D@std@@V?$allocator@D@2@@std@@@std@@@2@@std@@A 00449b74     AlertSendObj.obj
 0003:00000b80       ?m_mapMonitorCache@CAlertItsmSendObj@@2V?$map@V?$basic_string@DU?$char_traits@D@std@@V?$allocator@D@2@@std@@KU?$less@V?$basic_string@DU?$char_traits@D@std@@V?$allocator@D@2@@std@@@2@V?$allocator@U?$pair@$$CBV?$basic_string@DU?$char_traits@D@std@@V?$allocator@D@2@@std@@K@std@@@2@@std@@A 00449b80     AlertSendObj.obj
 0003:00000b8c       ?m_mapFilterCache@CAlertItsmSendObj@@2V?$map@V?$basic_string@DU?$char_traits@D@std@@V?$allocator@D@2@@std@@KU?$less@V?$basic_string@DU?$char_traits@D@std@@V?$allocator@D@2@@std@@@2@V?$allocator@U?$pair@$$CBV?$basic_string@DU?$char_traits@D@std@@V?$allocator@D@2@@std@@K@std@@@2@@std@@A 00449b8c     AlertSendObj.obj
 0003:00000b98       ?sch_ServiceStatus@@3U_SERVICE_STATUS@@A 00449b98     AlertServer.obj
 0003:00000bb4       ?sch_ServiceStatusHandle@@3PAUSERVICE_STATUS_HANDLE__@@A 00449bb4     AlertServer.obj
 0003:00000bb8       ?g_strRootPath@@3V?$CStringT@DV?$StrTraitMFC_DLL@DV?$ChTraitsCRT@D@ATL@@@@@ATL@@A 00449bb8     AlertServer.obj
 0003:00000bd8       ?g_strMessage@@3V?$CStringT@DV?$StrTraitMFC_DLL@DV?$ChTraitsCRT@D@ATL@@@@@ATL@@A 00449bd8     AlertServer.obj
 0003:00000bdc       ?m_sBase64Alphabet@CBase64@@1V?$CStringT@DV?$StrTraitMFC_DLL@DV?$ChTraitsCRT@D@ATL@@@@@ATL@@A 00449bdc     Base64.obj
 0003:00000c28       ?m_MIMETypeManager@CMIMEMessage@@0VCMIMETypeManager@1@A 00449c28     MIMEMessage.obj
 0003:00000d18       ?key@@3PAEA                00449d18     svdes:Des.obj
 0003:00000d30       __afxForceEXCLUDE          00449d30     mfcs71:nolib.obj
 0003:00000d34       __afxForceSTDAFX           00449d34     mfcs71:stdafx.obj
 0003:00000d38       __dowildcard               00449d38     msvcrt:wildcard.obj
 0003:00000d3c       __newmode                  00449d3c     msvcrt:_newmode.obj
 0003:00000d40       __commode                  00449d40     msvcrt:xncommod.obj
 0003:00000d44       __fmode                    00449d44     msvcrt:xtxtmode.obj
 0003:00000d48       ?_AtlBaseModule@ATL@@3VCAtlBaseModule@1@A 00449d48     atls:atlbase.obj
 0003:00000d84       __adjust_fdiv              00449d84     <common>
 0003:00000d88       ___onexitend               00449d88     <common>
 0003:00000d8c       ___onexitbegin             00449d8c     <common>

 entry point at        0001:00032ca4

 Static symbols

 0001:0000048d       $L150386                   0040148d f   AlertBaseObj.obj
 0001:0000083d       $L150527                   0040183d f   AlertBaseObj.obj
 0001:0000184f       $L152502                   0040284f f i AlertBaseObj.obj
 0001:00001a41       $L152685                   00402a41 f i AlertBaseObj.obj
 0001:00001b7f       $L153620                   00402b7f f i AlertBaseObj.obj
 0001:00001d87       $L153858                   00402d87 f i AlertBaseObj.obj
 0001:000024a2       $L154662                   004034a2 f   AlertBaseObj.obj
 0001:000025ce       $L154956                   004035ce f   AlertBaseObj.obj
 0001:000026fe       $L155038                   004036fe f   AlertBaseObj.obj
 0001:00002809       $L155201                   00403809 f   AlertBaseObj.obj
 0001:00002809       $L155120                   00403809 f   AlertBaseObj.obj
 0001:00002809       $L155282                   00403809 f   AlertBaseObj.obj
 0001:00003e1a       $L160348                   00404e1a f   AlertMain.obj
 0001:00004720       $L160698                   00405720 f   AlertMain.obj
 0001:000048e2       $L160755                   004058e2 f   AlertMain.obj
 0001:00006371       $L166649                   00407371 f i AlertMain.obj
 0001:0000667a       $L168835                   0040767a f   AlertMain.obj
 0001:000068f9       $L169434                   004078f9 f   AlertMain.obj
 0001:00006b59       $L169993                   00407b59 f   AlertMain.obj
 0001:00006db9       $L170552                   00407db9 f   AlertMain.obj
 0001:0000dca4       $L178797                   0040eca4 f   AlertMain.obj
 0001:000188c0       $L189524                   004198c0 f i AlertSendObj.obj
 0001:00018947       $L189522                   00419947 f i AlertSendObj.obj
 0001:0001e15b       $L191360                   0041f15b f   AlertSendObj.obj
 0001:00020357       $L196160                   00421357 f i AlertSendObj.obj
 0001:00020432       $L196377                   00421432 f i AlertSendObj.obj
 0001:00021a18       $L197518                   00422a18 f i AlertSendObj.obj
 0001:00022b8e       $L198882                   00423b8e f i AlertSendObj.obj
 0001:00022cbe       $L198979                   00423cbe f i AlertSendObj.obj
 0001:00022dfe       $L199471                   00423dfe f i AlertSendObj.obj
 0001:00022fa7       $L200364                   00423fa7 f i AlertSendObj.obj
 0001:0002320b       $L200783                   0042420b f i AlertSendObj.obj
 0001:00023ce0       $L201127                   00424ce0 f i AlertSendObj.obj
 0001:0002461e       $L204021                   0042561e f i AlertSendObj.obj
 0001:00024db1       $L206107                   00425db1 f i AlertSendObj.obj
 0001:00024e6d       $L206109                   00425e6d f i AlertSendObj.obj
 0001:00029b75       $L218589                   0042ab75 f   AlertSendObj.obj
 0001:0002a8a1       $L223516                   0042b8a1 f   AlertSendObj.obj
 0001:0002c56f       $L225277                   0042d56f f   AlertSendObj.obj
 0001:0002e08c       $L226959                   0042f08c f   AlertSendObj.obj
 0001:0002ed04       $L231211                   0042fd04 f   AlertSendObj.obj
 0001:0003005f       $L146557                   0043105f f   AlertServer.obj
 0001:000329fd       _report_failure            004339fd f   msvcrt:secchk.obj
 0001:00033290       $L150018                   00434290 f   AlertBaseObj.obj
 0001:00033290       $L153693                   00434290 f   AlertBaseObj.obj
 0001:00033299       __ehhandler$??0logic_error@std@@QAE@ABV01@@Z 00434299 f   AlertBaseObj.obj
 0001:00033299       __ehhandler$??1logic_error@std@@UAE@XZ 00434299 f   AlertBaseObj.obj
 0001:000332b0       $L150299                   004342b0 f   AlertBaseObj.obj
 0001:000332b0       $L150316                   004342b0 f   AlertBaseObj.obj
 0001:000332b9       $L150317                   004342b9 f   AlertBaseObj.obj
 0001:000332b9       $L150300                   004342b9 f   AlertBaseObj.obj
 0001:000332d3       __ehhandler$?GetEventTypeString@CAlertEventObj@@QAE?AV?$basic_string@DU?$char_traits@D@std@@V?$allocator@D@2@@std@@XZ 004342d3 f   AlertBaseObj.obj
 0001:000332d3       __ehhandler$?GetEventTypeCHString@CAlertEventObj@@QAE?AV?$basic_string@DU?$char_traits@D@std@@V?$allocator@D@2@@std@@XZ 004342d3 f   AlertBaseObj.obj
 0001:000332e0       __ehhandler$?IsUpgradeMatching@CAlertEmailObj@@UAE_NPAVCAlertEventObj@@@Z 004342e0 f   AlertBaseObj.obj
 0001:000332f0       $L150515                   004342f0 f   AlertBaseObj.obj
 0001:000332fe       __ehhandler$?MakeSendObj@CAlertSmsObj@@UAEPAVCAlertSendObj@@PAVCAlertEventObj@@@Z 004342fe f   AlertBaseObj.obj
 0001:00033310       __ehhandler$?IsUpgradeMatching@CAlertSmsObj@@UAE_NPAVCAlertEventObj@@@Z 00434310 f   AlertBaseObj.obj
 0001:00033320       $L150626                   00434320 f   AlertBaseObj.obj
 0001:00033320       $L151678                   00434320 f   AlertBaseObj.obj
 0001:00033320       $L150612                   00434320 f   AlertBaseObj.obj
 0001:00033320       $L150640                   00434320 f   AlertBaseObj.obj
 0001:0003332b       __ehhandler$?MakeSendObj@CAlertScriptObj@@UAEPAVCAlertSendObj@@PAVCAlertEventObj@@@Z 0043432b f   AlertBaseObj.obj
 0001:0003332b       __ehhandler$?MakeSendObj@CAlertPythonObj@@UAEPAVCAlertSendObj@@PAVCAlertEventObj@@@Z 0043432b f   AlertBaseObj.obj
 0001:0003332b       __ehhandler$?MakeSendObj@CAlertEmailObj@@UAEPAVCAlertSendObj@@PAVCAlertEventObj@@@Z 0043432b f   AlertBaseObj.obj
 0001:0003332b       __ehhandler$?MakeSendObj@CAlertSoundObj@@UAEPAVCAlertSendObj@@PAVCAlertEventObj@@@Z 0043432b f   AlertBaseObj.obj
 0001:00033340       $L151409                   00434340 f   AlertBaseObj.obj
 0001:00033340       $L151381                   00434340 f   AlertBaseObj.obj
 0001:00033340       $L151367                   00434340 f   AlertBaseObj.obj
 0001:00033349       $L151382                   00434349 f   AlertBaseObj.obj
 0001:00033349       $L151368                   00434349 f   AlertBaseObj.obj
 0001:00033349       $L151410                   00434349 f   AlertBaseObj.obj
 0001:00033363       __ehhandler$??$?HDU?$char_traits@D@std@@V?$allocator@D@1@@std@@YA?AV?$basic_string@DU?$char_traits@D@std@@V?$allocator@D@2@@0@ABV10@0@Z 00434363 f   AlertBaseObj.obj
 0001:00033363       __ehhandler$??$?HDU?$char_traits@D@std@@V?$allocator@D@1@@std@@YA?AV?$basic_string@DU?$char_traits@D@std@@V?$allocator@D@2@@0@ABV10@PBD@Z 00434363 f   AlertBaseObj.obj
 0001:00033363       __ehhandler$??$?HDU?$char_traits@D@std@@V?$allocator@D@1@@std@@YA?AV?$basic_string@DU?$char_traits@D@std@@V?$allocator@D@2@@0@PBDABV10@@Z 00434363 f   AlertBaseObj.obj
 0001:00033370       $L151640                   00434370 f   AlertBaseObj.obj
 0001:00033379       $L151641                   00434379 f   AlertBaseObj.obj
 0001:00033385       $L151642                   00434385 f   AlertBaseObj.obj
 0001:00033391       $L151643                   00434391 f   AlertBaseObj.obj
 0001:0003339d       $L151644                   0043439d f   AlertBaseObj.obj
 0001:000333a9       $L151645                   004343a9 f   AlertBaseObj.obj
 0001:000333b5       $L151646                   004343b5 f   AlertBaseObj.obj
 0001:000333c1       $L151647                   004343c1 f   AlertBaseObj.obj
 0001:000333cd       $L151648                   004343cd f   AlertBaseObj.obj
 0001:000333d9       $L151649                   004343d9 f   AlertBaseObj.obj
 0001:000333e2       $L151650                   004343e2 f   AlertBaseObj.obj
 0001:000333ee       $L151651                   004343ee f   AlertBaseObj.obj
 0001:000333fa       $L151652                   004343fa f   AlertBaseObj.obj
 0001:00033406       $L151653                   00434406 f   AlertBaseObj.obj
 0001:0003340f       $L151654                   0043440f f   AlertBaseObj.obj
 0001:00033418       $L151655                   00434418 f   AlertBaseObj.obj
 0001:00033424       $L151656                   00434424 f   AlertBaseObj.obj
 0001:00033430       $L151657                   00434430 f   AlertBaseObj.obj
 0001:0003343c       $L151658                   0043443c f   AlertBaseObj.obj
 0001:00033448       $L151659                   00434448 f   AlertBaseObj.obj
 0001:00033454       $L151660                   00434454 f   AlertBaseObj.obj
 0001:00033474       __ehhandler$?GetDebugInfo@CAlertBaseObj@@UAE?AV?$basic_string@DU?$char_traits@D@std@@V?$allocator@D@2@@std@@XZ 00434474 f   AlertBaseObj.obj
 0001:00033480       $L151974                   00434480 f   AlertBaseObj.obj
 0001:00033480       $L151853                   00434480 f   AlertBaseObj.obj
 0001:00033480       $L152031                   00434480 f   AlertBaseObj.obj
 0001:00033488       __ehhandler$??0sentry@?$basic_ostream@DU?$char_traits@D@std@@@std@@QAE@AAV12@@Z 00434488 f   AlertBaseObj.obj
 0001:00033488       __ehhandler$??1sentry@?$basic_ostream@DU?$char_traits@D@std@@@std@@QAE@XZ 00434488 f   AlertBaseObj.obj
 0001:00033488       __ehhandler$??0sentry@?$basic_istream@DU?$char_traits@D@std@@@std@@QAE@AAV12@_N@Z 00434488 f   AlertBaseObj.obj
 0001:000334a0       $L152503                   004344a0 f   AlertBaseObj.obj
 0001:000334a8       __ehhandler$??$getline@DU?$char_traits@D@std@@V?$allocator@D@2@@std@@YAAAV?$basic_istream@DU?$char_traits@D@std@@@0@AAV10@AAV?$basic_string@DU?$char_traits@D@std@@V?$allocator@D@2@@0@D@Z 004344a8 f   AlertBaseObj.obj
 0001:000334c0       $L152686                   004344c0 f   AlertBaseObj.obj
 0001:000334c8       $L152814                   004344c8 f   AlertBaseObj.obj
 0001:000334d0       __ehhandler$??$?6DU?$char_traits@D@std@@V?$allocator@D@1@@std@@YAAAV?$basic_ostream@DU?$char_traits@D@std@@@0@AAV10@ABV?$basic_string@DU?$char_traits@D@std@@V?$allocator@D@2@@0@@Z 004344d0 f   AlertBaseObj.obj
 0001:000334e0       $L153621                   004344e0 f   AlertBaseObj.obj
 0001:000334f1       __ehhandler$?_Buynode@?$list@V?$basic_string@DU?$char_traits@D@std@@V?$allocator@D@2@@std@@V?$allocator@V?$basic_string@DU?$char_traits@D@std@@V?$allocator@D@2@@std@@@2@@std@@IAEPAU_Node@?$_List_nod@V?$basic_string@DU?$char_traits@D@std@@V?$allocator@D@2@@std@@V?$allocator@V?$basic_string@DU?$char_traits@D@std@@V?$allocator@D@2@@std@@@2@@2@PAU342@0ABV?$basic_string@DU?$char_traits@D@std@@V?$allocator@D@2@@2@@Z 004344f1 f   AlertBaseObj.obj
 0001:00033500       $L155858                   00434500 f   AlertBaseObj.obj
 0001:00033500       $L154295                   00434500 f   AlertBaseObj.obj
 0001:00033500       $L153654                   00434500 f   AlertBaseObj.obj
 0001:00033509       $L153674                   00434509 f   AlertBaseObj.obj
 0001:00033509       $L155868                   00434509 f   AlertBaseObj.obj
 0001:00033509       $L154315                   00434509 f   AlertBaseObj.obj
 0001:00033512       __ehhandler$?_Insert@?$_Tree@V?$_Tmap_traits@V?$basic_string@DU?$char_traits@D@std@@V?$allocator@D@2@@std@@HU?$less@V?$basic_string@DU?$char_traits@D@std@@V?$allocator@D@2@@std@@@2@V?$allocator@U?$pair@$$CBV?$basic_string@DU?$char_traits@D@std@@V?$allocator@D@2@@std@@H@std@@@2@$0A@@std@@@std@@IAE?AViterator@12@_NPAU_Node@?$_Tree_nod@V?$_Tmap_traits@V?$basic_string@DU?$char_traits@D@std@@V?$allocator@D@2@@std@@HU?$less@V?$basic_string@DU?$char_traits@D@std@@V?$allocator@D@2@@std@@@2@V?$allocator@U?$pair@$$CBV?$basic_string@DU?$char_traits@D@std@@V?$allocator@D@2@@std@@H@std@@@2@$0A@@std@@@2@ABU?$pair@$$CBV?$basic_string@DU?$char_traits@D@std@@V?$allocator@D@2@@std@@H@2@@Z 00434512 f   AlertBaseObj.obj
 0001:00033512       __ehhandler$?erase@?$_Tree@V?$_Tmap_traits@V?$basic_string@DU?$char_traits@D@std@@V?$allocator@D@2@@std@@HU?$less@V?$basic_string@DU?$char_traits@D@std@@V?$allocator@D@2@@std@@@2@V?$allocator@U?$pair@$$CBV?$basic_string@DU?$char_traits@D@std@@V?$allocator@D@2@@std@@H@std@@@2@$0A@@std@@@std@@QAE?AViterator@12@V312@@Z 00434512 f   AlertBaseObj.obj
 0001:00033512       __ehhandler$?_Incsize@?$list@V?$basic_string@DU?$char_traits@D@std@@V?$allocator@D@2@@std@@V?$allocator@V?$basic_string@DU?$char_traits@D@std@@V?$allocator@D@2@@std@@@2@@std@@IAEXI@Z 00434512 f   AlertBaseObj.obj
 0001:00033520       $L153859                   00434520 f   AlertBaseObj.obj
 0001:00033531       __ehhandler$?_Buynode@?$_Tree@V?$_Tmap_traits@V?$basic_string@DU?$char_traits@D@std@@V?$allocator@D@2@@std@@HU?$less@V?$basic_string@DU?$char_traits@D@std@@V?$allocator@D@2@@std@@@2@V?$allocator@U?$pair@$$CBV?$basic_string@DU?$char_traits@D@std@@V?$allocator@D@2@@std@@H@std@@@2@$0A@@std@@@std@@IAEPAU_Node@?$_Tree_nod@V?$_Tmap_traits@V?$basic_string@DU?$char_traits@D@std@@V?$allocator@D@2@@std@@HU?$less@V?$basic_string@DU?$char_traits@D@std@@V?$allocator@D@2@@std@@@2@V?$allocator@U?$pair@$$CBV?$basic_string@DU?$char_traits@D@std@@V?$allocator@D@2@@std@@H@std@@@2@$0A@@std@@@2@PAU342@00ABU?$pair@$$CBV?$basic_string@DU?$char_traits@D@std@@V?$allocator@D@2@@std@@H@2@D@Z 00434531 f   AlertBaseObj.obj
 0001:00033540       $L154663                   00434540 f   AlertBaseObj.obj
 0001:00033549       $L154664                   00434549 f   AlertBaseObj.obj
 0001:00033552       $L154665                   00434552 f   AlertBaseObj.obj
 0001:0003355e       $L154666                   0043455e f   AlertBaseObj.obj
 0001:0003356a       $L154667                   0043456a f   AlertBaseObj.obj
 0001:00033576       $L154670                   00434576 f   AlertBaseObj.obj
 0001:00033599       $L154672                   00434599 f   AlertBaseObj.obj
 0001:000335bc       $L154674                   004345bc f   AlertBaseObj.obj
 0001:000335df       $L154676                   004345df f   AlertBaseObj.obj
 0001:00033602       __ehhandler$?IsMatching@CAlertBaseObj@@UAE_NPAVCAlertEventObj@@@Z 00434602 f   AlertBaseObj.obj
 0001:00033610       __ehhandler$?IsMatching@CAlertEmailObj@@UAE_NPAVCAlertEventObj@@@Z 00434610 f   AlertBaseObj.obj
 0001:00033620       __ehhandler$?IsMatching@CAlertSmsObj@@UAE_NPAVCAlertEventObj@@@Z 00434620 f   AlertBaseObj.obj
 0001:00033630       __ehhandler$?IsMatching@CAlertSoundObj@@UAE_NPAVCAlertEventObj@@@Z 00434630 f   AlertBaseObj.obj
 0001:00033630       __ehhandler$?IsMatching@CAlertScriptObj@@UAE_NPAVCAlertEventObj@@@Z 00434630 f   AlertBaseObj.obj
 0001:00033630       __ehhandler$?IsMatching@CAlertPythonObj@@UAE_NPAVCAlertEventObj@@@Z 00434630 f   AlertBaseObj.obj
 0001:00033640       $L156336                   00434640 f   AlertBaseObj.obj
 0001:00033649       $L156337                   00434649 f   AlertBaseObj.obj
 0001:00033652       __ehhandler$?WriteAlertTargerById@CAlertBaseObj@@QAEXV?$basic_string@DU?$char_traits@D@std@@V?$allocator@D@2@@std@@@Z 00434652 f   AlertBaseObj.obj
 0001:00033660       $L157211                   00434660 f   AlertBaseObj.obj
 0001:00033668       __ehhandler$??A?$map@V?$basic_string@DU?$char_traits@D@std@@V?$allocator@D@2@@std@@HU?$less@V?$basic_string@DU?$char_traits@D@std@@V?$allocator@D@2@@std@@@2@V?$allocator@U?$pair@$$CBV?$basic_string@DU?$char_traits@D@std@@V?$allocator@D@2@@std@@H@std@@@2@@std@@QAEAAHABV?$basic_string@DU?$char_traits@D@std@@V?$allocator@D@2@@1@@Z 00434668 f   AlertBaseObj.obj
 0001:00033680       $L157651                   00434680 f   AlertBaseObj.obj
 0001:00033688       __ehhandler$?AnalysisAlertTarget@CAlertBaseObj@@QAEXXZ 00434688 f   AlertBaseObj.obj
 0001:000336a0       $L158466                   004346a0 f   AlertBaseObj.obj
 0001:000336ac       $L158467                   004346ac f   AlertBaseObj.obj
 0001:000336b8       $L158468                   004346b8 f   AlertBaseObj.obj
 0001:000336c4       $L158469                   004346c4 f   AlertBaseObj.obj
 0001:000336d0       $L158470                   004346d0 f   AlertBaseObj.obj
 0001:000336dc       $L158471                   004346dc f   AlertBaseObj.obj
 0001:000336eb       $L158472                   004346eb f   AlertBaseObj.obj
 0001:000336fa       $L158473                   004346fa f   AlertBaseObj.obj
 0001:00033709       $L158474                   00434709 f   AlertBaseObj.obj
 0001:00033717       $L158475                   00434717 f   AlertBaseObj.obj
 0001:00033725       $L158476                   00434725 f   AlertBaseObj.obj
 0001:00033734       $L158477                   00434734 f   AlertBaseObj.obj
 0001:00033743       $L158478                   00434743 f   AlertBaseObj.obj
 0001:00033752       __ehhandler$??1CAlertBaseObj@@QAE@XZ 00434752 f   AlertBaseObj.obj
 0001:00033760       $L158846                   00434760 f   AlertBaseObj.obj
 0001:0003376c       $L158847                   0043476c f   AlertBaseObj.obj
 0001:00033778       $L158848                   00434778 f   AlertBaseObj.obj
 0001:00033784       $L158849                   00434784 f   AlertBaseObj.obj
 0001:00033790       $L158850                   00434790 f   AlertBaseObj.obj
 0001:0003379c       $L158851                   0043479c f   AlertBaseObj.obj
 0001:000337ab       $L158852                   004347ab f   AlertBaseObj.obj
 0001:000337ba       $L158853                   004347ba f   AlertBaseObj.obj
 0001:000337c9       $L158854                   004347c9 f   AlertBaseObj.obj
 0001:000337d7       $L158855                   004347d7 f   AlertBaseObj.obj
 0001:000337e5       $L158856                   004347e5 f   AlertBaseObj.obj
 0001:000337f4       $L158857                   004347f4 f   AlertBaseObj.obj
 0001:00033803       $L158858                   00434803 f   AlertBaseObj.obj
 0001:00033812       __ehhandler$??0CAlertBaseObj@@QAE@XZ 00434812 f   AlertBaseObj.obj
 0001:00033820       $L159165                   00434820 f   AlertBaseObj.obj
 0001:00033828       $L159166                   00434828 f   AlertBaseObj.obj
 0001:00033837       $L159167                   00434837 f   AlertBaseObj.obj
 0001:00033846       $L159168                   00434846 f   AlertBaseObj.obj
 0001:00033855       $L159169                   00434855 f   AlertBaseObj.obj
 0001:00033864       $L159170                   00434864 f   AlertBaseObj.obj
 0001:00033873       __ehhandler$??0CAlertEmailObj@@QAE@XZ 00434873 f   AlertBaseObj.obj
 0001:00033880       $L159181                   00434880 f   AlertBaseObj.obj
 0001:00033888       $L159182                   00434888 f   AlertBaseObj.obj
 0001:00033897       $L159183                   00434897 f   AlertBaseObj.obj
 0001:000338a6       $L159184                   004348a6 f   AlertBaseObj.obj
 0001:000338b5       $L159185                   004348b5 f   AlertBaseObj.obj
 0001:000338c4       $L159186                   004348c4 f   AlertBaseObj.obj
 0001:000338d3       $L159187                   004348d3 f   AlertBaseObj.obj
 0001:000338e2       __ehhandler$??0CAlertSmsObj@@QAE@XZ 004348e2 f   AlertBaseObj.obj
 0001:000338f0       $L159198                   004348f0 f   AlertBaseObj.obj
 0001:000338f8       $L159199                   004348f8 f   AlertBaseObj.obj
 0001:00033907       $L159200                   00434907 f   AlertBaseObj.obj
 0001:00033916       $L159201                   00434916 f   AlertBaseObj.obj
 0001:00033925       __ehhandler$??0CAlertScriptObj@@QAE@XZ 00434925 f   AlertBaseObj.obj
 0001:00033930       $L159225                   00434930 f   AlertBaseObj.obj
 0001:00033930       $L159212                   00434930 f   AlertBaseObj.obj
 0001:00033938       $L159226                   00434938 f   AlertBaseObj.obj
 0001:00033938       $L159213                   00434938 f   AlertBaseObj.obj
 0001:00033947       $L159214                   00434947 f   AlertBaseObj.obj
 0001:00033947       $L159227                   00434947 f   AlertBaseObj.obj
 0001:00033956       __ehhandler$??0CAlertSoundObj@@QAE@XZ 00434956 f   AlertBaseObj.obj
 0001:00033956       __ehhandler$??0CAlertPythonObj@@QAE@XZ 00434956 f   AlertBaseObj.obj
 0001:00033960       $L144591                   00434960 f   AlertEventObj.obj
 0001:00033969       $L144592                   00434969 f   AlertEventObj.obj
 0001:00033975       __ehhandler$??0CAlertEventObj@@QAE@XZ 00434975 f   AlertEventObj.obj
 0001:00033980       $L160237                   00434980 f   AlertMain.obj
 0001:00033989       $L160238                   00434989 f   AlertMain.obj
 0001:000339a3       __ehhandler$?urlEncoding@@YA?AV?$basic_string@DU?$char_traits@D@std@@V?$allocator@D@2@@std@@AAV12@@Z 004349a3 f   AlertMain.obj
 0001:000339b0       $L160349                   004349b0 f   AlertMain.obj
 0001:000339b8       $L160350                   004349b8 f   AlertMain.obj
 0001:000339c1       __ehhandler$?GetSourceHtml@@YAHPBDPAD@Z 004349c1 f   AlertMain.obj
 0001:000339d0       $L160368                   004349d0 f   AlertMain.obj
 0001:000339d9       $L160369                   004349d9 f   AlertMain.obj
 0001:000339e5       __ehhandler$??1CAlertEventObj@@QAE@XZ 004349e5 f   AlertMain.obj
 0001:000339f0       $L160454                   004349f0 f   AlertMain.obj
 0001:000339f9       $L160455                   004349f9 f   AlertMain.obj
 0001:00033a02       $L160456                   00434a02 f   AlertMain.obj
 0001:00033a0b       $L160457                   00434a0b f   AlertMain.obj
 0001:00033a14       $L160458                   00434a14 f   AlertMain.obj
 0001:00033a2e       __ehhandler$?ReplaceStdString@CAlertMain@@SA?AV?$basic_string@DU?$char_traits@D@std@@V?$allocator@D@2@@std@@V23@00@Z 00434a2e f   AlertMain.obj
 0001:00033a40       $L160606                   00434a40 f   AlertMain.obj
 0001:00033a40       $L161653                   00434a40 f   AlertMain.obj
 0001:00033a49       $L160607                   00434a49 f   AlertMain.obj
 0001:00033a49       $L161654                   00434a49 f   AlertMain.obj
 0001:00033a55       $L161655                   00434a55 f   AlertMain.obj
 0001:00033a55       $L160608                   00434a55 f   AlertMain.obj
 0001:00033a61       __ehhandler$??1_WATCH_LIST@@QAE@XZ 00434a61 f   AlertMain.obj
 0001:00033a61       __ehhandler$??0_WATCH_LIST@@QAE@ABU0@@Z 00434a61 f   AlertMain.obj
 0001:00033a70       $L160624                   00434a70 f   AlertMain.obj
 0001:00033a70       $L160649                   00434a70 f   AlertMain.obj
 0001:00033a79       $L160625                   00434a79 f   AlertMain.obj
 0001:00033a79       $L160650                   00434a79 f   AlertMain.obj
 0001:00033a82       $L160651                   00434a82 f   AlertMain.obj
 0001:00033a82       $L160626                   00434a82 f   AlertMain.obj
 0001:00033a8b       $L160652                   00434a8b f   AlertMain.obj
 0001:00033a8b       $L160627                   00434a8b f   AlertMain.obj
 0001:00033a94       $L160628                   00434a94 f   AlertMain.obj
 0001:00033a94       $L160653                   00434a94 f   AlertMain.obj
 0001:00033a9d       $L160631                   00434a9d f   AlertMain.obj
 0001:00033a9d       $L160656                   00434a9d f   AlertMain.obj
 0001:00033ab7       __ehhandler$?GetMonitorPropValue@CAlertMain@@SA?AV?$basic_string@DU?$char_traits@D@std@@V?$allocator@D@2@@std@@V23@0@Z 00434ab7 f   AlertMain.obj
 0001:00033ab7       __ehhandler$?GetMonitorParameterValue@CAlertMain@@SA?AV?$basic_string@DU?$char_traits@D@std@@V?$allocator@D@2@@std@@V23@0@Z 00434ab7 f   AlertMain.obj
 0001:00033ad0       $L160699                   00434ad0 f   AlertMain.obj
 0001:00033ad9       $L160700                   00434ad9 f   AlertMain.obj
 0001:00033ae2       $L160701                   00434ae2 f   AlertMain.obj
 0001:00033aeb       $L160702                   00434aeb f   AlertMain.obj
 0001:00033af4       $L160704                   00434af4 f   AlertMain.obj
 0001:00033b0e       __ehhandler$?GetMonitorRecordDstr@CAlertMain@@SA?AV?$basic_string@DU?$char_traits@D@std@@V?$allocator@D@2@@std@@V23@@Z 00434b0e f   AlertMain.obj
 0001:00033b20       $L160756                   00434b20 f   AlertMain.obj
 0001:00033b29       $L160757                   00434b29 f   AlertMain.obj
 0001:00033b32       $L160758                   00434b32 f   AlertMain.obj
 0001:00033b3b       $L160759                   00434b3b f   AlertMain.obj
 0001:00033b44       $L160760                   00434b44 f   AlertMain.obj
 0001:00033b4d       $L160762                   00434b4d f   AlertMain.obj
 0001:00033b67       __ehhandler$?GetMonitorRecordState@CAlertMain@@SA?AV?$basic_string@DU?$char_traits@D@std@@V?$allocator@D@2@@std@@V23@@Z 00434b67 f   AlertMain.obj
 0001:00033b80       $L160792                   00434b80 f   AlertMain.obj
 0001:00033b89       $L160793                   00434b89 f   AlertMain.obj
 0001:00033b92       $L160794                   00434b92 f   AlertMain.obj
 0001:00033b9b       $L160795                   00434b9b f   AlertMain.obj
 0001:00033ba4       $L160796                   00434ba4 f   AlertMain.obj
 0001:00033bad       $L160797                   00434bad f   AlertMain.obj
 0001:00033bb6       $L160799                   00434bb6 f   AlertMain.obj
 0001:00033bbf       $L160800                   00434bbf f   AlertMain.obj
 0001:00033bc8       __ehhandler$?InitSerialPort@CAlertMain@@SA_NXZ 00434bc8 f   AlertMain.obj
 0001:00033be0       $L160912                   00434be0 f   AlertMain.obj
 0001:00033be9       $L160913                   00434be9 f   AlertMain.obj
 0001:00033bf2       $L160914                   00434bf2 f   AlertMain.obj
 0001:00033bfb       $L160915                   00434bfb f   AlertMain.obj
 0001:00033c04       $L160916                   00434c04 f   AlertMain.obj
 0001:00033c0d       $L160918                   00434c0d f   AlertMain.obj
 0001:00033c16       __ehhandler$?SendSmsFromComm@CAlertMain@@SAHV?$CStringT@DV?$StrTraitMFC_DLL@DV?$ChTraitsCRT@D@ATL@@@@@ATL@@0H@Z 00434c16 f   AlertMain.obj
 0001:00033c20       $L160959                   00434c20 f   AlertMain.obj
 0001:00033c29       $L160960                   00434c29 f   AlertMain.obj
 0001:00033c32       $L160961                   00434c32 f   AlertMain.obj
 0001:00033c3b       $L160962                   00434c3b f   AlertMain.obj
 0001:00033c44       $L160963                   00434c44 f   AlertMain.obj
 0001:00033c4d       $L160964                   00434c4d f   AlertMain.obj
 0001:00033c56       $L160965                   00434c56 f   AlertMain.obj
 0001:00033c5f       $L160966                   00434c5f f   AlertMain.obj
 0001:00033c68       $L160968                   00434c68 f   AlertMain.obj
 0001:00033c71       $L160969                   00434c71 f   AlertMain.obj
 0001:00033c7a       $L160970                   00434c7a f   AlertMain.obj
 0001:00033c83       $L160972                   00434c83 f   AlertMain.obj
 0001:00033c8c       $L160974                   00434c8c f   AlertMain.obj
 0001:00033c95       $L160975                   00434c95 f   AlertMain.obj
 0001:00033c9e       $L160976                   00434c9e f   AlertMain.obj
 0001:00033ca7       $L160977                   00434ca7 f   AlertMain.obj
 0001:00033cb0       $L160978                   00434cb0 f   AlertMain.obj
 0001:00033cb9       $L160979                   00434cb9 f   AlertMain.obj
 0001:00033cc2       $L160981                   00434cc2 f   AlertMain.obj
 0001:00033ccb       $L160982                   00434ccb f   AlertMain.obj
 0001:00033cd4       $L160983                   00434cd4 f   AlertMain.obj
 0001:00033cdd       $L160984                   00434cdd f   AlertMain.obj
 0001:00033ce6       $L160985                   00434ce6 f   AlertMain.obj
 0001:00033cef       __ehhandler$?TestSmsFromComm@CAlertMain@@SAHV?$CStringT@DV?$StrTraitMFC_DLL@DV?$ChTraitsCRT@D@ATL@@@@@ATL@@0@Z 00434cef f   AlertMain.obj
 0001:00033d00       $L160154                   00434d00 f   AlertMain.obj
 0001:00033d00       $L162329                   00434d00 f   AlertMain.obj
 0001:00033d09       __ehhandler$??1sv_pair@@QAE@XZ 00434d09 f   AlertMain.obj
 0001:00033d09       __ehhandler$??1?$pair@$$CBV?$basic_string@DU?$char_traits@D@std@@V?$allocator@D@2@@std@@V12@@std@@QAE@XZ 00434d09 f   AlertMain.obj
 0001:00033d20       $L162451                   00434d20 f   AlertMain.obj
 0001:00033d29       $L162452                   00434d29 f   AlertMain.obj
 0001:00033d35       $L162453                   00434d35 f   AlertMain.obj
 0001:00033d41       $L162454                   00434d41 f   AlertMain.obj
 0001:00033d4d       $L162455                   00434d4d f   AlertMain.obj
 0001:00033d59       $L162456                   00434d59 f   AlertMain.obj
 0001:00033d65       $L162457                   00434d65 f   AlertMain.obj
 0001:00033d6e       $L162458                   00434d6e f   AlertMain.obj
 0001:00033d7a       $L162459                   00434d7a f   AlertMain.obj
 0001:00033d86       $L162460                   00434d86 f   AlertMain.obj
 0001:00033d92       $L162461                   00434d92 f   AlertMain.obj
 0001:00033d9e       $L162462                   00434d9e f   AlertMain.obj
 0001:00033daa       $L162463                   00434daa f   AlertMain.obj
 0001:00033db6       $L162464                   00434db6 f   AlertMain.obj
 0001:00033dd6       __ehhandler$?GetDebugInfo@CAlertEventObj@@QAE?AV?$basic_string@DU?$char_traits@D@std@@V?$allocator@D@2@@std@@XZ 00434dd6 f   AlertMain.obj
 0001:00033de0       $L162578                   00434de0 f   AlertMain.obj
 0001:00033de9       $L162579                   00434de9 f   AlertMain.obj
 0001:00033df7       $L162580                   00434df7 f   AlertMain.obj
 0001:00033e00       $L162582                   00434e00 f   AlertMain.obj
 0001:00033e09       $L162583                   00434e09 f   AlertMain.obj
 0001:00033e12       $L162584                   00434e12 f   AlertMain.obj
 0001:00033e1b       $L162587                   00434e1b f   AlertMain.obj
 0001:00033e24       $L162588                   00434e24 f   AlertMain.obj
 0001:00033e2d       $L162589                   00434e2d f   AlertMain.obj
 0001:00033e36       $L162597                   00434e36 f   AlertMain.obj
 0001:00033e50       __ehhandler$?GetMonitorTitle@CAlertMain@@SA?AV?$basic_string@DU?$char_traits@D@std@@V?$allocator@D@2@@std@@V23@@Z 00434e50 f   AlertMain.obj
 0001:00033e60       $L162653                   00434e60 f   AlertMain.obj
 0001:00033e69       $L162654                   00434e69 f   AlertMain.obj
 0001:00033e77       $L162656                   00434e77 f   AlertMain.obj
 0001:00033e80       $L162657                   00434e80 f   AlertMain.obj
 0001:00033e89       $L162658                   00434e89 f   AlertMain.obj
 0001:00033e92       $L162661                   00434e92 f   AlertMain.obj
 0001:00033eac       __ehhandler$?GetDeviceTitle@CAlertMain@@SA?AV?$basic_string@DU?$char_traits@D@std@@V?$allocator@D@2@@std@@V23@@Z 00434eac f   AlertMain.obj
 0001:00033ec0       $L162687                   00434ec0 f   AlertMain.obj
 0001:00033ec9       $L162688                   00434ec9 f   AlertMain.obj
 0001:00033ed5       $L162689                   00434ed5 f   AlertMain.obj
 0001:00033ee1       $L162691                   00434ee1 f   AlertMain.obj
 0001:00033eea       $L162692                   00434eea f   AlertMain.obj
 0001:00033ef3       $L162693                   00434ef3 f   AlertMain.obj
 0001:00033f13       $L162697                   00434f13 f   AlertMain.obj
 0001:00033f1c       $L162698                   00434f1c f   AlertMain.obj
 0001:00033f25       $L162699                   00434f25 f   AlertMain.obj
 0001:00033f31       $L162700                   00434f31 f   AlertMain.obj
 0001:00033f3d       $L162704                   00434f3d f   AlertMain.obj
 0001:00033f46       $L162705                   00434f46 f   AlertMain.obj
 0001:00033f4f       __ehhandler$?GetAllGroupTitle@CAlertMain@@SA?AV?$basic_string@DU?$char_traits@D@std@@V?$allocator@D@2@@std@@V23@@Z 00434f4f f   AlertMain.obj
 0001:00033f60       $L166430                   00434f60 f   AlertMain.obj
 0001:00033f60       $L166542                   00434f60 f   AlertMain.obj
 0001:00033f60       $L166340                   00434f60 f   AlertMain.obj
 0001:00033f60       $L166683                   00434f60 f   AlertMain.obj
 0001:00033f69       $L166450                   00434f69 f   AlertMain.obj
 0001:00033f69       $L166360                   00434f69 f   AlertMain.obj
 0001:00033f69       $L166703                   00434f69 f   AlertMain.obj
 0001:00033f69       $L166562                   00434f69 f   AlertMain.obj
 0001:00033f72       __ehhandler$?_Incsize@?$list@PAVCAlertBaseObj@@V?$allocator@PAVCAlertBaseObj@@@std@@@std@@IAEXI@Z 00434f72 f   AlertMain.obj
 0001:00033f72       __ehhandler$?_Incsize@?$list@PAVCAlertEventObj@@V?$allocator@PAVCAlertEventObj@@@std@@@std@@IAEXI@Z 00434f72 f   AlertMain.obj
 0001:00033f72       __ehhandler$?_Incsize@?$list@U_WATCH_LIST@@V?$allocator@U_WATCH_LIST@@@std@@@std@@IAEXI@Z 00434f72 f   AlertMain.obj
 0001:00033f72       __ehhandler$?_Incsize@?$list@PAVCAlertSendObj@@V?$allocator@PAVCAlertSendObj@@@std@@@std@@IAEXI@Z 00434f72 f   AlertMain.obj
 0001:00033f80       $L166650                   00434f80 f   AlertMain.obj
 0001:00033f91       __ehhandler$?_Buynode@?$list@U_WATCH_LIST@@V?$allocator@U_WATCH_LIST@@@std@@@std@@IAEPAU_Node@?$_List_nod@U_WATCH_LIST@@V?$allocator@U_WATCH_LIST@@@std@@@2@PAU342@0ABU_WATCH_LIST@@@Z 00434f91 f   AlertMain.obj
 0001:00033fa0       $L168841                   00434fa0 f   AlertMain.obj
 0001:00033fa9       __ehhandler$?DoSendEmailAlert@CAlertMain@@QAEXXZ 00434fa9 f   AlertMain.obj
 0001:00033fc0       $L169438                   00434fc0 f   AlertMain.obj
 0001:00033fc9       __ehhandler$?DoSendSmsAlert@CAlertMain@@QAEXXZ 00434fc9 f   AlertMain.obj
 0001:00033fe0       $L169997                   00434fe0 f   AlertMain.obj
 0001:00033fe9       __ehhandler$?DoSendScriptAlert@CAlertMain@@QAEXXZ 00434fe9 f   AlertMain.obj
 0001:00034000       $L170556                   00435000 f   AlertMain.obj
 0001:00034009       __ehhandler$?DoSendSoundAlert@CAlertMain@@QAEXXZ 00435009 f   AlertMain.obj
 0001:00034020       $L172954                   00435020 f   AlertMain.obj
 0001:00034029       $L172955                   00435029 f   AlertMain.obj
 0001:00034032       __ehhandler$?DeleteAlertObjFromSection@CAlertMain@@AAEXV?$basic_string@DU?$char_traits@D@std@@V?$allocator@D@2@@std@@0@Z 00435032 f   AlertMain.obj
 0001:00034040       $L173159                   00435040 f   AlertMain.obj
 0001:00034049       $L173160                   00435049 f   AlertMain.obj
 0001:00034052       $L173161                   00435052 f   AlertMain.obj
 0001:0003405b       $L173162                   0043505b f   AlertMain.obj
 0001:00034075       __ehhandler$?GetFileLastLine@CAlertMain@@SA?AV?$basic_string@DU?$char_traits@D@std@@V?$allocator@D@2@@std@@V23@0@Z 00435075 f   AlertMain.obj
 0001:00034080       $L176001                   00435080 f   AlertMain.obj
 0001:00034089       $L176002                   00435089 f   AlertMain.obj
 0001:00034095       $L176003                   00435095 f   AlertMain.obj
 0001:000340a1       $L176004                   004350a1 f   AlertMain.obj
 0001:000340ad       $L176005                   004350ad f   AlertMain.obj
 0001:000340b9       $L176006                   004350b9 f   AlertMain.obj
 0001:000340c5       $L176007                   004350c5 f   AlertMain.obj
 0001:000340d1       $L176008                   004350d1 f   AlertMain.obj
 0001:000340dd       $L176009                   004350dd f   AlertMain.obj
 0001:000340e9       $L176010                   004350e9 f   AlertMain.obj
 0001:000340f5       $L176011                   004350f5 f   AlertMain.obj
 0001:00034101       $L176012                   00435101 f   AlertMain.obj
 0001:0003410d       $L176013                   0043510d f   AlertMain.obj
 0001:00034119       $L176014                   00435119 f   AlertMain.obj
 0001:00034125       $L176015                   00435125 f   AlertMain.obj
 0001:00034131       $L176016                   00435131 f   AlertMain.obj
 0001:0003413d       $L176017                   0043513d f   AlertMain.obj
 0001:00034149       $L176018                   00435149 f   AlertMain.obj
 0001:00034155       $L176019                   00435155 f   AlertMain.obj
 0001:00034161       $L176020                   00435161 f   AlertMain.obj
 0001:0003416d       $L176021                   0043516d f   AlertMain.obj
 0001:00034179       $L176022                   00435179 f   AlertMain.obj
 0001:00034185       $L176023                   00435185 f   AlertMain.obj
 0001:00034191       $L176024                   00435191 f   AlertMain.obj
 0001:0003419d       $L176025                   0043519d f   AlertMain.obj
 0001:000341a9       $L176026                   004351a9 f   AlertMain.obj
 0001:000341b5       $L176027                   004351b5 f   AlertMain.obj
 0001:000341c1       $L176028                   004351c1 f   AlertMain.obj
 0001:000341cd       $L176029                   004351cd f   AlertMain.obj
 0001:000341d9       $L176030                   004351d9 f   AlertMain.obj
 0001:000341e5       $L176031                   004351e5 f   AlertMain.obj
 0001:000341f1       $L176032                   004351f1 f   AlertMain.obj
 0001:000341fd       $L176033                   004351fd f   AlertMain.obj
 0001:00034209       $L176034                   00435209 f   AlertMain.obj
 0001:00034215       $L176035                   00435215 f   AlertMain.obj
 0001:00034221       $L176036                   00435221 f   AlertMain.obj
 0001:0003422d       $L176037                   0043522d f   AlertMain.obj
 0001:00034239       $L176038                   00435239 f   AlertMain.obj
 0001:00034245       $L176040                   00435245 f   AlertMain.obj
 0001:00034251       $L176041                   00435251 f   AlertMain.obj
 0001:0003425d       $L176042                   0043525d f   AlertMain.obj
 0001:00034269       $L176043                   00435269 f   AlertMain.obj
 0001:00034275       $L176044                   00435275 f   AlertMain.obj
 0001:00034281       $L176045                   00435281 f   AlertMain.obj
 0001:0003428d       $L176047                   0043528d f   AlertMain.obj
 0001:00034299       $L176048                   00435299 f   AlertMain.obj
 0001:000342a5       $L176049                   004352a5 f   AlertMain.obj
 0001:000342b1       $L176050                   004352b1 f   AlertMain.obj
 0001:000342bd       $L176051                   004352bd f   AlertMain.obj
 0001:000342c9       $L176052                   004352c9 f   AlertMain.obj
 0001:000342d5       $L176054                   004352d5 f   AlertMain.obj
 0001:000342e1       $L176055                   004352e1 f   AlertMain.obj
 0001:000342ed       $L176056                   004352ed f   AlertMain.obj
 0001:000342f9       $L176057                   004352f9 f   AlertMain.obj
 0001:00034305       $L176058                   00435305 f   AlertMain.obj
 0001:00034311       $L176059                   00435311 f   AlertMain.obj
 0001:0003431d       $L176061                   0043531d f   AlertMain.obj
 0001:00034329       $L176062                   00435329 f   AlertMain.obj
 0001:00034335       $L176063                   00435335 f   AlertMain.obj
 0001:00034341       $L176064                   00435341 f   AlertMain.obj
 0001:0003434d       $L176065                   0043534d f   AlertMain.obj
 0001:00034359       $L176066                   00435359 f   AlertMain.obj
 0001:00034365       $L176068                   00435365 f   AlertMain.obj
 0001:00034371       $L176069                   00435371 f   AlertMain.obj
 0001:0003437d       $L176070                   0043537d f   AlertMain.obj
 0001:00034389       $L176071                   00435389 f   AlertMain.obj
 0001:00034395       $L176072                   00435395 f   AlertMain.obj
 0001:000343a1       $L176073                   004353a1 f   AlertMain.obj
 0001:000343ad       $L176075                   004353ad f   AlertMain.obj
 0001:000343b9       $L176077                   004353b9 f   AlertMain.obj
 0001:000343c5       $L176078                   004353c5 f   AlertMain.obj
 0001:000343d1       $L176079                   004353d1 f   AlertMain.obj
 0001:000343dd       $L176080                   004353dd f   AlertMain.obj
 0001:000343e9       $L176082                   004353e9 f   AlertMain.obj
 0001:000343f5       $L176083                   004353f5 f   AlertMain.obj
 0001:00034401       $L176084                   00435401 f   AlertMain.obj
 0001:0003440d       $L176085                   0043540d f   AlertMain.obj
 0001:00034419       $L176086                   00435419 f   AlertMain.obj
 0001:00034425       $L176089                   00435425 f   AlertMain.obj
 0001:00034431       $L176090                   00435431 f   AlertMain.obj
 0001:0003443d       $L176091                   0043543d f   AlertMain.obj
 0001:00034449       $L176092                   00435449 f   AlertMain.obj
 0001:00034455       $L176093                   00435455 f   AlertMain.obj
 0001:00034461       $L176095                   00435461 f   AlertMain.obj
 0001:0003446d       $L176096                   0043546d f   AlertMain.obj
 0001:00034479       $L176097                   00435479 f   AlertMain.obj
 0001:00034485       $L176098                   00435485 f   AlertMain.obj
 0001:00034491       $L176099                   00435491 f   AlertMain.obj
 0001:0003449d       $L176100                   0043549d f   AlertMain.obj
 0001:000344a9       $L176102                   004354a9 f   AlertMain.obj
 0001:000344b5       $L176103                   004354b5 f   AlertMain.obj
 0001:000344c1       $L176104                   004354c1 f   AlertMain.obj
 0001:000344cd       $L176105                   004354cd f   AlertMain.obj
 0001:000344d9       $L176106                   004354d9 f   AlertMain.obj
 0001:000344e5       $L176107                   004354e5 f   AlertMain.obj
 0001:000344f1       $L176109                   004354f1 f   AlertMain.obj
 0001:000344fd       $L176110                   004354fd f   AlertMain.obj
 0001:00034509       $L176111                   00435509 f   AlertMain.obj
 0001:00034515       $L176112                   00435515 f   AlertMain.obj
 0001:00034521       $L176113                   00435521 f   AlertMain.obj
 0001:0003452d       $L176114                   0043552d f   AlertMain.obj
 0001:00034539       $L176116                   00435539 f   AlertMain.obj
 0001:00034545       $L176117                   00435545 f   AlertMain.obj
 0001:00034551       $L176118                   00435551 f   AlertMain.obj
 0001:0003455d       $L176119                   0043555d f   AlertMain.obj
 0001:00034569       $L176120                   00435569 f   AlertMain.obj
 0001:00034575       $L176121                   00435575 f   AlertMain.obj
 0001:00034581       $L176123                   00435581 f   AlertMain.obj
 0001:0003458d       $L176124                   0043558d f   AlertMain.obj
 0001:00034599       $L176125                   00435599 f   AlertMain.obj
 0001:000345a5       $L176126                   004355a5 f   AlertMain.obj
 0001:000345b1       $L176127                   004355b1 f   AlertMain.obj
 0001:000345bd       $L176128                   004355bd f   AlertMain.obj
 0001:000345c9       $L176130                   004355c9 f   AlertMain.obj
 0001:000345d5       $L176131                   004355d5 f   AlertMain.obj
 0001:000345e1       $L176132                   004355e1 f   AlertMain.obj
 0001:000345ed       $L176133                   004355ed f   AlertMain.obj
 0001:000345f9       $L176134                   004355f9 f   AlertMain.obj
 0001:00034605       $L176135                   00435605 f   AlertMain.obj
 0001:00034611       $L176137                   00435611 f   AlertMain.obj
 0001:0003461d       $L176138                   0043561d f   AlertMain.obj
 0001:00034629       $L176139                   00435629 f   AlertMain.obj
 0001:00034635       $L176140                   00435635 f   AlertMain.obj
 0001:00034641       $L176141                   00435641 f   AlertMain.obj
 0001:0003464d       $L176142                   0043564d f   AlertMain.obj
 0001:00034659       $L176144                   00435659 f   AlertMain.obj
 0001:00034665       $L176145                   00435665 f   AlertMain.obj
 0001:00034671       $L176146                   00435671 f   AlertMain.obj
 0001:0003467d       $L176147                   0043567d f   AlertMain.obj
 0001:00034689       $L176148                   00435689 f   AlertMain.obj
 0001:00034695       $L176149                   00435695 f   AlertMain.obj
 0001:000346a1       $L176151                   004356a1 f   AlertMain.obj
 0001:000346ad       $L176152                   004356ad f   AlertMain.obj
 0001:000346b9       $L176153                   004356b9 f   AlertMain.obj
 0001:000346c5       $L176154                   004356c5 f   AlertMain.obj
 0001:000346d1       $L176155                   004356d1 f   AlertMain.obj
 0001:000346dd       $L176156                   004356dd f   AlertMain.obj
 0001:000346e9       $L176158                   004356e9 f   AlertMain.obj
 0001:000346f5       $L176159                   004356f5 f   AlertMain.obj
 0001:00034701       $L176161                   00435701 f   AlertMain.obj
 0001:0003470f       $L176162                   0043570f f   AlertMain.obj
 0001:0003471b       $L176163                   0043571b f   AlertMain.obj
 0001:00034727       $L176164                   00435727 f   AlertMain.obj
 0001:00034733       $L176165                   00435733 f   AlertMain.obj
 0001:0003473f       $L176166                   0043573f f   AlertMain.obj
 0001:0003474b       $L176168                   0043574b f   AlertMain.obj
 0001:00034757       $L176169                   00435757 f   AlertMain.obj
 0001:00034763       $L176170                   00435763 f   AlertMain.obj
 0001:0003476f       $L176171                   0043576f f   AlertMain.obj
 0001:0003477b       $L176172                   0043577b f   AlertMain.obj
 0001:00034787       $L176173                   00435787 f   AlertMain.obj
 0001:00034793       $L176175                   00435793 f   AlertMain.obj
 0001:0003479f       $L176176                   0043579f f   AlertMain.obj
 0001:000347ab       $L176177                   004357ab f   AlertMain.obj
 0001:000347b7       $L176178                   004357b7 f   AlertMain.obj
 0001:000347c3       $L176179                   004357c3 f   AlertMain.obj
 0001:000347cf       $L176180                   004357cf f   AlertMain.obj
 0001:000347db       $L176182                   004357db f   AlertMain.obj
 0001:000347e7       $L176183                   004357e7 f   AlertMain.obj
 0001:000347f3       $L176184                   004357f3 f   AlertMain.obj
 0001:000347ff       $L176185                   004357ff f   AlertMain.obj
 0001:0003480b       $L176186                   0043580b f   AlertMain.obj
 0001:00034817       $L176187                   00435817 f   AlertMain.obj
 0001:00034823       $L176189                   00435823 f   AlertMain.obj
 0001:0003482f       $L176190                   0043582f f   AlertMain.obj
 0001:0003483b       $L176191                   0043583b f   AlertMain.obj
 0001:00034847       $L176192                   00435847 f   AlertMain.obj
 0001:00034853       $L176193                   00435853 f   AlertMain.obj
 0001:0003485f       $L176194                   0043585f f   AlertMain.obj
 0001:0003486b       $L176196                   0043586b f   AlertMain.obj
 0001:00034877       $L176197                   00435877 f   AlertMain.obj
 0001:00034883       $L176198                   00435883 f   AlertMain.obj
 0001:0003488f       $L176199                   0043588f f   AlertMain.obj
 0001:0003489b       $L176200                   0043589b f   AlertMain.obj
 0001:000348a7       $L176201                   004358a7 f   AlertMain.obj
 0001:000348b3       $L176203                   004358b3 f   AlertMain.obj
 0001:000348bf       $L176204                   004358bf f   AlertMain.obj
 0001:000348cb       $L176205                   004358cb f   AlertMain.obj
 0001:000348d7       $L176206                   004358d7 f   AlertMain.obj
 0001:000348e3       $L176207                   004358e3 f   AlertMain.obj
 0001:000348ef       $L176208                   004358ef f   AlertMain.obj
 0001:000348fb       $L176210                   004358fb f   AlertMain.obj
 0001:00034907       $L176211                   00435907 f   AlertMain.obj
 0001:00034913       $L176213                   00435913 f   AlertMain.obj
 0001:00034921       $L176214                   00435921 f   AlertMain.obj
 0001:0003492d       $L176215                   0043592d f   AlertMain.obj
 0001:00034939       $L176216                   00435939 f   AlertMain.obj
 0001:00034945       $L176217                   00435945 f   AlertMain.obj
 0001:00034951       $L176218                   00435951 f   AlertMain.obj
 0001:0003495d       $L176220                   0043595d f   AlertMain.obj
 0001:00034969       $L176221                   00435969 f   AlertMain.obj
 0001:00034975       $L176222                   00435975 f   AlertMain.obj
 0001:00034981       $L176223                   00435981 f   AlertMain.obj
 0001:0003498d       $L176224                   0043598d f   AlertMain.obj
 0001:00034999       $L176225                   00435999 f   AlertMain.obj
 0001:000349a5       $L176227                   004359a5 f   AlertMain.obj
 0001:000349b1       $L176228                   004359b1 f   AlertMain.obj
 0001:000349bd       $L176229                   004359bd f   AlertMain.obj
 0001:000349c9       $L176230                   004359c9 f   AlertMain.obj
 0001:000349d5       $L176231                   004359d5 f   AlertMain.obj
 0001:000349e1       $L176232                   004359e1 f   AlertMain.obj
 0001:000349ed       $L176234                   004359ed f   AlertMain.obj
 0001:000349f9       $L176235                   004359f9 f   AlertMain.obj
 0001:00034a05       $L176236                   00435a05 f   AlertMain.obj
 0001:00034a11       $L176237                   00435a11 f   AlertMain.obj
 0001:00034a1d       $L176238                   00435a1d f   AlertMain.obj
 0001:00034a29       $L176239                   00435a29 f   AlertMain.obj
 0001:00034a35       $L176241                   00435a35 f   AlertMain.obj
 0001:00034a41       $L176242                   00435a41 f   AlertMain.obj
 0001:00034a4d       $L176243                   00435a4d f   AlertMain.obj
 0001:00034a59       $L176244                   00435a59 f   AlertMain.obj
 0001:00034a65       $L176245                   00435a65 f   AlertMain.obj
 0001:00034a71       $L176246                   00435a71 f   AlertMain.obj
 0001:00034a7d       $L176248                   00435a7d f   AlertMain.obj
 0001:00034a89       $L176249                   00435a89 f   AlertMain.obj
 0001:00034a97       $L176250                   00435a97 f   AlertMain.obj
 0001:00034aa3       $L176251                   00435aa3 f   AlertMain.obj
 0001:00034aaf       $L176252                   00435aaf f   AlertMain.obj
 0001:00034abb       $L176253                   00435abb f   AlertMain.obj
 0001:00034ac7       $L176254                   00435ac7 f   AlertMain.obj
 0001:00034ad3       $L176256                   00435ad3 f   AlertMain.obj
 0001:00034adf       $L176257                   00435adf f   AlertMain.obj
 0001:00034aeb       $L176258                   00435aeb f   AlertMain.obj
 0001:00034af7       $L176259                   00435af7 f   AlertMain.obj
 0001:00034b03       $L176260                   00435b03 f   AlertMain.obj
 0001:00034b0f       $L176261                   00435b0f f   AlertMain.obj
 0001:00034b1b       $L176263                   00435b1b f   AlertMain.obj
 0001:00034b27       $L176264                   00435b27 f   AlertMain.obj
 0001:00034b33       $L176265                   00435b33 f   AlertMain.obj
 0001:00034b3f       $L176266                   00435b3f f   AlertMain.obj
 0001:00034b4b       $L176267                   00435b4b f   AlertMain.obj
 0001:00034b57       $L176268                   00435b57 f   AlertMain.obj
 0001:00034b63       $L176270                   00435b63 f   AlertMain.obj
 0001:00034b6f       $L176271                   00435b6f f   AlertMain.obj
 0001:00034b7d       $L176272                   00435b7d f   AlertMain.obj
 0001:00034b89       $L176273                   00435b89 f   AlertMain.obj
 0001:00034b95       $L176274                   00435b95 f   AlertMain.obj
 0001:00034ba1       $L176275                   00435ba1 f   AlertMain.obj
 0001:00034bad       $L176276                   00435bad f   AlertMain.obj
 0001:00034bb9       $L176278                   00435bb9 f   AlertMain.obj
 0001:00034bc5       $L176279                   00435bc5 f   AlertMain.obj
 0001:00034bd1       $L176280                   00435bd1 f   AlertMain.obj
 0001:00034bdd       $L176281                   00435bdd f   AlertMain.obj
 0001:00034be9       $L176282                   00435be9 f   AlertMain.obj
 0001:00034bf5       $L176283                   00435bf5 f   AlertMain.obj
 0001:00034c01       $L176285                   00435c01 f   AlertMain.obj
 0001:00034c0d       $L176286                   00435c0d f   AlertMain.obj
 0001:00034c19       $L176287                   00435c19 f   AlertMain.obj
 0001:00034c25       $L176288                   00435c25 f   AlertMain.obj
 0001:00034c31       $L176289                   00435c31 f   AlertMain.obj
 0001:00034c3d       $L176290                   00435c3d f   AlertMain.obj
 0001:00034c49       $L176292                   00435c49 f   AlertMain.obj
 0001:00034c55       $L176293                   00435c55 f   AlertMain.obj
 0001:00034c63       __ehhandler$?ReadAlertObjFromIni@CAlertMain@@AAEXV?$basic_string@DU?$char_traits@D@std@@V?$allocator@D@2@@std@@@Z 00435c63 f   AlertMain.obj
 0001:00034c70       $L177027                   00435c70 f   AlertMain.obj
 0001:00034c79       $L177028                   00435c79 f   AlertMain.obj
 0001:00034c82       $L177029                   00435c82 f   AlertMain.obj
 0001:00034c8e       $L177030                   00435c8e f   AlertMain.obj
 0001:00034c9a       $L177031                   00435c9a f   AlertMain.obj
 0001:00034ca6       $L177032                   00435ca6 f   AlertMain.obj
 0001:00034cb2       $L177033                   00435cb2 f   AlertMain.obj
 0001:00034cbe       $L177034                   00435cbe f   AlertMain.obj
 0001:00034cca       $L177035                   00435cca f   AlertMain.obj
 0001:00034cd6       $L177036                   00435cd6 f   AlertMain.obj
 0001:00034cdf       $L177037                   00435cdf f   AlertMain.obj
 0001:00034ceb       $L177038                   00435ceb f   AlertMain.obj
 0001:00034cf7       $L177039                   00435cf7 f   AlertMain.obj
 0001:00034d03       $L177040                   00435d03 f   AlertMain.obj
 0001:00034d0f       $L177041                   00435d0f f   AlertMain.obj
 0001:00034d1b       $L177042                   00435d1b f   AlertMain.obj
 0001:00034d27       $L177043                   00435d27 f   AlertMain.obj
 0001:00034d33       $L177044                   00435d33 f   AlertMain.obj
 0001:00034d3f       $L177045                   00435d3f f   AlertMain.obj
 0001:00034d4b       $L177046                   00435d4b f   AlertMain.obj
 0001:00034d54       $L177047                   00435d54 f   AlertMain.obj
 0001:00034d60       $L177048                   00435d60 f   AlertMain.obj
 0001:00034d6c       $L177049                   00435d6c f   AlertMain.obj
 0001:00034d78       $L177050                   00435d78 f   AlertMain.obj
 0001:00034d84       $L177051                   00435d84 f   AlertMain.obj
 0001:00034d90       $L177052                   00435d90 f   AlertMain.obj
 0001:00034d9c       $L177053                   00435d9c f   AlertMain.obj
 0001:00034da8       $L177054                   00435da8 f   AlertMain.obj
 0001:00034db4       $L177055                   00435db4 f   AlertMain.obj
 0001:00034dbd       $L177056                   00435dbd f   AlertMain.obj
 0001:00034dc6       $L177057                   00435dc6 f   AlertMain.obj
 0001:00034dd2       $L177058                   00435dd2 f   AlertMain.obj
 0001:00034dde       $L177059                   00435dde f   AlertMain.obj
 0001:00034dea       $L177060                   00435dea f   AlertMain.obj
 0001:00034df6       $L177061                   00435df6 f   AlertMain.obj
 0001:00034e02       $L177062                   00435e02 f   AlertMain.obj
 0001:00034e0e       $L177064                   00435e0e f   AlertMain.obj
 0001:00034e1a       $L177065                   00435e1a f   AlertMain.obj
 0001:00034e26       $L177066                   00435e26 f   AlertMain.obj
 0001:00034e32       $L177067                   00435e32 f   AlertMain.obj
 0001:00034e3e       $L177068                   00435e3e f   AlertMain.obj
 0001:00034e4a       $L177069                   00435e4a f   AlertMain.obj
 0001:00034e56       $L177071                   00435e56 f   AlertMain.obj
 0001:00034e62       $L177072                   00435e62 f   AlertMain.obj
 0001:00034e6e       $L177073                   00435e6e f   AlertMain.obj
 0001:00034e7a       $L177074                   00435e7a f   AlertMain.obj
 0001:00034e86       $L177075                   00435e86 f   AlertMain.obj
 0001:00034e92       $L177076                   00435e92 f   AlertMain.obj
 0001:00034e9e       $L177078                   00435e9e f   AlertMain.obj
 0001:00034eaa       $L177079                   00435eaa f   AlertMain.obj
 0001:00034eb6       $L177080                   00435eb6 f   AlertMain.obj
 0001:00034ec2       $L177081                   00435ec2 f   AlertMain.obj
 0001:00034ece       $L177082                   00435ece f   AlertMain.obj
 0001:00034eda       $L177083                   00435eda f   AlertMain.obj
 0001:00034ee6       $L177085                   00435ee6 f   AlertMain.obj
 0001:00034ef2       $L177086                   00435ef2 f   AlertMain.obj
 0001:00034efe       $L177087                   00435efe f   AlertMain.obj
 0001:00034f0a       $L177088                   00435f0a f   AlertMain.obj
 0001:00034f16       $L177089                   00435f16 f   AlertMain.obj
 0001:00034f22       $L177090                   00435f22 f   AlertMain.obj
 0001:00034f2e       $L177092                   00435f2e f   AlertMain.obj
 0001:00034f3a       $L177093                   00435f3a f   AlertMain.obj
 0001:00034f46       $L177094                   00435f46 f   AlertMain.obj
 0001:00034f52       $L177095                   00435f52 f   AlertMain.obj
 0001:00034f5e       $L177096                   00435f5e f   AlertMain.obj
 0001:00034f6a       $L177097                   00435f6a f   AlertMain.obj
 0001:00034f76       $L177099                   00435f76 f   AlertMain.obj
 0001:00034f82       $L177101                   00435f82 f   AlertMain.obj
 0001:00034f8e       $L177102                   00435f8e f   AlertMain.obj
 0001:00034f9a       $L177103                   00435f9a f   AlertMain.obj
 0001:00034fa6       $L177104                   00435fa6 f   AlertMain.obj
 0001:00034fb2       $L177106                   00435fb2 f   AlertMain.obj
 0001:00034fbe       $L177107                   00435fbe f   AlertMain.obj
 0001:00034fca       $L177108                   00435fca f   AlertMain.obj
 0001:00034fd6       $L177109                   00435fd6 f   AlertMain.obj
 0001:00034fe2       $L177110                   00435fe2 f   AlertMain.obj
 0001:00034fee       $L177113                   00435fee f   AlertMain.obj
 0001:00034ffa       $L177114                   00435ffa f   AlertMain.obj
 0001:00035006       $L177115                   00436006 f   AlertMain.obj
 0001:00035012       $L177116                   00436012 f   AlertMain.obj
 0001:0003501e       $L177117                   0043601e f   AlertMain.obj
 0001:0003502a       $L177119                   0043602a f   AlertMain.obj
 0001:00035036       $L177120                   00436036 f   AlertMain.obj
 0001:00035042       $L177121                   00436042 f   AlertMain.obj
 0001:0003504e       $L177122                   0043604e f   AlertMain.obj
 0001:0003505a       $L177123                   0043605a f   AlertMain.obj
 0001:00035066       $L177124                   00436066 f   AlertMain.obj
 0001:00035072       $L177126                   00436072 f   AlertMain.obj
 0001:0003507e       $L177127                   0043607e f   AlertMain.obj
 0001:0003508a       $L177128                   0043608a f   AlertMain.obj
 0001:00035096       $L177129                   00436096 f   AlertMain.obj
 0001:000350a2       $L177130                   004360a2 f   AlertMain.obj
 0001:000350ae       $L177131                   004360ae f   AlertMain.obj
 0001:000350ba       $L177133                   004360ba f   AlertMain.obj
 0001:000350c6       $L177134                   004360c6 f   AlertMain.obj
 0001:000350d2       $L177135                   004360d2 f   AlertMain.obj
 0001:000350de       $L177136                   004360de f   AlertMain.obj
 0001:000350ea       $L177137                   004360ea f   AlertMain.obj
 0001:000350f6       $L177138                   004360f6 f   AlertMain.obj
 0001:00035102       $L177140                   00436102 f   AlertMain.obj
 0001:0003510e       $L177141                   0043610e f   AlertMain.obj
 0001:0003511a       $L177142                   0043611a f   AlertMain.obj
 0001:00035126       $L177143                   00436126 f   AlertMain.obj
 0001:00035132       $L177144                   00436132 f   AlertMain.obj
 0001:0003513e       $L177145                   0043613e f   AlertMain.obj
 0001:0003514a       $L177147                   0043614a f   AlertMain.obj
 0001:00035156       $L177148                   00436156 f   AlertMain.obj
 0001:00035162       $L177149                   00436162 f   AlertMain.obj
 0001:0003516e       $L177150                   0043616e f   AlertMain.obj
 0001:0003517a       $L177151                   0043617a f   AlertMain.obj
 0001:00035186       $L177152                   00436186 f   AlertMain.obj
 0001:00035192       $L177154                   00436192 f   AlertMain.obj
 0001:0003519e       $L177155                   0043619e f   AlertMain.obj
 0001:000351aa       $L177156                   004361aa f   AlertMain.obj
 0001:000351b6       $L177157                   004361b6 f   AlertMain.obj
 0001:000351c2       $L177158                   004361c2 f   AlertMain.obj
 0001:000351ce       $L177159                   004361ce f   AlertMain.obj
 0001:000351da       $L177161                   004361da f   AlertMain.obj
 0001:000351e6       $L177162                   004361e6 f   AlertMain.obj
 0001:000351f2       $L177163                   004361f2 f   AlertMain.obj
 0001:000351fe       $L177164                   004361fe f   AlertMain.obj
 0001:0003520a       $L177165                   0043620a f   AlertMain.obj
 0001:00035216       $L177166                   00436216 f   AlertMain.obj
 0001:00035222       $L177168                   00436222 f   AlertMain.obj
 0001:0003522e       $L177169                   0043622e f   AlertMain.obj
 0001:0003523a       $L177170                   0043623a f   AlertMain.obj
 0001:00035246       $L177171                   00436246 f   AlertMain.obj
 0001:00035252       $L177172                   00436252 f   AlertMain.obj
 0001:0003525e       $L177173                   0043625e f   AlertMain.obj
 0001:0003526a       $L177175                   0043626a f   AlertMain.obj
 0001:00035276       $L177176                   00436276 f   AlertMain.obj
 0001:00035282       $L177177                   00436282 f   AlertMain.obj
 0001:0003528e       $L177178                   0043628e f   AlertMain.obj
 0001:0003529a       $L177179                   0043629a f   AlertMain.obj
 0001:000352a6       $L177180                   004362a6 f   AlertMain.obj
 0001:000352b2       $L177182                   004362b2 f   AlertMain.obj
 0001:000352be       $L177183                   004362be f   AlertMain.obj
 0001:000352ca       $L177184                   004362ca f   AlertMain.obj
 0001:000352d6       $L177185                   004362d6 f   AlertMain.obj
 0001:000352e2       $L177186                   004362e2 f   AlertMain.obj
 0001:000352ee       $L177187                   004362ee f   AlertMain.obj
 0001:000352fa       $L177189                   004362fa f   AlertMain.obj
 0001:00035306       $L177190                   00436306 f   AlertMain.obj
 0001:00035312       $L177192                   00436312 f   AlertMain.obj
 0001:00035320       $L177193                   00436320 f   AlertMain.obj
 0001:0003532c       $L177194                   0043632c f   AlertMain.obj
 0001:00035338       $L177195                   00436338 f   AlertMain.obj
 0001:00035344       $L177196                   00436344 f   AlertMain.obj
 0001:00035350       $L177197                   00436350 f   AlertMain.obj
 0001:0003535c       $L177199                   0043635c f   AlertMain.obj
 0001:00035368       $L177200                   00436368 f   AlertMain.obj
 0001:00035374       $L177201                   00436374 f   AlertMain.obj
 0001:00035380       $L177202                   00436380 f   AlertMain.obj
 0001:0003538c       $L177203                   0043638c f   AlertMain.obj
 0001:00035398       $L177204                   00436398 f   AlertMain.obj
 0001:000353a4       $L177206                   004363a4 f   AlertMain.obj
 0001:000353b0       $L177207                   004363b0 f   AlertMain.obj
 0001:000353bc       $L177208                   004363bc f   AlertMain.obj
 0001:000353c8       $L177209                   004363c8 f   AlertMain.obj
 0001:000353d4       $L177210                   004363d4 f   AlertMain.obj
 0001:000353e0       $L177211                   004363e0 f   AlertMain.obj
 0001:000353ec       $L177213                   004363ec f   AlertMain.obj
 0001:000353f8       $L177214                   004363f8 f   AlertMain.obj
 0001:00035404       $L177215                   00436404 f   AlertMain.obj
 0001:00035410       $L177216                   00436410 f   AlertMain.obj
 0001:0003541c       $L177217                   0043641c f   AlertMain.obj
 0001:00035428       $L177218                   00436428 f   AlertMain.obj
 0001:00035434       $L177220                   00436434 f   AlertMain.obj
 0001:00035440       $L177221                   00436440 f   AlertMain.obj
 0001:0003544c       $L177222                   0043644c f   AlertMain.obj
 0001:00035458       $L177223                   00436458 f   AlertMain.obj
 0001:00035464       $L177224                   00436464 f   AlertMain.obj
 0001:00035470       $L177225                   00436470 f   AlertMain.obj
 0001:0003547c       $L177227                   0043647c f   AlertMain.obj
 0001:00035488       $L177228                   00436488 f   AlertMain.obj
 0001:00035494       $L177229                   00436494 f   AlertMain.obj
 0001:000354a0       $L177230                   004364a0 f   AlertMain.obj
 0001:000354ac       $L177231                   004364ac f   AlertMain.obj
 0001:000354b8       $L177232                   004364b8 f   AlertMain.obj
 0001:000354c4       $L177234                   004364c4 f   AlertMain.obj
 0001:000354d0       $L177235                   004364d0 f   AlertMain.obj
 0001:000354dc       $L177236                   004364dc f   AlertMain.obj
 0001:000354e8       $L177237                   004364e8 f   AlertMain.obj
 0001:000354f4       $L177238                   004364f4 f   AlertMain.obj
 0001:00035500       $L177239                   00436500 f   AlertMain.obj
 0001:0003550c       $L177241                   0043650c f   AlertMain.obj
 0001:00035518       $L177242                   00436518 f   AlertMain.obj
 0001:00035524       $L177244                   00436524 f   AlertMain.obj
 0001:00035532       $L177245                   00436532 f   AlertMain.obj
 0001:0003553e       $L177246                   0043653e f   AlertMain.obj
 0001:0003554a       $L177247                   0043654a f   AlertMain.obj
 0001:00035556       $L177248                   00436556 f   AlertMain.obj
 0001:00035562       $L177249                   00436562 f   AlertMain.obj
 0001:0003556e       $L177251                   0043656e f   AlertMain.obj
 0001:0003557a       $L177252                   0043657a f   AlertMain.obj
 0001:00035586       $L177253                   00436586 f   AlertMain.obj
 0001:00035592       $L177254                   00436592 f   AlertMain.obj
 0001:0003559e       $L177255                   0043659e f   AlertMain.obj
 0001:000355aa       $L177256                   004365aa f   AlertMain.obj
 0001:000355b6       $L177258                   004365b6 f   AlertMain.obj
 0001:000355c2       $L177259                   004365c2 f   AlertMain.obj
 0001:000355ce       $L177260                   004365ce f   AlertMain.obj
 0001:000355da       $L177261                   004365da f   AlertMain.obj
 0001:000355e6       $L177262                   004365e6 f   AlertMain.obj
 0001:000355f2       $L177263                   004365f2 f   AlertMain.obj
 0001:000355fe       $L177265                   004365fe f   AlertMain.obj
 0001:0003560a       $L177266                   0043660a f   AlertMain.obj
 0001:00035616       $L177267                   00436616 f   AlertMain.obj
 0001:00035622       $L177268                   00436622 f   AlertMain.obj
 0001:0003562e       $L177269                   0043662e f   AlertMain.obj
 0001:0003563a       $L177270                   0043663a f   AlertMain.obj
 0001:00035646       $L177272                   00436646 f   AlertMain.obj
 0001:00035652       $L177273                   00436652 f   AlertMain.obj
 0001:00035660       $L177274                   00436660 f   AlertMain.obj
 0001:0003566c       $L177275                   0043666c f   AlertMain.obj
 0001:00035678       $L177276                   00436678 f   AlertMain.obj
 0001:00035684       $L177277                   00436684 f   AlertMain.obj
 0001:00035690       $L177278                   00436690 f   AlertMain.obj
 0001:0003569c       $L177280                   0043669c f   AlertMain.obj
 0001:000356a8       $L177281                   004366a8 f   AlertMain.obj
 0001:000356b4       $L177282                   004366b4 f   AlertMain.obj
 0001:000356c0       $L177283                   004366c0 f   AlertMain.obj
 0001:000356cc       $L177284                   004366cc f   AlertMain.obj
 0001:000356d8       $L177285                   004366d8 f   AlertMain.obj
 0001:000356e4       $L177287                   004366e4 f   AlertMain.obj
 0001:000356f0       $L177288                   004366f0 f   AlertMain.obj
 0001:000356fc       $L177289                   004366fc f   AlertMain.obj
 0001:00035708       $L177290                   00436708 f   AlertMain.obj
 0001:00035714       $L177291                   00436714 f   AlertMain.obj
 0001:00035720       $L177292                   00436720 f   AlertMain.obj
 0001:0003572c       $L177294                   0043672c f   AlertMain.obj
 0001:00035738       $L177295                   00436738 f   AlertMain.obj
 0001:00035746       __ehhandler$?ReadAlertObjFromIni@CAlertMain@@AAEXV?$basic_string@DU?$char_traits@D@std@@V?$allocator@D@2@@std@@0@Z 00436746 f   AlertMain.obj
 0001:00035750       $L177742                   00436750 f   AlertMain.obj
 0001:00035759       __ehhandler$?ParserToken@CAlertMain@@SA_NAAV?$list@V?$basic_string@DU?$char_traits@D@std@@V?$allocator@D@2@@std@@V?$allocator@V?$basic_string@DU?$char_traits@D@std@@V?$allocator@D@2@@std@@@2@@std@@PBDPAD@Z 00436759 f   AlertMain.obj
 0001:00035770       $L160181                   00436770 f   AlertMain.obj
 0001:00035770       $L177834                   00436770 f   AlertMain.obj
 0001:00035770       $L160396                   00436770 f   AlertMain.obj
 0001:00035770       $L172764                   00436770 f   AlertMain.obj
 0001:00035779       __ehhandler$?DebugePrint@@YAXV?$basic_string@DU?$char_traits@D@std@@V?$allocator@D@2@@std@@@Z 00436779 f   AlertMain.obj
 0001:00035779       __ehhandler$?GetIntFromAlertType@CAlertMain@@AAEHV?$basic_string@DU?$char_traits@D@std@@V?$allocator@D@2@@std@@@Z 00436779 f   AlertMain.obj
 0001:00035779       __ehhandler$?DeleteCfgFromWatchIniSection@CAlertMain@@SAXV?$basic_string@DU?$char_traits@D@std@@V?$allocator@D@2@@std@@@Z 00436779 f   AlertMain.obj
 0001:00035779       __ehhandler$?DeleteAlertObjFromSection@CAlertMain@@AAEXV?$basic_string@DU?$char_traits@D@std@@V?$allocator@D@2@@std@@@Z 00436779 f   AlertMain.obj
 0001:00035790       $L178267                   00436790 f   AlertMain.obj
 0001:00035799       $L178277                   00436799 f   AlertMain.obj
 0001:000357a2       $L178648                   004367a2 f   AlertMain.obj
 0001:000357ab       __ehhandler$?erase@?$_Tree@V?$_Tmap_traits@V?$basic_string@DU?$char_traits@D@std@@V?$allocator@D@2@@std@@V12@U?$less@V?$basic_string@DU?$char_traits@D@std@@V?$allocator@D@2@@std@@@2@V?$allocator@U?$pair@$$CBV?$basic_string@DU?$char_traits@D@std@@V?$allocator@D@2@@std@@V12@@std@@@2@$0A@@std@@@std@@QAE?AViterator@12@V312@@Z 004367ab f   AlertMain.obj
 0001:000357c0       $L178798                   004367c0 f   AlertMain.obj
 0001:000357c9       $L178799                   004367c9 f   AlertMain.obj
 0001:000357d2       $L178800                   004367d2 f   AlertMain.obj
 0001:000357de       $L178801                   004367de f   AlertMain.obj
 0001:000357ea       $L178802                   004367ea f   AlertMain.obj
 0001:000357f3       $L178803                   004367f3 f   AlertMain.obj
 0001:000357ff       $L178804                   004367ff f   AlertMain.obj
 0001:0003580b       $L178805                   0043680b f   AlertMain.obj
 0001:00035817       $L178806                   00436817 f   AlertMain.obj
 0001:00035823       $L178807                   00436823 f   AlertMain.obj
 0001:0003582f       $L178809                   0043682f f   AlertMain.obj
 0001:00035838       $L178810                   00436838 f   AlertMain.obj
 0001:00035841       $L178811                   00436841 f   AlertMain.obj
 0001:0003584d       $L178812                   0043684d f   AlertMain.obj
 0001:00035859       $L178813                   00436859 f   AlertMain.obj
 0001:00035865       $L178814                   00436865 f   AlertMain.obj
 0001:00035871       $L178815                   00436871 f   AlertMain.obj
 0001:0003587d       $L178817                   0043687d f   AlertMain.obj
 0001:00035886       $L178818                   00436886 f   AlertMain.obj
 0001:00035892       $L178819                   00436892 f   AlertMain.obj
 0001:0003589e       $L178820                   0043689e f   AlertMain.obj
 0001:000358aa       $L178821                   004368aa f   AlertMain.obj
 0001:000358b6       $L178822                   004368b6 f   AlertMain.obj
 0001:000358c2       $L178824                   004368c2 f   AlertMain.obj
 0001:000358cb       $L178825                   004368cb f   AlertMain.obj
 0001:000358d6       $L178826                   004368d6 f   AlertMain.obj
 0001:000358df       $L178827                   004368df f   AlertMain.obj
 0001:000358eb       $L178828                   004368eb f   AlertMain.obj
 0001:000358f7       $L178830                   004368f7 f   AlertMain.obj
 0001:00035900       $L178831                   00436900 f   AlertMain.obj
 0001:0003590c       $L178832                   0043690c f   AlertMain.obj
 0001:00035918       $L178834                   00436918 f   AlertMain.obj
 0001:00035921       $L178835                   00436921 f   AlertMain.obj
 0001:0003592d       $L178836                   0043692d f   AlertMain.obj
 0001:00035939       $L178838                   00436939 f   AlertMain.obj
 0001:00035942       $L178839                   00436942 f   AlertMain.obj
 0001:0003594d       $L178840                   0043694d f   AlertMain.obj
 0001:00035956       $L178841                   00436956 f   AlertMain.obj
 0001:00035962       $L178842                   00436962 f   AlertMain.obj
 0001:0003596e       $L178844                   0043696e f   AlertMain.obj
 0001:0003597a       $L178845                   0043697a f   AlertMain.obj
 0001:00035986       $L178847                   00436986 f   AlertMain.obj
 0001:00035992       $L178848                   00436992 f   AlertMain.obj
 0001:0003599d       $L178849                   0043699d f   AlertMain.obj
 0001:000359a8       $L178850                   004369a8 f   AlertMain.obj
 0001:000359b1       $L178851                   004369b1 f   AlertMain.obj
 0001:000359ba       $L178852                   004369ba f   AlertMain.obj
 0001:000359c6       $L178853                   004369c6 f   AlertMain.obj
 0001:000359d2       $L178854                   004369d2 f   AlertMain.obj
 0001:000359de       $L178855                   004369de f   AlertMain.obj
 0001:000359ea       $L178856                   004369ea f   AlertMain.obj
 0001:000359f6       $L178858                   004369f6 f   AlertMain.obj
 0001:00035a02       $L178859                   00436a02 f   AlertMain.obj
 0001:00035a0e       $L178860                   00436a0e f   AlertMain.obj
 0001:00035a1a       $L178861                   00436a1a f   AlertMain.obj
 0001:00035a26       $L178862                   00436a26 f   AlertMain.obj
 0001:00035a32       __ehhandler$?WebSmsTest@@YA_NV?$basic_string@DU?$char_traits@D@std@@V?$allocator@D@2@@std@@0@Z 00436a32 f   AlertMain.obj
 0001:00035a40       $L179729                   00436a40 f   AlertMain.obj
 0001:00035a49       $L179730                   00436a49 f   AlertMain.obj
 0001:00035a55       $L179731                   00436a55 f   AlertMain.obj
 0001:00035a61       $L179734                   00436a61 f   AlertMain.obj
 0001:00035a6d       $L179735                   00436a6d f   AlertMain.obj
 0001:00035a79       $L179737                   00436a79 f   AlertMain.obj
 0001:00035a85       $L179738                   00436a85 f   AlertMain.obj
 0001:00035a90       $L179740                   00436a90 f   AlertMain.obj
 0001:00035a9c       $L179742                   00436a9c f   AlertMain.obj
 0001:00035aa8       $L179744                   00436aa8 f   AlertMain.obj
 0001:00035ab4       $L179745                   00436ab4 f   AlertMain.obj
 0001:00035ac0       $L179747                   00436ac0 f   AlertMain.obj
 0001:00035acc       $L179748                   00436acc f   AlertMain.obj
 0001:00035ad7       $L179750                   00436ad7 f   AlertMain.obj
 0001:00035ae3       $L179751                   00436ae3 f   AlertMain.obj
 0001:00035aef       $L179752                   00436aef f   AlertMain.obj
 0001:00035afb       $L179754                   00436afb f   AlertMain.obj
 0001:00035b07       $L179755                   00436b07 f   AlertMain.obj
 0001:00035b13       $L179756                   00436b13 f   AlertMain.obj
 0001:00035b1f       $L179758                   00436b1f f   AlertMain.obj
 0001:00035b2b       __ehhandler$?IsScheduleMatch@CAlertMain@@SA_NV?$basic_string@DU?$char_traits@D@std@@V?$allocator@D@2@@std@@@Z 00436b2b f   AlertMain.obj
 0001:00035b40       $L180530                   00436b40 f   AlertMain.obj
 0001:00035b49       $L180531                   00436b49 f   AlertMain.obj
 0001:00035b55       $L180532                   00436b55 f   AlertMain.obj
 0001:00035b61       $L180533                   00436b61 f   AlertMain.obj
 0001:00035b6d       $L180534                   00436b6d f   AlertMain.obj
 0001:00035b79       $L180535                   00436b79 f   AlertMain.obj
 0001:00035b85       $L180537                   00436b85 f   AlertMain.obj
 0001:00035b91       $L180538                   00436b91 f   AlertMain.obj
 0001:00035b9d       $L180539                   00436b9d f   AlertMain.obj
 0001:00035ba9       $L180540                   00436ba9 f   AlertMain.obj
 0001:00035bb5       $L180541                   00436bb5 f   AlertMain.obj
 0001:00035bc1       $L180542                   00436bc1 f   AlertMain.obj
 0001:00035bcd       $L180544                   00436bcd f   AlertMain.obj
 0001:00035bd6       $L180547                   00436bd6 f   AlertMain.obj
 0001:00035be1       $L180548                   00436be1 f   AlertMain.obj
 0001:00035bed       $L180549                   00436bed f   AlertMain.obj
 0001:00035bf9       $L180550                   00436bf9 f   AlertMain.obj
 0001:00035c05       $L180839                   00436c05 f   AlertMain.obj
 0001:00035c11       $L180840                   00436c11 f   AlertMain.obj
 0001:00035c1a       $L180841                   00436c1a f   AlertMain.obj
 0001:00035c23       $L180552                   00436c23 f   AlertMain.obj
 0001:00035c2e       $L180553                   00436c2e f   AlertMain.obj
 0001:00035c3a       $L180554                   00436c3a f   AlertMain.obj
 0001:00035c46       $L180555                   00436c46 f   AlertMain.obj
 0001:00035c52       $L180556                   00436c52 f   AlertMain.obj
 0001:00035c5e       $L180557                   00436c5e f   AlertMain.obj
 0001:00035c6a       $L180558                   00436c6a f   AlertMain.obj
 0001:00035c76       $L180560                   00436c76 f   AlertMain.obj
 0001:00035c82       $L180562                   00436c82 f   AlertMain.obj
 0001:00035c8d       __ehhandler$?ReadCfgFromWatchIniSection@CAlertMain@@SAXV?$basic_string@DU?$char_traits@D@std@@V?$allocator@D@2@@std@@@Z 00436c8d f   AlertMain.obj
 0001:00035ca0       $L185429                   00436ca0 f   AlertMain.obj
 0001:00035ca9       $L185430                   00436ca9 f   AlertMain.obj
 0001:00035cb5       $L185431                   00436cb5 f   AlertMain.obj
 0001:00035cc1       $L185432                   00436cc1 f   AlertMain.obj
 0001:00035ccd       $L185433                   00436ccd f   AlertMain.obj
 0001:00035cd9       $L185434                   00436cd9 f   AlertMain.obj
 0001:00035ce5       $L185436                   00436ce5 f   AlertMain.obj
 0001:00035cf1       $L185437                   00436cf1 f   AlertMain.obj
 0001:00035d11       __ehhandler$?GetCfgFromWatchList@CAlertMain@@SA?AV?$basic_string@DU?$char_traits@D@std@@V?$allocator@D@2@@std@@V23@_N@Z 00436d11 f   AlertMain.obj
 0001:00035d20       $L186437                   00436d20 f   AlertMain.obj
 0001:00035d2c       $L186438                   00436d2c f   AlertMain.obj
 0001:00035d38       $L186440                   00436d38 f   AlertMain.obj
 0001:00035d44       $L186441                   00436d44 f   AlertMain.obj
 0001:00035d50       $L186442                   00436d50 f   AlertMain.obj
 0001:00035d5b       $L186443                   00436d5b f   AlertMain.obj
 0001:00035d67       $L186445                   00436d67 f   AlertMain.obj
 0001:00035d72       $L186446                   00436d72 f   AlertMain.obj
 0001:00035d7e       $L186447                   00436d7e f   AlertMain.obj
 0001:00035d8a       $L186448                   00436d8a f   AlertMain.obj
 0001:00035d96       $L186449                   00436d96 f   AlertMain.obj
 0001:00035da2       $L186450                   00436da2 f   AlertMain.obj
 0001:00035dae       $L186451                   00436dae f   AlertMain.obj
 0001:00035dba       $L186453                   00436dba f   AlertMain.obj
 0001:00035dc6       $L186454                   00436dc6 f   AlertMain.obj
 0001:00035dd2       $L186455                   00436dd2 f   AlertMain.obj
 0001:00035dde       $L186456                   00436dde f   AlertMain.obj
 0001:00035dea       $L186457                   00436dea f   AlertMain.obj
 0001:00035df6       $L186459                   00436df6 f   AlertMain.obj
 0001:00035e02       $L186460                   00436e02 f   AlertMain.obj
 0001:00035e0e       $L186461                   00436e0e f   AlertMain.obj
 0001:00035e1a       $L186462                   00436e1a f   AlertMain.obj
 0001:00035e26       $L186463                   00436e26 f   AlertMain.obj
 0001:00035e32       $L186465                   00436e32 f   AlertMain.obj
 0001:00035e3e       $L186466                   00436e3e f   AlertMain.obj
 0001:00035e4a       $L186467                   00436e4a f   AlertMain.obj
 0001:00035e56       $L186468                   00436e56 f   AlertMain.obj
 0001:00035e62       $L186469                   00436e62 f   AlertMain.obj
 0001:00035e6e       $L186471                   00436e6e f   AlertMain.obj
 0001:00035e7a       $L186472                   00436e7a f   AlertMain.obj
 0001:00035e85       $L186473                   00436e85 f   AlertMain.obj
 0001:00035e91       $L186474                   00436e91 f   AlertMain.obj
 0001:00035e9d       $L186476                   00436e9d f   AlertMain.obj
 0001:00035ea9       $L186477                   00436ea9 f   AlertMain.obj
 0001:00035eb5       $L186478                   00436eb5 f   AlertMain.obj
 0001:00035ec1       $L186479                   00436ec1 f   AlertMain.obj
 0001:00035ecc       $L186480                   00436ecc f   AlertMain.obj
 0001:00035ed8       $L186481                   00436ed8 f   AlertMain.obj
 0001:00035ee4       $L186482                   00436ee4 f   AlertMain.obj
 0001:00035ef0       $L186484                   00436ef0 f   AlertMain.obj
 0001:00035efc       $L186486                   00436efc f   AlertMain.obj
 0001:00035f08       $L186488                   00436f08 f   AlertMain.obj
 0001:00035f14       $L186498                   00436f14 f   AlertMain.obj
 0001:00035f1f       $L186499                   00436f1f f   AlertMain.obj
 0001:00035f2d       $L186500                   00436f2d f   AlertMain.obj
 0001:00035f39       $L186501                   00436f39 f   AlertMain.obj
 0001:00035f45       $L186502                   00436f45 f   AlertMain.obj
 0001:00035f51       $L186503                   00436f51 f   AlertMain.obj
 0001:00035f5d       $L186504                   00436f5d f   AlertMain.obj
 0001:00035f69       $L186505                   00436f69 f   AlertMain.obj
 0001:00035f75       $L186506                   00436f75 f   AlertMain.obj
 0001:00035f81       $L186507                   00436f81 f   AlertMain.obj
 0001:00035f8d       $L186509                   00436f8d f   AlertMain.obj
 0001:00035f99       $L186510                   00436f99 f   AlertMain.obj
 0001:00035fa5       $L186511                   00436fa5 f   AlertMain.obj
 0001:00035fb1       $L186512                   00436fb1 f   AlertMain.obj
 0001:00035fbd       __ehhandler$?DoReceive@CAlertMain@@QAEXXZ 00436fbd f   AlertMain.obj
 0001:00035fd0       $L190253                   00436fd0 f   AlertMain.obj
 0001:00035fd8       $L190254                   00436fd8 f   AlertMain.obj
 0001:00035fe1       $L190255                   00436fe1 f   AlertMain.obj
 0001:00035fe9       $L190256                   00436fe9 f   AlertMain.obj
 0001:00035ff1       $L190257                   00436ff1 f   AlertMain.obj
 0001:00035ffa       $L190258                   00436ffa f   AlertMain.obj
 0001:00036003       $L190259                   00437003 f   AlertMain.obj
 0001:0003600c       $L190261                   0043700c f   AlertMain.obj
 0001:00036015       $L190262                   00437015 f   AlertMain.obj
 0001:0003601e       $L190264                   0043701e f   AlertMain.obj
 0001:00036027       $L190930                   00437027 f   AlertMain.obj
 0001:00036030       $L190266                   00437030 f   AlertMain.obj
 0001:00036039       $L190267                   00437039 f   AlertMain.obj
 0001:00036042       __ehhandler$?InitAlertObjList@CAlertMain@@AAEXXZ 00437042 f   AlertMain.obj
 0001:00036050       $L192065                   00437050 f   AlertMain.obj
 0001:0003605c       $L192067                   0043705c f   AlertMain.obj
 0001:00036068       $L192075                   00437068 f   AlertMain.obj
 0001:00036074       $L192082                   00437074 f   AlertMain.obj
 0001:00036080       $L192089                   00437080 f   AlertMain.obj
 0001:0003608c       $L192090                   0043708c f   AlertMain.obj
 0001:00036095       $L192091                   00437095 f   AlertMain.obj
 0001:0003609e       $L192092                   0043709e f   AlertMain.obj
 0001:000360aa       $L192093                   004370aa f   AlertMain.obj
 0001:000360b6       $L192095                   004370b6 f   AlertMain.obj
 0001:000360c2       $L192096                   004370c2 f   AlertMain.obj
 0001:000360ce       $L192098                   004370ce f   AlertMain.obj
 0001:000360d7       $L192099                   004370d7 f   AlertMain.obj
 0001:000360e3       $L192100                   004370e3 f   AlertMain.obj
 0001:000360ef       $L192101                   004370ef f   AlertMain.obj
 0001:000360fb       $L192102                   004370fb f   AlertMain.obj
 0001:00036107       $L192103                   00437107 f   AlertMain.obj
 0001:00036113       $L192105                   00437113 f   AlertMain.obj
 0001:0003611c       $L192106                   0043711c f   AlertMain.obj
 0001:00036128       $L192107                   00437128 f   AlertMain.obj
 0001:00036134       $L192108                   00437134 f   AlertMain.obj
 0001:00036140       $L192109                   00437140 f   AlertMain.obj
 0001:0003614c       $L192110                   0043714c f   AlertMain.obj
 0001:00036158       $L192112                   00437158 f   AlertMain.obj
 0001:00036161       $L192113                   00437161 f   AlertMain.obj
 0001:0003616d       $L192114                   0043716d f   AlertMain.obj
 0001:00036179       $L192115                   00437179 f   AlertMain.obj
 0001:00036185       $L192116                   00437185 f   AlertMain.obj
 0001:00036191       $L192117                   00437191 f   AlertMain.obj
 0001:0003619d       $L192119                   0043719d f   AlertMain.obj
 0001:000361a6       $L192120                   004371a6 f   AlertMain.obj
 0001:000361b2       $L192121                   004371b2 f   AlertMain.obj
 0001:000361be       $L192122                   004371be f   AlertMain.obj
 0001:000361ca       $L192123                   004371ca f   AlertMain.obj
 0001:000361d6       $L192124                   004371d6 f   AlertMain.obj
 0001:000361e2       $L192126                   004371e2 f   AlertMain.obj
 0001:000361eb       $L192127                   004371eb f   AlertMain.obj
 0001:000361f9       $L192128                   004371f9 f   AlertMain.obj
 0001:00036207       $L192129                   00437207 f   AlertMain.obj
 0001:00036215       $L192130                   00437215 f   AlertMain.obj
 0001:00036223       $L192131                   00437223 f   AlertMain.obj
 0001:00036231       $L192132                   00437231 f   AlertMain.obj
 0001:0003623f       $L192133                   0043723f f   AlertMain.obj
 0001:0003624d       $L192134                   0043724d f   AlertMain.obj
 0001:0003625b       __ehhandler$?Init@CAlertMain@@QAE_NXZ 0043725b f   AlertMain.obj
 0001:00036270       $L192765                   00437270 f   AlertMain.obj
 0001:0003627b       $L192766                   0043727b f   AlertMain.obj
 0001:00036286       $L192767                   00437286 f   AlertMain.obj
 0001:00036291       $L192768                   00437291 f   AlertMain.obj
 0001:0003629d       $L192769                   0043729d f   AlertMain.obj
 0001:000362ab       $L192770                   004372ab f   AlertMain.obj
 0001:000362b9       $L192771                   004372b9 f   AlertMain.obj
 0001:000362c7       $L192772                   004372c7 f   AlertMain.obj
 0001:000362d5       $L192773                   004372d5 f   AlertMain.obj
 0001:000362e3       $L192774                   004372e3 f   AlertMain.obj
 0001:000362f1       $L192775                   004372f1 f   AlertMain.obj
 0001:000362ff       $L192776                   004372ff f   AlertMain.obj
 0001:0003630d       $L192777                   0043730d f   AlertMain.obj
 0001:0003631b       __ehhandler$??1CAlertMain@@QAE@XZ 0043731b f   AlertMain.obj
 0001:00036330       $L193492                   00437330 f   AlertMain.obj
 0001:0003633b       $L193493                   0043733b f   AlertMain.obj
 0001:00036346       $L193494                   00437346 f   AlertMain.obj
 0001:00036351       $L193495                   00437351 f   AlertMain.obj
 0001:0003635d       $L193496                   0043735d f   AlertMain.obj
 0001:0003636b       $L193497                   0043736b f   AlertMain.obj
 0001:00036379       $L193498                   00437379 f   AlertMain.obj
 0001:00036387       $L193499                   00437387 f   AlertMain.obj
 0001:00036395       $L193500                   00437395 f   AlertMain.obj
 0001:000363a3       $L193501                   004373a3 f   AlertMain.obj
 0001:000363b1       $L193502                   004373b1 f   AlertMain.obj
 0001:000363bf       $L193503                   004373bf f   AlertMain.obj
 0001:000363cd       __ehhandler$??0CAlertMain@@QAE@XZ 004373cd f   AlertMain.obj
 0001:000363e0       $L184535                   004373e0 f   AlertSendObj.obj
 0001:000363e9       __ehhandler$?buildbuf@@YAPADV?$basic_string@DU?$char_traits@D@std@@V?$allocator@D@2@@std@@PADH@Z 004373e9 f   AlertSendObj.obj
 0001:00036400       $L184607                   00437400 f   AlertSendObj.obj
 0001:00036400       $L184626                   00437400 f   AlertSendObj.obj
 0001:0003640c       $L184608                   0043740c f   AlertSendObj.obj
 0001:0003640c       $L184627                   0043740c f   AlertSendObj.obj
 0001:00036418       $L184609                   00437418 f   AlertSendObj.obj
 0001:00036418       $L184628                   00437418 f   AlertSendObj.obj
 0001:00036424       $L184610                   00437424 f   AlertSendObj.obj
 0001:00036424       $L184629                   00437424 f   AlertSendObj.obj
 0001:00036430       $L184630                   00437430 f   AlertSendObj.obj
 0001:00036430       $L184611                   00437430 f   AlertSendObj.obj
 0001:0003643f       __ehhandler$??0CAlertSendObj@@QAE@XZ 0043743f f   AlertSendObj.obj
 0001:0003643f       __ehhandler$??1CAlertSendObj@@UAE@XZ 0043743f f   AlertSendObj.obj
 0001:00036450       $L184650                   00437450 f   AlertSendObj.obj
 0001:00036450       $L187909                   00437450 f   AlertSendObj.obj
 0001:00036450       $L184662                   00437450 f   AlertSendObj.obj
 0001:00036459       $L184651                   00437459 f   AlertSendObj.obj
 0001:00036459       $L187910                   00437459 f   AlertSendObj.obj
 0001:00036459       $L184663                   00437459 f   AlertSendObj.obj
 0001:00036465       __ehhandler$??0SendInfo@@QAE@XZ 00437465 f   AlertSendObj.obj
 0001:00036465       __ehhandler$??0SendInfo@@QAE@ABU0@@Z 00437465 f   AlertSendObj.obj
 0001:00036465       __ehhandler$??1SendInfo@@QAE@XZ 00437465 f   AlertSendObj.obj
 0001:00036470       $L184684                   00437470 f   AlertSendObj.obj
 0001:00036479       $L184685                   00437479 f   AlertSendObj.obj
 0001:00036482       $L184686                   00437482 f   AlertSendObj.obj
 0001:0003648b       $L184688                   0043748b f   AlertSendObj.obj
 0001:00036494       $L184690                   00437494 f   AlertSendObj.obj
 0001:0003649d       $L184692                   0043749d f   AlertSendObj.obj
 0001:000364a6       __ehhandler$?ToChinese@CAlertEmailSendObj@@AAE_NAAV?$basic_string@DU?$char_traits@D@std@@V?$allocator@D@2@@std@@V23@@Z 004374a6 f   AlertSendObj.obj
 0001:000364b0       $L184926                   004374b0 f   AlertSendObj.obj
 0001:000364bc       $L184927                   004374bc f   AlertSendObj.obj
 0001:000364c8       $L184928                   004374c8 f   AlertSendObj.obj
 0001:000364d4       $L184929                   004374d4 f   AlertSendObj.obj
 0001:000364e0       $L184930                   004374e0 f   AlertSendObj.obj
 0001:000364ec       $L184931                   004374ec f   AlertSendObj.obj
 0001:000364f8       $L184932                   004374f8 f   AlertSendObj.obj
 0001:00036504       $L184933                   00437504 f   AlertSendObj.obj
 0001:00036510       $L184934                   00437510 f   AlertSendObj.obj
 0001:0003651c       $L184936                   0043751c f   AlertSendObj.obj
 0001:00036528       $L184937                   00437528 f   AlertSendObj.obj
 0001:00036534       $L184938                   00437534 f   AlertSendObj.obj
 0001:00036540       $L184939                   00437540 f   AlertSendObj.obj
 0001:0003654c       $L184940                   0043754c f   AlertSendObj.obj
 0001:00036558       $L184941                   00437558 f   AlertSendObj.obj
 0001:00036564       $L184942                   00437564 f   AlertSendObj.obj
 0001:00036570       $L184944                   00437570 f   AlertSendObj.obj
 0001:0003657c       $L184945                   0043757c f   AlertSendObj.obj
 0001:00036588       $L184946                   00437588 f   AlertSendObj.obj
 0001:00036594       $L184947                   00437594 f   AlertSendObj.obj
 0001:000365a0       $L184948                   004375a0 f   AlertSendObj.obj
 0001:000365ac       $L184949                   004375ac f   AlertSendObj.obj
 0001:000365b8       $L184951                   004375b8 f   AlertSendObj.obj
 0001:000365c4       $L184952                   004375c4 f   AlertSendObj.obj
 0001:000365cf       $L184953                   004375cf f   AlertSendObj.obj
 0001:000365db       $L184954                   004375db f   AlertSendObj.obj
 0001:000365e7       $L184955                   004375e7 f   AlertSendObj.obj
 0001:000365f3       $L184956                   004375f3 f   AlertSendObj.obj
 0001:000365ff       $L184957                   004375ff f   AlertSendObj.obj
 0001:0003660b       $L184959                   0043760b f   AlertSendObj.obj
 0001:00036617       $L184960                   00437617 f   AlertSendObj.obj
 0001:00036623       $L184961                   00437623 f   AlertSendObj.obj
 0001:0003662f       $L184962                   0043762f f   AlertSendObj.obj
 0001:0003663b       $L184964                   0043763b f   AlertSendObj.obj
 0001:00036647       $L184965                   00437647 f   AlertSendObj.obj
 0001:00036653       $L184966                   00437653 f   AlertSendObj.obj
 0001:0003665f       $L184968                   0043765f f   AlertSendObj.obj
 0001:0003666b       $L184969                   0043766b f   AlertSendObj.obj
 0001:00036677       $L184970                   00437677 f   AlertSendObj.obj
 0001:00036683       $L184972                   00437683 f   AlertSendObj.obj
 0001:0003668f       $L184973                   0043768f f   AlertSendObj.obj
 0001:0003669b       $L184974                   0043769b f   AlertSendObj.obj
 0001:000366a7       $L184975                   004376a7 f   AlertSendObj.obj
 0001:000366b3       $L184976                   004376b3 f   AlertSendObj.obj
 0001:000366bf       $L184977                   004376bf f   AlertSendObj.obj
 0001:000366cb       $L184978                   004376cb f   AlertSendObj.obj
 0001:000366d7       $L184980                   004376d7 f   AlertSendObj.obj
 0001:000366e3       __ehhandler$?SendSmsFromWeb@CAlertSmsSendObj@@QAE_NXZ 004376e3 f   AlertSendObj.obj
 0001:000366f0       $L185278                   004376f0 f   AlertSendObj.obj
 0001:000366f0       $L185294                   004376f0 f   AlertSendObj.obj
 0001:000366f8       $L185279                   004376f8 f   AlertSendObj.obj
 0001:000366f8       $L185295                   004376f8 f   AlertSendObj.obj
 0001:00036707       $L185296                   00437707 f   AlertSendObj.obj
 0001:00036707       $L185280                   00437707 f   AlertSendObj.obj
 0001:00036716       $L185281                   00437716 f   AlertSendObj.obj
 0001:00036716       $L185297                   00437716 f   AlertSendObj.obj
 0001:00036725       $L185282                   00437725 f   AlertSendObj.obj
 0001:00036725       $L185298                   00437725 f   AlertSendObj.obj
 0001:00036734       $L185283                   00437734 f   AlertSendObj.obj
 0001:00036734       $L185299                   00437734 f   AlertSendObj.obj
 0001:00036743       __ehhandler$??1CAlertScriptSendObj@@UAE@XZ 00437743 f   AlertSendObj.obj
 0001:00036743       __ehhandler$??0CAlertScriptSendObj@@QAE@XZ 00437743 f   AlertSendObj.obj
 0001:00036750       $L185317                   00437750 f   AlertSendObj.obj
 0001:0003675c       $L185318                   0043775c f   AlertSendObj.obj
 0001:00036768       $L185319                   00437768 f   AlertSendObj.obj
 0001:00036774       $L185321                   00437774 f   AlertSendObj.obj
 0001:00036780       $L185325                   00437780 f   AlertSendObj.obj
 0001:0003678b       __ehhandler$?GetUserInfoFromServer@CAlertScriptSendObj@@QAEXXZ 0043778b f   AlertSendObj.obj
 0001:000367a0       $L185416                   004377a0 f   AlertSendObj.obj
 0001:000367a9       $L185417                   004377a9 f   AlertSendObj.obj
 0001:000367b2       $L185418                   004377b2 f   AlertSendObj.obj
 0001:000367bb       $L185419                   004377bb f   AlertSendObj.obj
 0001:000367c4       $L185420                   004377c4 f   AlertSendObj.obj
 0001:000367cd       __ehhandler$?DoMsgBeep@CAlertSoundSendObj@@QAE?AV?$CStringT@DV?$StrTraitMFC_DLL@DV?$ChTraitsCRT@D@ATL@@@@@ATL@@XZ 004377cd f   AlertSendObj.obj
 0001:000367e0       $L185390                   004377e0 f   AlertSendObj.obj
 0001:000367e0       $L185403                   004377e0 f   AlertSendObj.obj
 0001:000367e0       $L185481                   004377e0 f   AlertSendObj.obj
 0001:000367e0       $L185494                   004377e0 f   AlertSendObj.obj
 0001:000367e8       $L185482                   004377e8 f   AlertSendObj.obj
 0001:000367e8       $L185391                   004377e8 f   AlertSendObj.obj
 0001:000367e8       $L185495                   004377e8 f   AlertSendObj.obj
 0001:000367e8       $L185404                   004377e8 f   AlertSendObj.obj
 0001:000367f7       $L185392                   004377f7 f   AlertSendObj.obj
 0001:000367f7       $L185483                   004377f7 f   AlertSendObj.obj
 0001:000367f7       $L185496                   004377f7 f   AlertSendObj.obj
 0001:000367f7       $L185405                   004377f7 f   AlertSendObj.obj
 0001:00036806       __ehhandler$??0CAlertSoundSendObj@@QAE@XZ 00437806 f   AlertSendObj.obj
 0001:00036806       __ehhandler$??1CAlertPythonSendObj@@UAE@XZ 00437806 f   AlertSendObj.obj
 0001:00036806       __ehhandler$??0CAlertPythonSendObj@@QAE@XZ 00437806 f   AlertSendObj.obj
 0001:00036806       __ehhandler$??1CAlertSoundSendObj@@UAE@XZ 00437806 f   AlertSendObj.obj
 0001:00036810       $L185993                   00437810 f   AlertSendObj.obj
 0001:00036819       __ehhandler$??HATL@@YA?AV?$CStringT@DV?$StrTraitMFC_DLL@DV?$ChTraitsCRT@D@ATL@@@@@0@ABV10@PBD@Z 00437819 f   AlertSendObj.obj
 0001:00036830       $L186025                   00437830 f   AlertSendObj.obj
 0001:00036839       __ehhandler$??HATL@@YA?AV?$CStringT@DV?$StrTraitMFC_DLL@DV?$ChTraitsCRT@D@ATL@@@@@0@PBDABV10@@Z 00437839 f   AlertSendObj.obj
 0001:00036850       $L188474                   00437850 f   AlertSendObj.obj
 0001:00036850       $L184738                   00437850 f   AlertSendObj.obj
 0001:00036850       $L186529                   00437850 f   AlertSendObj.obj
 0001:00036850       $L184727                   00437850 f   AlertSendObj.obj
 0001:00036850       $L187921                   00437850 f   AlertSendObj.obj
 0001:00036859       __ehhandler$??0?$pair@$$CBV?$basic_string@DU?$char_traits@D@std@@V?$allocator@D@2@@std@@V12@@std@@QAE@ABU01@@Z 00437859 f   AlertSendObj.obj
 0001:00036859       __ehhandler$??1SMSInfo@@QAE@XZ 00437859 f   AlertSendObj.obj
 0001:00036859       __ehhandler$??0SMSInfo@@QAE@ABU0@@Z 00437859 f   AlertSendObj.obj
 0001:00036859       __ehhandler$??0?$pair@$$CBV?$basic_string@DU?$char_traits@D@std@@V?$allocator@D@2@@std@@V12@@std@@QAE@ABV?$basic_string@DU?$char_traits@D@std@@V?$allocator@D@2@@1@0@Z 00437859 f   AlertSendObj.obj
 0001:00036859       __ehhandler$??0SMSInfo@@QAE@XZ 00437859 f   AlertSendObj.obj
 0001:00036870       $L206931                   00437870 f   AlertSendObj.obj
 0001:00036870       $L198916                   00437870 f   AlertSendObj.obj
 0001:00036870       $L210456                   00437870 f   AlertSendObj.obj
 0001:00036870       $L202217                   00437870 f   AlertSendObj.obj
 0001:00036870       $L187085                   00437870 f   AlertSendObj.obj
 0001:00036870       $L187060                   00437870 f   AlertSendObj.obj
 0001:00036870       $L199013                   00437870 f   AlertSendObj.obj
 0001:00036879       $L187064                   00437879 f   AlertSendObj.obj
 0001:00036879       $L199033                   00437879 f   AlertSendObj.obj
 0001:00036879       $L206941                   00437879 f   AlertSendObj.obj
 0001:00036879       $L187089                   00437879 f   AlertSendObj.obj
 0001:00036879       $L202237                   00437879 f   AlertSendObj.obj
 0001:00036879       $L198936                   00437879 f   AlertSendObj.obj
 0001:00036879       $L210466                   00437879 f   AlertSendObj.obj
 0001:00036882       __ehhandler$?_Incsize@?$list@USendInfo@@V?$allocator@USendInfo@@@std@@@std@@IAEXI@Z 00437882 f   AlertSendObj.obj
 0001:00036882       __ehhandler$?_Incsize@?$list@USMSInfo@@V?$allocator@USMSInfo@@@std@@@std@@IAEXI@Z 00437882 f   AlertSendObj.obj
 0001:00036882       __ehhandler$?erase@?$_Tree@V?$_Tmap_traits@V?$basic_string@DU?$char_traits@D@std@@V?$allocator@D@2@@std@@KU?$less@V?$basic_string@DU?$char_traits@D@std@@V?$allocator@D@2@@std@@@2@V?$allocator@U?$pair@$$CBV?$basic_string@DU?$char_traits@D@std@@V?$allocator@D@2@@std@@K@std@@@2@$0A@@std@@@std@@QAE?AViterator@12@V312@@Z 00437882 f   AlertSendObj.obj
 0001:00036882       __ehhandler$?_Xlen@?$vector@V?$basic_string@DU?$char_traits@D@std@@V?$allocator@D@2@@std@@V?$allocator@V?$basic_string@DU?$char_traits@D@std@@V?$allocator@D@2@@std@@@2@@std@@IBEXXZ 00437882 f   AlertSendObj.obj
 0001:00036882       __ehhandler$?_Xlen@?$vector@HV?$allocator@H@std@@@std@@IBEXXZ 00437882 f   AlertSendObj.obj
 0001:00036882       __ehhandler$?_Insert@?$_Tree@V?$_Tmap_traits@V?$basic_string@DU?$char_traits@D@std@@V?$allocator@D@2@@std@@V12@U?$less@V?$basic_string@DU?$char_traits@D@std@@V?$allocator@D@2@@std@@@2@V?$allocator@U?$pair@$$CBV?$basic_string@DU?$char_traits@D@std@@V?$allocator@D@2@@std@@V12@@std@@@2@$0A@@std@@@std@@IAE?AViterator@12@_NPAU_Node@?$_Tree_nod@V?$_Tmap_traits@V?$basic_string@DU?$char_traits@D@std@@V?$allocator@D@2@@std@@V12@U?$less@V?$basic_string@DU?$char_traits@D@std@@V?$allocator@D@2@@std@@@2@V?$allocator@U?$pair@$$CBV?$basic_string@DU?$char_traits@D@std@@V?$allocator@D@2@@std@@V12@@std@@@2@$0A@@std@@@2@ABU?$pair@$$CBV?$basic_string@DU?$char_traits@D@std@@V?$allocator@D@2@@std@@V12@@2@@Z 00437882 f   AlertSendObj.obj
 0001:00036882       __ehhandler$?erase@?$_Tree@V?$_Tmap_traits@HV?$basic_string@DU?$char_traits@D@std@@V?$allocator@D@2@@std@@U?$less@H@2@V?$allocator@U?$pair@$$CBHV?$basic_string@DU?$char_traits@D@std@@V?$allocator@D@2@@std@@@std@@@2@$0A@@std@@@std@@QAE?AViterator@12@V312@@Z 00437882 f   AlertSendObj.obj
 0001:00036890       $L187305                   00437890 f   AlertSendObj.obj
 0001:0003689b       __ehhandler$??0?$otl_auto_array_ptr@Votl_column_desc@@@@QAE@H@Z 0043789b f   AlertSendObj.obj
 0001:000368b0       $L187324                   004378b0 f   AlertSendObj.obj
 0001:000368bb       __ehhandler$?double_size@?$otl_auto_array_ptr@Votl_column_desc@@@@QAEXXZ 004378bb f   AlertSendObj.obj
 0001:000368d0       $L189285                   004378d0 f   AlertSendObj.obj
 0001:000368d8       __ehhandler$??0otl_stream_shell@@QAE@H@Z 004378d8 f   AlertSendObj.obj
 0001:000368f0       $L189334                   004378f0 f   AlertSendObj.obj
 0001:000368f8       $L189335                   004378f8 f   AlertSendObj.obj
 0001:00036903       __ehhandler$??1otl_stream_shell@@UAE@XZ 00437903 f   AlertSendObj.obj
 0001:00036910       $L189410                   00437910 f   AlertSendObj.obj
 0001:0003691b       $L189411                   0043791b f   AlertSendObj.obj
 0001:00036926       $L189412                   00437926 f   AlertSendObj.obj
 0001:00036931       $L189413                   00437931 f   AlertSendObj.obj
 0001:0003693c       __ehhandler$?create_var_desc@otl_stream@@QAEXXZ 0043793c f   AlertSendObj.obj
 0001:00036950       $L189472                   00437950 f   AlertSendObj.obj
 0001:0003695b       __ehhandler$?init_stream@otl_stream@@QAEXXZ 0043795b f   AlertSendObj.obj
 0001:00036970       __ehhandler$?intern_cleanup@otl_stream@@QAEXXZ 00437970 f   AlertSendObj.obj
 0001:00036980       $L189696                   00437980 f   AlertSendObj.obj
 0001:0003698c       $L189697                   0043798c f   AlertSendObj.obj
 0001:00036998       $L189698                   00437998 f   AlertSendObj.obj
 0001:000369a1       $L189699                   004379a1 f   AlertSendObj.obj
 0001:000369aa       $L189700                   004379aa f   AlertSendObj.obj
 0001:000369b3       $L189701                   004379b3 f   AlertSendObj.obj
 0001:000369bc       $L189702                   004379bc f   AlertSendObj.obj
 0001:000369c5       $L189709                   004379c5 f   AlertSendObj.obj
 0001:000369d1       $L189710                   004379d1 f   AlertSendObj.obj
 0001:000369dd       __ehhandler$?InsertRecord@@YA_NV?$basic_string@DU?$char_traits@D@std@@V?$allocator@D@2@@std@@000000HH@Z 004379dd f   AlertSendObj.obj
 0001:000369f0       $L189792                   004379f0 f   AlertSendObj.obj
 0001:000369fc       $L189793                   004379fc f   AlertSendObj.obj
 0001:00036a08       $L189794                   00437a08 f   AlertSendObj.obj
 0001:00036a14       $L189795                   00437a14 f   AlertSendObj.obj
 0001:00036a1d       $L189796                   00437a1d f   AlertSendObj.obj
 0001:00036a26       $L189797                   00437a26 f   AlertSendObj.obj
 0001:00036a2f       $L189798                   00437a2f f   AlertSendObj.obj
 0001:00036a38       $L189799                   00437a38 f   AlertSendObj.obj
 0001:00036a41       $L189807                   00437a41 f   AlertSendObj.obj
 0001:00036a4d       $L189808                   00437a4d f   AlertSendObj.obj
 0001:00036a59       __ehhandler$?InsertRecord@@YA_NV?$basic_string@DU?$char_traits@D@std@@V?$allocator@D@2@@std@@0000000HH@Z 00437a59 f   AlertSendObj.obj
 0001:00036a70       $L189881                   00437a70 f   AlertSendObj.obj
 0001:00036a79       $L189883                   00437a79 f   AlertSendObj.obj
 0001:00036a82       $L189885                   00437a82 f   AlertSendObj.obj
 0001:00036a8b       $L189886                   00437a8b f   AlertSendObj.obj
 0001:00036a94       $L189887                   00437a94 f   AlertSendObj.obj
 0001:00036a9d       $L189888                   00437a9d f   AlertSendObj.obj
 0001:00036aa6       $L189889                   00437aa6 f   AlertSendObj.obj
 0001:00036aaf       $L189890                   00437aaf f   AlertSendObj.obj
 0001:00036ab8       $L189891                   00437ab8 f   AlertSendObj.obj
 0001:00036ac1       __ehhandler$?InsertRecord@CAlertSendObj@@QAEXV?$basic_string@DU?$char_traits@D@std@@V?$allocator@D@2@@std@@HH@Z 00437ac1 f   AlertSendObj.obj
 0001:00036ad0       $L189917                   00437ad0 f   AlertSendObj.obj
 0001:00036ad9       $L189918                   00437ad9 f   AlertSendObj.obj
 0001:00036ae2       $L189920                   00437ae2 f   AlertSendObj.obj
 0001:00036aeb       $L189922                   00437aeb f   AlertSendObj.obj
 0001:00036af4       $L189923                   00437af4 f   AlertSendObj.obj
 0001:00036afd       $L189924                   00437afd f   AlertSendObj.obj
 0001:00036b06       $L189925                   00437b06 f   AlertSendObj.obj
 0001:00036b0f       $L189926                   00437b0f f   AlertSendObj.obj
 0001:00036b18       $L189927                   00437b18 f   AlertSendObj.obj
 0001:00036b21       $L189928                   00437b21 f   AlertSendObj.obj
 0001:00036b2a       $L189929                   00437b2a f   AlertSendObj.obj
 0001:00036b33       __ehhandler$?InsertRecord@CAlertSendObj@@QAEXV?$basic_string@DU?$char_traits@D@std@@V?$allocator@D@2@@std@@0HH@Z 00437b33 f   AlertSendObj.obj
 0001:00036b40       $L190105                   00437b40 f   AlertSendObj.obj
 0001:00036b4c       $L190107                   00437b4c f   AlertSendObj.obj
 0001:00036b55       $L190108                   00437b55 f   AlertSendObj.obj
 0001:00036b61       $L190109                   00437b61 f   AlertSendObj.obj
 0001:00036b6d       $L190110                   00437b6d f   AlertSendObj.obj
 0001:00036b79       $L190111                   00437b79 f   AlertSendObj.obj
 0001:00036b85       $L190112                   00437b85 f   AlertSendObj.obj
 0001:00036b91       $L190114                   00437b91 f   AlertSendObj.obj
 0001:00036b9d       $L190115                   00437b9d f   AlertSendObj.obj
 0001:00036ba9       $L190117                   00437ba9 f   AlertSendObj.obj
 0001:00036bb5       $L190118                   00437bb5 f   AlertSendObj.obj
 0001:00036bc1       $L190120                   00437bc1 f   AlertSendObj.obj
 0001:00036bcd       $L190122                   00437bcd f   AlertSendObj.obj
 0001:00036bd9       $L190123                   00437bd9 f   AlertSendObj.obj
 0001:00036be5       $L190125                   00437be5 f   AlertSendObj.obj
 0001:00036bf1       $L190127                   00437bf1 f   AlertSendObj.obj
 0001:00036bfd       $L190128                   00437bfd f   AlertSendObj.obj
 0001:00036c09       $L190130                   00437c09 f   AlertSendObj.obj
 0001:00036c15       $L190132                   00437c15 f   AlertSendObj.obj
 0001:00036c21       $L190133                   00437c21 f   AlertSendObj.obj
 0001:00036c2d       $L190135                   00437c2d f   AlertSendObj.obj
 0001:00036c39       $L190137                   00437c39 f   AlertSendObj.obj
 0001:00036c45       $L190139                   00437c45 f   AlertSendObj.obj
 0001:00036c51       $L190140                   00437c51 f   AlertSendObj.obj
 0001:00036c5a       $L190141                   00437c5a f   AlertSendObj.obj
 0001:00036c66       $L190142                   00437c66 f   AlertSendObj.obj
 0001:00036c72       $L190144                   00437c72 f   AlertSendObj.obj
 0001:00036c7e       $L190145                   00437c7e f   AlertSendObj.obj
 0001:00036c8a       $L190147                   00437c8a f   AlertSendObj.obj
 0001:00036c96       $L190148                   00437c96 f   AlertSendObj.obj
 0001:00036ca2       $L190150                   00437ca2 f   AlertSendObj.obj
 0001:00036cae       $L190152                   00437cae f   AlertSendObj.obj
 0001:00036cba       $L190153                   00437cba f   AlertSendObj.obj
 0001:00036cc6       $L190155                   00437cc6 f   AlertSendObj.obj
 0001:00036cd2       $L190157                   00437cd2 f   AlertSendObj.obj
 0001:00036cde       $L190158                   00437cde f   AlertSendObj.obj
 0001:00036cea       $L190160                   00437cea f   AlertSendObj.obj
 0001:00036cf6       $L190161                   00437cf6 f   AlertSendObj.obj
 0001:00036d02       $L190162                   00437d02 f   AlertSendObj.obj
 0001:00036d0e       $L190164                   00437d0e f   AlertSendObj.obj
 0001:00036d1a       $L190165                   00437d1a f   AlertSendObj.obj
 0001:00036d26       $L190167                   00437d26 f   AlertSendObj.obj
 0001:00036d2f       $L190168                   00437d2f f   AlertSendObj.obj
 0001:00036d3b       $L190169                   00437d3b f   AlertSendObj.obj
 0001:00036d47       $L190170                   00437d47 f   AlertSendObj.obj
 0001:00036d53       $L190178                   00437d53 f   AlertSendObj.obj
 0001:00036d5f       $L190179                   00437d5f f   AlertSendObj.obj
 0001:00036d6b       $L190181                   00437d6b f   AlertSendObj.obj
 0001:00036d77       $L190182                   00437d77 f   AlertSendObj.obj
 0001:00036d80       $L190183                   00437d80 f   AlertSendObj.obj
 0001:00036d8c       $L190184                   00437d8c f   AlertSendObj.obj
 0001:00036d98       $L190186                   00437d98 f   AlertSendObj.obj
 0001:00036da4       __ehhandler$?MakeAlertTitle@CAlertEmailSendObj@@AAEXXZ 00437da4 f   AlertSendObj.obj
 0001:00036db0       $L190324                   00437db0 f   AlertSendObj.obj
 0001:00036dbc       $L190325                   00437dbc f   AlertSendObj.obj
 0001:00036dc8       $L190326                   00437dc8 f   AlertSendObj.obj
 0001:00036dd4       $L190327                   00437dd4 f   AlertSendObj.obj
 0001:00036de0       $L190328                   00437de0 f   AlertSendObj.obj
 0001:00036dec       $L190329                   00437dec f   AlertSendObj.obj
 0001:00036df8       $L190331                   00437df8 f   AlertSendObj.obj
 0001:00036e04       $L190332                   00437e04 f   AlertSendObj.obj
 0001:00036e10       $L190333                   00437e10 f   AlertSendObj.obj
 0001:00036e1c       $L190334                   00437e1c f   AlertSendObj.obj
 0001:00036e28       $L190335                   00437e28 f   AlertSendObj.obj
 0001:00036e34       $L190336                   00437e34 f   AlertSendObj.obj
 0001:00036e40       $L190338                   00437e40 f   AlertSendObj.obj
 0001:00036e4c       $L190339                   00437e4c f   AlertSendObj.obj
 0001:00036e58       $L190341                   00437e58 f   AlertSendObj.obj
 0001:00036e64       $L190342                   00437e64 f   AlertSendObj.obj
 0001:00036e70       $L190344                   00437e70 f   AlertSendObj.obj
 0001:00036e7c       $L190346                   00437e7c f   AlertSendObj.obj
 0001:00036e88       $L190347                   00437e88 f   AlertSendObj.obj
 0001:00036e94       $L190349                   00437e94 f   AlertSendObj.obj
 0001:00036ea0       $L190351                   00437ea0 f   AlertSendObj.obj
 0001:00036eac       $L190352                   00437eac f   AlertSendObj.obj
 0001:00036eb8       $L190354                   00437eb8 f   AlertSendObj.obj
 0001:00036ec4       $L190356                   00437ec4 f   AlertSendObj.obj
 0001:00036ecd       $L190358                   00437ecd f   AlertSendObj.obj
 0001:00036ed9       $L190359                   00437ed9 f   AlertSendObj.obj
 0001:00036ee5       $L190361                   00437ee5 f   AlertSendObj.obj
 0001:00036ef1       $L190365                   00437ef1 f   AlertSendObj.obj
 0001:00036efd       $L190366                   00437efd f   AlertSendObj.obj
 0001:00036f09       $L190368                   00437f09 f   AlertSendObj.obj
 0001:00036f15       $L190369                   00437f15 f   AlertSendObj.obj
 0001:00036f1e       $L190370                   00437f1e f   AlertSendObj.obj
 0001:00036f2a       $L190371                   00437f2a f   AlertSendObj.obj
 0001:00036f36       $L190373                   00437f36 f   AlertSendObj.obj
 0001:00036f42       $L190374                   00437f42 f   AlertSendObj.obj
 0001:00036f4e       $L190375                   00437f4e f   AlertSendObj.obj
 0001:00036f5a       $L190376                   00437f5a f   AlertSendObj.obj
 0001:00036f63       $L190377                   00437f63 f   AlertSendObj.obj
 0001:00036f6f       $L190379                   00437f6f f   AlertSendObj.obj
 0001:00036f78       $L190380                   00437f78 f   AlertSendObj.obj
 0001:00036f84       $L190381                   00437f84 f   AlertSendObj.obj
 0001:00036f90       $L190383                   00437f90 f   AlertSendObj.obj
 0001:00036f9c       __ehhandler$?MakeComAlertContent@CAlertSmsSendObj@@AAEXXZ 00437f9c f   AlertSendObj.obj
 0001:00036fb0       $L190595                   00437fb0 f   AlertSendObj.obj
 0001:00036fbc       $L190596                   00437fbc f   AlertSendObj.obj
 0001:00036fc8       $L190597                   00437fc8 f   AlertSendObj.obj
 0001:00036fd4       $L190598                   00437fd4 f   AlertSendObj.obj
 0001:00036fe0       $L190599                   00437fe0 f   AlertSendObj.obj
 0001:00036fec       $L190600                   00437fec f   AlertSendObj.obj
 0001:00036ff8       $L190602                   00437ff8 f   AlertSendObj.obj
 0001:00037004       $L190603                   00438004 f   AlertSendObj.obj
 0001:00037010       $L190605                   00438010 f   AlertSendObj.obj
 0001:0003701c       $L190606                   0043801c f   AlertSendObj.obj
 0001:00037028       $L190608                   00438028 f   AlertSendObj.obj
 0001:00037034       $L190610                   00438034 f   AlertSendObj.obj
 0001:00037040       $L190611                   00438040 f   AlertSendObj.obj
 0001:0003704c       $L190613                   0043804c f   AlertSendObj.obj
 0001:00037058       $L190615                   00438058 f   AlertSendObj.obj
 0001:00037064       $L190617                   00438064 f   AlertSendObj.obj
 0001:00037070       $L190618                   00438070 f   AlertSendObj.obj
 0001:0003707c       $L190619                   0043807c f   AlertSendObj.obj
 0001:00037088       $L190621                   00438088 f   AlertSendObj.obj
 0001:00037094       $L190623                   00438094 f   AlertSendObj.obj
 0001:000370a0       $L190624                   004380a0 f   AlertSendObj.obj
 0001:000370ac       $L190626                   004380ac f   AlertSendObj.obj
 0001:000370b8       $L190628                   004380b8 f   AlertSendObj.obj
 0001:000370c4       $L190629                   004380c4 f   AlertSendObj.obj
 0001:000370d0       $L190631                   004380d0 f   AlertSendObj.obj
 0001:000370dc       $L190632                   004380dc f   AlertSendObj.obj
 0001:000370e8       $L190635                   004380e8 f   AlertSendObj.obj
 0001:000370f4       $L190636                   004380f4 f   AlertSendObj.obj
 0001:00037100       $L190638                   00438100 f   AlertSendObj.obj
 0001:0003710c       $L190639                   0043810c f   AlertSendObj.obj
 0001:00037118       $L190641                   00438118 f   AlertSendObj.obj
 0001:00037124       $L190642                   00438124 f   AlertSendObj.obj
 0001:00037130       $L190643                   00438130 f   AlertSendObj.obj
 0001:0003713c       $L190645                   0043813c f   AlertSendObj.obj
 0001:00037148       $L190646                   00438148 f   AlertSendObj.obj
 0001:00037154       $L190647                   00438154 f   AlertSendObj.obj
 0001:00037160       $L190649                   00438160 f   AlertSendObj.obj
 0001:0003716c       $L190650                   0043816c f   AlertSendObj.obj
 0001:00037178       $L190651                   00438178 f   AlertSendObj.obj
 0001:00037184       $L190652                   00438184 f   AlertSendObj.obj
 0001:00037190       $L190653                   00438190 f   AlertSendObj.obj
 0001:0003719c       $L190655                   0043819c f   AlertSendObj.obj
 0001:000371a8       $L190656                   004381a8 f   AlertSendObj.obj
 0001:000371b4       $L190657                   004381b4 f   AlertSendObj.obj
 0001:000371c0       $L190659                   004381c0 f   AlertSendObj.obj
 0001:000371cc       __ehhandler$?MakeWebAlertContent@CAlertSmsSendObj@@AAEXXZ 004381cc f   AlertSendObj.obj
 0001:000371e0       $L190875                   004381e0 f   AlertSendObj.obj
 0001:000371e0       $L189957                   004381e0 f   AlertSendObj.obj
 0001:000371e0       $L190239                   004381e0 f   AlertSendObj.obj
 0001:000371e0       $L189999                   004381e0 f   AlertSendObj.obj
 0001:000371e9       $L189958                   004381e9 f   AlertSendObj.obj
 0001:000371e9       $L190240                   004381e9 f   AlertSendObj.obj
 0001:000371e9       $L190876                   004381e9 f   AlertSendObj.obj
 0001:000371e9       $L190000                   004381e9 f   AlertSendObj.obj
 0001:000371f5       $L189959                   004381f5 f   AlertSendObj.obj
 0001:000371f5       $L190241                   004381f5 f   AlertSendObj.obj
 0001:000371f5       $L190877                   004381f5 f   AlertSendObj.obj
 0001:000371f5       $L190001                   004381f5 f   AlertSendObj.obj
 0001:00037201       $L190242                   00438201 f   AlertSendObj.obj
 0001:00037201       $L190878                   00438201 f   AlertSendObj.obj
 0001:00037201       $L189960                   00438201 f   AlertSendObj.obj
 0001:00037201       $L190002                   00438201 f   AlertSendObj.obj
 0001:0003720a       $L189961                   0043820a f   AlertSendObj.obj
 0001:0003720a       $L190879                   0043820a f   AlertSendObj.obj
 0001:0003720a       $L190003                   0043820a f   AlertSendObj.obj
 0001:0003720a       $L190243                   0043820a f   AlertSendObj.obj
 0001:00037213       $L190004                   00438213 f   AlertSendObj.obj
 0001:00037213       $L190244                   00438213 f   AlertSendObj.obj
 0001:00037213       $L189962                   00438213 f   AlertSendObj.obj
 0001:00037213       $L190880                   00438213 f   AlertSendObj.obj
 0001:0003721c       $L190881                   0043821c f   AlertSendObj.obj
 0001:0003721c       $L190005                   0043821c f   AlertSendObj.obj
 0001:0003721c       $L189963                   0043821c f   AlertSendObj.obj
 0001:0003721c       $L190245                   0043821c f   AlertSendObj.obj
 0001:00037228       $L190882                   00438228 f   AlertSendObj.obj
 0001:00037228       $L190006                   00438228 f   AlertSendObj.obj
 0001:00037228       $L189964                   00438228 f   AlertSendObj.obj
 0001:00037228       $L190246                   00438228 f   AlertSendObj.obj
 0001:00037234       $L190247                   00438234 f   AlertSendObj.obj
 0001:00037234       $L189965                   00438234 f   AlertSendObj.obj
 0001:00037234       $L190007                   00438234 f   AlertSendObj.obj
 0001:00037234       $L190883                   00438234 f   AlertSendObj.obj
 0001:00037240       $L189966                   00438240 f   AlertSendObj.obj
 0001:00037240       $L190008                   00438240 f   AlertSendObj.obj
 0001:00037240       $L190248                   00438240 f   AlertSendObj.obj
 0001:00037240       $L190884                   00438240 f   AlertSendObj.obj
 0001:0003724c       $L190885                   0043824c f   AlertSendObj.obj
 0001:0003724c       $L189967                   0043824c f   AlertSendObj.obj
 0001:0003724c       $L190009                   0043824c f   AlertSendObj.obj
 0001:0003724c       $L190249                   0043824c f   AlertSendObj.obj
 0001:00037258       $L190886                   00438258 f   AlertSendObj.obj
 0001:00037258       $L189968                   00438258 f   AlertSendObj.obj
 0001:00037258       $L190250                   00438258 f   AlertSendObj.obj
 0001:00037258       $L190010                   00438258 f   AlertSendObj.obj
 0001:00037264       $L190011                   00438264 f   AlertSendObj.obj
 0001:00037264       $L190251                   00438264 f   AlertSendObj.obj
 0001:00037264       $L189969                   00438264 f   AlertSendObj.obj
 0001:00037264       $L190887                   00438264 f   AlertSendObj.obj
 0001:00037270       $L190252                   00438270 f   AlertSendObj.obj
 0001:00037270       $L189970                   00438270 f   AlertSendObj.obj
 0001:00037270       $L190012                   00438270 f   AlertSendObj.obj
 0001:00037270       $L190888                   00438270 f   AlertSendObj.obj
 0001:0003727c       $L189971                   0043827c f   AlertSendObj.obj
 0001:0003727c       $L190013                   0043827c f   AlertSendObj.obj
 0001:0003727c       $L190889                   0043827c f   AlertSendObj.obj
 0001:0003727c       $L190253                   0043827c f   AlertSendObj.obj
 0001:00037288       $L190254                   00438288 f   AlertSendObj.obj
 0001:00037288       $L189972                   00438288 f   AlertSendObj.obj
 0001:00037288       $L190014                   00438288 f   AlertSendObj.obj
 0001:00037288       $L190890                   00438288 f   AlertSendObj.obj
 0001:00037294       $L189973                   00438294 f   AlertSendObj.obj
 0001:00037294       $L190015                   00438294 f   AlertSendObj.obj
 0001:00037294       $L190255                   00438294 f   AlertSendObj.obj
 0001:00037294       $L190891                   00438294 f   AlertSendObj.obj
 0001:000372b4       __ehhandler$?GetDebugInfo@CAlertSendObj@@UAE?AV?$basic_string@DU?$char_traits@D@std@@V?$allocator@D@2@@std@@XZ 004382b4 f   AlertSendObj.obj
 0001:000372b4       __ehhandler$?GetDebugInfo@CAlertEmailSendObj@@UAE?AV?$basic_string@DU?$char_traits@D@std@@V?$allocator@D@2@@std@@XZ 004382b4 f   AlertSendObj.obj
 0001:000372b4       __ehhandler$?GetDebugInfo@CAlertScriptSendObj@@UAE?AV?$basic_string@DU?$char_traits@D@std@@V?$allocator@D@2@@std@@XZ 004382b4 f   AlertSendObj.obj
 0001:000372b4       __ehhandler$?GetDebugInfo@CAlertSmsSendObj@@UAE?AV?$basic_string@DU?$char_traits@D@std@@V?$allocator@D@2@@std@@XZ 004382b4 f   AlertSendObj.obj
 0001:000372c0       $L190941                   004382c0 f   AlertSendObj.obj
 0001:000372cc       $L190942                   004382cc f   AlertSendObj.obj
 0001:000372d8       $L190943                   004382d8 f   AlertSendObj.obj
 0001:000372e4       $L190944                   004382e4 f   AlertSendObj.obj
 0001:000372f0       $L190945                   004382f0 f   AlertSendObj.obj
 0001:000372fc       $L190946                   004382fc f   AlertSendObj.obj
 0001:00037308       $L190947                   00438308 f   AlertSendObj.obj
 0001:00037314       $L190948                   00438314 f   AlertSendObj.obj
 0001:00037320       $L190949                   00438320 f   AlertSendObj.obj
 0001:0003732c       $L190950                   0043832c f   AlertSendObj.obj
 0001:00037338       $L190951                   00438338 f   AlertSendObj.obj
 0001:00037344       $L190952                   00438344 f   AlertSendObj.obj
 0001:00037350       $L190954                   00438350 f   AlertSendObj.obj
 0001:0003735c       $L190955                   0043835c f   AlertSendObj.obj
 0001:00037368       $L190956                   00438368 f   AlertSendObj.obj
 0001:00037374       $L190957                   00438374 f   AlertSendObj.obj
 0001:00037380       $L190958                   00438380 f   AlertSendObj.obj
 0001:0003738c       $L190959                   0043838c f   AlertSendObj.obj
 0001:00037398       $L190961                   00438398 f   AlertSendObj.obj
 0001:000373a4       $L190964                   004383a4 f   AlertSendObj.obj
 0001:000373b0       $L190965                   004383b0 f   AlertSendObj.obj
 0001:000373bc       $L190966                   004383bc f   AlertSendObj.obj
 0001:000373c8       $L190968                   004383c8 f   AlertSendObj.obj
 0001:000373d4       $L190969                   004383d4 f   AlertSendObj.obj
 0001:000373e0       $L190970                   004383e0 f   AlertSendObj.obj
 0001:000373ec       $L190972                   004383ec f   AlertSendObj.obj
 0001:000373f8       $L190974                   004383f8 f   AlertSendObj.obj
 0001:00037404       $L190976                   00438404 f   AlertSendObj.obj
 0001:00037410       $L190978                   00438410 f   AlertSendObj.obj
 0001:0003741c       $L190980                   0043841c f   AlertSendObj.obj
 0001:00037428       $L190982                   00438428 f   AlertSendObj.obj
 0001:00037434       $L190983                   00438434 f   AlertSendObj.obj
 0001:00037440       $L190984                   00438440 f   AlertSendObj.obj
 0001:0003744c       $L190986                   0043844c f   AlertSendObj.obj
 0001:00037458       $L190987                   00438458 f   AlertSendObj.obj
 0001:00037464       $L190988                   00438464 f   AlertSendObj.obj
 0001:00037470       $L190991                   00438470 f   AlertSendObj.obj
 0001:0003747c       $L190992                   0043847c f   AlertSendObj.obj
 0001:00037488       $L190993                   00438488 f   AlertSendObj.obj
 0001:00037494       $L190994                   00438494 f   AlertSendObj.obj
 0001:000374b4       __ehhandler$?DoWinScript@CAlertScriptSendObj@@QAE?AV?$CStringT@DV?$StrTraitMFC_DLL@DV?$ChTraitsCRT@D@ATL@@@@@ATL@@XZ 004384b4 f   AlertSendObj.obj
 0001:000374c0       $L191298                   004384c0 f   AlertSendObj.obj
 0001:000374c0       $L191476                   004384c0 f   AlertSendObj.obj
 0001:000374c9       $L191299                   004384c9 f   AlertSendObj.obj
 0001:000374c9       $L191477                   004384c9 f   AlertSendObj.obj
 0001:000374d5       $L191478                   004384d5 f   AlertSendObj.obj
 0001:000374d5       $L191300                   004384d5 f   AlertSendObj.obj
 0001:000374e1       $L191479                   004384e1 f   AlertSendObj.obj
 0001:000374e1       $L191301                   004384e1 f   AlertSendObj.obj
 0001:000374ea       $L191302                   004384ea f   AlertSendObj.obj
 0001:000374ea       $L191480                   004384ea f   AlertSendObj.obj
 0001:000374f3       $L191481                   004384f3 f   AlertSendObj.obj
 0001:000374f3       $L191303                   004384f3 f   AlertSendObj.obj
 0001:000374fc       $L191482                   004384fc f   AlertSendObj.obj
 0001:000374fc       $L191304                   004384fc f   AlertSendObj.obj
 0001:00037508       $L191483                   00438508 f   AlertSendObj.obj
 0001:00037508       $L191305                   00438508 f   AlertSendObj.obj
 0001:00037514       $L191484                   00438514 f   AlertSendObj.obj
 0001:00037514       $L191306                   00438514 f   AlertSendObj.obj
 0001:00037520       $L191485                   00438520 f   AlertSendObj.obj
 0001:00037520       $L191307                   00438520 f   AlertSendObj.obj
 0001:0003752c       $L191308                   0043852c f   AlertSendObj.obj
 0001:0003752c       $L191486                   0043852c f   AlertSendObj.obj
 0001:00037538       $L191487                   00438538 f   AlertSendObj.obj
 0001:00037538       $L191309                   00438538 f   AlertSendObj.obj
 0001:00037544       $L191488                   00438544 f   AlertSendObj.obj
 0001:00037544       $L191310                   00438544 f   AlertSendObj.obj
 0001:00037550       $L191489                   00438550 f   AlertSendObj.obj
 0001:00037550       $L191311                   00438550 f   AlertSendObj.obj
 0001:0003755c       $L191312                   0043855c f   AlertSendObj.obj
 0001:0003755c       $L191490                   0043855c f   AlertSendObj.obj
 0001:0003757c       __ehhandler$?GetDebugInfo@CAlertPythonSendObj@@UAE?AV?$basic_string@DU?$char_traits@D@std@@V?$allocator@D@2@@std@@XZ 0043857c f   AlertSendObj.obj
 0001:0003757c       __ehhandler$?GetDebugInfo@CAlertSoundSendObj@@UAE?AV?$basic_string@DU?$char_traits@D@std@@V?$allocator@D@2@@std@@XZ 0043857c f   AlertSendObj.obj
 0001:00037590       $L191362                   00438590 f   AlertSendObj.obj
 0001:00037599       $L191363                   00438599 f   AlertSendObj.obj
 0001:000375a2       $L191364                   004385a2 f   AlertSendObj.obj
 0001:000375ae       $L191365                   004385ae f   AlertSendObj.obj
 0001:000375ba       $L191366                   004385ba f   AlertSendObj.obj
 0001:000375c6       $L191367                   004385c6 f   AlertSendObj.obj
 0001:000375d2       $L191368                   004385d2 f   AlertSendObj.obj
 0001:000375de       $L191369                   004385de f   AlertSendObj.obj
 0001:000375ea       $L191370                   004385ea f   AlertSendObj.obj
 0001:000375f6       $L191371                   004385f6 f   AlertSendObj.obj
 0001:00037602       $L191372                   00438602 f   AlertSendObj.obj
 0001:0003760e       $L191373                   0043860e f   AlertSendObj.obj
 0001:0003761a       $L191374                   0043861a f   AlertSendObj.obj
 0001:00037626       $L191375                   00438626 f   AlertSendObj.obj
 0001:00037632       $L191376                   00438632 f   AlertSendObj.obj
 0001:0003763e       $L191377                   0043863e f   AlertSendObj.obj
 0001:0003764a       $L191378                   0043864a f   AlertSendObj.obj
 0001:00037656       $L191379                   00438656 f   AlertSendObj.obj
 0001:00037662       $L191380                   00438662 f   AlertSendObj.obj
 0001:0003766e       $L191381                   0043866e f   AlertSendObj.obj
 0001:0003767a       $L191382                   0043867a f   AlertSendObj.obj
 0001:00037686       $L191383                   00438686 f   AlertSendObj.obj
 0001:00037692       $L191384                   00438692 f   AlertSendObj.obj
 0001:0003769e       $L191385                   0043869e f   AlertSendObj.obj
 0001:000376aa       $L191387                   004386aa f   AlertSendObj.obj
 0001:000376b6       $L191391                   004386b6 f   AlertSendObj.obj
 0001:000376c2       $L191392                   004386c2 f   AlertSendObj.obj
 0001:000376ce       __ehhandler$?SendAlert@CAlertSoundSendObj@@UAE_NXZ 004386ce f   AlertSendObj.obj
 0001:000376e0       $L192709                   004386e0 f   AlertSendObj.obj
 0001:000376e0       $L197497                   004386e0 f   AlertSendObj.obj
 0001:000376eb       __ehhandler$??0?$otl_tmpl_cursor@Votl_exc@@Votl_conn@@Votl_cur@@Votl_var@@@@QAE@AAV?$otl_tmpl_connect@Votl_exc@@Votl_conn@@Votl_cur@@@@@Z 004386eb f   AlertSendObj.obj
 0001:000376eb       __ehhandler$??1?$otl_tmpl_cursor@Votl_exc@@Votl_conn@@Votl_cur@@Votl_var@@@@UAE@XZ 004386eb f   AlertSendObj.obj
 0001:00037700       $L193001                   00438700 f   AlertSendObj.obj
 0001:0003770b       $L193002                   0043870b f   AlertSendObj.obj
 0001:00037719       $L193003                   00438719 f   AlertSendObj.obj
 0001:00037727       __ehhandler$?get_select_list@?$otl_tmpl_select_stream@Votl_exc@@Votl_conn@@Votl_cur@@Votl_var@@Votl_sel@@UtagTIMESTAMP_STRUCT@@@@QAEXXZ 00438727 f   AlertSendObj.obj
 0001:00037740       $L193573                   00438740 f   AlertSendObj.obj
 0001:0003774b       __ehhandler$?alloc_host_var_list@?$otl_tmpl_ext_hv_decl@Votl_var@@UtagTIMESTAMP_STRUCT@@Votl_exc@@Votl_conn@@Votl_cur@@@@QAEXAAPAPAV?$otl_tmpl_variable@Votl_var@@@@AAHAAV?$otl_tmpl_connect@Votl_exc@@Votl_conn@@Votl_cur@@@@H@Z 0043874b f   AlertSendObj.obj
 0001:00037760       $L196167                   00438760 f   AlertSendObj.obj
 0001:00037771       __ehhandler$??$_Uninit_copy@PAV?$basic_string@DU?$char_traits@D@std@@V?$allocator@D@2@@std@@PAV12@V?$allocator@V?$basic_string@DU?$char_traits@D@std@@V?$allocator@D@2@@std@@@2@@std@@YAPAV?$basic_string@DU?$char_traits@D@std@@V?$allocator@D@2@@0@PAV10@00AAV?$allocator@V?$basic_string@DU?$char_traits@D@std@@V?$allocator@D@2@@std@@@0@U_Nonscalar_ptr_iterator_tag@0@@Z 00438771 f   AlertSendObj.obj
 0001:00037780       $L196378                   00438780 f   AlertSendObj.obj
 0001:0003778b       __ehhandler$??1otl_stream@@UAE@XZ 0043878b f   AlertSendObj.obj
 0001:000377a0       $L196403                   004387a0 f   AlertSendObj.obj
 0001:000377ac       $L196404                   004387ac f   AlertSendObj.obj
 0001:000377b7       __ehhandler$??1?$Value_impl@V?$basic_string@DU?$char_traits@D@std@@V?$allocator@D@2@@std@@@json_spirit@@QAE@XZ 004387b7 f   AlertSendObj.obj
 0001:000377d0       $L197064                   004387d0 f   AlertSendObj.obj
 0001:000377dc       $L197066                   004387dc f   AlertSendObj.obj
 0001:000377e8       $L197067                   004387e8 f   AlertSendObj.obj
 0001:000377f4       $L197068                   004387f4 f   AlertSendObj.obj
 0001:00037800       $L197069                   00438800 f   AlertSendObj.obj
 0001:0003780c       $L197070                   0043880c f   AlertSendObj.obj
 0001:00037818       $L197071                   00438818 f   AlertSendObj.obj
 0001:00037824       $L197073                   00438824 f   AlertSendObj.obj
 0001:00037830       $L197074                   00438830 f   AlertSendObj.obj
 0001:0003783c       $L197076                   0043883c f   AlertSendObj.obj
 0001:00037848       $L197077                   00438848 f   AlertSendObj.obj
 0001:00037854       $L197079                   00438854 f   AlertSendObj.obj
 0001:00037860       $L197081                   00438860 f   AlertSendObj.obj
 0001:0003786c       $L197082                   0043886c f   AlertSendObj.obj
 0001:00037878       $L197084                   00438878 f   AlertSendObj.obj
 0001:00037884       $L197086                   00438884 f   AlertSendObj.obj
 0001:00037890       $L197087                   00438890 f   AlertSendObj.obj
 0001:0003789c       $L197089                   0043889c f   AlertSendObj.obj
 0001:000378a8       $L197091                   004388a8 f   AlertSendObj.obj
 0001:000378b4       $L197092                   004388b4 f   AlertSendObj.obj
 0001:000378c0       $L197094                   004388c0 f   AlertSendObj.obj
 0001:000378cc       $L197096                   004388cc f   AlertSendObj.obj
 0001:000378d8       $L197098                   004388d8 f   AlertSendObj.obj
 0001:000378e4       $L197099                   004388e4 f   AlertSendObj.obj
 0001:000378f0       $L197100                   004388f0 f   AlertSendObj.obj
 0001:000378fc       $L197101                   004388fc f   AlertSendObj.obj
 0001:00037908       $L197103                   00438908 f   AlertSendObj.obj
 0001:00037914       $L197105                   00438914 f   AlertSendObj.obj
 0001:00037920       $L197106                   00438920 f   AlertSendObj.obj
 0001:0003792c       $L197108                   0043892c f   AlertSendObj.obj
 0001:00037938       $L197110                   00438938 f   AlertSendObj.obj
 0001:00037944       $L197111                   00438944 f   AlertSendObj.obj
 0001:00037950       $L197113                   00438950 f   AlertSendObj.obj
 0001:0003795c       $L197115                   0043895c f   AlertSendObj.obj
 0001:00037968       $L197116                   00438968 f   AlertSendObj.obj
 0001:00037974       $L197118                   00438974 f   AlertSendObj.obj
 0001:00037980       $L197120                   00438980 f   AlertSendObj.obj
 0001:0003798c       $L197121                   0043898c f   AlertSendObj.obj
 0001:00037998       $L197123                   00438998 f   AlertSendObj.obj
 0001:000379a4       $L197124                   004389a4 f   AlertSendObj.obj
 0001:000379b0       $L197127                   004389b0 f   AlertSendObj.obj
 0001:000379bc       $L197128                   004389bc f   AlertSendObj.obj
 0001:000379c8       $L197130                   004389c8 f   AlertSendObj.obj
 0001:000379d4       $L197131                   004389d4 f   AlertSendObj.obj
 0001:000379e0       $L197133                   004389e0 f   AlertSendObj.obj
 0001:000379ec       $L197134                   004389ec f   AlertSendObj.obj
 0001:000379f8       $L197135                   004389f8 f   AlertSendObj.obj
 0001:00037a04       $L197137                   00438a04 f   AlertSendObj.obj
 0001:00037a10       $L197138                   00438a10 f   AlertSendObj.obj
 0001:00037a1c       $L197139                   00438a1c f   AlertSendObj.obj
 0001:00037a28       $L197141                   00438a28 f   AlertSendObj.obj
 0001:00037a34       $L197142                   00438a34 f   AlertSendObj.obj
 0001:00037a40       $L197143                   00438a40 f   AlertSendObj.obj
 0001:00037a4c       $L197145                   00438a4c f   AlertSendObj.obj
 0001:00037a58       $L197146                   00438a58 f   AlertSendObj.obj
 0001:00037a64       $L197148                   00438a64 f   AlertSendObj.obj
 0001:00037a70       $L197150                   00438a70 f   AlertSendObj.obj
 0001:00037a7c       $L197152                   00438a7c f   AlertSendObj.obj
 0001:00037a88       $L197156                   00438a88 f   AlertSendObj.obj
 0001:00037a94       $L197157                   00438a94 f   AlertSendObj.obj
 0001:00037aa0       $L197158                   00438aa0 f   AlertSendObj.obj
 0001:00037aac       $L197159                   00438aac f   AlertSendObj.obj
 0001:00037ab8       $L197161                   00438ab8 f   AlertSendObj.obj
 0001:00037ac4       $L197162                   00438ac4 f   AlertSendObj.obj
 0001:00037ad0       $L197163                   00438ad0 f   AlertSendObj.obj
 0001:00037adc       $L197165                   00438adc f   AlertSendObj.obj
 0001:00037ae8       $L197166                   00438ae8 f   AlertSendObj.obj
 0001:00037af4       $L197167                   00438af4 f   AlertSendObj.obj
 0001:00037b00       $L197168                   00438b00 f   AlertSendObj.obj
 0001:00037b0c       $L197170                   00438b0c f   AlertSendObj.obj
 0001:00037b18       __ehhandler$?MakeAlertContent@CAlertEmailSendObj@@AAEXXZ 00438b18 f   AlertSendObj.obj
 0001:00037b30       $L197485                   00438b30 f   AlertSendObj.obj
 0001:00037b30       $L200673                   00438b30 f   AlertSendObj.obj
 0001:00037b3b       __ehhandler$??1?$otl_tmpl_connect@Votl_exc@@Votl_conn@@Votl_cur@@@@UAE@XZ 00438b3b f   AlertSendObj.obj
 0001:00037b3b       __ehhandler$??1otl_connect@@UAE@XZ 00438b3b f   AlertSendObj.obj
 0001:00037b50       $L197519                   00438b50 f   AlertSendObj.obj
 0001:00037b58       __ehhandler$?direct_exec@?$otl_tmpl_cursor@Votl_exc@@Votl_conn@@Votl_cur@@Votl_var@@@@SAJAAV?$otl_tmpl_connect@Votl_exc@@Votl_conn@@Votl_cur@@@@PBDH@Z 00438b58 f   AlertSendObj.obj
 0001:00037b70       $L198364                   00438b70 f   AlertSendObj.obj
 0001:00037b78       $L198365                   00438b78 f   AlertSendObj.obj
 0001:00037b83       $L198366                   00438b83 f   AlertSendObj.obj
 0001:00037b91       __ehhandler$??0?$otl_tmpl_select_cursor@Votl_exc@@Votl_conn@@Votl_cur@@Votl_var@@Votl_sel@@@@QAE@AAV?$otl_tmpl_connect@Votl_exc@@Votl_conn@@Votl_cur@@@@HPBD@Z 00438b91 f   AlertSendObj.obj
 0001:00037ba0       $L198417                   00438ba0 f   AlertSendObj.obj
 0001:00037ba0       $L197635                   00438ba0 f   AlertSendObj.obj
 0001:00037ba8       __ehhandler$??0?$otl_tmpl_out_stream@Votl_exc@@Votl_conn@@Votl_cur@@Votl_var@@UtagTIMESTAMP_STRUCT@@@@QAE@AAV?$otl_tmpl_connect@Votl_exc@@Votl_conn@@Votl_cur@@@@_NPBD@Z 00438ba8 f   AlertSendObj.obj
 0001:00037ba8       __ehhandler$??1?$otl_tmpl_out_stream@Votl_exc@@Votl_conn@@Votl_cur@@Votl_var@@UtagTIMESTAMP_STRUCT@@@@UAE@XZ 00438ba8 f   AlertSendObj.obj
 0001:00037bc0       $L198746                   00438bc0 f   AlertSendObj.obj
 0001:00037bce       __ehhandler$??0?$otl_tmpl_ext_hv_decl@Votl_var@@UtagTIMESTAMP_STRUCT@@Votl_exc@@Votl_conn@@Votl_cur@@@@QAE@PADH0PAPAVotl_select_struct_override@@PAV?$otl_tmpl_connect@Votl_exc@@Votl_conn@@Votl_cur@@@@@Z 00438bce f   AlertSendObj.obj
 0001:00037be0       $L198883                   00438be0 f   AlertSendObj.obj
 0001:00037bf1       __ehhandler$?_Buynode@?$list@USendInfo@@V?$allocator@USendInfo@@@std@@@std@@IAEPAU_Node@?$_List_nod@USendInfo@@V?$allocator@USendInfo@@@std@@@2@PAU342@0ABUSendInfo@@@Z 00438bf1 f   AlertSendObj.obj
 0001:00037c00       $L198980                   00438c00 f   AlertSendObj.obj
 0001:00037c11       __ehhandler$?_Buynode@?$list@USMSInfo@@V?$allocator@USMSInfo@@@std@@@std@@IAEPAU_Node@?$_List_nod@USMSInfo@@V?$allocator@USMSInfo@@@std@@@2@PAU342@0ABUSMSInfo@@@Z 00438c11 f   AlertSendObj.obj
 0001:00037c20       $L199472                   00438c20 f   AlertSendObj.obj
 0001:00037c31       __ehhandler$?_Buynode@?$_Tree@V?$_Tmap_traits@V?$basic_string@DU?$char_traits@D@std@@V?$allocator@D@2@@std@@V12@U?$less@V?$basic_string@DU?$char_traits@D@std@@V?$allocator@D@2@@std@@@2@V?$allocator@U?$pair@$$CBV?$basic_string@DU?$char_traits@D@std@@V?$allocator@D@2@@std@@V12@@std@@@2@$0A@@std@@@std@@IAEPAU_Node@?$_Tree_nod@V?$_Tmap_traits@V?$basic_string@DU?$char_traits@D@std@@V?$allocator@D@2@@std@@V12@U?$less@V?$basic_string@DU?$char_traits@D@std@@V?$allocator@D@2@@std@@@2@V?$allocator@U?$pair@$$CBV?$basic_string@DU?$char_traits@D@std@@V?$allocator@D@2@@std@@V12@@std@@@2@$0A@@std@@@2@PAU342@00ABU?$pair@$$CBV?$basic_string@DU?$char_traits@D@std@@V?$allocator@D@2@@std@@V12@@2@D@Z 00438c31 f   AlertSendObj.obj
 0001:00037c40       $L200371                   00438c40 f   AlertSendObj.obj
 0001:00037c51       __ehhandler$??$_Uninit_fill_n@PAV?$basic_string@DU?$char_traits@D@std@@V?$allocator@D@2@@std@@IV12@V?$allocator@V?$basic_string@DU?$char_traits@D@std@@V?$allocator@D@2@@std@@@2@@std@@YAXPAV?$basic_string@DU?$char_traits@D@std@@V?$allocator@D@2@@0@IABV10@AAV?$allocator@V?$basic_string@DU?$char_traits@D@std@@V?$allocator@D@2@@std@@@0@U_Nonscalar_ptr_iterator_tag@0@@Z 00438c51 f   AlertSendObj.obj
 0001:00037c60       $L200784                   00438c60 f   AlertSendObj.obj
 0001:00037c68       $L200785                   00438c68 f   AlertSendObj.obj
 0001:00037c70       __ehhandler$??0?$otl_tmpl_select_stream@Votl_exc@@Votl_conn@@Votl_cur@@Votl_var@@Votl_sel@@UtagTIMESTAMP_STRUCT@@@@QAE@PAVotl_select_struct_override@@HPBDAAV?$otl_tmpl_connect@Votl_exc@@Votl_conn@@Votl_cur@@@@H1@Z 00438c70 f   AlertSendObj.obj
 0001:00037c80       $L201128                   00438c80 f   AlertSendObj.obj
 0001:00037c88       $L201129                   00438c88 f   AlertSendObj.obj
 0001:00037c90       __ehhandler$??0?$otl_tmpl_inout_stream@Votl_exc@@Votl_conn@@Votl_cur@@Votl_var@@UtagTIMESTAMP_STRUCT@@@@QAE@HPBDAAV?$otl_tmpl_connect@Votl_exc@@Votl_conn@@Votl_cur@@@@_N0@Z 00438c90 f   AlertSendObj.obj
 0001:00037ca0       $L201765                   00438ca0 f   AlertSendObj.obj
 0001:00037ca8       __ehhandler$??1?$otl_tmpl_select_stream@Votl_exc@@Votl_conn@@Votl_cur@@Votl_var@@Votl_sel@@UtagTIMESTAMP_STRUCT@@@@UAE@XZ 00438ca8 f   AlertSendObj.obj
 0001:00037cc0       $L201805                   00438cc0 f   AlertSendObj.obj
 0001:00037cc8       __ehhandler$??1?$otl_tmpl_inout_stream@Votl_exc@@Votl_conn@@Votl_cur@@Votl_var@@UtagTIMESTAMP_STRUCT@@@@UAE@XZ 00438cc8 f   AlertSendObj.obj
 0001:00037ce0       $L204022                   00438ce0 f   AlertSendObj.obj
 0001:00037ceb       $L204023                   00438ceb f   AlertSendObj.obj
 0001:00037cf6       $L204024                   00438cf6 f   AlertSendObj.obj
 0001:00037d01       $L204025                   00438d01 f   AlertSendObj.obj
 0001:00037d0c       __ehhandler$?open@otl_stream@@QAEXHPBDAAVotl_connect@@H0@Z 00438d0c f   AlertSendObj.obj
 0001:00037d20       $L206110                   00438d20 f   AlertSendObj.obj
 0001:00037d29       __ehhandler$?_Insert_n@?$vector@V?$basic_string@DU?$char_traits@D@std@@V?$allocator@D@2@@std@@V?$allocator@V?$basic_string@DU?$char_traits@D@std@@V?$allocator@D@2@@std@@@2@@std@@IAEXViterator@12@IABV?$basic_string@DU?$char_traits@D@std@@V?$allocator@D@2@@2@@Z 00438d29 f   AlertSendObj.obj
 0001:00037d40       $L208189                   00438d40 f   AlertSendObj.obj
 0001:00037d4b       __ehhandler$??0otl_stream@@QAE@HPBDAAVotl_connect@@H0@Z 00438d4b f   AlertSendObj.obj
 0001:00037d60       $L208204                   00438d60 f   AlertSendObj.obj
 0001:00037d69       __ehhandler$?ParserReturnInList@@YAXPBDAAV?$list@V?$basic_string@DU?$char_traits@D@std@@V?$allocator@D@2@@std@@V?$allocator@V?$basic_string@DU?$char_traits@D@std@@V?$allocator@D@2@@std@@@2@@std@@@Z 00438d69 f   AlertSendObj.obj
 0001:00037d80       $L212226                   00438d80 f   AlertSendObj.obj
 0001:00037d88       $L212227                   00438d88 f   AlertSendObj.obj
 0001:00037d97       $L212228                   00438d97 f   AlertSendObj.obj
 0001:00037da6       $L212229                   00438da6 f   AlertSendObj.obj
 0001:00037db5       $L212230                   00438db5 f   AlertSendObj.obj
 0001:00037dc4       $L212231                   00438dc4 f   AlertSendObj.obj
 0001:00037dd3       $L212232                   00438dd3 f   AlertSendObj.obj
 0001:00037de2       $L212233                   00438de2 f   AlertSendObj.obj
 0001:00037df1       $L212234                   00438df1 f   AlertSendObj.obj
 0001:00037e00       $L212235                   00438e00 f   AlertSendObj.obj
 0001:00037e0e       __ehhandler$??0CAlertEmailSendObj@@QAE@XZ 00438e0e f   AlertSendObj.obj
 0001:00037e20       $L212330                   00438e20 f   AlertSendObj.obj
 0001:00037e28       $L212331                   00438e28 f   AlertSendObj.obj
 0001:00037e37       $L212332                   00438e37 f   AlertSendObj.obj
 0001:00037e46       $L212333                   00438e46 f   AlertSendObj.obj
 0001:00037e55       $L212334                   00438e55 f   AlertSendObj.obj
 0001:00037e64       $L212335                   00438e64 f   AlertSendObj.obj
 0001:00037e73       $L212336                   00438e73 f   AlertSendObj.obj
 0001:00037e82       $L212337                   00438e82 f   AlertSendObj.obj
 0001:00037e91       $L212338                   00438e91 f   AlertSendObj.obj
 0001:00037ea0       __ehhandler$??1CAlertEmailSendObj@@UAE@XZ 00438ea0 f   AlertSendObj.obj
 0001:00037eb0       $L212381                   00438eb0 f   AlertSendObj.obj
 0001:00037eb8       $L212382                   00438eb8 f   AlertSendObj.obj
 0001:00037ec7       $L212383                   00438ec7 f   AlertSendObj.obj
 0001:00037ed6       $L212384                   00438ed6 f   AlertSendObj.obj
 0001:00037ee5       $L212385                   00438ee5 f   AlertSendObj.obj
 0001:00037ef4       $L212386                   00438ef4 f   AlertSendObj.obj
 0001:00037f03       $L212387                   00438f03 f   AlertSendObj.obj
 0001:00037f12       $L212388                   00438f12 f   AlertSendObj.obj
 0001:00037f21       $L212389                   00438f21 f   AlertSendObj.obj
 0001:00037f2f       $L212390                   00438f2f f   AlertSendObj.obj
 0001:00037f3e       $L212391                   00438f3e f   AlertSendObj.obj
 0001:00037f4d       __ehhandler$??0CAlertSmsSendObj@@QAE@XZ 00438f4d f   AlertSendObj.obj
 0001:00037f60       $L212486                   00438f60 f   AlertSendObj.obj
 0001:00037f68       $L212487                   00438f68 f   AlertSendObj.obj
 0001:00037f77       $L212488                   00438f77 f   AlertSendObj.obj
 0001:00037f86       $L212489                   00438f86 f   AlertSendObj.obj
 0001:00037f95       $L212490                   00438f95 f   AlertSendObj.obj
 0001:00037fa4       $L212491                   00438fa4 f   AlertSendObj.obj
 0001:00037fb3       $L212492                   00438fb3 f   AlertSendObj.obj
 0001:00037fc2       $L212493                   00438fc2 f   AlertSendObj.obj
 0001:00037fd1       $L212494                   00438fd1 f   AlertSendObj.obj
 0001:00037fdf       $L212495                   00438fdf f   AlertSendObj.obj
 0001:00037fee       __ehhandler$??1CAlertSmsSendObj@@UAE@XZ 00438fee f   AlertSendObj.obj
 0001:00038000       $L214149                   00439000 f   AlertSendObj.obj
 0001:00038009       $L214150                   00439009 f   AlertSendObj.obj
 0001:00038011       __ehhandler$??A?$map@V?$basic_string@DU?$char_traits@D@std@@V?$allocator@D@2@@std@@V12@U?$less@V?$basic_string@DU?$char_traits@D@std@@V?$allocator@D@2@@std@@@2@V?$allocator@U?$pair@$$CBV?$basic_string@DU?$char_traits@D@std@@V?$allocator@D@2@@std@@V12@@std@@@2@@std@@QAEAAV?$basic_string@DU?$char_traits@D@std@@V?$allocator@D@2@@1@ABV21@@Z 00439011 f   AlertSendObj.obj
 0001:00038020       $L215904                   00439020 f   AlertSendObj.obj
 0001:00038029       $L215905                   00439029 f   AlertSendObj.obj
 0001:00038031       $L215906                   00439031 f   AlertSendObj.obj
 0001:0003803a       $L215907                   0043903a f   AlertSendObj.obj
 0001:00038043       $L215908                   00439043 f   AlertSendObj.obj
 0001:0003804c       $L215910                   0043904c f   AlertSendObj.obj
 0001:00038055       $L215911                   00439055 f   AlertSendObj.obj
 0001:0003805e       $L215912                   0043905e f   AlertSendObj.obj
 0001:00038067       $L215913                   00439067 f   AlertSendObj.obj
 0001:00038070       $L215914                   00439070 f   AlertSendObj.obj
 0001:00038079       $L215916                   00439079 f   AlertSendObj.obj
 0001:00038082       $L215917                   00439082 f   AlertSendObj.obj
 0001:0003808b       $L215918                   0043908b f   AlertSendObj.obj
 0001:00038094       $L215919                   00439094 f   AlertSendObj.obj
 0001:0003809d       $L215920                   0043909d f   AlertSendObj.obj
 0001:000380a6       $L215922                   004390a6 f   AlertSendObj.obj
 0001:000380af       $L215923                   004390af f   AlertSendObj.obj
 0001:000380b8       $L215924                   004390b8 f   AlertSendObj.obj
 0001:000380c1       $L215925                   004390c1 f   AlertSendObj.obj
 0001:000380ca       $L215926                   004390ca f   AlertSendObj.obj
 0001:000380d3       $L215928                   004390d3 f   AlertSendObj.obj
 0001:000380dc       $L215930                   004390dc f   AlertSendObj.obj
 0001:000380e5       $L215931                   004390e5 f   AlertSendObj.obj
 0001:000380ee       $L215932                   004390ee f   AlertSendObj.obj
 0001:000380f7       $L215933                   004390f7 f   AlertSendObj.obj
 0001:00038100       $L215934                   00439100 f   AlertSendObj.obj
 0001:00038109       $L215936                   00439109 f   AlertSendObj.obj
 0001:00038112       $L215937                   00439112 f   AlertSendObj.obj
 0001:0003811b       $L215938                   0043911b f   AlertSendObj.obj
 0001:00038124       $L215939                   00439124 f   AlertSendObj.obj
 0001:0003812d       $L215940                   0043912d f   AlertSendObj.obj
 0001:00038136       $L215941                   00439136 f   AlertSendObj.obj
 0001:0003813f       $L215943                   0043913f f   AlertSendObj.obj
 0001:00038148       $L215944                   00439148 f   AlertSendObj.obj
 0001:00038151       $L215945                   00439151 f   AlertSendObj.obj
 0001:0003815a       $L215947                   0043915a f   AlertSendObj.obj
 0001:00038163       $L215948                   00439163 f   AlertSendObj.obj
 0001:0003816c       $L215949                   0043916c f   AlertSendObj.obj
 0001:00038175       $L215950                   00439175 f   AlertSendObj.obj
 0001:0003817e       $L215951                   0043917e f   AlertSendObj.obj
 0001:00038187       $L215953                   00439187 f   AlertSendObj.obj
 0001:00038190       $L215954                   00439190 f   AlertSendObj.obj
 0001:00038199       $L215955                   00439199 f   AlertSendObj.obj
 0001:000381a2       $L215956                   004391a2 f   AlertSendObj.obj
 0001:000381ab       $L215957                   004391ab f   AlertSendObj.obj
 0001:000381b4       $L215959                   004391b4 f   AlertSendObj.obj
 0001:000381bd       $L215960                   004391bd f   AlertSendObj.obj
 0001:000381c6       $L215961                   004391c6 f   AlertSendObj.obj
 0001:000381cf       $L215962                   004391cf f   AlertSendObj.obj
 0001:000381d8       $L215963                   004391d8 f   AlertSendObj.obj
 0001:000381e1       $L215965                   004391e1 f   AlertSendObj.obj
 0001:000381ea       $L215967                   004391ea f   AlertSendObj.obj
 0001:000381f3       $L215968                   004391f3 f   AlertSendObj.obj
 0001:000381fc       $L215969                   004391fc f   AlertSendObj.obj
 0001:00038205       $L215970                   00439205 f   AlertSendObj.obj
 0001:0003820e       $L215971                   0043920e f   AlertSendObj.obj
 0001:00038217       $L215973                   00439217 f   AlertSendObj.obj
 0001:00038220       $L215974                   00439220 f   AlertSendObj.obj
 0001:00038229       $L215975                   00439229 f   AlertSendObj.obj
 0001:00038232       $L215976                   00439232 f   AlertSendObj.obj
 0001:0003823b       $L215977                   0043923b f   AlertSendObj.obj
 0001:00038244       $L215978                   00439244 f   AlertSendObj.obj
 0001:0003824d       $L215980                   0043924d f   AlertSendObj.obj
 0001:00038256       __ehhandler$?GetInfoFromEmailAddress@CAlertEmailSendObj@@AAE_NV?$basic_string@DU?$char_traits@D@std@@V?$allocator@D@2@@std@@@Z 00439256 f   AlertSendObj.obj
 0001:00038260       $L216882                   00439260 f   AlertSendObj.obj
 0001:00038269       $L216883                   00439269 f   AlertSendObj.obj
 0001:00038271       $L216884                   00439271 f   AlertSendObj.obj
 0001:0003827a       $L216885                   0043927a f   AlertSendObj.obj
 0001:00038283       $L216886                   00439283 f   AlertSendObj.obj
 0001:0003828c       $L216888                   0043928c f   AlertSendObj.obj
 0001:00038295       $L216889                   00439295 f   AlertSendObj.obj
 0001:0003829e       $L216890                   0043929e f   AlertSendObj.obj
 0001:000382a7       $L216891                   004392a7 f   AlertSendObj.obj
 0001:000382b0       $L216892                   004392b0 f   AlertSendObj.obj
 0001:000382b9       $L216894                   004392b9 f   AlertSendObj.obj
 0001:000382c2       $L216895                   004392c2 f   AlertSendObj.obj
 0001:000382cb       $L216896                   004392cb f   AlertSendObj.obj
 0001:000382d4       $L216897                   004392d4 f   AlertSendObj.obj
 0001:000382dd       $L216898                   004392dd f   AlertSendObj.obj
 0001:000382e6       $L216899                   004392e6 f   AlertSendObj.obj
 0001:000382ef       $L216901                   004392ef f   AlertSendObj.obj
 0001:000382f8       $L216902                   004392f8 f   AlertSendObj.obj
 0001:00038301       $L216903                   00439301 f   AlertSendObj.obj
 0001:0003830a       $L216904                   0043930a f   AlertSendObj.obj
 0001:00038313       $L216905                   00439313 f   AlertSendObj.obj
 0001:0003831c       $L216906                   0043931c f   AlertSendObj.obj
 0001:00038325       $L216908                   00439325 f   AlertSendObj.obj
 0001:0003832e       $L216910                   0043932e f   AlertSendObj.obj
 0001:00038337       $L216911                   00439337 f   AlertSendObj.obj
 0001:00038340       $L216912                   00439340 f   AlertSendObj.obj
 0001:00038349       $L216913                   00439349 f   AlertSendObj.obj
 0001:00038352       $L216914                   00439352 f   AlertSendObj.obj
 0001:0003835b       $L216916                   0043935b f   AlertSendObj.obj
 0001:00038364       $L216917                   00439364 f   AlertSendObj.obj
 0001:0003836d       $L216918                   0043936d f   AlertSendObj.obj
 0001:00038376       $L216919                   00439376 f   AlertSendObj.obj
 0001:0003837f       $L216920                   0043937f f   AlertSendObj.obj
 0001:00038388       $L216921                   00439388 f   AlertSendObj.obj
 0001:00038391       $L216923                   00439391 f   AlertSendObj.obj
 0001:0003839a       $L216924                   0043939a f   AlertSendObj.obj
 0001:000383a3       $L216925                   004393a3 f   AlertSendObj.obj
 0001:000383ac       $L216927                   004393ac f   AlertSendObj.obj
 0001:000383b5       $L216928                   004393b5 f   AlertSendObj.obj
 0001:000383be       $L216929                   004393be f   AlertSendObj.obj
 0001:000383c7       $L216930                   004393c7 f   AlertSendObj.obj
 0001:000383d0       $L216931                   004393d0 f   AlertSendObj.obj
 0001:000383d9       $L216933                   004393d9 f   AlertSendObj.obj
 0001:000383e2       $L216934                   004393e2 f   AlertSendObj.obj
 0001:000383eb       $L216935                   004393eb f   AlertSendObj.obj
 0001:000383f4       $L216936                   004393f4 f   AlertSendObj.obj
 0001:000383fd       $L216937                   004393fd f   AlertSendObj.obj
 0001:00038406       $L216938                   00439406 f   AlertSendObj.obj
 0001:0003840f       $L216940                   0043940f f   AlertSendObj.obj
 0001:00038418       $L216941                   00439418 f   AlertSendObj.obj
 0001:00038421       $L216942                   00439421 f   AlertSendObj.obj
 0001:0003842a       $L216943                   0043942a f   AlertSendObj.obj
 0001:00038433       $L216944                   00439433 f   AlertSendObj.obj
 0001:0003843c       $L216945                   0043943c f   AlertSendObj.obj
 0001:00038445       $L216947                   00439445 f   AlertSendObj.obj
 0001:0003844e       $L216949                   0043944e f   AlertSendObj.obj
 0001:00038457       $L216950                   00439457 f   AlertSendObj.obj
 0001:00038460       $L216951                   00439460 f   AlertSendObj.obj
 0001:00038469       $L216952                   00439469 f   AlertSendObj.obj
 0001:00038472       $L216953                   00439472 f   AlertSendObj.obj
 0001:0003847b       $L216955                   0043947b f   AlertSendObj.obj
 0001:00038484       $L216956                   00439484 f   AlertSendObj.obj
 0001:0003848d       $L216957                   0043948d f   AlertSendObj.obj
 0001:00038496       $L216958                   00439496 f   AlertSendObj.obj
 0001:0003849f       $L216959                   0043949f f   AlertSendObj.obj
 0001:000384a8       $L216960                   004394a8 f   AlertSendObj.obj
 0001:000384b1       $L216962                   004394b1 f   AlertSendObj.obj
 0001:000384ba       __ehhandler$?GetInfoFromSmsAddress@CAlertSmsSendObj@@AAE_NV?$basic_string@DU?$char_traits@D@std@@V?$allocator@D@2@@std@@@Z 004394ba f   AlertSendObj.obj
 0001:000384d0       $L217756                   004394d0 f   AlertSendObj.obj
 0001:000384d9       $L217757                   004394d9 f   AlertSendObj.obj
 0001:000384e2       $L217760                   004394e2 f   AlertSendObj.obj
 0001:000384eb       $L217758                   004394eb f   AlertSendObj.obj
 0001:000384f4       __ehhandler$?String2Array@CAlertSmsSendObj@@QAEXAAV?$vector@V?$basic_string@DU?$char_traits@D@std@@V?$allocator@D@2@@std@@V?$allocator@V?$basic_string@DU?$char_traits@D@std@@V?$allocator@D@2@@std@@@2@@std@@V?$basic_string@DU?$char_traits@D@std@@V?$allocator@D@2@@3@1@Z 004394f4 f   AlertSendObj.obj
 0001:00038500       $L217840                   00439500 f   AlertSendObj.obj
 0001:00038509       $L217841                   00439509 f   AlertSendObj.obj
 0001:00038512       $L217842                   00439512 f   AlertSendObj.obj
 0001:0003851e       $L217843                   0043951e f   AlertSendObj.obj
 0001:00038529       $L217844                   00439529 f   AlertSendObj.obj
 0001:00038535       $L217845                   00439535 f   AlertSendObj.obj
 0001:00038541       __ehhandler$?process_msg@CAlertSmsSendObj@@QAEHAAV?$vector@V?$basic_string@DU?$char_traits@D@std@@V?$allocator@D@2@@std@@V?$allocator@V?$basic_string@DU?$char_traits@D@std@@V?$allocator@D@2@@std@@@2@@std@@V?$basic_string@DU?$char_traits@D@std@@V?$allocator@D@2@@3@1H@Z 00439541 f   AlertSendObj.obj
 0001:00038550       $L218590                   00439550 f   AlertSendObj.obj
 0001:0003855b       $L218591                   0043955b f   AlertSendObj.obj
 0001:00038566       $L218592                   00439566 f   AlertSendObj.obj
 0001:00038571       $L218593                   00439571 f   AlertSendObj.obj
 0001:0003857a       $L218594                   0043957a f   AlertSendObj.obj
 0001:00038586       $L218595                   00439586 f   AlertSendObj.obj
 0001:00038592       $L218596                   00439592 f   AlertSendObj.obj
 0001:0003859e       $L218597                   0043959e f   AlertSendObj.obj
 0001:000385aa       $L218598                   004395aa f   AlertSendObj.obj
 0001:000385b6       $L218599                   004395b6 f   AlertSendObj.obj
 0001:000385c2       $L218600                   004395c2 f   AlertSendObj.obj
 0001:000385ce       $L218602                   004395ce f   AlertSendObj.obj
 0001:000385da       $L218603                   004395da f   AlertSendObj.obj
 0001:000385e6       $L218604                   004395e6 f   AlertSendObj.obj
 0001:000385f2       $L218605                   004395f2 f   AlertSendObj.obj
 0001:000385fe       $L218606                   004395fe f   AlertSendObj.obj
 0001:0003860a       $L218607                   0043960a f   AlertSendObj.obj
 0001:00038616       $L218609                   00439616 f   AlertSendObj.obj
 0001:00038622       $L218610                   00439622 f   AlertSendObj.obj
 0001:0003862e       $L218611                   0043962e f   AlertSendObj.obj
 0001:0003863a       $L218612                   0043963a f   AlertSendObj.obj
 0001:00038646       $L218613                   00439646 f   AlertSendObj.obj
 0001:00038652       $L218614                   00439652 f   AlertSendObj.obj
 0001:0003865e       $L218616                   0043965e f   AlertSendObj.obj
 0001:0003866a       $L218617                   0043966a f   AlertSendObj.obj
 0001:00038676       $L218618                   00439676 f   AlertSendObj.obj
 0001:00038682       $L218619                   00439682 f   AlertSendObj.obj
 0001:0003868e       $L218620                   0043968e f   AlertSendObj.obj
 0001:0003869a       $L218621                   0043969a f   AlertSendObj.obj
 0001:000386a6       $L218623                   004396a6 f   AlertSendObj.obj
 0001:000386b2       $L218624                   004396b2 f   AlertSendObj.obj
 0001:000386bd       $L218625                   004396bd f   AlertSendObj.obj
 0001:000386c8       $L218626                   004396c8 f   AlertSendObj.obj
 0001:000386d3       $L218627                   004396d3 f   AlertSendObj.obj
 0001:000386de       $L218628                   004396de f   AlertSendObj.obj
 0001:000386e9       $L218629                   004396e9 f   AlertSendObj.obj
 0001:000386f5       $L218630                   004396f5 f   AlertSendObj.obj
 0001:000386fe       $L218631                   004396fe f   AlertSendObj.obj
 0001:0003870a       $L218632                   0043970a f   AlertSendObj.obj
 0001:00038716       $L218633                   00439716 f   AlertSendObj.obj
 0001:00038722       $L218634                   00439722 f   AlertSendObj.obj
 0001:0003872e       $L218635                   0043972e f   AlertSendObj.obj
 0001:0003873a       $L218637                   0043973a f   AlertSendObj.obj
 0001:00038746       $L218638                   00439746 f   AlertSendObj.obj
 0001:00038752       $L218639                   00439752 f   AlertSendObj.obj
 0001:0003875e       $L218640                   0043975e f   AlertSendObj.obj
 0001:0003876a       $L218641                   0043976a f   AlertSendObj.obj
 0001:00038776       $L218642                   00439776 f   AlertSendObj.obj
 0001:00038782       $L218644                   00439782 f   AlertSendObj.obj
 0001:0003878e       $L218645                   0043978e f   AlertSendObj.obj
 0001:0003879a       $L218646                   0043979a f   AlertSendObj.obj
 0001:000387a6       $L218647                   004397a6 f   AlertSendObj.obj
 0001:000387b2       $L218648                   004397b2 f   AlertSendObj.obj
 0001:000387be       $L218649                   004397be f   AlertSendObj.obj
 0001:000387ca       $L218651                   004397ca f   AlertSendObj.obj
 0001:000387d3       $L218652                   004397d3 f   AlertSendObj.obj
 0001:000387df       $L218653                   004397df f   AlertSendObj.obj
 0001:000387eb       $L218654                   004397eb f   AlertSendObj.obj
 0001:000387f7       $L218655                   004397f7 f   AlertSendObj.obj
 0001:00038803       $L218656                   00439803 f   AlertSendObj.obj
 0001:0003880f       $L218657                   0043980f f   AlertSendObj.obj
 0001:0003881b       $L218659                   0043981b f   AlertSendObj.obj
 0001:00038827       $L218660                   00439827 f   AlertSendObj.obj
 0001:00038833       $L218661                   00439833 f   AlertSendObj.obj
 0001:0003883f       $L218662                   0043983f f   AlertSendObj.obj
 0001:0003884b       $L218663                   0043984b f   AlertSendObj.obj
 0001:00038857       $L218664                   00439857 f   AlertSendObj.obj
 0001:00038863       $L218666                   00439863 f   AlertSendObj.obj
 0001:0003886c       $L218667                   0043986c f   AlertSendObj.obj
 0001:00038878       $L218668                   00439878 f   AlertSendObj.obj
 0001:00038881       $L218669                   00439881 f   AlertSendObj.obj
 0001:0003888d       $L218670                   0043988d f   AlertSendObj.obj
 0001:00038899       $L218671                   00439899 f   AlertSendObj.obj
 0001:000388a5       $L218672                   004398a5 f   AlertSendObj.obj
 0001:000388ae       $L218673                   004398ae f   AlertSendObj.obj
 0001:000388ba       $L218674                   004398ba f   AlertSendObj.obj
 0001:000388c6       $L218675                   004398c6 f   AlertSendObj.obj
 0001:000388d2       $L218676                   004398d2 f   AlertSendObj.obj
 0001:000388de       $L218677                   004398de f   AlertSendObj.obj
 0001:000388ea       $L218679                   004398ea f   AlertSendObj.obj
 0001:000388f3       $L218680                   004398f3 f   AlertSendObj.obj
 0001:000388ff       $L218681                   004398ff f   AlertSendObj.obj
 0001:0003890b       $L218682                   0043990b f   AlertSendObj.obj
 0001:00038917       $L218683                   00439917 f   AlertSendObj.obj
 0001:00038923       $L218684                   00439923 f   AlertSendObj.obj
 0001:0003892f       $L218686                   0043992f f   AlertSendObj.obj
 0001:00038938       $L218687                   00439938 f   AlertSendObj.obj
 0001:00038944       $L218688                   00439944 f   AlertSendObj.obj
 0001:00038950       $L218689                   00439950 f   AlertSendObj.obj
 0001:0003895c       $L218690                   0043995c f   AlertSendObj.obj
 0001:00038968       $L218691                   00439968 f   AlertSendObj.obj
 0001:00038974       $L218693                   00439974 f   AlertSendObj.obj
 0001:00038980       $L218694                   00439980 f   AlertSendObj.obj
 0001:0003898c       $L218695                   0043998c f   AlertSendObj.obj
 0001:00038998       $L218696                   00439998 f   AlertSendObj.obj
 0001:000389a4       $L218697                   004399a4 f   AlertSendObj.obj
 0001:000389b0       $L218699                   004399b0 f   AlertSendObj.obj
 0001:000389bc       $L218701                   004399bc f   AlertSendObj.obj
 0001:000389c4       $L218702                   004399c4 f   AlertSendObj.obj
 0001:000389cf       $L218703                   004399cf f   AlertSendObj.obj
 0001:000389d8       $L218704                   004399d8 f   AlertSendObj.obj
 0001:000389e4       $L218705                   004399e4 f   AlertSendObj.obj
 0001:000389f0       $L218707                   004399f0 f   AlertSendObj.obj
 0001:000389fc       $L218708                   004399fc f   AlertSendObj.obj
 0001:00038a08       $L218709                   00439a08 f   AlertSendObj.obj
 0001:00038a14       $L218711                   00439a14 f   AlertSendObj.obj
 0001:00038a20       $L218712                   00439a20 f   AlertSendObj.obj
 0001:00038a2c       $L218713                   00439a2c f   AlertSendObj.obj
 0001:00038a38       $L218714                   00439a38 f   AlertSendObj.obj
 0001:00038a44       $L218715                   00439a44 f   AlertSendObj.obj
 0001:00038a50       $L218716                   00439a50 f   AlertSendObj.obj
 0001:00038a5c       $L218718                   00439a5c f   AlertSendObj.obj
 0001:00038a68       $L218719                   00439a68 f   AlertSendObj.obj
 0001:00038a74       $L218720                   00439a74 f   AlertSendObj.obj
 0001:00038a80       $L218722                   00439a80 f   AlertSendObj.obj
 0001:00038a8c       $L218723                   00439a8c f   AlertSendObj.obj
 0001:00038a98       $L218724                   00439a98 f   AlertSendObj.obj
 0001:00038aa4       $L218725                   00439aa4 f   AlertSendObj.obj
 0001:00038ab0       $L218726                   00439ab0 f   AlertSendObj.obj
 0001:00038abc       $L218727                   00439abc f   AlertSendObj.obj
 0001:00038ac8       $L218729                   00439ac8 f   AlertSendObj.obj
 0001:00038ad4       $L218730                   00439ad4 f   AlertSendObj.obj
 0001:00038ae0       $L218731                   00439ae0 f   AlertSendObj.obj
 0001:00038aec       $L218733                   00439aec f   AlertSendObj.obj
 0001:00038af8       $L218734                   00439af8 f   AlertSendObj.obj
 0001:00038b03       $L218735                   00439b03 f   AlertSendObj.obj
 0001:00038b0e       $L222417                   00439b0e f   AlertSendObj.obj
 0001:00038b19       $L218736                   00439b19 f   AlertSendObj.obj
 0001:00038b25       $L218737                   00439b25 f   AlertSendObj.obj
 0001:00038b31       __ehhandler$?SendSmsFromDatabase@CAlertSmsSendObj@@QAE_NAAV?$basic_string@DU?$char_traits@D@std@@V?$allocator@D@2@@std@@@Z 00439b31 f   AlertSendObj.obj
 0001:00038b40       $L222651                   00439b40 f   AlertSendObj.obj
 0001:00038b49       $L222652                   00439b49 f   AlertSendObj.obj
 0001:00038b52       $L222653                   00439b52 f   AlertSendObj.obj
 0001:00038b5b       $L222654                   00439b5b f   AlertSendObj.obj
 0001:00038b64       $L222655                   00439b64 f   AlertSendObj.obj
 0001:00038b6d       $L222657                   00439b6d f   AlertSendObj.obj
 0001:00038b76       $L222658                   00439b76 f   AlertSendObj.obj
 0001:00038b7e       $L222659                   00439b7e f   AlertSendObj.obj
 0001:00038b86       $L222660                   00439b86 f   AlertSendObj.obj
 0001:00038b8f       $L222661                   00439b8f f   AlertSendObj.obj
 0001:00038b98       $L222662                   00439b98 f   AlertSendObj.obj
 0001:00038ba1       __ehhandler$?SendSmsFromCom@CAlertSmsSendObj@@QAE_NXZ 00439ba1 f   AlertSendObj.obj
 0001:00038bb0       $L223517                   00439bb0 f   AlertSendObj.obj
 0001:00038bb9       $L223518                   00439bb9 f   AlertSendObj.obj
 0001:00038bc2       $L223519                   00439bc2 f   AlertSendObj.obj
 0001:00038bce       $L223520                   00439bce f   AlertSendObj.obj
 0001:00038bda       $L223521                   00439bda f   AlertSendObj.obj
 0001:00038be6       $L223522                   00439be6 f   AlertSendObj.obj
 0001:00038bf2       $L223523                   00439bf2 f   AlertSendObj.obj
 0001:00038bfe       $L223525                   00439bfe f   AlertSendObj.obj
 0001:00038c0a       $L223526                   00439c0a f   AlertSendObj.obj
 0001:00038c16       $L223527                   00439c16 f   AlertSendObj.obj
 0001:00038c22       $L223528                   00439c22 f   AlertSendObj.obj
 0001:00038c2e       $L223529                   00439c2e f   AlertSendObj.obj
 0001:00038c3a       $L223530                   00439c3a f   AlertSendObj.obj
 0001:00038c46       $L223532                   00439c46 f   AlertSendObj.obj
 0001:00038c52       $L223533                   00439c52 f   AlertSendObj.obj
 0001:00038c5e       $L223534                   00439c5e f   AlertSendObj.obj
 0001:00038c69       $L223539                   00439c69 f   AlertSendObj.obj
 0001:00038c72       $L223541                   00439c72 f   AlertSendObj.obj
 0001:00038c7e       $L223542                   00439c7e f   AlertSendObj.obj
 0001:00038c89       $L223543                   00439c89 f   AlertSendObj.obj
 0001:00038c95       $L223544                   00439c95 f   AlertSendObj.obj
 0001:00038ca0       __ehhandler$?SendSmsFromSelfDefine@CAlertSmsSendObj@@QAE_NXZ 00439ca0 f   AlertSendObj.obj
 0001:00038cb0       $L225279                   00439cb0 f   AlertSendObj.obj
 0001:00038cbc       $L225280                   00439cbc f   AlertSendObj.obj
 0001:00038cc8       $L225281                   00439cc8 f   AlertSendObj.obj
 0001:00038cd4       $L225282                   00439cd4 f   AlertSendObj.obj
 0001:00038ce0       $L225283                   00439ce0 f   AlertSendObj.obj
 0001:00038cec       $L225284                   00439cec f   AlertSendObj.obj
 0001:00038cf8       $L225285                   00439cf8 f   AlertSendObj.obj
 0001:00038d04       $L225286                   00439d04 f   AlertSendObj.obj
 0001:00038d0d       $L225287                   00439d0d f   AlertSendObj.obj
 0001:00038d19       $L225288                   00439d19 f   AlertSendObj.obj
 0001:00038d25       $L225289                   00439d25 f   AlertSendObj.obj
 0001:00038d31       $L225290                   00439d31 f   AlertSendObj.obj
 0001:00038d3d       $L225291                   00439d3d f   AlertSendObj.obj
 0001:00038d49       $L225293                   00439d49 f   AlertSendObj.obj
 0001:00038d52       $L225294                   00439d52 f   AlertSendObj.obj
 0001:00038d5e       $L225295                   00439d5e f   AlertSendObj.obj
 0001:00038d6a       $L225296                   00439d6a f   AlertSendObj.obj
 0001:00038d76       $L225297                   00439d76 f   AlertSendObj.obj
 0001:00038d82       $L225298                   00439d82 f   AlertSendObj.obj
 0001:00038d8e       $L225300                   00439d8e f   AlertSendObj.obj
 0001:00038d97       $L225301                   00439d97 f   AlertSendObj.obj
 0001:00038da3       $L225302                   00439da3 f   AlertSendObj.obj
 0001:00038daf       $L225303                   00439daf f   AlertSendObj.obj
 0001:00038dbb       $L225304                   00439dbb f   AlertSendObj.obj
 0001:00038dc7       $L225305                   00439dc7 f   AlertSendObj.obj
 0001:00038dd3       $L225307                   00439dd3 f   AlertSendObj.obj
 0001:00038ddc       $L225308                   00439ddc f   AlertSendObj.obj
 0001:00038de8       $L225309                   00439de8 f   AlertSendObj.obj
 0001:00038df4       $L225310                   00439df4 f   AlertSendObj.obj
 0001:00038e00       $L225311                   00439e00 f   AlertSendObj.obj
 0001:00038e0c       $L225312                   00439e0c f   AlertSendObj.obj
 0001:00038e18       $L225314                   00439e18 f   AlertSendObj.obj
 0001:00038e21       $L225315                   00439e21 f   AlertSendObj.obj
 0001:00038e2c       $L225316                   00439e2c f   AlertSendObj.obj
 0001:00038e38       $L225317                   00439e38 f   AlertSendObj.obj
 0001:00038e44       $L225318                   00439e44 f   AlertSendObj.obj
 0001:00038e50       $L225319                   00439e50 f   AlertSendObj.obj
 0001:00038e5c       $L225320                   00439e5c f   AlertSendObj.obj
 0001:00038e68       $L225322                   00439e68 f   AlertSendObj.obj
 0001:00038e71       $L225323                   00439e71 f   AlertSendObj.obj
 0001:00038e7d       $L225324                   00439e7d f   AlertSendObj.obj
 0001:00038e89       $L225325                   00439e89 f   AlertSendObj.obj
 0001:00038e95       $L225326                   00439e95 f   AlertSendObj.obj
 0001:00038ea1       $L225327                   00439ea1 f   AlertSendObj.obj
 0001:00038ead       $L225329                   00439ead f   AlertSendObj.obj
 0001:00038eb6       $L225330                   00439eb6 f   AlertSendObj.obj
 0001:00038ec2       $L225331                   00439ec2 f   AlertSendObj.obj
 0001:00038ece       $L225332                   00439ece f   AlertSendObj.obj
 0001:00038eda       $L225333                   00439eda f   AlertSendObj.obj
 0001:00038ee6       $L225334                   00439ee6 f   AlertSendObj.obj
 0001:00038ef2       $L225336                   00439ef2 f   AlertSendObj.obj
 0001:00038efb       $L225337                   00439efb f   AlertSendObj.obj
 0001:00038f07       $L225338                   00439f07 f   AlertSendObj.obj
 0001:00038f13       $L225339                   00439f13 f   AlertSendObj.obj
 0001:00038f1f       $L225340                   00439f1f f   AlertSendObj.obj
 0001:00038f2b       $L225341                   00439f2b f   AlertSendObj.obj
 0001:00038f37       $L225343                   00439f37 f   AlertSendObj.obj
 0001:00038f40       $L225344                   00439f40 f   AlertSendObj.obj
 0001:00038f4c       $L225345                   00439f4c f   AlertSendObj.obj
 0001:00038f58       $L225346                   00439f58 f   AlertSendObj.obj
 0001:00038f64       $L225347                   00439f64 f   AlertSendObj.obj
 0001:00038f70       $L225348                   00439f70 f   AlertSendObj.obj
 0001:00038f7c       $L225350                   00439f7c f   AlertSendObj.obj
 0001:00038f85       $L225351                   00439f85 f   AlertSendObj.obj
 0001:00038f90       $L225352                   00439f90 f   AlertSendObj.obj
 0001:00038f9c       $L225353                   00439f9c f   AlertSendObj.obj
 0001:00038fa8       $L225354                   00439fa8 f   AlertSendObj.obj
 0001:00038fb4       $L225355                   00439fb4 f   AlertSendObj.obj
 0001:00038fc0       $L225356                   00439fc0 f   AlertSendObj.obj
 0001:00038fcc       $L225358                   00439fcc f   AlertSendObj.obj
 0001:00038fd5       $L225359                   00439fd5 f   AlertSendObj.obj
 0001:00038fe0       $L225360                   00439fe0 f   AlertSendObj.obj
 0001:00038fe9       $L225361                   00439fe9 f   AlertSendObj.obj
 0001:00038ff5       $L225362                   00439ff5 f   AlertSendObj.obj
 0001:00039001       $L225364                   0043a001 f   AlertSendObj.obj
 0001:0003900c       $L225365                   0043a00c f   AlertSendObj.obj
 0001:00039018       $L225367                   0043a018 f   AlertSendObj.obj
 0001:00039023       $L225368                   0043a023 f   AlertSendObj.obj
 0001:0003902f       $L225369                   0043a02f f   AlertSendObj.obj
 0001:0003903a       $L225370                   0043a03a f   AlertSendObj.obj
 0001:00039046       $L225371                   0043a046 f   AlertSendObj.obj
 0001:00039051       $L225372                   0043a051 f   AlertSendObj.obj
 0001:0003905d       $L225374                   0043a05d f   AlertSendObj.obj
 0001:00039069       $L225375                   0043a069 f   AlertSendObj.obj
 0001:00039075       $L225376                   0043a075 f   AlertSendObj.obj
 0001:00039080       $L225377                   0043a080 f   AlertSendObj.obj
 0001:0003908c       $L225378                   0043a08c f   AlertSendObj.obj
 0001:00039097       $L225379                   0043a097 f   AlertSendObj.obj
 0001:000390a3       $L225380                   0043a0a3 f   AlertSendObj.obj
 0001:000390af       $L225381                   0043a0af f   AlertSendObj.obj
 0001:000390bb       $L225382                   0043a0bb f   AlertSendObj.obj
 0001:000390c7       $L225383                   0043a0c7 f   AlertSendObj.obj
 0001:000390d0       $L225384                   0043a0d0 f   AlertSendObj.obj
 0001:000390dc       $L225385                   0043a0dc f   AlertSendObj.obj
 0001:000390e8       $L225386                   0043a0e8 f   AlertSendObj.obj
 0001:000390f4       $L225388                   0043a0f4 f   AlertSendObj.obj
 0001:00039100       $L225393                   0043a100 f   AlertSendObj.obj
 0001:0003910c       $L225394                   0043a10c f   AlertSendObj.obj
 0001:00039118       __ehhandler$?SendAlert@CAlertEmailSendObj@@UAE_NXZ 0043a118 f   AlertSendObj.obj
 0001:00039130       $L226961                   0043a130 f   AlertSendObj.obj
 0001:0003913c       $L226962                   0043a13c f   AlertSendObj.obj
 0001:00039148       $L226963                   0043a148 f   AlertSendObj.obj
 0001:00039154       $L226964                   0043a154 f   AlertSendObj.obj
 0001:00039160       $L226965                   0043a160 f   AlertSendObj.obj
 0001:0003916c       $L226966                   0043a16c f   AlertSendObj.obj
 0001:00039178       $L226967                   0043a178 f   AlertSendObj.obj
 0001:00039184       $L226968                   0043a184 f   AlertSendObj.obj
 0001:00039190       $L226969                   0043a190 f   AlertSendObj.obj
 0001:0003919c       $L226970                   0043a19c f   AlertSendObj.obj
 0001:000391a8       $L226971                   0043a1a8 f   AlertSendObj.obj
 0001:000391b4       $L226973                   0043a1b4 f   AlertSendObj.obj
 0001:000391c0       $L226974                   0043a1c0 f   AlertSendObj.obj
 0001:000391cc       $L226975                   0043a1cc f   AlertSendObj.obj
 0001:000391d8       $L226976                   0043a1d8 f   AlertSendObj.obj
 0001:000391e4       $L226977                   0043a1e4 f   AlertSendObj.obj
 0001:000391f0       $L226978                   0043a1f0 f   AlertSendObj.obj
 0001:000391fc       $L226980                   0043a1fc f   AlertSendObj.obj
 0001:00039208       $L226981                   0043a208 f   AlertSendObj.obj
 0001:00039213       $L226982                   0043a213 f   AlertSendObj.obj
 0001:0003921f       $L226983                   0043a21f f   AlertSendObj.obj
 0001:0003922b       $L226984                   0043a22b f   AlertSendObj.obj
 0001:00039237       $L226985                   0043a237 f   AlertSendObj.obj
 0001:00039243       $L226986                   0043a243 f   AlertSendObj.obj
 0001:0003924f       $L226988                   0043a24f f   AlertSendObj.obj
 0001:0003925b       $L226989                   0043a25b f   AlertSendObj.obj
 0001:00039267       $L226990                   0043a267 f   AlertSendObj.obj
 0001:00039273       $L226991                   0043a273 f   AlertSendObj.obj
 0001:0003927f       $L226992                   0043a27f f   AlertSendObj.obj
 0001:0003928b       $L226993                   0043a28b f   AlertSendObj.obj
 0001:00039297       $L226995                   0043a297 f   AlertSendObj.obj
 0001:000392a3       $L226996                   0043a2a3 f   AlertSendObj.obj
 0001:000392af       $L226997                   0043a2af f   AlertSendObj.obj
 0001:000392bb       $L226998                   0043a2bb f   AlertSendObj.obj
 0001:000392c7       $L226999                   0043a2c7 f   AlertSendObj.obj
 0001:000392d3       $L227000                   0043a2d3 f   AlertSendObj.obj
 0001:000392df       $L227002                   0043a2df f   AlertSendObj.obj
 0001:000392eb       $L227003                   0043a2eb f   AlertSendObj.obj
 0001:000392f6       $L227004                   0043a2f6 f   AlertSendObj.obj
 0001:00039302       $L227005                   0043a302 f   AlertSendObj.obj
 0001:0003930e       $L227006                   0043a30e f   AlertSendObj.obj
 0001:0003931a       $L227007                   0043a31a f   AlertSendObj.obj
 0001:00039326       $L227008                   0043a326 f   AlertSendObj.obj
 0001:00039332       $L227010                   0043a332 f   AlertSendObj.obj
 0001:0003933e       $L227011                   0043a33e f   AlertSendObj.obj
 0001:00039346       $L227012                   0043a346 f   AlertSendObj.obj
 0001:00039352       $L227013                   0043a352 f   AlertSendObj.obj
 0001:0003935b       $L227014                   0043a35b f   AlertSendObj.obj
 0001:00039367       $L227289                   0043a367 f   AlertSendObj.obj
 0001:00039370       $L227016                   0043a370 f   AlertSendObj.obj
 0001:00039378       $L227411                   0043a378 f   AlertSendObj.obj
 0001:00039381       $L227017                   0043a381 f   AlertSendObj.obj
 0001:0003938d       $L227019                   0043a38d f   AlertSendObj.obj
 0001:00039395       $L227020                   0043a395 f   AlertSendObj.obj
 0001:0003939e       $L227503                   0043a39e f   AlertSendObj.obj
 0001:000393a7       $L227021                   0043a3a7 f   AlertSendObj.obj
 0001:000393af       $L227022                   0043a3af f   AlertSendObj.obj
 0001:000393bb       $L227610                   0043a3bb f   AlertSendObj.obj
 0001:000393c4       $L227023                   0043a3c4 f   AlertSendObj.obj
 0001:000393cf       $L227024                   0043a3cf f   AlertSendObj.obj
 0001:000393db       $L227026                   0043a3db f   AlertSendObj.obj
 0001:000393e7       $L227027                   0043a3e7 f   AlertSendObj.obj
 0001:000393f0       $L227672                   0043a3f0 f   AlertSendObj.obj
 0001:000393f9       $L227028                   0043a3f9 f   AlertSendObj.obj
 0001:00039401       $L227029                   0043a401 f   AlertSendObj.obj
 0001:0003940d       $L227779                   0043a40d f   AlertSendObj.obj
 0001:00039416       $L227030                   0043a416 f   AlertSendObj.obj
 0001:00039421       $L227031                   0043a421 f   AlertSendObj.obj
 0001:0003942d       $L227032                   0043a42d f   AlertSendObj.obj
 0001:00039439       $L227033                   0043a439 f   AlertSendObj.obj
 0001:00039445       $L227034                   0043a445 f   AlertSendObj.obj
 0001:00039451       $L227035                   0043a451 f   AlertSendObj.obj
 0001:0003945d       $L227036                   0043a45d f   AlertSendObj.obj
 0001:00039469       $L227037                   0043a469 f   AlertSendObj.obj
 0001:00039472       $L227038                   0043a472 f   AlertSendObj.obj
 0001:0003947e       $L227039                   0043a47e f   AlertSendObj.obj
 0001:0003948a       $L227040                   0043a48a f   AlertSendObj.obj
 0001:00039496       $L227041                   0043a496 f   AlertSendObj.obj
 0001:000394a2       $L227042                   0043a4a2 f   AlertSendObj.obj
 0001:000394ae       $L227043                   0043a4ae f   AlertSendObj.obj
 0001:000394ba       $L227044                   0043a4ba f   AlertSendObj.obj
 0001:000394c6       $L227045                   0043a4c6 f   AlertSendObj.obj
 0001:000394cf       $L227046                   0043a4cf f   AlertSendObj.obj
 0001:000394d8       $L227047                   0043a4d8 f   AlertSendObj.obj
 0001:000394e4       $L227049                   0043a4e4 f   AlertSendObj.obj
 0001:000394f0       $L227053                   0043a4f0 f   AlertSendObj.obj
 0001:000394f9       $L227054                   0043a4f9 f   AlertSendObj.obj
 0001:00039505       __ehhandler$?SendAlert@CAlertSmsSendObj@@UAE_NXZ 0043a505 f   AlertSendObj.obj
 0001:00039510       $L230090                   0043a510 f   AlertSendObj.obj
 0001:00039519       $L230091                   0043a519 f   AlertSendObj.obj
 0001:00039525       $L230092                   0043a525 f   AlertSendObj.obj
 0001:00039531       $L230093                   0043a531 f   AlertSendObj.obj
 0001:0003953d       $L230095                   0043a53d f   AlertSendObj.obj
 0001:00039549       $L230096                   0043a549 f   AlertSendObj.obj
 0001:00039554       $L230098                   0043a554 f   AlertSendObj.obj
 0001:00039560       $L230099                   0043a560 f   AlertSendObj.obj
 0001:0003956c       $L230101                   0043a56c f   AlertSendObj.obj
 0001:00039578       $L230102                   0043a578 f   AlertSendObj.obj
 0001:00039584       $L230103                   0043a584 f   AlertSendObj.obj
 0001:00039590       $L230107                   0043a590 f   AlertSendObj.obj
 0001:0003959c       $L230109                   0043a59c f   AlertSendObj.obj
 0001:000395a7       $L230110                   0043a5a7 f   AlertSendObj.obj
 0001:000395b3       $L230111                   0043a5b3 f   AlertSendObj.obj
 0001:000395bf       $L230112                   0043a5bf f   AlertSendObj.obj
 0001:000395cb       $L230113                   0043a5cb f   AlertSendObj.obj
 0001:000395d7       $L230114                   0043a5d7 f   AlertSendObj.obj
 0001:000395f7       __ehhandler$?GetDeviceRunParam@@YA?AV?$basic_string@DU?$char_traits@D@std@@V?$allocator@D@2@@std@@V12@@Z 0043a5f7 f   AlertSendObj.obj
 0001:00039610       $L230687                   0043a610 f   AlertSendObj.obj
 0001:0003961c       $L230688                   0043a61c f   AlertSendObj.obj
 0001:00039628       $L230689                   0043a628 f   AlertSendObj.obj
 0001:00039634       $L230690                   0043a634 f   AlertSendObj.obj
 0001:00039640       $L230691                   0043a640 f   AlertSendObj.obj
 0001:0003964c       $L230692                   0043a64c f   AlertSendObj.obj
 0001:00039657       __ehhandler$?DoUnixScript@CAlertScriptSendObj@@QAE_NXZ 0043a657 f   AlertSendObj.obj
 0001:00039670       $L231213                   0043a670 f   AlertSendObj.obj
 0001:00039679       $L231214                   0043a679 f   AlertSendObj.obj
 0001:00039682       $L231216                   0043a682 f   AlertSendObj.obj
 0001:0003968e       $L231217                   0043a68e f   AlertSendObj.obj
 0001:0003969a       $L231219                   0043a69a f   AlertSendObj.obj
 0001:000396a6       $L231221                   0043a6a6 f   AlertSendObj.obj
 0001:000396b2       $L231223                   0043a6b2 f   AlertSendObj.obj
 0001:000396be       $L231229                   0043a6be f   AlertSendObj.obj
 0001:000396ca       $L231230                   0043a6ca f   AlertSendObj.obj
 0001:000396d6       $L231233                   0043a6d6 f   AlertSendObj.obj
 0001:000396e2       $L231234                   0043a6e2 f   AlertSendObj.obj
 0001:000396ee       $L231235                   0043a6ee f   AlertSendObj.obj
 0001:000396fa       $L231236                   0043a6fa f   AlertSendObj.obj
 0001:00039706       $L231237                   0043a706 f   AlertSendObj.obj
 0001:00039712       $L231238                   0043a712 f   AlertSendObj.obj
 0001:0003971e       $L231239                   0043a71e f   AlertSendObj.obj
 0001:0003972a       $L231240                   0043a72a f   AlertSendObj.obj
 0001:00039736       $L231241                   0043a736 f   AlertSendObj.obj
 0001:00039742       $L231242                   0043a742 f   AlertSendObj.obj
 0001:0003974e       $L231243                   0043a74e f   AlertSendObj.obj
 0001:0003975a       $L231244                   0043a75a f   AlertSendObj.obj
 0001:00039766       $L231245                   0043a766 f   AlertSendObj.obj
 0001:00039772       $L231246                   0043a772 f   AlertSendObj.obj
 0001:0003977e       $L231247                   0043a77e f   AlertSendObj.obj
 0001:0003978a       $L231248                   0043a78a f   AlertSendObj.obj
 0001:00039796       $L231249                   0043a796 f   AlertSendObj.obj
 0001:000397a2       $L231250                   0043a7a2 f   AlertSendObj.obj
 0001:000397ae       $L231251                   0043a7ae f   AlertSendObj.obj
 0001:000397ba       $L231252                   0043a7ba f   AlertSendObj.obj
 0001:000397c6       $L231253                   0043a7c6 f   AlertSendObj.obj
 0001:000397d2       $L231254                   0043a7d2 f   AlertSendObj.obj
 0001:000397de       $L231255                   0043a7de f   AlertSendObj.obj
 0001:000397ea       $L231256                   0043a7ea f   AlertSendObj.obj
 0001:000397f6       $L231257                   0043a7f6 f   AlertSendObj.obj
 0001:00039802       __ehhandler$?SendAlert@CAlertScriptSendObj@@UAE_NXZ 0043a802 f   AlertSendObj.obj
 0001:00039810       $L146558                   0043a810 f   AlertServer.obj
 0001:0003981c       $L146559                   0043a81c f   AlertServer.obj
 0001:00039828       $L146560                   0043a828 f   AlertServer.obj
 0001:00039834       $L146561                   0043a834 f   AlertServer.obj
 0001:00039840       $L146562                   0043a840 f   AlertServer.obj
 0001:0003984c       $L146564                   0043a84c f   AlertServer.obj
 0001:00039858       $L146565                   0043a858 f   AlertServer.obj
 0001:00039864       $L146566                   0043a864 f   AlertServer.obj
 0001:00039870       $L146568                   0043a870 f   AlertServer.obj
 0001:0003987c       $L146569                   0043a87c f   AlertServer.obj
 0001:00039888       $L146570                   0043a888 f   AlertServer.obj
 0001:00039894       $L146571                   0043a894 f   AlertServer.obj
 0001:000398a0       $L146572                   0043a8a0 f   AlertServer.obj
 0001:000398ac       $L146574                   0043a8ac f   AlertServer.obj
 0001:000398b8       $L146575                   0043a8b8 f   AlertServer.obj
 0001:000398c4       $L146576                   0043a8c4 f   AlertServer.obj
 0001:000398d0       $L146578                   0043a8d0 f   AlertServer.obj
 0001:000398dc       $L146579                   0043a8dc f   AlertServer.obj
 0001:000398e8       $L146580                   0043a8e8 f   AlertServer.obj
 0001:000398f4       $L146581                   0043a8f4 f   AlertServer.obj
 0001:00039900       $L146582                   0043a900 f   AlertServer.obj
 0001:0003990c       $L146584                   0043a90c f   AlertServer.obj
 0001:00039918       $L146585                   0043a918 f   AlertServer.obj
 0001:00039924       $L146586                   0043a924 f   AlertServer.obj
 0001:00039930       $L146588                   0043a930 f   AlertServer.obj
 0001:0003993c       $L146589                   0043a93c f   AlertServer.obj
 0001:00039948       $L146590                   0043a948 f   AlertServer.obj
 0001:00039954       $L146591                   0043a954 f   AlertServer.obj
 0001:00039960       $L146592                   0043a960 f   AlertServer.obj
 0001:0003996c       $L146594                   0043a96c f   AlertServer.obj
 0001:00039978       $L146595                   0043a978 f   AlertServer.obj
 0001:00039984       $L146596                   0043a984 f   AlertServer.obj
 0001:00039990       $L146598                   0043a990 f   AlertServer.obj
 0001:0003999c       $L146599                   0043a99c f   AlertServer.obj
 0001:000399a8       $L146600                   0043a9a8 f   AlertServer.obj
 0001:000399b4       $L146601                   0043a9b4 f   AlertServer.obj
 0001:000399c0       $L146602                   0043a9c0 f   AlertServer.obj
 0001:000399cc       $L146604                   0043a9cc f   AlertServer.obj
 0001:000399d8       $L146605                   0043a9d8 f   AlertServer.obj
 0001:000399e4       $L146606                   0043a9e4 f   AlertServer.obj
 0001:000399f0       $L146608                   0043a9f0 f   AlertServer.obj
 0001:000399fc       $L146609                   0043a9fc f   AlertServer.obj
 0001:00039a08       $L146610                   0043aa08 f   AlertServer.obj
 0001:00039a14       $L146611                   0043aa14 f   AlertServer.obj
 0001:00039a20       $L146612                   0043aa20 f   AlertServer.obj
 0001:00039a2c       $L146614                   0043aa2c f   AlertServer.obj
 0001:00039a38       $L146615                   0043aa38 f   AlertServer.obj
 0001:00039a44       $L146616                   0043aa44 f   AlertServer.obj
 0001:00039a50       $L146618                   0043aa50 f   AlertServer.obj
 0001:00039a5c       $L146619                   0043aa5c f   AlertServer.obj
 0001:00039a68       $L146620                   0043aa68 f   AlertServer.obj
 0001:00039a74       $L146621                   0043aa74 f   AlertServer.obj
 0001:00039a80       $L146622                   0043aa80 f   AlertServer.obj
 0001:00039a8c       $L146624                   0043aa8c f   AlertServer.obj
 0001:00039a98       $L146625                   0043aa98 f   AlertServer.obj
 0001:00039aa4       $L146626                   0043aaa4 f   AlertServer.obj
 0001:00039ab0       $L146628                   0043aab0 f   AlertServer.obj
 0001:00039abc       $L146629                   0043aabc f   AlertServer.obj
 0001:00039ac8       $L146630                   0043aac8 f   AlertServer.obj
 0001:00039ad4       $L146631                   0043aad4 f   AlertServer.obj
 0001:00039ae0       $L146632                   0043aae0 f   AlertServer.obj
 0001:00039aec       $L146634                   0043aaec f   AlertServer.obj
 0001:00039af8       $L146635                   0043aaf8 f   AlertServer.obj
 0001:00039b04       $L146636                   0043ab04 f   AlertServer.obj
 0001:00039b10       $L146638                   0043ab10 f   AlertServer.obj
 0001:00039b1c       $L146639                   0043ab1c f   AlertServer.obj
 0001:00039b28       $L146640                   0043ab28 f   AlertServer.obj
 0001:00039b34       $L146641                   0043ab34 f   AlertServer.obj
 0001:00039b40       $L146642                   0043ab40 f   AlertServer.obj
 0001:00039b4c       $L146644                   0043ab4c f   AlertServer.obj
 0001:00039b58       $L146645                   0043ab58 f   AlertServer.obj
 0001:00039b64       $L146646                   0043ab64 f   AlertServer.obj
 0001:00039b70       $L146648                   0043ab70 f   AlertServer.obj
 0001:00039b7c       $L146649                   0043ab7c f   AlertServer.obj
 0001:00039b88       $L146650                   0043ab88 f   AlertServer.obj
 0001:00039b94       $L146651                   0043ab94 f   AlertServer.obj
 0001:00039ba0       $L146652                   0043aba0 f   AlertServer.obj
 0001:00039bac       $L146654                   0043abac f   AlertServer.obj
 0001:00039bb8       $L146655                   0043abb8 f   AlertServer.obj
 0001:00039bc4       $L146656                   0043abc4 f   AlertServer.obj
 0001:00039bd0       $L146658                   0043abd0 f   AlertServer.obj
 0001:00039bdc       $L146659                   0043abdc f   AlertServer.obj
 0001:00039be8       $L146660                   0043abe8 f   AlertServer.obj
 0001:00039bf4       $L146661                   0043abf4 f   AlertServer.obj
 0001:00039c00       $L146662                   0043ac00 f   AlertServer.obj
 0001:00039c0c       $L146664                   0043ac0c f   AlertServer.obj
 0001:00039c18       $L146665                   0043ac18 f   AlertServer.obj
 0001:00039c24       $L146666                   0043ac24 f   AlertServer.obj
 0001:00039c30       $L146668                   0043ac30 f   AlertServer.obj
 0001:00039c3b       __ehhandler$_main          0043ac3b f   AlertServer.obj
 0001:00039c50       $L118742                   0043ac50 f   funcGeneral.obj
 0001:00039c59       $L118743                   0043ac59 f   funcGeneral.obj
 0001:00039c62       __ehhandler$?FuncGetInstallPath@@YA?AV?$CStringT@DV?$StrTraitMFC_DLL@DV?$ChTraitsCRT@D@ATL@@@@@ATL@@XZ 0043ac62 f   funcGeneral.obj
 0001:00039c70       $L119309                   0043ac70 f   funcGeneral.obj
 0001:00039c70       $L119021                   0043ac70 f   funcGeneral.obj
 0001:00039c79       $L119022                   0043ac79 f   funcGeneral.obj
 0001:00039c79       $L119310                   0043ac79 f   funcGeneral.obj
 0001:00039c82       $L119311                   0043ac82 f   funcGeneral.obj
 0001:00039c82       $L119023                   0043ac82 f   funcGeneral.obj
 0001:00039c8b       $L119312                   0043ac8b f   funcGeneral.obj
 0001:00039c8b       $L119024                   0043ac8b f   funcGeneral.obj
 0001:00039c94       $L119316                   0043ac94 f   funcGeneral.obj
 0001:00039c94       $L119025                   0043ac94 f   funcGeneral.obj
 0001:00039c9d       $L119317                   0043ac9d f   funcGeneral.obj
 0001:00039c9d       $L119026                   0043ac9d f   funcGeneral.obj
 0001:00039ca6       __ehhandler$?FuncGetLeftStringByMark@@YA?AV?$CStringT@DV?$StrTraitMFC_DLL@DV?$ChTraitsCRT@D@ATL@@@@@ATL@@V12@0H@Z 0043aca6 f   funcGeneral.obj
 0001:00039ca6       __ehhandler$?FuncGetRightString@@YA?AV?$CStringT@DV?$StrTraitMFC_DLL@DV?$ChTraitsCRT@D@ATL@@@@@ATL@@V12@0@Z 0043aca6 f   funcGeneral.obj
 0001:00039cb0       $L132353                   0043acb0 f   GsmOperate.obj
 0001:00039cbc       __ehhandler$?gsmEncodePdu@CGsmOperate@@QAEHPBUSM_PARAM@1@PAD@Z 0043acbc f   GsmOperate.obj
 0001:00039cd0       $L134089                   0043acd0 f   MIMEMessage.obj
 0001:00039cd8       __ehhandler$??0CCriticalSection@@QAE@XZ 0043acd8 f   MIMEMessage.obj
 0001:00039cf0       $L134755                   0043acf0 f   MIMEMessage.obj
 0001:00039cfb       $L134756                   0043acfb f   MIMEMessage.obj
 0001:00039d06       __ehhandler$??1CMIMETypeManager@CMIMEMessage@@UAE@XZ 0043ad06 f   MIMEMessage.obj
 0001:00039d10       $L133283                   0043ad10 f   SerialPort.obj
 0001:00039d19       $L133284                   0043ad19 f   SerialPort.obj
 0001:00039d25       $L133285                   0043ad25 f   SerialPort.obj
 0001:00039d31       $L133286                   0043ad31 f   SerialPort.obj
 0001:00039d3d       __ehhandler$?InitPort@CSerialPort@@QAEHV?$CStringT@DV?$StrTraitMFC_DLL@DV?$ChTraitsCRT@D@ATL@@@@@ATL@@@Z 0043ad3d f   SerialPort.obj
 0001:00039d50       $L133335                   0043ad50 f   SerialPort.obj
 0001:00039d59       $L133336                   0043ad59 f   SerialPort.obj
 0001:00039d62       $L133337                   0043ad62 f   SerialPort.obj
 0001:00039d6b       __ehhandler$?SendLongMsg@CSerialPort@@QAEHV?$CStringT@DV?$StrTraitMFC_DLL@DV?$ChTraitsCRT@D@ATL@@@@@ATL@@00@Z 0043ad6b f   SerialPort.obj
 0001:00039d80       $L133805                   0043ad80 f   SerialPort.obj
 0001:00039d89       $L133806                   0043ad89 f   SerialPort.obj
 0001:00039d92       __ehhandler$?SendMsg@CSerialPort@@QAEHV?$CStringT@DV?$StrTraitMFC_DLL@DV?$ChTraitsCRT@D@ATL@@@@@ATL@@0H@Z 0043ad92 f   SerialPort.obj
 0001:00039da0       _$E1                       0043ada0 f   AlertMain.obj
 0001:00039dc0       _$E4                       0043adc0 f   AlertMain.obj
 0001:00039de0       _$E7                       0043ade0 f   AlertMain.obj
 0001:00039e00       _$E10                      0043ae00 f   AlertMain.obj
 0001:00039e20       _$E13                      0043ae20 f   AlertMain.obj
 0001:00039e40       _$E16                      0043ae40 f   AlertMain.obj
 0001:00039e60       _$E19                      0043ae60 f   AlertMain.obj
 0001:00039e80       _$E22                      0043ae80 f   AlertMain.obj
 0001:00039ea0       _$E25                      0043aea0 f   AlertMain.obj
 0001:00039ec0       _$E28                      0043aec0 f   AlertMain.obj
 0001:00039ee0       _$E31                      0043aee0 f   AlertMain.obj
 0001:00039f00       _$E34                      0043af00 f   AlertMain.obj
 0001:00039f20       _$E37                      0043af20 f   AlertMain.obj
 0001:00039f40       _$E40                      0043af40 f   AlertMain.obj
 0001:00039f60       _$E43                      0043af60 f   AlertMain.obj
 0001:00039f80       _$E46                      0043af80 f   AlertMain.obj
 0001:00039fa0       _$E49                      0043afa0 f   AlertMain.obj
 0001:00039fc0       _$E52                      0043afc0 f   AlertMain.obj
 0001:00039fe0       _$E55                      0043afe0 f   AlertMain.obj
 0001:0003a000       _$E58                      0043b000 f   AlertMain.obj
 0001:0003a020       _$E61                      0043b020 f   AlertMain.obj
 0001:0003a040       _$E64                      0043b040 f   AlertMain.obj
 0001:0003a050       _$E67                      0043b050 f   AlertMain.obj
 0001:0003a080       _$E1                       0043b080 f   AlertSendObj.obj
 0001:0003a0a0       _$E6                       0043b0a0 f   AlertSendObj.obj
 0001:0003a0c0       _$E9                       0043b0c0 f   AlertSendObj.obj
 0001:0003a0e0       _$E12                      0043b0e0 f   AlertSendObj.obj
 0001:0003a100       _$E15                      0043b100 f   AlertSendObj.obj
 0001:0003a120       _$E1                       0043b120 f   AlertServer.obj
 0001:0003a140       _$E4                       0043b140 f   AlertServer.obj
 0001:0003a160       _$E7                       0043b160 f   AlertServer.obj
 0001:0003a180       _$E1                       0043b180 f   Base64.obj
 0001:0003a1a0       _$E1                       0043b1a0 f   funcGeneral.obj
 0001:0003a1c0       _$E83                      0043b1c0 f   json_spirit_reader.obj
 0001:0003a1d0       _$E1                       0043b1d0 f   MIMEMessage.obj
 0001:0003a1f0       _$E1                       0043b1f0 f   SMTP.obj
 0001:0003a210       _$E1                       0043b210 f   comsupp:comutil.obj
 0001:0003a21c       _$E5                       0043b21c f   atls:atlbase.obj
 0001:0003a240       _$E2                       0043b240 f   AlertMain.obj
 0001:0003a250       _$E5                       0043b250 f   AlertMain.obj
 0001:0003a260       _$E8                       0043b260 f   AlertMain.obj
 0001:0003a270       _$E11                      0043b270 f   AlertMain.obj
 0001:0003a280       _$E14                      0043b280 f   AlertMain.obj
 0001:0003a290       _$E17                      0043b290 f   AlertMain.obj
 0001:0003a2a0       _$E20                      0043b2a0 f   AlertMain.obj
 0001:0003a2b0       _$E23                      0043b2b0 f   AlertMain.obj
 0001:0003a2c0       _$E26                      0043b2c0 f   AlertMain.obj
 0001:0003a2d0       _$E29                      0043b2d0 f   AlertMain.obj
 0001:0003a2e0       _$E32                      0043b2e0 f   AlertMain.obj
 0001:0003a2f0       _$E35                      0043b2f0 f   AlertMain.obj
 0001:0003a300       _$E38                      0043b300 f   AlertMain.obj
 0001:0003a310       _$E41                      0043b310 f   AlertMain.obj
 0001:0003a320       _$E44                      0043b320 f   AlertMain.obj
 0001:0003a330       _$E47                      0043b330 f   AlertMain.obj
 0001:0003a340       _$E50                      0043b340 f   AlertMain.obj
 0001:0003a350       _$E53                      0043b350 f   AlertMain.obj
 0001:0003a360       _$E56                      0043b360 f   AlertMain.obj
 0001:0003a370       _$E59                      0043b370 f   AlertMain.obj
 0001:0003a380       _$E62                      0043b380 f   AlertMain.obj
 0001:0003a390       _$E73                      0043b390 f   AlertMain.obj
 0001:0003a3a0       _$E75                      0043b3a0 f   AlertMain.obj
 0001:0003a3b0       _$E65                      0043b3b0 f   AlertMain.obj
 0001:0003a3c0       _$E68                      0043b3c0 f   AlertMain.obj
 0001:0003a3f0       _$E2                       0043b3f0 f   AlertSendObj.obj
 0001:0003a400       _$E16                      0043b400 f   AlertSendObj.obj
 0001:0003a410       _$E13                      0043b410 f   AlertSendObj.obj
 0001:0003a420       _$E10                      0043b420 f   AlertSendObj.obj
 0001:0003a430       _$E7                       0043b430 f   AlertSendObj.obj
 0001:0003a440       _$E2                       0043b440 f   AlertServer.obj
 0001:0003a450       _$E5                       0043b450 f   AlertServer.obj
 0001:0003a460       _$E8                       0043b460 f   AlertServer.obj
 0001:0003a470       _$E2                       0043b470 f   Base64.obj
 0001:0003a480       _$E2                       0043b480 f   funcGeneral.obj
 0001:0003a490       _$E2                       0043b490 f   MIMEMessage.obj
 0001:0003a4a0       _$E2                       0043b4a0 f   SMTP.obj
 0001:0003a4b0       _$E2                       0043b4b0 f   comsupp:comutil.obj
 0001:0003a4c6       _$E6                       0043b4c6 f   atls:atlbase.obj

Line numbers for .\Release\SMTP.obj(c:\users\cxy\git\siteview9.2\ecc8.1\server2003\include\base\funcgeneral.h) segment .text

   127 0001:0003a1f0

Line numbers for .\Release\SerialPort.obj(c:\users\cxy\git\siteview9.2\ecc8.1\server2003\kennel\alertserver\serialport.cpp) segment .text

    21 0001:00030cb0    23 0001:00030cd6    27 0001:00030ce0    29 0001:00030ce3
   179 0001:00030d10   195 0001:00030d14   197 0001:00030d52   200 0001:00030d57
   215 0001:00030d5a   203 0001:00030d60   206 0001:00030d6c   207 0001:00030d74
   210 0001:00030d7c   211 0001:00030d98   212 0001:00030da9   214 0001:00030db5
   215 0001:00030db8   255 0001:00030dc0   257 0001:00030dc3   259 0001:00030dc9
   260 0001:00030dcb   272 0001:00030dd0   276 0001:00030de9   278 0001:00030df1
   280 0001:00030df4   321 0001:00030e0a   322 0001:00030e1b   286 0001:00030e1f
   288 0001:00030e35   289 0001:00030e37   292 0001:00030e40   294 0001:00030e46
   289 0001:00030e47   297 0001:00030e4c   300 0001:00030e5e   304 0001:00030e6a
   306 0001:00030e8a   308 0001:00030e8c   310 0001:00030e98   312 0001:00030eb1
   313 0001:00030ec1   316 0001:00030ee1   317 0001:00030efb   321 0001:00030f07
   322 0001:00030f14   359 0001:00030f20   363 0001:00030f38   368 0001:00030f4c
   369 0001:00030f99   371 0001:00030fb1   372 0001:00030fca   375 0001:00030fce
   405 0001:00030ff3   407 0001:00031009   408 0001:00031023   410 0001:00031029
   413 0001:0003103d   418 0001:00031064   419 0001:0003107e   420 0001:0003109b
   425 0001:000310a8   426 0001:000310d7   429 0001:000310df   431 0001:00031112
   434 0001:0003111d   435 0001:0003113b   436 0001:0003113f   437 0001:00031158
   443 0001:00031165   501 0001:00031180   502 0001:000311ab   504 0001:000311ca
   505 0001:000311d1   507 0001:000311f9   510 0001:00031203   511 0001:00031223
   512 0001:00031230   514 0001:00031245   515 0001:00031252   517 0001:00031261
   518 0001:0003129d   519 0001:000312a8   520 0001:000312c9   521 0001:000312db
   522 0001:000312ed   524 0001:0003130b   526 0001:0003131f   532 0001:00031353
   530 0001:00031378   533 0001:0003139a   537 0001:000313c0   536 0001:000313c0
   539 0001:000313ca   541 0001:000313d1   545 0001:000313e0   552 0001:000313f9
   554 0001:0003140e   556 0001:00031412   558 0001:0003141f   559 0001:00031426
   562 0001:0003142b   565 0001:00031437   567 0001:00031477   569 0001:0003147b
   570 0001:00031488   581 0001:000314ab   573 0001:000314c0   575 0001:000314cb
   576 0001:000314d8   581 0001:000314fb   580 0001:00031510   581 0001:0003152e
    73 0001:00031570    74 0001:0003159d    75 0001:000315be    84 0001:000315d2
    85 0001:000315dc    87 0001:0003160c    88 0001:0003161d    91 0001:00031630
    92 0001:00031638    94 0001:00031644   101 0001:00031659   104 0001:00031690
   105 0001:0003169a   106 0001:000316bb   107 0001:000316c5   109 0001:000316cf
   110 0001:000316db   111 0001:00031704   112 0001:0003170b   113 0001:00031729
   115 0001:0003172d   116 0001:0003173e   117 0001:00031767   118 0001:0003176e
   119 0001:0003178c   121 0001:00031790   122 0001:000317a1   123 0001:000317cf
   124 0001:000317d6   125 0001:000317f4   127 0001:000317f8   128 0001:00031809
   129 0001:00031832   130 0001:00031839   131 0001:00031857   133 0001:0003185b
   134 0001:0003186a   136 0001:00031880   137 0001:00031887   138 0001:0003188e
   139 0001:000318a2   140 0001:000318ba   141 0001:000318c3   143 0001:000318e0
   144 0001:000318ea   150 0001:000318fd   152 0001:00031919   153 0001:00031935
   146 0001:0003195c   147 0001:00031967   148 0001:00031974

Line numbers for .\Release\MIMEMessage.obj(c:\users\cxy\git\siteview9.2\ecc8.1\server2003\kennel\alertserver\mimemessage.cpp) segment .text

   155 0001:00030b90   156 0001:00030bc0   159 0001:00030bd0   162 0001:00030bf6
   163 0001:00030c08   164 0001:00030c0b   166 0001:00030c11   167 0001:00030c13
   164 0001:00030c22   170 0001:00030c26   171 0001:00030c2e    17 0001:0003a1d0

Line numbers for .\Release\MIMEMessage.obj(c:\program files (x86)\microsoft visual studio .net 2003\vc7\atlmfc\include\afxtempl.h) segment .text

   874 0001:000309c0   875 0001:000309c3   877 0001:000309f2  1165 0001:00030a00
  1170 0001:00030a02  1172 0001:00030a12  1173 0001:00030a1d  1182 0001:00030a28
  1195 0001:00030a3c  1187 0001:00030a40  1188 0001:00030a47  1191 0001:00030a55
  1192 0001:00030a62  1195 0001:00030ad0    69 0001:00030ae0    74 0001:00030ae0
    80 0001:00030ae9    81 0001:00030afa    85 0001:00030b00    86 0001:00030b0f
    87 0001:00030b21    88 0001:00030b23   108 0001:00030b2d    98 0001:00030b30
   102 0001:00030b34   103 0001:00030b43   104 0001:00030b55   105 0001:00030b57
   108 0001:00030b61

Line numbers for .\Release\MIMEMessage.obj(c:\program files (x86)\microsoft visual studio .net 2003\vc7\atlmfc\include\afxmt.h) segment .text

    71 0001:000308e0

Line numbers for .\Release\MIMEMessage.obj(c:\program files (x86)\microsoft visual studio .net 2003\vc7\atlmfc\include\afx.inl) segment .text

    25 0001:000307f0

Line numbers for .\Release\MIMEMessage.obj(c:\program files (x86)\microsoft visual studio .net 2003\vc7\atlmfc\include\afxmt.inl) segment .text

    42 0001:00030800    43 0001:00030826    45 0001:0003082d    52 0001:0003083e
    53 0001:00030843    47 0001:00030854    49 0001:00030864    53 0001:00030866
    56 0001:00030880    59 0001:000308a4    60 0001:000308b9    61 0001:000308bd
    62 0001:000308c2    67 0001:000308f0    69 0001:00030910    70 0001:00030936
    72 0001:0003093d    78 0001:0003094e    79 0001:00030953    74 0001:00030964
    76 0001:0003096d    81 0001:00030980    83 0001:00030990

Line numbers for .\Release\MailMessage.obj(c:\program files (x86)\microsoft visual studio .net 2003\vc7\atlmfc\include\afx.inl) segment .text

    41 0001:00003b80    43 0001:000307f0

Line numbers for .\Release\json_spirit_reader.obj(c:\users\cxy\git\siteview9.2\ecc8.1\server2003\include\boost\spirit\utility\lists.hpp) segment .text

   330 0001:0003a1c0

Line numbers for .\Release\GsmOperate.obj(c:\users\cxy\git\siteview9.2\ecc8.1\server2003\kennel\alertserver\gsmoperate.cpp) segment .text

    16 0001:000303e0    18 0001:0003040d    21 0001:00030420    23 0001:00030423
    98 0001:00030450   103 0001:00030461   106 0001:0003049e   109 0001:000304b0
   111 0001:000304b6   116 0001:000304c3   235 0001:000304e0   234 0001:000304e0
   238 0001:00030500   242 0001:0003050a   244 0001:0003050c   247 0001:00030512
   249 0001:00030515   251 0001:00030521   253 0001:00030524   255 0001:00030526
   257 0001:0003052d   258 0001:00030530   262 0001:00030537   263 0001:0003053c
   275 0001:00030540   276 0001:00030548   277 0001:00030566   280 0001:00030590
   282 0001:0003059c   283 0001:000305ab   289 0001:000305b0   479 0001:000305d0
   474 0001:000305d0   482 0001:000305d4   484 0001:000305e8   485 0001:000305ea
   486 0001:000305f2   490 0001:000305fe   497 0001:00030600   501 0001:0003060a
   372 0001:00030630   378 0001:0003065f   379 0001:00030679   381 0001:00030682
   382 0001:000306a7   384 0001:000306bf   385 0001:000306d0   390 0001:00030701
   391 0001:0003072d   394 0001:00030743   395 0001:00030759   396 0001:0003075f
   398 0001:00030762   407 0001:00030771   410 0001:00030778   413 0001:00030786
   416 0001:00030788   417 0001:0003079c   419 0001:000307aa   423 0001:000307be

Line numbers for .\Release\funcGeneral.obj(c:\users\cxy\git\siteview9.2\ecc8.1\server2003\include\base\funcgeneral.h) segment .text

   127 0001:0003a1a0

Line numbers for .\Release\funcGeneral.obj(c:\users\cxy\git\siteview9.2\ecc8.1\server2003\include\base\funcgeneral.cpp) segment .text

    27 0001:00030070    28 0001:00030088    29 0001:0003009f    30 0001:000300e3
    31 0001:000300fe   355 0001:00030110   375 0001:0003012b   376 0001:000301f1
   377 0001:00030202   379 0001:00030225   380 0001:0003025e   612 0001:00030280
   613 0001:000302a2   614 0001:000302b9   616 0001:000302cd   618 0001:000302d4
   619 0001:000302e1   621 0001:000302f2   622 0001:000302fb   624 0001:00030311
   626 0001:00030316   627 0001:00030326   629 0001:00030346   630 0001:0003035c
   631 0001:0003036d   633 0001:0003038b   634 0001:000303c4

Line numbers for .\Release\Base64.obj(c:\users\cxy\git\siteview9.2\ecc8.1\server2003\kennel\alertserver\base64.cpp) segment .text

    15 0001:0003a180

Line numbers for .\Release\AlertServer.obj(c:\users\cxy\git\siteview9.2\ecc8.1\server2003\include\base\funcgeneral.h) segment .text

   127 0001:0003a120

Line numbers for .\Release\AlertServer.obj(c:\users\cxy\git\siteview9.2\ecc8.1\server2003\kennel\alertserver\alertserver.cpp) segment .text

    74 0001:0002f310    70 0001:0002f310    76 0001:0002f321    78 0001:0002f325
    89 0001:0002f333    92 0001:0002f335    82 0001:0002f336    84 0001:0002f343
    85 0001:0002f351    92 0001:0002f353    88 0001:0002f354    89 0001:0002f35c
    92 0001:0002f35e   103 0001:0002f360   105 0001:0002f389   107 0001:0002f443
   109 0001:0002f4c0   111 0001:0002f56a   113 0001:0002f5d9   115 0001:0002f683
   117 0001:0002f6f2   119 0001:0002f79c   121 0001:0002f80b   123 0001:0002f8b5
   125 0001:0002f924   127 0001:0002f9ce   129 0001:0002fa3d   131 0001:0002fae7
   133 0001:0002fb56   135 0001:0002fc00   137 0001:0002fc6f   139 0001:0002fd19
   141 0001:0002fd88   143 0001:0002fe32   145 0001:0002fea1   147 0001:0002ff4b
   152 0001:0002ffba   153 0001:0002ffc2   154 0001:0002ffcb   156 0001:0002ffcf
   158 0001:0002ffda   173 0001:0002fff0   175 0001:00030007   176 0001:00030014
   177 0001:00030021   180 0001:0003002a   186 0001:00030032   243 0001:00030040
   244 0001:00030046   189 0001:0003005f    66 0001:0003a140    67 0001:0003a160

Line numbers for .\Release\AlertSendObj.obj(c:\users\cxy\git\siteview9.2\ecc8.1\server2003\include\base\funcgeneral.h) segment .text

   127 0001:0003a080

Line numbers for .\Release\AlertSendObj.obj(c:\program files (x86)\microsoft visual studio .net 2003\vc7\include\map) segment .text

   142 0001:00025de0   143 0001:00025df9   144 0001:00025e09   146 0001:00025e20
   148 0001:00025e72   102 0001:0002e9e0   102 0001:0002e9e0   103 0001:0002ea07
   103 0001:0002ea07

Line numbers for .\Release\AlertSendObj.obj(c:\users\cxy\git\siteview9.2\ecc8.1\server2003\kennel\alertserver\json_spirit_value.h) segment .text

   125 0001:00022ef0   126 0001:00022f10

Line numbers for .\Release\AlertSendObj.obj(c:\program files (x86)\microsoft visual studio .net 2003\vc7\include\list) segment .text

   899 0001:000061d0   898 0001:000061d0   903 0001:000061da   905 0001:000061e0
   913 0001:000061e9   898 0001:00022310   899 0001:00022310   903 0001:0002231a
   905 0001:00022320   913 0001:00022329   917 0001:00022b20   918 0001:00022b41
   919 0001:00022b50   920 0001:00022b57   926 0001:00022b79   922 0001:00022b8e
   923 0001:00022b9a   956 0001:00022bb0   957 0001:00022bb6   958 0001:00022bdc
   959 0001:00022c34   960 0001:00022c39   917 0001:00022c50   918 0001:00022c71
   919 0001:00022c80   920 0001:00022c87   926 0001:00022ca9   922 0001:00022cbe
   923 0001:00022cca   956 0001:00022ce0   957 0001:00022ce6   958 0001:00022d0c
   959 0001:00022d64   960 0001:00022d69   481 0001:00024960   480 0001:00024960
   482 0001:0002498f   610 0001:000249a0   612 0001:000249a4   613 0001:000249a9
   614 0001:000249ab   617 0001:000249b1   619 0001:000249c0   620 0001:000249c2
   621 0001:000249c9   623 0001:000249de   481 0001:000249e0   480 0001:000249e0
   482 0001:00024a0f   610 0001:00024a20   612 0001:00024a24   613 0001:00024a29
   614 0001:00024a2b   617 0001:00024a31   619 0001:00024a40   620 0001:00024a42
   621 0001:00024a49   623 0001:00024a5e   364 0001:000253b0   365 0001:000253b3
   366 0001:000253cc   364 0001:000253d0   365 0001:000253d3   366 0001:000253ec

Line numbers for .\Release\AlertSendObj.obj(c:\program files (x86)\microsoft visual studio .net 2003\vc7\include\memory) segment .text

    77 0001:00020300    78 0001:0002031d    80 0001:00020321    81 0001:00020330
    82 0001:00020335    84 0001:00020357    85 0001:00020361    86 0001:00020370
    89 0001:00020379   207 0001:00022f50   208 0001:00022f6d   210 0001:00022f71
   211 0001:00022f80   212 0001:00022f84   214 0001:00022fa7   215 0001:00022fb1
   216 0001:00022fc0   218 0001:00022fc9

Line numbers for .\Release\AlertSendObj.obj(c:\program files (x86)\microsoft visual studio .net 2003\vc7\include\xutility) segment .text

  1134 0001:00017eb0  1135 0001:00017eb1  1136 0001:00017ec3  1137 0001:00017ed6
  1134 0001:00017ee0  1135 0001:00017ee0  1136 0001:00017ef1  1137 0001:00017efd
  1048 0001:00017fa0  1049 0001:00017fa1  1050 0001:00017fb3  1051 0001:00017fc6
  1052 0001:00017fcb  1051 0001:00017fcc  1052 0001:00017fd2  1069 0001:000202c0
  1067 0001:000202c0  1070 0001:000202e2

Line numbers for .\Release\AlertSendObj.obj(c:\program files (x86)\microsoft visual studio .net 2003\vc7\include\xtree) segment .text

  1068 0001:00000c50  1069 0001:00000c50  1069 0001:00000c50  1068 0001:00000c50
  1070 0001:00000c58  1070 0001:00000c58  1072 0001:00000c5d  1072 0001:00000c5d
  1073 0001:00000c67  1073 0001:00000c67  1074 0001:00000c6a  1074 0001:00000c6a
  1076 0001:00000c70  1076 0001:00000c70  1077 0001:00000c78  1077 0001:00000c78
  1083 0001:00000c7c  1083 0001:00000c7c  1084 0001:00000c7f  1084 0001:00000c7f
  1085 0001:00000c83  1085 0001:00000c83  1078 0001:00000c86  1078 0001:00000c86
  1079 0001:00000c8e  1079 0001:00000c8e  1083 0001:00000c92  1083 0001:00000c92
  1084 0001:00000c95  1084 0001:00000c95  1085 0001:00000c99  1085 0001:00000c99
  1081 0001:00000c9c  1081 0001:00000c9c  1083 0001:00000c9f  1083 0001:00000c9f
  1084 0001:00000ca2  1084 0001:00000ca2  1085 0001:00000ca6  1085 0001:00000ca6
  1035 0001:00000cb0  1035 0001:00000cb0  1034 0001:00000cb0  1034 0001:00000cb0
  1036 0001:00000cc0  1036 0001:00000cc0  1038 0001:00000ccc  1038 0001:00000ccc
   267 0001:00000d30   267 0001:00000d30   268 0001:00000d30   268 0001:00000d30
   270 0001:00000d39   270 0001:00000d39   271 0001:00000d44   271 0001:00000d44
   280 0001:00000d5e   280 0001:00000d5e   276 0001:00000d5f   276 0001:00000d5f
   277 0001:00000d77   277 0001:00000d77   278 0001:00000d83   278 0001:00000d83
   280 0001:00000d86   280 0001:00000d86  1015 0001:00001720  1014 0001:00001720
  1015 0001:00001720  1014 0001:00001720  1016 0001:00001729  1016 0001:00001729
  1018 0001:0000172e  1018 0001:0000172e  1019 0001:00001737  1019 0001:00001737
  1020 0001:0000173a  1020 0001:0000173a  1022 0001:00001740  1022 0001:00001740
  1023 0001:00001748  1023 0001:00001748  1029 0001:0000174c  1029 0001:0000174c
  1030 0001:0000174e  1030 0001:0000174e  1031 0001:00001752  1031 0001:00001752
  1024 0001:00001755  1024 0001:00001755  1025 0001:0000175c  1025 0001:0000175c
  1029 0001:0000175f  1029 0001:0000175f  1030 0001:00001761  1030 0001:00001761
  1031 0001:00001765  1031 0001:00001765  1027 0001:00001768  1027 0001:00001768
  1029 0001:0000176c  1029 0001:0000176c  1030 0001:0000176e  1030 0001:0000176e
  1031 0001:00001772  1031 0001:00001772  1105 0001:00001cc0  1105 0001:00001cc0
  1106 0001:00001cc0  1106 0001:00001cc0  1110 0001:00001cca  1110 0001:00001cca
  1112 0001:00001cd4  1112 0001:00001cd4  1114 0001:00001ce1  1114 0001:00001ce1
  1123 0001:00001cee  1123 0001:00001cee  1124 0001:00001cf2  1124 0001:00001cf2
  1126 0001:00001cf6  1126 0001:00001cf6   250 0001:00017e30   251 0001:00017e30
   252 0001:00017e39   264 0001:00017e3e   253 0001:00017e3f   254 0001:00017e49
   264 0001:00017e62   259 0001:00017e63   260 0001:00017e76   261 0001:00017e82
   262 0001:00017e89   264 0001:00017e8c  1041 0001:00017e90  1042 0001:00017e90
  1041 0001:00017e90  1042 0001:00017e90  1043 0001:00017ea0  1043 0001:00017ea0
  1045 0001:00017eab  1045 0001:00017eab   988 0001:0001fff0   987 0001:0001fff0
   989 0001:0001fff8   991 0001:0001fffa   992 0001:00020010   993 0001:0002001e
   994 0001:00020021   996 0001:00020023   997 0001:00020025  1000 0001:00020030
  1001 0001:00020034  1130 0001:00022d80  1131 0001:00022da1  1132 0001:00022db0
  1133 0001:00022db7  1139 0001:00022de9  1135 0001:00022dfe  1136 0001:00022e0a
   911 0001:00023ee0   912 0001:00023efb   913 0001:00023f04   915 0001:00023f5d
   917 0001:00023f77   918 0001:00023f7c   920 0001:00023f8b   921 0001:00023f8e
   923 0001:00023f99   925 0001:00023fa3   926 0001:00023fa5   927 0001:00023fac
   929 0001:00023fae   931 0001:00023fb0   932 0001:00023fb3   933 0001:00023fbb
   936 0001:00023fbe   937 0001:00023fd3   939 0001:00023fdf   940 0001:00023fe2
   942 0001:00023fe8   943 0001:00023fed   944 0001:00023ff0   945 0001:00023ff9
   947 0001:00023ffe   949 0001:00024000   951 0001:00024005   952 0001:00024007
   954 0001:0002400f   955 0001:00024015   956 0001:0002401f   959 0001:0002402d
   962 0001:0002402f   969 0001:00024033   971 0001:00024035   973 0001:00024039
   974 0001:0002403b   976 0001:00024043   977 0001:00024049   978 0001:00024053
   982 0001:00024077   983 0001:0002407d   984 0001:00024087   477 0001:00024ac0
   481 0001:00024ac3   484 0001:00024ae0   485 0001:00024af0   481 0001:00024aff
   493 0001:00024b06   495 0001:00024b10   496 0001:00024b17   505 0001:00024b37
   498 0001:00024b3b   500 0001:00024b48   501 0001:00024b5a   505 0001:00024b7d
   503 0001:00024b81   505 0001:00024b8f   590 0001:00024f00   591 0001:00024f0e
   592 0001:00024f26   593 0001:00024f81   594 0001:00024f84   600 0001:00024f91
   601 0001:00024f9a   602 0001:00024f9d   603 0001:00024fa9   604 0001:00024fab
   607 0001:00024fad   610 0001:00024fb1   613 0001:00024fb8   614 0001:00024fc2
   616 0001:00024fc5   617 0001:00024fcd   618 0001:00024fd0   619 0001:00024fd6
   620 0001:00024fd8   621 0001:00024fda   623 0001:00024fdd   626 0001:00024fe8
   628 0001:00024ffe   631 0001:0002500a   633 0001:00025016   631 0001:00025018
   633 0001:00025024   635 0001:00025026   636 0001:00025029   638 0001:0002502d
   639 0001:00025032   640 0001:00025034   643 0001:00025036   644 0001:00025040
   645 0001:00025043   646 0001:00025045   647 0001:0002504b   650 0001:00025051
   651 0001:00025059   652 0001:0002505c   653 0001:00025065   654 0001:00025067
   655 0001:00025069   657 0001:0002506c   658 0001:00025072   661 0001:0002507e
   664 0001:0002508f   665 0001:000250a9   667 0001:000250af   668 0001:000250b2
   670 0001:000250b9   672 0001:000250bc   673 0001:000250c8   676 0001:000250cb
   678 0001:000250d0   679 0001:000250d2   686 0001:000250e1   688 0001:000250e9
   690 0001:000250ee   691 0001:000250fa   694 0001:000250fd   695 0001:00025103
   696 0001:00025106   697 0001:00025109   698 0001:00025114   704 0001:00025116
   706 0001:0002511d   708 0001:00025120   709 0001:0002512c   711 0001:0002512e
   713 0001:00025133   714 0001:00025135   716 0001:00025144   664 0001:00025148
   717 0001:0002514e   664 0001:0002515b   721 0001:0002515d   723 0001:00025164
   725 0001:0002516a   726 0001:00025176   729 0001:00025178   730 0001:0002517e
   731 0001:00025181   732 0001:00025183   737 0001:0002518e   740 0001:00025191
   741 0001:0002519e   743 0001:000251a8   744 0001:000251b5   746 0001:000251b9
   747 0001:000251c3   890 0001:000251e0   891 0001:000251e3   893 0001:000251f2
   894 0001:000251fd   895 0001:000251ff   896 0001:00025206   898 0001:0002521b
   509 0001:000253f0   512 0001:000253f6   513 0001:000253fe   580 0001:00025419
   548 0001:0002541f   550 0001:00025424   551 0001:00025448   580 0001:0002545e
   553 0001:00025464   555 0001:00025468   556 0001:00025481   580 0001:0002549d
   560 0001:000254a3   562 0001:000254d6   563 0001:000254dc   580 0001:000254f6
   565 0001:000254fc   580 0001:0002550b   570 0001:00025511   572 0001:00025549
   573 0001:00025551   580 0001:00025569   575 0001:0002556f   580 0001:0002557e
   579 0001:00025584   580 0001:0002559d   590 0001:00025670   591 0001:0002567e
   592 0001:00025696   593 0001:000256f1   594 0001:000256f4   600 0001:00025701
   601 0001:0002570a   602 0001:0002570d   603 0001:00025719   604 0001:0002571b
   607 0001:0002571d   610 0001:00025721   613 0001:00025728   614 0001:00025732
   616 0001:00025735   617 0001:0002573d   618 0001:00025740   619 0001:00025746
   620 0001:00025748   621 0001:0002574a   623 0001:0002574d   626 0001:00025758
   628 0001:0002576e   631 0001:0002577a   633 0001:00025786   631 0001:00025788
   633 0001:00025794   635 0001:00025796   636 0001:00025799   638 0001:0002579d
   639 0001:000257a2   640 0001:000257a4   643 0001:000257a6   644 0001:000257b0
   645 0001:000257b3   646 0001:000257b5   647 0001:000257bb   650 0001:000257c1
   651 0001:000257c9   652 0001:000257cc   653 0001:000257d5   654 0001:000257d7
   655 0001:000257d9   657 0001:000257dc   658 0001:000257e2   661 0001:000257ee
   664 0001:000257ff   665 0001:00025819   667 0001:0002581f   668 0001:00025822
   670 0001:00025829   672 0001:0002582c   673 0001:00025838   676 0001:0002583b
   678 0001:00025840   679 0001:00025842   686 0001:00025851   688 0001:00025859
   690 0001:0002585e   691 0001:0002586a   694 0001:0002586d   695 0001:00025873
   696 0001:00025876   697 0001:00025879   698 0001:00025884   704 0001:00025886
   706 0001:0002588d   708 0001:00025890   709 0001:0002589c   711 0001:0002589e
   713 0001:000258a3   714 0001:000258a5   716 0001:000258b4   664 0001:000258b8
   717 0001:000258be   664 0001:000258cb   721 0001:000258cd   723 0001:000258d4
   725 0001:000258da   726 0001:000258e6   729 0001:000258e8   730 0001:000258ee
   731 0001:000258f1   732 0001:000258f3   737 0001:000258fe   740 0001:00025901
   741 0001:0002590e   743 0001:00025918   744 0001:00025925   746 0001:00025929
   747 0001:00025933   890 0001:00025950   891 0001:00025953   893 0001:00025962
   894 0001:0002596d   895 0001:0002596f   896 0001:00025976   898 0001:0002598b
   750 0001:00025f30   751 0001:00025f31   753 0001:00025f48   754 0001:00025f6b
   762 0001:00025f79   758 0001:00025f7c   759 0001:00025f80   760 0001:00025fdb
   762 0001:00025fe4   750 0001:0002a960   751 0001:0002a961   753 0001:0002a978
   754 0001:0002a99b   762 0001:0002a9a9   758 0001:0002a9ac   759 0001:0002a9b0
   760 0001:0002aa0b   762 0001:0002aa14   267 0001:0003a100

Line numbers for .\Release\AlertSendObj.obj(c:\program files (x86)\microsoft visual studio .net 2003\vc7\include\utility) segment .text

    34 0001:00016e70    35 0001:00016eae

Line numbers for .\Release\AlertSendObj.obj(c:\program files (x86)\microsoft visual studio .net 2003\vc7\include\vector) segment .text

   516 0001:00016920   515 0001:00016920   517 0001:00016927   516 0001:00016928
   517 0001:00016940   883 0001:000174e0   883 0001:000174e0   884 0001:000174f8
   884 0001:000174f8   804 0001:00022f20   801 0001:00022f20   805 0001:00022f48
   877 0001:00023eb0   878 0001:00023eb1   879 0001:00023ed2   880 0001:00023ed7
   809 0001:000240a0   810 0001:000240a1   811 0001:000240a8   813 0001:000240c2
   815 0001:000240ce   816 0001:000240ea   817 0001:000240f1   820 0001:0002410c
   821 0001:00024121   822 0001:00024137   823 0001:00024149   828 0001:00024156
   829 0001:0002417d   830 0001:0002418d   837 0001:000241a1   838 0001:000241b9
   841 0001:000241bd   843 0001:000241c6   844 0001:000241d0   845 0001:000241dc
   874 0001:000241e0   847 0001:000241e4   850 0001:000241f4   854 0001:0002420d
   860 0001:00024227   862 0001:00024235   874 0001:0002424a   868 0001:0002424e
   870 0001:0002425a   872 0001:00024265   874 0001:0002427e   387 0001:00024a60
   388 0001:00024a63   389 0001:00024a89   878 0001:00024a90   877 0001:00024a90
   879 0001:00024aac   880 0001:00024ab8   786 0001:00024ba0   787 0001:00024ba1
   788 0001:00024bc1   809 0001:00024bd0   810 0001:00024bf6   811 0001:00024c0b
   813 0001:00024c2f   815 0001:00024c3a   816 0001:00024c68   817 0001:00024c6f
   820 0001:00024c9f   821 0001:00024cb4   822 0001:00024ce0   823 0001:00024ceb
   828 0001:00024cf7   829 0001:00024d16   830 0001:00024d2c   837 0001:00024d4f
   838 0001:00024d7a   840 0001:00024d81   841 0001:00024d8d   843 0001:00024d99
   844 0001:00024d9c   845 0001:00024da9   847 0001:00024dac   832 0001:00024db1
   833 0001:00024dc1   834 0001:00024dca   847 0001:00024dd3   850 0001:00024dff
   854 0001:00024e16   860 0001:00024e47   862 0001:00024e54   864 0001:00024e6b
   856 0001:00024e6d   857 0001:00024e87   868 0001:00024e90   870 0001:00024ea7
   872 0001:00024ebc   874 0001:00024ecc   620 0001:000255b0   621 0001:000255b1
   622 0001:000255f9   623 0001:00025608   624 0001:00025617   791 0001:00025620
   792 0001:00025624   794 0001:0002562c   795 0001:00025642   797 0001:00025650
   798 0001:00025666   387 0001:00025e90   388 0001:00025e90   579 0001:00025ea0
   580 0001:00025ea5   581 0001:00025ee8   584 0001:00025f0a   583 0001:00025f0d
   584 0001:00025f25

Line numbers for .\Release\AlertSendObj.obj(c:\program files (x86)\microsoft visual studio .net 2003\vc7\atlmfc\include\cstringt.h) segment .text

  2023 0001:00016440  2024 0001:00016458  2026 0001:00016477  2028 0001:000164ad
  2029 0001:000164cb  2032 0001:000164e0  2033 0001:000164f8  2035 0001:00016517
  2037 0001:0001654f  2038 0001:0001656d

Line numbers for .\Release\AlertSendObj.obj(c:\users\cxy\git\siteview9.2\ecc8.1\server2003\kennel\alertserver\alertsendobj.cpp) segment .text

   434 0001:000148f0   436 0001:00014907   438 0001:0001490d   440 0001:0001490f
   442 0001:0001491e   453 0001:00014932   444 0001:00014943   446 0001:0001495e
   448 0001:00014960   452 0001:00014962   453 0001:00014975   674 0001:00014990
   677 0001:00014a10   681 0001:00014a30   683 0001:00014a53  3500 0001:00014ad0
  3499 0001:00014ad0   737 0001:00014ad0   738 0001:00014ad0  2325 0001:00014ad0
  2324 0001:00014ad0  3501 0001:00014ad4   739 0001:00014ad4  2326 0001:00014ad4
  1702 0001:00014ba0  1705 0001:00014bc7  1706 0001:00014c2d  1707 0001:00014c3b
  1708 0001:00014c4e  1710 0001:00014c72  1712 0001:00014cca  1714 0001:00014ce2
  1716 0001:00014d01  1717 0001:00014d0b  1718 0001:00014d2f  1720 0001:00014d49
  1721 0001:00014d64  1723 0001:00014d66  1727 0001:00014d8d  1728 0001:00014d98
  1730 0001:00014da6  1731 0001:00014dc7  4054 0001:00014e90  4056 0001:00014ebb
  4057 0001:00014ed0  4059 0001:00014eed  4060 0001:00014f00  4061 0001:00014f1d
  4063 0001:00014f37  4065 0001:00014f49  4067 0001:0001503c  4070 0001:0001505a
  4072 0001:0001506d  4074 0001:00015075  4076 0001:000150ae  4077 0001:000150b0
  4079 0001:000150bb  4081 0001:000151a4  4083 0001:0001528d  4084 0001:00015296
  4085 0001:000152b1  4087 0001:000152c4  4088 0001:000152ed  4091 0001:00015302
  4092 0001:00015312  4093 0001:00015347  4096 0001:00015354  4098 0001:0001541d
  4099 0001:0001542d  4100 0001:00015463  4102 0001:00015470  4103 0001:0001547e
  4113 0001:000154a9  4116 0001:000154b6  4117 0001:0001554c  4118 0001:0001555e
  4119 0001:000155eb  4121 0001:000155fd  4122 0001:0001568d  4124 0001:0001569f
  4125 0001:000156ae  4127 0001:000156c0  4128 0001:000156cd  4130 0001:000156d2
  4131 0001:0001570b  4133 0001:00015748  4134 0001:00015755  4135 0001:0001576a
  4136 0001:000157a8  4137 0001:00015837  4138 0001:0001584c  4139 0001:00015869
  4140 0001:00015884  4142 0001:000158ba  4143 0001:000158c4  4144 0001:000158d4
  4148 0001:000159a5  4149 0001:000159af  4150 0001:000159bf  4314 0001:00015a8b
  4745 0001:00015ab0  4747 0001:00015ad6  4749 0001:00015add  4755 0001:00015af9
  4750 0001:00015b0c  4752 0001:00015b15  4810 0001:00015b30  4812 0001:00015bc1
  4815 0001:00015be0  4816 0001:00015c03  5025 0001:00015c90  5026 0001:00015cbb
  5028 0001:00015cdb  5029 0001:00015cec  5030 0001:00015cfd  5031 0001:00015d0e
  5034 0001:00015d13  5035 0001:00015d1d  5037 0001:00015d39  5039 0001:00015d48
  5040 0001:00015dac  5042 0001:00015db8  5043 0001:00015dc4  5045 0001:00015dcc
  5046 0001:00015ddb  5047 0001:00015e08  5049 0001:00015e19  5050 0001:00015e28
  5051 0001:00015e47  5053 0001:00015e58  5054 0001:00015e67  5055 0001:00015e83
  5056 0001:00015e9a  5057 0001:00015ea4  5059 0001:00015ece  5060 0001:00015edd
  5062 0001:00015eee  5063 0001:00015f11  5065 0001:00015f1f  5431 0001:00015f60
  5432 0001:00015f61  5434 0001:00015f69  5436 0001:00015f8a  5438 0001:00015f91
  5439 0001:00015f96  5436 0001:00015f99  5440 0001:00015f9c  5443 0001:00015fa2
  5497 0001:00015fb0  5499 0001:0001600e  5503 0001:00016030  5505 0001:00016053
  5644 0001:000160b0  5645 0001:000160ca  5646 0001:000160dc  5663 0001:000160e1
  5664 0001:000160ee  5665 0001:000160f5  5666 0001:000160fc  5667 0001:00016103
  5668 0001:0001610a  5671 0001:00016111  5672 0001:00016135  5673 0001:00016162
  5675 0001:0001618c  5677 0001:000161a7  5678 0001:000161b6  5679 0001:000161c5
  5682 0001:000161d4  5683 0001:000161e1  5684 0001:000161ee  5685 0001:000161fb
  5687 0001:00016208  5688 0001:00016212  5691 0001:00016217  5695 0001:0001622a
  5699 0001:0001623d  5712 0001:00016255  5713 0001:0001627c  5715 0001:0001628b
  5716 0001:000162a2  5717 0001:000162af  5718 0001:000162b6  5719 0001:000162bd
  5720 0001:000162c4  5721 0001:000162cb  5723 0001:000162d2  5724 0001:000162d7
  5725 0001:000162dd  5726 0001:00016323  5746 0001:00016340  5748 0001:0001639e
  5752 0001:000163c0  5754 0001:000163e3   458 0001:000189d0   459 0001:000189fa
   467 0001:00018a0f   471 0001:00018a48   474 0001:00018a4e   475 0001:00018a6d
   479 0001:00018a94   482 0001:00018a9a   486 0001:00018ac1   489 0001:00018ac7
   493 0001:00018aee   496 0001:00018af4   500 0001:00018b1b   503 0001:00018b1d
   507 0001:00018b46   510 0001:00018b48   514 0001:00018b69   517 0001:00018b6b
   521 0001:00018b8c   524 0001:00018c28   528 0001:00018c2e   530 0001:00018c48
   534 0001:00018c6d   536 0001:00018c79   539 0001:00018ceb   544 0001:00018d00
   545 0001:00018d88   550 0001:00018db0   551 0001:00018dda   559 0001:00018def
   563 0001:00018e28   566 0001:00018e2e   567 0001:00018e4d   571 0001:00018e74
   574 0001:00018e7a   578 0001:00018ea1   581 0001:00018ea7   585 0001:00018ece
   589 0001:00018ed4   593 0001:00018efb   596 0001:00018f01   600 0001:00018f28
   603 0001:00018f2a   607 0001:00018f53   610 0001:00018f55   614 0001:00018f76
   617 0001:00018f78   621 0001:00018f99   624 0001:0001904a   628 0001:00019050
   630 0001:0001906a   634 0001:0001908a   636 0001:00019099   639 0001:0001910d
   644 0001:00019122   645 0001:000191bf   693 0001:00019210   694 0001:00019235
   695 0001:00019247   696 0001:00019264   698 0001:00019289   699 0001:00019382
   703 0001:000193d0   704 0001:000193f5   705 0001:00019407   706 0001:00019424
   708 0001:00019449   709 0001:00019567   713 0001:000195d0   714 0001:000195f5
   715 0001:00019613   716 0001:0001962d   717 0001:00019692   719 0001:000196a1
   720 0001:000196e6   721 0001:000196f8   722 0001:00019713   723 0001:00019725
   724 0001:00019740   725 0001:00019752   726 0001:000197c3   727 0001:0001982b
   728 0001:00019893   729 0001:000198f7   730 0001:0001995e   732 0001:0001996d
   733 0001:000199da  1431 0001:00019a10  1432 0001:00019a35  1433 0001:00019a53
  1434 0001:00019a6d  1435 0001:00019ad2  1437 0001:00019ae1  1438 0001:00019b26
  1439 0001:00019b38  1440 0001:00019b53  1441 0001:00019b65  1442 0001:00019b80
  1443 0001:00019b92  1444 0001:00019c03  1445 0001:00019c6b  1446 0001:00019cd3
  1447 0001:00019d37  1448 0001:00019d9e  1449 0001:00019dad  1450 0001:00019e1a
  1456 0001:00019e50  1458 0001:00019e76  1460 0001:00019e8e  1463 0001:00019eba
  1465 0001:00019fb5  1468 0001:00019fc6  1470 0001:00019fce  1472 0001:0001a009
  1474 0001:0001a00b  1517 0001:0001a016  1518 0001:0001a0ac  1520 0001:0001a0bc
  1521 0001:0001a152  1525 0001:0001a162  1526 0001:0001a1f8  1528 0001:0001a208
  1529 0001:0001a29e  1531 0001:0001a2ae  1532 0001:0001a339  1533 0001:0001a3c5
  1535 0001:0001a3d5  1536 0001:0001a48c  1541 0001:0001a49c  1542 0001:0001a537
  1547 0001:0001a547  1548 0001:0001a5db  1551 0001:0001a5eb  1552 0001:0001a67a
  1555 0001:0001a68a  1557 0001:0001a6ca  1562 0001:0001a760  1563 0001:0001a772
  1564 0001:0001a7d0  1565 0001:0001a7e0  1569 0001:0001a7f4  1571 0001:0001a80c
  1573 0001:0001a822  1575 0001:0001a83d  1577 0001:0001a853  1579 0001:0001a86e
  1581 0001:0001a884  1583 0001:0001a89c  1585 0001:0001a8b2  1587 0001:0001a8ca
  1594 0001:0001a8f0  1595 0001:0001a8fb  1596 0001:0001a986  1598 0001:0001a996
  1601 0001:0001a9ab  1604 0001:0001a9b8  1606 0001:0001a9cc  1608 0001:0001a9d1
  1610 0001:0001a9d8  1612 0001:0001a9dd  1616 0001:0001a9e2  1618 0001:0001a9e9
  1620 0001:0001a9ee  1622 0001:0001a9f0  1624 0001:0001aa02  1625 0001:0001aa8d
  1627 0001:0001aa9d  1628 0001:0001aaaa  1629 0001:0001aabb  1698 0001:0001aac2
  2972 0001:0001ab60  2973 0001:0001ab85  2974 0001:0001aba3  2975 0001:0001abbd
  2976 0001:0001ac22  2978 0001:0001ac31  2979 0001:0001ac76  2980 0001:0001ac88
  2981 0001:0001aca3  2982 0001:0001acb5  2983 0001:0001acd0  2984 0001:0001ace2
  2985 0001:0001ad53  2986 0001:0001adbb  2987 0001:0001ae23  2988 0001:0001ae87
  2989 0001:0001aeee  2990 0001:0001aefd  2991 0001:0001af6a  3081 0001:0001afa0
  3082 0001:0001afc6  3085 0001:0001affa  3089 0001:0001b007  3090 0001:0001b04c
  3094 0001:0001b056  3096 0001:0001b144  3098 0001:0001b154  3099 0001:0001b15f
  3103 0001:0001b16a  3104 0001:0001b24f  3109 0001:0001b266  3110 0001:0001b29d
  3113 0001:0001b2aa  3115 0001:0001b2ba  3117 0001:0001b2c4  3121 0001:0001b2fe
  3122 0001:0001b394  3124 0001:0001b3a4  3125 0001:0001b436  3128 0001:0001b446
  3129 0001:0001b4d8  3132 0001:0001b4e8  3134 0001:0001b50a  3135 0001:0001b5a9
  3138 0001:0001b5b9  3139 0001:0001b632  3145 0001:0001b63c  3146 0001:0001b6d4
  3183 0001:0001b6e4  3190 0001:0001b6f8  3191 0001:0001b788  3195 0001:0001b798
  3197 0001:0001b7fd  3199 0001:0001b845  3200 0001:0001b8d8  3293 0001:0001b8e8
  3297 0001:0001b980  3298 0001:0001b9ab  3299 0001:0001b9c0  3300 0001:0001b9dd
  3305 0001:0001b9eb  3307 0001:0001bae9  3308 0001:0001baf9  3312 0001:0001bb39
  3314 0001:0001bb4a  3316 0001:0001bb54  3320 0001:0001bb8f  3321 0001:0001bc22
  3326 0001:0001bc32  3327 0001:0001bcc2  3332 0001:0001bcd2  3334 0001:0001bcf0
  3335 0001:0001bd02  3336 0001:0001bd25  3337 0001:0001bd4c  3338 0001:0001bd75
  3340 0001:0001bdfb  3346 0001:0001be0b  3347 0001:0001be9b  3348 0001:0001beab
  3351 0001:0001bebf  3352 0001:0001bf4f  3353 0001:0001bf5f  3354 0001:0001bf79
  3358 0001:0001bf86  3359 0001:0001bffc  3360 0001:0001c009  3365 0001:0001c012
  3366 0001:0001c041  3367 0001:0001c053  3368 0001:0001c0ba  3371 0001:0001c0d1
  3377 0001:0001c0d6  3378 0001:0001c0f3  3379 0001:0001c105  3380 0001:0001c16c
  3383 0001:0001c18d  3384 0001:0001c213  3388 0001:0001c223  3389 0001:0001c2ac
  3393 0001:0001c2bc  3395 0001:0001c31d  3397 0001:0001c365  3398 0001:0001c3f8
  3400 0001:0001c408  3401 0001:0001c412  3495 0001:0001c42e  4820 0001:0001c4f0
  4821 0001:0001c515  4822 0001:0001c533  4823 0001:0001c54d  4824 0001:0001c5b2
  4826 0001:0001c5c1  4827 0001:0001c606  4828 0001:0001c618  4829 0001:0001c633
  4830 0001:0001c645  4831 0001:0001c660  4832 0001:0001c672  4833 0001:0001c6e3
  4834 0001:0001c74b  4835 0001:0001c7b3  4836 0001:0001c817  4837 0001:0001c87e
  4838 0001:0001c88d  4839 0001:0001c8fa  5086 0001:0001c930  5088 0001:0001c954
  5089 0001:0001c970  5091 0001:0001c975  5092 0001:0001c984  5108 0001:0001c99e
  5109 0001:0001c9b9  5113 0001:0001c9d4  5114 0001:0001c9e9  5115 0001:0001c9f3
  5116 0001:0001c9fa  5117 0001:0001ca01  5118 0001:0001ca0b  5120 0001:0001ca12
  5121 0001:0001ca2d  5123 0001:0001ca5b  5124 0001:0001ca7c  5125 0001:0001caa5
  5128 0001:0001cace  5129 0001:0001cae3  5130 0001:0001cafc  5131 0001:0001cb15
  5136 0001:0001cb2e  5138 0001:0001cbc9  5139 0001:0001cbd3  5140 0001:0001cbf4
  5141 0001:0001cc15  5151 0001:0001cc39  5152 0001:0001cc4b  5154 0001:0001cc9e
  5156 0001:0001cd77  5158 0001:0001cd7c  5162 0001:0001ce6c  5163 0001:0001ce88
  5166 0001:0001ce9e  5167 0001:0001ceca  5170 0001:0001cef3  5171 0001:0001cf05
  5174 0001:0001cf0a  5178 0001:0001cf1d  5182 0001:0001cf36  5187 0001:0001cf50
  5189 0001:0001cf6e  5191 0001:0001cf87  5192 0001:0001cfad  5194 0001:0001cfb6
  5196 0001:0001cfca  5197 0001:0001cfed  5198 0001:0001cff7  5200 0001:0001d001
  5204 0001:0001d019  5206 0001:0001d07a  5211 0001:0001d084  5215 0001:0001d097
  5217 0001:0001d0d8  5219 0001:0001d0e7  5220 0001:0001d0fe  5224 0001:0001d105
  5225 0001:0001d135  5227 0001:0001d13f  5229 0001:0001d157  5232 0001:0001d170
  5234 0001:0001d198  5235 0001:0001d1a7  5272 0001:0001d1ac  5275 0001:0001d1be
  5276 0001:0001d1c2  5239 0001:0001d1c7  5241 0001:0001d1da  5242 0001:0001d1f3
  5244 0001:0001d21b  5250 0001:0001d232  5252 0001:0001d24e  5253 0001:0001d26a
  5257 0001:0001d274  5259 0001:0001d2a7  5261 0001:0001d2b6  5264 0001:0001d2cd
  5265 0001:0001d2d1  5267 0001:0001d2e9  5268 0001:0001d302  5270 0001:0001d32a
  5272 0001:0001d341  5275 0001:0001d350  5276 0001:0001d354  5278 0001:0001d370
  5280 0001:0001d389  5281 0001:0001d396  5298 0001:0001d3a9  5299 0001:0001d40f
  5300 0001:0001d44a  5301 0001:0001d45e  5302 0001:0001d4c2  5303 0001:0001d4fd
  5305 0001:0001d511  5306 0001:0001d518  5312 0001:0001d51f  5313 0001:0001d52c
  5314 0001:0001d53c  5315 0001:0001d549  5317 0001:0001d55c  5322 0001:0001d566
  5326 0001:0001d579  5327 0001:0001d5ba  5329 0001:0001d5c9  5330 0001:0001d5d8
  5331 0001:0001d5df  5332 0001:0001d5fb  5334 0001:0001d61a  5335 0001:0001d627
  5337 0001:0001d63a  5340 0001:0001d649  5341 0001:0001d64d  5344 0001:0001d652
  5345 0001:0001d661  5346 0001:0001d678  5348 0001:0001d6b2  5349 0001:0001d6d1
  5350 0001:0001d6db  5351 0001:0001d6e8  5352 0001:0001d6f7  5354 0001:0001d712
  5355 0001:0001d71f  5356 0001:0001d729  5357 0001:0001d730  5358 0001:0001d737
  5359 0001:0001d741  5363 0001:0001d748  5364 0001:0001d74d  5366 0001:0001d753
  5367 0001:0001d7d7  5509 0001:0001d820  5510 0001:0001d845  5511 0001:0001d863
  5512 0001:0001d87d  5513 0001:0001d8e2  5515 0001:0001d8f1  5516 0001:0001d936
  5517 0001:0001d948  5518 0001:0001d963  5519 0001:0001d975  5520 0001:0001d990
  5521 0001:0001d9a2  5522 0001:0001da13  5523 0001:0001da7b  5524 0001:0001dae3
  5525 0001:0001db47  5526 0001:0001db56  5527 0001:0001dbc3  5531 0001:0001dbf0
  5532 0001:0001dc1b  5533 0001:0001dc45  5534 0001:0001dc53  5536 0001:0001dc6a
  5537 0001:0001dc7d  5538 0001:0001dc8e  5539 0001:0001dce6  5540 0001:0001dcf4
  5541 0001:0001dd52  5542 0001:0001ddb0  5544 0001:0001de0e  5545 0001:0001de48
  5546 0001:0001de58  5547 0001:0001de6e  5548 0001:0001de7e  5549 0001:0001de94
  5550 0001:0001dea8  5551 0001:0001df07  5552 0001:0001df66  5553 0001:0001dfc5
  5594 0001:0001e024  5595 0001:0001e036  5599 0001:0001e047  5601 0001:0001e091
  5603 0001:0001e0a8  5621 0001:0001e0e4  5607 0001:0001e0f5  5610 0001:0001e118
  5612 0001:0001e11a  5614 0001:0001e122  5616 0001:0001e12b  5618 0001:0001e12d
  5621 0001:0001e14a  5624 0001:0001e15b  5626 0001:0001e19c  5632 0001:0001e1e9
  5636 0001:0001e20e  5637 0001:0001e223  5639 0001:0001e240  5640 0001:0001e28e
  5758 0001:0001e2d0  5759 0001:0001e2f5  5760 0001:0001e313  5761 0001:0001e32d
  5762 0001:0001e392  5764 0001:0001e3a1  5765 0001:0001e3e6  5766 0001:0001e3f8
  5767 0001:0001e413  5768 0001:0001e425  5769 0001:0001e440  5770 0001:0001e452
  5771 0001:0001e4c3  5772 0001:0001e52b  5773 0001:0001e593  5774 0001:0001e5f7
  5775 0001:0001e606  5776 0001:0001e673   688 0001:0001e6a0  5780 0001:0001e6a0
   687 0001:0001e6a0  5782 0001:0001e6a0   689 0001:0001e6a2  5783 0001:0001e6a2
  1738 0001:00020530  1741 0001:0002055b  1743 0001:00020573  1747 0001:0002059f
  1753 0001:0002069a  1757 0001:000206ab  1759 0001:000206bb  1765 0001:000206f4
  1766 0001:0002078a  1768 0001:0002079a  1769 0001:00020830  1773 0001:00020840
  1774 0001:000208d6  1777 0001:000208e6  1778 0001:0002097c  1781 0001:0002098c
  1782 0001:00020a16  1783 0001:00020aa4  1787 0001:00020ab4  1789 0001:00020b4a
  1790 0001:00020b5a  1795 0001:00020b8f  1796 0001:00020c2c  1800 0001:00020c3c
  1801 0001:00020cd2  1804 0001:00020ce2  1805 0001:00020d78  1806 0001:00020d88
  1809 0001:00020dbc  1810 0001:00020e3d  1811 0001:00020e4a  1813 0001:00020e4f
  1814 0001:00020e7e  1815 0001:00020e90  1816 0001:00020eff  1819 0001:00020f15
  1821 0001:00020f1a  1822 0001:00020f36  1823 0001:00020f48  1824 0001:00020fb7
  1827 0001:00020fd7  1828 0001:00021065  1832 0001:00021075  1833 0001:00021106
  1837 0001:00021116  1860 0001:0002116f  1864 0001:00021180  1866 0001:00021190
  1868 0001:0002119b  1870 0001:000211a2  1872 0001:000211ad  1876 0001:000211b2
  1878 0001:000211b9  1880 0001:000211be  1882 0001:000211c5  1884 0001:000211ca
  1886 0001:000211cc  1889 0001:000211da  1890 0001:000211eb  1891 0001:0002121a
  1893 0001:00021241  1896 0001:00021260  1898 0001:0002126d  1900 0001:00021284
  1902 0001:00021296  1904 0001:000212bd  1906 0001:000212d5  1909 0001:00021307
  1911 0001:00021317  1913 0001:0002132f  1917 0001:00021361  1918 0001:0002136a
  1920 0001:000213a9  1923 0001:000213bf  1924 0001:000213d6  1925 0001:00021403
  1926 0001:00021410  1927 0001:00021440  1930 0001:00021455  1931 0001:0002146c
  1932 0001:00021499  1934 0001:000214ae  1935 0001:000214c5  1936 0001:000214f2
  1937 0001:00021507  1893 0001:00021545  1940 0001:00021549  1952 0001:00021557
  1953 0001:00021564  1954 0001:00021580  1955 0001:0002158d  1956 0001:0002159d
  1962 0001:000215aa  1964 0001:00021611  1966 0001:00021659  1967 0001:000216ee
  2076 0001:000216fe  2079 0001:0002170b  2081 0001:0002171b  2083 0001:00021720
  2085 0001:00021727  2087 0001:0002172c  2091 0001:00021731  2093 0001:00021738
  2095 0001:0002173d  2097 0001:0002173f  2099 0001:00021751  2100 0001:000217df
  2320 0001:000217ef  5447 0001:000252f0  5448 0001:00025309  5449 0001:0002530d
  5451 0001:00025320  5452 0001:0002532e  5453 0001:0002537e  5455 0001:00025391
   743 0001:00025990   744 0001:00025a66   745 0001:00025a78   747 0001:00025a85
   751 0001:00025ab0   753 0001:00025ad4  2449 0001:00025bb0  2450 0001:00025c90
  2451 0001:00025ca2  2453 0001:00025caf  2457 0001:00025cd0  2459 0001:00025cf4
  2330 0001:00026010  2333 0001:00026034  2338 0001:00026049  2343 0001:00026098
  2346 0001:0002610c  2350 0001:00026126  2405 0001:00026221  2353 0001:00026228
  2356 0001:000262ca  2360 0001:000262e2  2361 0001:000262ef  2370 0001:0002630e
  2372 0001:000263f3  2373 0001:000263fd  2376 0001:00026416  2378 0001:00026436
  2379 0001:00026519  2381 0001:000265fc  2384 0001:00026621  2398 0001:00026639
  2401 0001:000266a2  2405 0001:000266b6  2408 0001:000267b8  2410 0001:00026854
  2412 0001:0002685a  2413 0001:00026865  2421 0001:00026888  2424 0001:00026967
  2426 0001:00026990  2427 0001:00026a6f  2428 0001:00026b4e  2431 0001:00026b73
  2445 0001:00026bad  2431 0001:00026bc2  2444 0001:00026bc6  2445 0001:00026c22
  3505 0001:00026c60  3508 0001:00026c84  3513 0001:00026c99  3518 0001:00026ce8
  3521 0001:00026d5c  3525 0001:00026d76  3565 0001:00026e71  3528 0001:00026e78
  3530 0001:00026f68  3533 0001:00026f8d  3535 0001:00027072  3537 0001:00027092
  3538 0001:00027175  3539 0001:00027254  3558 0001:00027279  3561 0001:000272e2
  3565 0001:000272f6  3568 0001:000273f8  3570 0001:000274e2  3573 0001:000274e8
  3575 0001:000275c7  3577 0001:000275f0  3578 0001:000276cf  3579 0001:000277ae
  3581 0001:000277ba  3603 0001:000277f0  3585 0001:00027805  3586 0001:00027812
  3590 0001:00027827  3602 0001:0002784d  3603 0001:000278b0  3607 0001:000278d0
  3613 0001:000278ea  3614 0001:000278fb  3618 0001:00027910  3621 0001:00027938
  3629 0001:0002793c  3631 0001:0002796c  3634 0001:0002796f  3623 0001:00027971
  3625 0001:000279a3  3636 0001:000279e3  3639 0001:00027a20  3640 0001:00027a4a
  3642 0001:00027a67  3644 0001:00027a77  3648 0001:00027a95  3653 0001:00027aa0
  3655 0001:00027ab1  3657 0001:00027ad0  3659 0001:00027aec  3661 0001:00027afb
  3662 0001:00027b00  3664 0001:00027b0d  3666 0001:00027b0e  3668 0001:00027b1a
  3672 0001:00027b22  3680 0001:00027b40  3681 0001:00027b51  3682 0001:00027b5f
  3684 0001:00027b85  3688 0001:00027bb5  3690 0001:00027bc4  3691 0001:00027c18
  3692 0001:00027c52  3694 0001:00027c5f  3697 0001:00027c78  3701 0001:00027c9d
  3703 0001:00027cb1  3704 0001:00027cf0  3708 0001:00027d20  3710 0001:00027d49
  3711 0001:00027dc1  3712 0001:00027dd3  3714 0001:00027de5  3715 0001:00027df2
  3716 0001:00027e02  3719 0001:00027e12  3720 0001:00027ec1  3721 0001:00027f72
  3722 0001:0002801e  3724 0001:000280d0  3725 0001:000280e2  3726 0001:000280f4
  3727 0001:00028106  3728 0001:00028118  3729 0001:0002812a  3731 0001:0002813a
  3732 0001:00028168  3734 0001:000281c3  3736 0001:000281c8  3737 0001:000281d6
  3740 0001:000281fa  3743 0001:00028210  3744 0001:00028219  3745 0001:0002822c
  3746 0001:000282f9  3747 0001:00028308  3748 0001:000283d3  3749 0001:000283e2
  3750 0001:000283f1  3751 0001:0002849b  3752 0001:00028522  3753 0001:0002853c
  3754 0001:00028542  3755 0001:00028561  3756 0001:0002856e  3757 0001:0002858a
  3758 0001:00028597  3760 0001:000285b1  3761 0001:000285cd  3762 0001:000285da
  3763 0001:000285dc  3764 0001:000285ee  3765 0001:00028627  3766 0001:00028636
  3767 0001:00028703  3768 0001:0002872a  3769 0001:00028735  3772 0001:0002875c
  3774 0001:000287fe  3775 0001:00028886  3776 0001:000288c2  3778 0001:00028901
  3779 0001:00028937  3781 0001:00028970  3782 0001:0002897e  3783 0001:0002898f
  3784 0001:0002899f  3786 0001:000289af  3787 0001:000289d3  3788 0001:000289d6
  3792 0001:000289ff  3793 0001:00028aa1  3794 0001:00028b50  3796 0001:00028b60
  3799 0001:00028c2a  3801 0001:00028c31  3802 0001:00028c4f  3803 0001:00028c59
  3804 0001:00028c5b  3806 0001:00028c60  3807 0001:00028c62  3808 0001:00028c70
  3809 0001:00028ca5  3810 0001:00028cdd  3812 0001:00028d10  3814 0001:00028d45
  3815 0001:00028d53  3816 0001:00028d63  3819 0001:00028d7d  3820 0001:00028e31
  3822 0001:00028e5b  3823 0001:00028e99  3825 0001:00028ebb  3826 0001:00028f12
  3828 0001:00028f28  3830 0001:00028f54  3831 0001:00028f5b  3833 0001:00028f72
  3834 0001:00028f8f  3835 0001:00028fca  3837 0001:0002900d  3838 0001:0002901e
  3839 0001:00029048  3841 0001:0002909d  3842 0001:000290ad  3844 0001:000290d1
  3846 0001:0002914b  3848 0001:00029192  3850 0001:000291be  3851 0001:000291df
  3852 0001:0002924f  3853 0001:00029254  3855 0001:00029339  3857 0001:0002935b
  3858 0001:0002937c  3859 0001:000293ec  3860 0001:000293f1  3862 0001:000294d6
  3863 0001:000294f4  3865 0001:00029577  3866 0001:00029581  3867 0001:0002959c
  3868 0001:000295be  3869 0001:000295cb  3871 0001:000295d5  3872 0001:00029603
  3874 0001:0002961b  3875 0001:00029634  3876 0001:00029648  3877 0001:00029661
  3878 0001:00029678  3879 0001:00029691  3872 0001:000296a3  3881 0001:000296ab
  3883 0001:000296b5  3886 0001:000296cf  3887 0001:000296e1  3898 0001:000296e6
  3900 0001:000296f5  3893 0001:00029748  3894 0001:00029790  3896 0001:000297a6
  3828 0001:000297cc  3902 0001:000297d8  3915 0001:000297e6  3916 0001:000297ed
  3909 0001:00029b75  3910 0001:00029b87  3911 0001:00029bdd  3912 0001:00029bec
  3913 0001:00029bf7  3914 0001:00029c14  3917 0001:00029d10  3921 0001:00029d30
  3934 0001:00029d51  3937 0001:00029e28  3939 0001:00029e3e  3943 0001:00029e5b
  3945 0001:00029e6c  3949 0001:00029e9b  3977 0001:00029eae  3984 0001:00029ecb
  3977 0001:00029ed7  3979 0001:00029ee0  3981 0001:00029ef9  3982 0001:00029f0d
  3984 0001:00029f38  3986 0001:00029f50  3994 0001:00029f69  3996 0001:00029f70
  3998 0001:00029fb6  4004 0001:00029fc3  4005 0001:00029fc8  4006 0001:00029fcd
  4007 0001:00029fd4  4010 0001:00029fed  3977 0001:0002a01a  4012 0001:0002a01c
  4013 0001:0002a0b2  4560 0001:0002a0e0  4561 0001:0002a10b  4562 0001:0002a126
  4564 0001:0002a131  4565 0001:0002a141  4570 0001:0002a15a  4571 0001:0002a22d
  4573 0001:0002a2f6  4574 0001:0002a2fd  4575 0001:0002a312  4576 0001:0002a319
  4578 0001:0002a327  4580 0001:0002a34c  4581 0001:0002a380  4584 0001:0002a38c
  4586 0001:0002a3a4  4587 0001:0002a3b1  4590 0001:0002a3d5  4605 0001:0002a3df
  4607 0001:0002a3f1  4614 0001:0002a422  4616 0001:0002a43b  4618 0001:0002a45b
  4619 0001:0002a476  4620 0001:0002a4a0  4621 0001:0002a4b8  4622 0001:0002a4cd
  4623 0001:0002a4e8  4624 0001:0002a50f  4625 0001:0002a527  4626 0001:0002a553
  4659 0001:0002a571  4662 0001:0002a57e  4663 0001:0002a59e  4664 0001:0002a5c0
  4666 0001:0002a5fc  4667 0001:0002a609  4668 0001:0002a612  4669 0001:0002a632
  4671 0001:0002a639  4675 0001:0002a66b  4676 0001:0002a681  4678 0001:0002a68f
  4679 0001:0002a69b  4681 0001:0002a6a9  4682 0001:0002a6f0  4684 0001:0002a6ff
  4687 0001:0002a710  4690 0001:0002a72f  4691 0001:0002a75b  4693 0001:0002a77c
  4696 0001:0002a79d  4714 0001:0002a7bc  4721 0001:0002a7ef  4727 0001:0002a84b
  4732 0001:0002a855  4724 0001:0002a8a1  4725 0001:0002a8b6  4733 0001:0002a8d1
  4736 0001:0002a905  4738 0001:0002a909  4741 0001:0002a910  4742 0001:0002a940
   757 0001:0002aa20   759 0001:0002aa4b   761 0001:0002aa75   762 0001:0002aa86
   764 0001:0002aaa6   765 0001:0002aab3   767 0001:0002aacd   769 0001:0002aada
   770 0001:0002ab2a   775 0001:0002ab54   780 0001:0002ab93   782 0001:0002ac67
   784 0001:0002ad2d   786 0001:0002adf3   788 0001:0002aeb9   789 0001:0002aec4
   790 0001:0002aedd   792 0001:0002aeeb   793 0001:0002af13   796 0001:0002af26
   800 0001:0002afec   801 0001:0002affb   806 0001:0002b000   808 0001:0002b0cf
   810 0001:0002b191   812 0001:0002b253   814 0001:0002b315   815 0001:0002b320
   816 0001:0002b339   818 0001:0002b347   819 0001:0002b36f   822 0001:0002b382
   826 0001:0002b444   832 0001:0002b459   834 0001:0002b464   836 0001:0002b471
   839 0001:0002b486   840 0001:0002b491   842 0001:0002b4a2   843 0001:0002b4a9
   845 0001:0002b4b0   846 0001:0002b4c0   848 0001:0002b4d0   849 0001:0002b4e8
   850 0001:0002b4fe   852 0001:0002b514   854 0001:0002b54d   855 0001:0002b55e
   861 0001:0002b569   863 0001:0002b574   867 0001:0002b584   869 0001:0002b641
   871 0001:0002b64e   879 0001:0002b65b   881 0001:0002b690   882 0001:0002b69d
   883 0001:0002b6e1   884 0001:0002b6eb   886 0001:0002b718   887 0001:0002b723
   889 0001:0002b740   890 0001:0002b747   892 0001:0002b74e   893 0001:0002b75e
   895 0001:0002b76e   896 0001:0002b786   897 0001:0002b79c   899 0001:0002b7b2
   900 0001:0002b7eb   901 0001:0002b802   904 0001:0002b82d   906 0001:0002b833
   907 0001:0002b840   908 0001:0002b888   909 0001:0002b892   912 0001:0002b8c1
   913 0001:0002b8cc   915 0001:0002b8e3   916 0001:0002b8ea   918 0001:0002b8f1
   919 0001:0002b901   921 0001:0002b911   922 0001:0002b922   923 0001:0002b938
   925 0001:0002b951   926 0001:0002b963   927 0001:0002b972   930 0001:0002b988
   932 0001:0002b996   934 0001:0002b9a3   935 0001:0002b9b3   936 0001:0002b9ba
   938 0001:0002b9c1   939 0001:0002b9cb   941 0001:0002b9f0   947 0001:0002b9fd
   949 0001:0002ba2d   951 0001:0002ba38   953 0001:0002ba7a   954 0001:0002ba8a
   956 0001:0002ba9a   957 0001:0002bab2   958 0001:0002bac8   960 0001:0002bade
   962 0001:0002bb11   963 0001:0002bb1d   965 0001:0002bb55   967 0001:0002bb5b
   969 0001:0002bb66   971 0001:0002bba2   972 0001:0002bbbb   974 0001:0002bbce
   975 0001:0002bbef   976 0001:0002bc0e   978 0001:0002bc30   980 0001:0002bc44
   986 0001:0002bc69   987 0001:0002bcb2   988 0001:0002bcbc   990 0001:0002bcd5
   992 0001:0002bce6   994 0001:0002bcf0   996 0001:0002bd09   997 0001:0002bd10
   999 0001:0002bd17  1005 0001:0002bd24  1007 0001:0002bd50  1009 0001:0002bd5b
  1011 0001:0002bd99  1012 0001:0002bdac  1014 0001:0002bdbf  1015 0001:0002bde0
  1016 0001:0002bdff  1018 0001:0002be1e  1021 0001:0002be5f  1023 0001:0002be95
  1025 0001:0002be9b  1027 0001:0002bea6  1029 0001:0002bee2  1030 0001:0002bef8
  1032 0001:0002bf08  1033 0001:0002bf20  1034 0001:0002bf36  1036 0001:0002bf4f
  1038 0001:0002bf61  1042 0001:0002bf86  1119 0001:0002bf93  1120 0001:0002bf9f
  1148 0001:0002bfaf  1150 0001:0002bfc6  1152 0001:0002bfe6  1153 0001:0002bff0
  1154 0001:0002c016  1155 0001:0002c02e  1156 0001:0002c049  1158 0001:0002c053
  1159 0001:0002c064  1160 0001:0002c073  1161 0001:0002c075  1164 0001:0002c0aa
  1165 0001:0002c0b4  1174 0001:0002c0ca  1175 0001:0002c1a1  1177 0001:0002c1ad
  1185 0001:0002c272  1187 0001:0002c2ac  1196 0001:0002c2d1  1193 0001:0002c2e8
  1194 0001:0002c2f0  1196 0001:0002c30f  1225 0001:0002c351  1227 0001:0002c391
  1229 0001:0002c3a1  1231 0001:0002c3e4  1233 0001:0002c3ee  1288 0001:0002c437
  1426 0001:0002c45c  1427 0001:0002c4f5  1239 0001:0002c50e  1241 0001:0002c512
  1243 0001:0002c535  1245 0001:0002c543  1261 0001:0002c56f  1262 0001:0002c58d
  1263 0001:0002c595  1271 0001:0002c5ab  1272 0001:0002c5c9  1274 0001:0002c5d5
  1276 0001:0002c616  1284 0001:0002c663  2463 0001:0002c690  2465 0001:0002c6bb
  2466 0001:0002c6e8  2467 0001:0002c6f9  2968 0001:0002c70e  2468 0001:0002c727
  2472 0001:0002c777  2476 0001:0002c7bc  2478 0001:0002c896  2479 0001:0002c962
  2480 0001:0002c96d  2481 0001:0002c986  2483 0001:0002c994  2484 0001:0002c9bc
  2487 0001:0002c9cf  2490 0001:0002ca9b  2491 0001:0002caaa  2495 0001:0002caaf
  2497 0001:0002cb84  2498 0001:0002cc4c  2499 0001:0002cc57  2500 0001:0002cc70
  2502 0001:0002cc7e  2503 0001:0002cca6  2506 0001:0002ccb9  2509 0001:0002cd81
  2512 0001:0002cd96  2514 0001:0002cda1  2515 0001:0002cdae  2516 0001:0002cdc3
  2517 0001:0002cdcb  2519 0001:0002cdd9  2521 0001:0002cdf4  2523 0001:0002cdfb
  2527 0001:0002ce0a  2531 0001:0002ce19  2533 0001:0002ce2e  2535 0001:0002ce35
  2536 0001:0002ce45  2537 0001:0002ce5d  2538 0001:0002ce73  2539 0001:0002cea9
  2540 0001:0002ceb7  2545 0001:0002cec2  2546 0001:0002cecd  2550 0001:0002cee0
  2552 0001:0002cf9c  2553 0001:0002cfa6  2556 0001:0002cfbf  2558 0001:0002cff0
  2559 0001:0002cffd  2560 0001:0002d03e  2561 0001:0002d048  2563 0001:0002d072
  2564 0001:0002d088  2566 0001:0002d0a2  2567 0001:0002d0ac  2569 0001:0002d0ce
  2571 0001:0002d0e3  2573 0001:0002d0ea  2577 0001:0002d0f9  2581 0001:0002d108
  2583 0001:0002d11d  2585 0001:0002d124  2586 0001:0002d134  2587 0001:0002d14c
  2588 0001:0002d162  2589 0001:0002d19a  2590 0001:0002d1ba  2556 0001:0002d1e2
  2592 0001:0002d1e8  2593 0001:0002d1eb  2594 0001:0002d1f8  2595 0001:0002d237
  2596 0001:0002d241  2599 0001:0002d267  2600 0001:0002d26f  2601 0001:0002d283
  2603 0001:0002d29e  2605 0001:0002d2a5  2608 0001:0002d2b4  2612 0001:0002d2c3
  2614 0001:0002d2d8  2616 0001:0002d2df  2617 0001:0002d2ef  2618 0001:0002d307
  2619 0001:0002d320  2620 0001:0002d32f  2621 0001:0002d33b  2625 0001:0002d34e
  2627 0001:0002d362  2628 0001:0002d36c  2629 0001:0002d376  2630 0001:0002d39b
  2631 0001:0002d3ae  2633 0001:0002d3bd  2635 0001:0002d3c4  2639 0001:0002d3d3
  2643 0001:0002d3e2  2645 0001:0002d3f7  2647 0001:0002d3fe  2648 0001:0002d408
  2649 0001:0002d42d  2652 0001:0002d437  2654 0001:0002d460  2655 0001:0002d476
  2656 0001:0002d4ae  2657 0001:0002d4c3  2658 0001:0002d4db  2659 0001:0002d4f1
  2660 0001:0002d531  2661 0001:0002d534  2662 0001:0002d56d  2663 0001:0002d570
  2664 0001:0002d57b  2665 0001:0002d5b4  2666 0001:0002d5cd  2667 0001:0002d5ee
  2668 0001:0002d610  2669 0001:0002d622  2672 0001:0002d644  2673 0001:0002d68d
  2675 0001:0002d69b  2676 0001:0002d6a5  2677 0001:0002d6af  2679 0001:0002d6cb
  2681 0001:0002d6de  2683 0001:0002d6f7  2685 0001:0002d6fe  2688 0001:0002d711
  2692 0001:0002d724  2694 0001:0002d739  2696 0001:0002d740  2699 0001:0002d74a
  2701 0001:0002d771  2702 0001:0002d787  2703 0001:0002d7c3  2704 0001:0002d7d8
  2705 0001:0002d7f0  2706 0001:0002d806  2707 0001:0002d83c  2708 0001:0002d845
  2709 0001:0002d882  2710 0001:0002d885  2711 0001:0002d890  2712 0001:0002d8c9
  2713 0001:0002d8e2  2714 0001:0002d903  2715 0001:0002d925  2716 0001:0002d939
  2717 0001:0002d95b  2721 0001:0002d96b  2722 0001:0002d977  2723 0001:0002d987
  2728 0001:0002d997  2730 0001:0002d9bc  2731 0001:0002d9c2  2732 0001:0002d9d6
  2733 0001:0002d9d8  2735 0001:0002da0d  2737 0001:0002da2a  2738 0001:0002da39
  2740 0001:0002da4f  2745 0001:0002da58  2747 0001:0002da8d  2749 0001:0002dab8
  2751 0001:0002dabd  2752 0001:0002dac4  2754 0001:0002dae5  2759 0001:0002db0a
  2761 0001:0002db26  2762 0001:0002db35  2764 0001:0002db4b  2769 0001:0002db54
  2771 0001:0002db89  2773 0001:0002dbb4  2775 0001:0002dbb9  2776 0001:0002dbc0
  2778 0001:0002dbe1  2781 0001:0002dc0c  2783 0001:0002dc28  2784 0001:0002dc37
  2785 0001:0002dc4d  2789 0001:0002dc79  2791 0001:0002dcae  2793 0001:0002dcd9
  2795 0001:0002dcde  2796 0001:0002dce5  2798 0001:0002dd06  2801 0001:0002dd31
  2803 0001:0002dd47  2804 0001:0002dd5c  2806 0001:0002dd72  2808 0001:0002dd8f
  2813 0001:0002dd98  2815 0001:0002ddcd  2817 0001:0002ddf8  2819 0001:0002ddfd
  2820 0001:0002de04  2822 0001:0002de25  2826 0001:0002de50  2828 0001:0002de52
  2830 0001:0002de60  2831 0001:0002de65  2833 0001:0002de89  2839 0001:0002decd
  2841 0001:0002df07  2843 0001:0002df17  2845 0001:0002df5a  2847 0001:0002df65
  2850 0001:0002dfa8  2852 0001:0002dfaa  2854 0001:0002dfae  2856 0001:0002dfd1
  2858 0001:0002dfd8  2967 0001:0002dffb  2954 0001:0002e08c  2956 0001:0002e0c7
  2958 0001:0002e114  2960 0001:0002e116  2963 0001:0002e12e  5371 0001:0002e1b0
  5420 0001:0002e1d3  5393 0001:0002e3a8  5395 0001:0002e3b0  5396 0001:0002e3dc
  5397 0001:0002e3f3  5398 0001:0002e41d  5399 0001:0002e43f  5400 0001:0002e45b
  5401 0001:0002e471  5402 0001:0002e48f  5393 0001:0002e4e3  5404 0001:0002e4e5
  5409 0001:0002e4f3  5411 0001:0002e510  5412 0001:0002e51f  5413 0001:0002e542
  5415 0001:0002e55f  5416 0001:0002e576  5417 0001:0002e580  5418 0001:0002e5b0
  5419 0001:0002e5c2  5420 0001:0002e5d7  5421 0001:0002e6a2  5409 0001:0002e6cd
  5422 0001:0002e6cf  5423 0001:0002e713  5426 0001:0002e721  5427 0001:0002e76a
  5459 0001:0002e7a0  5462 0001:0002e7d0  5466 0001:0002e7f7  5468 0001:0002e831
  5469 0001:0002e898  5473 0001:0002e8ff  5475 0001:0002e907  5476 0001:0002e91f
  5477 0001:0002e92d  5478 0001:0002e934  5479 0001:0002e937  5481 0001:0002e94f
  5483 0001:0002e960  5485 0001:0002e97a  5487 0001:0002e981  5489 0001:0002e99e
  5492 0001:0002e9a7  5493 0001:0002e9bc  4843 0001:0002ea10  4844 0001:0002ea3b
  4846 0001:0002ea4e  4847 0001:0002ea6f  4848 0001:0002ea90  4849 0001:0002eaa6
  4850 0001:0002eab0  4852 0001:0002eac7  4853 0001:0002eada  4858 0001:0002eaeb
  4870 0001:0002eb25  4860 0001:0002eb34  4864 0001:0002eb3b  4865 0001:0002eb49
  4866 0001:0002eb5e  4867 0001:0002eb64  4933 0001:0002eb70  4937 0001:0002ebb8
  4935 0001:0002ebd2  4937 0001:0002ebd6  4939 0001:0002ebdf  4941 0001:0002ec0e
  4943 0001:0002ec10  4946 0001:0002ec27  4948 0001:0002ec29  4950 0001:0002ec32
  4952 0001:0002ec62  4954 0001:0002ec64  4958 0001:0002ec98  4960 0001:0002ec9d
  4962 0001:0002eca1  4964 0001:0002ecaa  4966 0001:0002ecba  4968 0001:0002ecbc
  4971 0001:0002ecd0  4973 0001:0002ecd5  4975 0001:0002ecde  4977 0001:0002ecff
  4987 0001:0002ed04  4989 0001:0002ed45  4995 0001:0002ed92  4998 0001:0002edbd
  4999 0001:0002ee1b  5000 0001:0002ee29  5001 0001:0002ee87  5002 0001:0002eee5
  5003 0001:0002ef43  5004 0001:0002efa1  5005 0001:0002efff  5007 0001:0002f05d
  5008 0001:0002f097  5009 0001:0002f0a7  5010 0001:0002f0bd  5011 0001:0002f0cd
  5012 0001:0002f0e3  5013 0001:0002f0f3  5014 0001:0002f156  5015 0001:0002f1b5
  5016 0001:0002f214  5017 0001:0002f273  5018 0001:0002f281  5020 0001:0002f29e
  5021 0001:0002f2ec    66 0001:0003a0a0  5876 0001:0003a0c0  5877 0001:0003a0e0

Line numbers for .\Release\AlertSendObj.obj(c:\users\cxy\git\siteview9.2\ecc8.1\server2003\kennel\alertserver\otlv4.h) segment .text

  1619 0001:00003b80  1263 0001:000126d0  1264 0001:000126d3  1265 0001:000126db
  1266 0001:000126e4  1267 0001:000126f1  1270 0001:00012700  1271 0001:00012706
  1272 0001:00012713  1273 0001:00012717  1274 0001:0001271f  1275 0001:0001272d
  1276 0001:0001273e  1277 0001:0001274e  1278 0001:00012760  1279 0001:00012777
  1280 0001:00012786  1281 0001:0001278e  1282 0001:00012797  1283 0001:000127a0
  1285 0001:000127a4  1287 0001:000127b6  1288 0001:000127b9  1289 0001:000127c9
  1290 0001:000127d9  1291 0001:000127e8  1524 0001:000127f0  1526 0001:000127f2
  1527 0001:000127f6  1528 0001:000127f9  1529 0001:000127fc  1530 0001:000127ff
  1531 0001:00012802  1532 0001:00012805  1533 0001:00012808  1538 0001:0001280b
  1542 0001:00012810  1541 0001:00012810  1543 0001:00012819  1546 0001:00012820
  1547 0001:00012821  1548 0001:00012830  1549 0001:0001283e  1550 0001:0001284b
  1551 0001:00012853  1552 0001:00012859  1553 0001:0001286a  1554 0001:00012871
  1555 0001:00012877  1556 0001:00012882  1557 0001:00012888  1559 0001:0001289a
  1560 0001:000128a0  1561 0001:000128a6  1562 0001:000128ac  1563 0001:000128b2
  1564 0001:000128b8  1570 0001:000128be  1571 0001:000128c2  1576 0001:000128d0
  1574 0001:000128d0  1577 0001:000128e1  1579 0001:000128ef  1580 0001:000128f2
  1581 0001:000128f7  1582 0001:00012906  1584 0001:0001290e  1585 0001:00012920
  1586 0001:0001292e  1588 0001:00012938  1607 0001:00012940  1609 0001:00012942
  1610 0001:00012946  1611 0001:00012949  1612 0001:0001294c  1613 0001:0001294f
  1614 0001:00012952  1615 0001:00012955  1616 0001:00012958  1617 0001:0001295e
  1756 0001:00012960  1755 0001:00012960  1757 0001:00012977  1771 0001:00012980
  1770 0001:00012980  1772 0001:0001298b  1819 0001:000129d0  1847 0001:000129d0
  1855 0001:000129ec  1899 0001:000129f1  1857 0001:000129f2  1899 0001:000129f7
  1859 0001:000129f8  1899 0001:000129fd  1861 0001:000129fe  1899 0001:00012a03
  1863 0001:00012a04  1899 0001:00012a09  1865 0001:00012a0a  1899 0001:00012a0f
  1867 0001:00012a10  1899 0001:00012a15  1869 0001:00012a16  1899 0001:00012a1b
  1871 0001:00012a1c  1899 0001:00012a21  1873 0001:00012a22  1899 0001:00012a27
  1875 0001:00012a28  1899 0001:00012a2d  1877 0001:00012a2e  1899 0001:00012a33
  1879 0001:00012a34  1899 0001:00012a39  1881 0001:00012a3a  1899 0001:00012a3f
  1883 0001:00012a40  1899 0001:00012a45  1885 0001:00012a46  1899 0001:00012a4b
  1887 0001:00012a4c  1899 0001:00012a51  1889 0001:00012a52  1899 0001:00012a57
  1891 0001:00012a58  1899 0001:00012a5d  1893 0001:00012a5e  1899 0001:00012a63
  1895 0001:00012a64  1899 0001:00012a69  1897 0001:00012a6a  1899 0001:00012a6f
  1916 0001:00012b40  1918 0001:00012b52  1919 0001:00012b72  1920 0001:00012b9a
  1921 0001:00012bc9  1922 0001:00012bf6  1923 0001:00012c11  1924 0001:00012c39
  1925 0001:00012c52  1926 0001:00012c86  2236 0001:00012ca0  2238 0001:00012ca3
  2242 0001:00012cad  2243 0001:00012cb3  2246 0001:00012cb5  2247 0001:00012cc6
  2248 0001:00012cc8  2251 0001:00012cd0  2252 0001:00012cd5  2253 0001:00012cdf
  2254 0001:00012ce1  2256 0001:00012ce3  2259 0001:00012ceb  2260 0001:00012cfe
