 CommonNetworkDeviceMonitor

 Timestamp is 4ffe3a97 (Thu Jul 12 10:46:47 2012)

 Preferred load address is 10000000

 Start         Length     Name                   Class
 0001:00000000 0004da7cH .text                   CODE
 0001:0004da80 00002628H .text$x                 CODE
 0001:000500b0 000004e9H .text$yc                CODE
 0001:000505a0 000003dcH .text$yd                CODE
 0002:00000000 00000290H .idata$5                DATA
 0002:00000290 000070e5H .rdata                  DATA
 0002:00007378 0000008fH .rdata$debug            DATA
 0002:00007408 00000044H .rdata$r                DATA
 0002:0000744c 00000004H .rtc$IAA                DATA
 0002:00007450 00000004H .rtc$IMZ                DATA
 0002:00007454 00000004H .rtc$IZZ                DATA
 0002:00007458 00000004H .rtc$TAA                DATA
 0002:0000745c 00000004H .rtc$TMZ                DATA
 0002:00007460 00000004H .rtc$TZZ                DATA
 0002:00007464 0000293cH .xdata$x                DATA
 0002:00009da0 00000064H .idata$2                DATA
 0002:00009e04 00000014H .idata$3                DATA
 0002:00009e18 00000290H .idata$4                DATA
 0002:0000a0a8 00001260H .idata$6                DATA
 0002:0000b310 000000b0H .edata                  DATA
 0003:00000000 00000004H .CRT$XCA                DATA
 0003:00000004 00000004H .CRT$XCAA               DATA
 0003:00000008 00000044H .CRT$XCU                DATA
 0003:0000004c 00000004H .CRT$XCZ                DATA
 0003:00000050 00000004H .CRT$XIA                DATA
 0003:00000054 00000004H .CRT$XIZ                DATA
 0003:00000060 00000b04H .data                   DATA
 0003:00000b64 00000290H .bss                    DATA

  Address         Publics by Value              Rva+Base     Lib:Object

 0000:00000000       ___safe_se_handler_count   00000000     <absolute>
 0000:00000000       ___safe_se_handler_table   00000000     <absolute>
 0000:00000000       __except_list              00000000     <absolute>
 0000:00009876       __fltused                  00009876     <absolute>
 0000:00009876       __ldused                   00009876     <absolute>
 0001:00000000       ??3@YAXPAX0@Z              10001000 f i CommonMonitor.obj
 0001:00000000       ?format_output@GenAddress@@MBEXXZ 10001000 f i snmplib.obj
 0001:00000010       ??1logic_error@std@@UAE@XZ 10001010 f i CommonMonitor.obj
 0001:00000070       ?what@logic_error@std@@UBEPBDXZ 10001070 f i CommonMonitor.obj
 0001:00000080       ??_Glogic_error@std@@UAEPAXI@Z 10001080 f i CommonMonitor.obj
 0001:00000080       ??_Elogic_error@std@@UAEPAXI@Z 10001080 f i CommonMonitor.obj
 0001:000000a0       ??_Glength_error@std@@UAEPAXI@Z 100010a0 f i CommonMonitor.obj
 0001:000000a0       ??_Elength_error@std@@UAEPAXI@Z 100010a0 f i CommonMonitor.obj
 0001:000000c0       ??1length_error@std@@UAE@XZ 100010c0 f i CommonMonitor.obj
 0001:000000d0       ??_Eout_of_range@std@@UAEPAXI@Z 100010d0 f i CommonMonitor.obj
 0001:000000d0       ??_Gout_of_range@std@@UAEPAXI@Z 100010d0 f i CommonMonitor.obj
 0001:000000f0       ??1out_of_range@std@@UAE@XZ 100010f0 f i CommonMonitor.obj
 0001:00000100       ?MakeCharByString@@YA_NPADAAHV?$basic_string@DU?$char_traits@D@std@@V?$allocator@D@2@@std@@@Z 10001100 f   CommonMonitor.obj
 0001:000001b0       ??R?$less@V?$basic_string@DU?$char_traits@D@std@@V?$allocator@D@2@@std@@@std@@QBE_NABV?$basic_string@DU?$char_traits@D@std@@V?$allocator@D@2@@1@0@Z 100011b0 f i CommonMonitor.obj
 0001:000001d0       ?_Max@?$_Tree@V?$_Tmap_traits@V?$basic_string@DU?$char_traits@D@std@@V?$allocator@D@2@@std@@V12@U?$less@V?$basic_string@DU?$char_traits@D@std@@V?$allocator@D@2@@std@@@2@V?$allocator@U?$pair@$$CBV?$basic_string@DU?$char_traits@D@std@@V?$allocator@D@2@@std@@V12@@std@@@2@$0A@@std@@@std@@KAPAU_Node@?$_Tree_nod@V?$_Tmap_traits@V?$basic_string@DU?$char_traits@D@std@@V?$allocator@D@2@@std@@V12@U?$less@V?$basic_string@DU?$char_traits@D@std@@V?$allocator@D@2@@std@@@2@V?$allocator@U?$pair@$$CBV?$basic_string@DU?$char_traits@D@std@@V?$allocator@D@2@@std@@V12@@std@@@2@$0A@@std@@@2@PAU342@@Z 100011d0 f i CommonMonitor.obj
 0001:000001f0       ?_Min@?$_Tree@V?$_Tmap_traits@V?$basic_string@DU?$char_traits@D@std@@V?$allocator@D@2@@std@@V12@U?$less@V?$basic_string@DU?$char_traits@D@std@@V?$allocator@D@2@@std@@@2@V?$allocator@U?$pair@$$CBV?$basic_string@DU?$char_traits@D@std@@V?$allocator@D@2@@std@@V12@@std@@@2@$0A@@std@@@std@@KAPAU_Node@?$_Tree_nod@V?$_Tmap_traits@V?$basic_string@DU?$char_traits@D@std@@V?$allocator@D@2@@std@@V12@U?$less@V?$basic_string@DU?$char_traits@D@std@@V?$allocator@D@2@@std@@@2@V?$allocator@U?$pair@$$CBV?$basic_string@DU?$char_traits@D@std@@V?$allocator@D@2@@std@@V12@@std@@@2@$0A@@std@@@2@PAU342@@Z 100011f0 f i CommonMonitor.obj
 0001:00000210       ??1_Sentry_base@?$basic_ostream@DU?$char_traits@D@std@@@std@@QAE@XZ 10001210 f i CommonMonitor.obj
 0001:00000230       ?_Inc@const_iterator@?$_Tree@V?$_Tmap_traits@V?$basic_string@DU?$char_traits@D@std@@V?$allocator@D@2@@std@@V12@U?$less@V?$basic_string@DU?$char_traits@D@std@@V?$allocator@D@2@@std@@@2@V?$allocator@U?$pair@$$CBV?$basic_string@DU?$char_traits@D@std@@V?$allocator@D@2@@std@@V12@@std@@@2@$0A@@std@@@std@@QAEXXZ 10001230 f i CommonMonitor.obj
 0001:00000290       ?_Max@?$_Tree@V?$_Tmap_traits@HUSNMP_Monitor_Result@@U?$less@H@std@@V?$allocator@U?$pair@$$CBHUSNMP_Monitor_Result@@@std@@@3@$0A@@std@@@std@@KAPAU_Node@?$_Tree_nod@V?$_Tmap_traits@HUSNMP_Monitor_Result@@U?$less@H@std@@V?$allocator@U?$pair@$$CBHUSNMP_Monitor_Result@@@std@@@3@$0A@@std@@@2@PAU342@@Z 10001290 f i CommonMonitor.obj
 0001:000002b0       ?_Min@?$_Tree@V?$_Tmap_traits@HUSNMP_Monitor_Result@@U?$less@H@std@@V?$allocator@U?$pair@$$CBHUSNMP_Monitor_Result@@@std@@@3@$0A@@std@@@std@@KAPAU_Node@?$_Tree_nod@V?$_Tmap_traits@HUSNMP_Monitor_Result@@U?$less@H@std@@V?$allocator@U?$pair@$$CBHUSNMP_Monitor_Result@@@std@@@3@$0A@@std@@@2@PAU342@@Z 100012b0 f i CommonMonitor.obj
 0001:000002d0       ??0?$pair@$$CBV?$basic_string@DU?$char_traits@D@std@@V?$allocator@D@2@@std@@V12@@std@@QAE@ABU01@@Z 100012d0 f i CommonMonitor.obj
 0001:00000330       ??1?$pair@$$CBV?$basic_string@DU?$char_traits@D@std@@V?$allocator@D@2@@std@@V12@@std@@QAE@XZ 10001330 f i CommonMonitor.obj
 0001:00000380       ??$?HDU?$char_traits@D@std@@V?$allocator@D@1@@std@@YA?AV?$basic_string@DU?$char_traits@D@std@@V?$allocator@D@2@@0@ABV10@0@Z 10001380 f i CommonMonitor.obj
 0001:00000400       ??$?HDU?$char_traits@D@std@@V?$allocator@D@1@@std@@YA?AV?$basic_string@DU?$char_traits@D@std@@V?$allocator@D@2@@0@ABV10@PBD@Z 10001400 f i CommonMonitor.obj
 0001:00000480       ??$?HDU?$char_traits@D@std@@V?$allocator@D@1@@std@@YA?AV?$basic_string@DU?$char_traits@D@std@@V?$allocator@D@2@@0@ABV10@D@Z 10001480 f i CommonMonitor.obj
 0001:00000500       ??1_Node@?$_List_nod@V?$basic_string@DU?$char_traits@D@std@@V?$allocator@D@2@@std@@V?$allocator@V?$basic_string@DU?$char_traits@D@std@@V?$allocator@D@2@@std@@@2@@std@@QAE@XZ 10001500 f i CommonMonitor.obj
 0001:00000510       ??1_Node@?$_Tree_nod@V?$_Tmap_traits@V?$basic_string@DU?$char_traits@D@std@@V?$allocator@D@2@@std@@V12@U?$less@V?$basic_string@DU?$char_traits@D@std@@V?$allocator@D@2@@std@@@2@V?$allocator@U?$pair@$$CBV?$basic_string@DU?$char_traits@D@std@@V?$allocator@D@2@@std@@V12@@std@@@2@$0A@@std@@@std@@QAE@XZ 10001510 f i CommonMonitor.obj
 0001:00000520       ??1SNMP_Monitor_Result@@QAE@XZ 10001520 f i CommonMonitor.obj
 0001:00000580       ??0sentry@?$basic_ostream@DU?$char_traits@D@std@@@std@@QAE@AAV12@@Z 10001580 f i CommonMonitor.obj
 0001:00000610       ??1sentry@?$basic_ostream@DU?$char_traits@D@std@@@std@@QAE@XZ 10001610 f i CommonMonitor.obj
 0001:00000680       ?_Lbound@?$_Tree@V?$_Tmap_traits@V?$basic_string@DU?$char_traits@D@std@@V?$allocator@D@2@@std@@V12@U?$less@V?$basic_string@DU?$char_traits@D@std@@V?$allocator@D@2@@std@@@2@V?$allocator@U?$pair@$$CBV?$basic_string@DU?$char_traits@D@std@@V?$allocator@D@2@@std@@V12@@std@@@2@$0A@@std@@@std@@IBEPAU_Node@?$_Tree_nod@V?$_Tmap_traits@V?$basic_string@DU?$char_traits@D@std@@V?$allocator@D@2@@std@@V12@U?$less@V?$basic_string@DU?$char_traits@D@std@@V?$allocator@D@2@@std@@@2@V?$allocator@U?$pair@$$CBV?$basic_string@DU?$char_traits@D@std@@V?$allocator@D@2@@std@@V12@@std@@@2@$0A@@std@@@2@ABV?$basic_string@DU?$char_traits@D@std@@V?$allocator@D@2@@2@@Z 10001680 f i CommonMonitor.obj
 0001:000006d0       ?_Inc@const_iterator@?$_Tree@V?$_Tmap_traits@HUSNMP_Monitor_Result@@U?$less@H@std@@V?$allocator@U?$pair@$$CBHUSNMP_Monitor_Result@@@std@@@3@$0A@@std@@@std@@QAEXXZ 100016d0 f i CommonMonitor.obj
 0001:00000730       ?_Lrotate@?$_Tree@V?$_Tmap_traits@HUSNMP_Monitor_Result@@U?$less@H@std@@V?$allocator@U?$pair@$$CBHUSNMP_Monitor_Result@@@std@@@3@$0A@@std@@@std@@IAEXPAU_Node@?$_Tree_nod@V?$_Tmap_traits@HUSNMP_Monitor_Result@@U?$less@H@std@@V?$allocator@U?$pair@$$CBHUSNMP_Monitor_Result@@@std@@@3@$0A@@std@@@2@@Z 10001730 f i CommonMonitor.obj
 0001:00000790       ?_Rrotate@?$_Tree@V?$_Tmap_traits@HUSNMP_Monitor_Result@@U?$less@H@std@@V?$allocator@U?$pair@$$CBHUSNMP_Monitor_Result@@@std@@@3@$0A@@std@@@std@@IAEXPAU_Node@?$_Tree_nod@V?$_Tmap_traits@HUSNMP_Monitor_Result@@U?$less@H@std@@V?$allocator@U?$pair@$$CBHUSNMP_Monitor_Result@@@std@@@3@$0A@@std@@@2@@Z 10001790 f i CommonMonitor.obj
 0001:000007f0       ?_Lrotate@?$_Tree@V?$_Tmap_traits@V?$basic_string@DU?$char_traits@D@std@@V?$allocator@D@2@@std@@V12@U?$less@V?$basic_string@DU?$char_traits@D@std@@V?$allocator@D@2@@std@@@2@V?$allocator@U?$pair@$$CBV?$basic_string@DU?$char_traits@D@std@@V?$allocator@D@2@@std@@V12@@std@@@2@$0A@@std@@@std@@IAEXPAU_Node@?$_Tree_nod@V?$_Tmap_traits@V?$basic_string@DU?$char_traits@D@std@@V?$allocator@D@2@@std@@V12@U?$less@V?$basic_string@DU?$char_traits@D@std@@V?$allocator@D@2@@std@@@2@V?$allocator@U?$pair@$$CBV?$basic_string@DU?$char_traits@D@std@@V?$allocator@D@2@@std@@V12@@std@@@2@$0A@@std@@@2@@Z 100017f0 f i CommonMonitor.obj
 0001:00000850       ?_Rrotate@?$_Tree@V?$_Tmap_traits@V?$basic_string@DU?$char_traits@D@std@@V?$allocator@D@2@@std@@V12@U?$less@V?$basic_string@DU?$char_traits@D@std@@V?$allocator@D@2@@std@@@2@V?$allocator@U?$pair@$$CBV?$basic_string@DU?$char_traits@D@std@@V?$allocator@D@2@@std@@V12@@std@@@2@$0A@@std@@@std@@IAEXPAU_Node@?$_Tree_nod@V?$_Tmap_traits@V?$basic_string@DU?$char_traits@D@std@@V?$allocator@D@2@@std@@V12@U?$less@V?$basic_string@DU?$char_traits@D@std@@V?$allocator@D@2@@std@@@2@V?$allocator@U?$pair@$$CBV?$basic_string@DU?$char_traits@D@std@@V?$allocator@D@2@@std@@V12@@std@@@2@$0A@@std@@@2@@Z 10001850 f i CommonMonitor.obj
 0001:000008b0       ??$?6DU?$char_traits@D@std@@V?$allocator@D@1@@std@@YAAAV?$basic_ostream@DU?$char_traits@D@std@@@0@AAV10@ABV?$basic_string@DU?$char_traits@D@std@@V?$allocator@D@2@@0@@Z 100018b0 f i CommonMonitor.obj
 0001:00000ab0       ??1?$pair@$$CBHUSNMP_Monitor_Result@@@std@@QAE@XZ 10001ab0 f i CommonMonitor.obj
 0001:00000ac0       ?_Buynode@?$list@PADV?$allocator@PAD@std@@@std@@IAEPAU_Node@?$_List_nod@PADV?$allocator@PAD@std@@@2@XZ 10001ac0 f i CommonMonitor.obj
 0001:00000ae0       ?_Buynode@?$list@V?$basic_string@DU?$char_traits@D@std@@V?$allocator@D@2@@std@@V?$allocator@V?$basic_string@DU?$char_traits@D@std@@V?$allocator@D@2@@std@@@2@@std@@IAEPAU_Node@?$_List_nod@V?$basic_string@DU?$char_traits@D@std@@V?$allocator@D@2@@std@@V?$allocator@V?$basic_string@DU?$char_traits@D@std@@V?$allocator@D@2@@std@@@2@@2@XZ 10001ae0 f i CommonMonitor.obj
 0001:00000b00       ?_Buynode@?$_Tree@V?$_Tmap_traits@V?$basic_string@DU?$char_traits@D@std@@V?$allocator@D@2@@std@@V12@U?$less@V?$basic_string@DU?$char_traits@D@std@@V?$allocator@D@2@@std@@@2@V?$allocator@U?$pair@$$CBV?$basic_string@DU?$char_traits@D@std@@V?$allocator@D@2@@std@@V12@@std@@@2@$0A@@std@@@std@@IAEPAU_Node@?$_Tree_nod@V?$_Tmap_traits@V?$basic_string@DU?$char_traits@D@std@@V?$allocator@D@2@@std@@V12@U?$less@V?$basic_string@DU?$char_traits@D@std@@V?$allocator@D@2@@std@@@2@V?$allocator@U?$pair@$$CBV?$basic_string@DU?$char_traits@D@std@@V?$allocator@D@2@@std@@V12@@std@@@2@$0A@@std@@@2@XZ 10001b00 f i CommonMonitor.obj
 0001:00000b40       ?clear@?$list@PADV?$allocator@PAD@std@@@std@@QAEXXZ 10001b40 f i CommonMonitor.obj
 0001:00000b80       ?_Buynode@?$list@PADV?$allocator@PAD@std@@@std@@IAEPAU_Node@?$_List_nod@PADV?$allocator@PAD@std@@@2@PAU342@0ABQAD@Z 10001b80 f i CommonMonitor.obj
 0001:00000bb0       ?_Incsize@?$list@PADV?$allocator@PAD@std@@@std@@IAEXI@Z 10001bb0 f i CommonMonitor.obj
 0001:00000c50       ??0logic_error@std@@QAE@ABV01@@Z 10001c50 f i CommonMonitor.obj
 0001:00000cb0       ??0length_error@std@@QAE@ABV01@@Z 10001cb0 f i CommonMonitor.obj
 0001:00000cd0       ?_Buynode@?$list@V?$basic_string@DU?$char_traits@D@std@@V?$allocator@D@2@@std@@V?$allocator@V?$basic_string@DU?$char_traits@D@std@@V?$allocator@D@2@@std@@@2@@std@@IAEPAU_Node@?$_List_nod@V?$basic_string@DU?$char_traits@D@std@@V?$allocator@D@2@@std@@V?$allocator@V?$basic_string@DU?$char_traits@D@std@@V?$allocator@D@2@@std@@@2@@2@PAU342@0ABV?$basic_string@DU?$char_traits@D@std@@V?$allocator@D@2@@2@@Z 10001cd0 f i CommonMonitor.obj
 0001:00000d60       ?_Incsize@?$list@V?$basic_string@DU?$char_traits@D@std@@V?$allocator@D@2@@std@@V?$allocator@V?$basic_string@DU?$char_traits@D@std@@V?$allocator@D@2@@std@@@2@@std@@IAEXI@Z 10001d60 f i CommonMonitor.obj
 0001:00000e00       ?_Buynode@?$_Tree@V?$_Tmap_traits@HUSNMP_Monitor_Result@@U?$less@H@std@@V?$allocator@U?$pair@$$CBHUSNMP_Monitor_Result@@@std@@@3@$0A@@std@@@std@@IAEPAU_Node@?$_Tree_nod@V?$_Tmap_traits@HUSNMP_Monitor_Result@@U?$less@H@std@@V?$allocator@U?$pair@$$CBHUSNMP_Monitor_Result@@@std@@@3@$0A@@std@@@2@XZ 10001e00 f i CommonMonitor.obj
 0001:00000e40       ?_Buynode@?$_Tree@V?$_Tmap_traits@V?$basic_string@DU?$char_traits@D@std@@V?$allocator@D@2@@std@@V12@U?$less@V?$basic_string@DU?$char_traits@D@std@@V?$allocator@D@2@@std@@@2@V?$allocator@U?$pair@$$CBV?$basic_string@DU?$char_traits@D@std@@V?$allocator@D@2@@std@@V12@@std@@@2@$0A@@std@@@std@@IAEPAU_Node@?$_Tree_nod@V?$_Tmap_traits@V?$basic_string@DU?$char_traits@D@std@@V?$allocator@D@2@@std@@V12@U?$less@V?$basic_string@DU?$char_traits@D@std@@V?$allocator@D@2@@std@@@2@V?$allocator@U?$pair@$$CBV?$basic_string@DU?$char_traits@D@std@@V?$allocator@D@2@@std@@V12@@std@@@2@$0A@@std@@@2@PAU342@00ABU?$pair@$$CBV?$basic_string@DU?$char_traits@D@std@@V?$allocator@D@2@@std@@V12@@2@D@Z 10001e40 f i CommonMonitor.obj
 0001:00000ee0       ??1_Node@?$_Tree_nod@V?$_Tmap_traits@HUSNMP_Monitor_Result@@U?$less@H@std@@V?$allocator@U?$pair@$$CBHUSNMP_Monitor_Result@@@std@@@3@$0A@@std@@@std@@QAE@XZ 10001ee0 f i CommonMonitor.obj
 0001:00000ef0       ?find@?$_Tree@V?$_Tmap_traits@V?$basic_string@DU?$char_traits@D@std@@V?$allocator@D@2@@std@@V12@U?$less@V?$basic_string@DU?$char_traits@D@std@@V?$allocator@D@2@@std@@@2@V?$allocator@U?$pair@$$CBV?$basic_string@DU?$char_traits@D@std@@V?$allocator@D@2@@std@@V12@@std@@@2@$0A@@std@@@std@@QAE?AViterator@12@ABV?$basic_string@DU?$char_traits@D@std@@V?$allocator@D@2@@2@@Z 10001ef0 f i CommonMonitor.obj
 0001:00000f50       ?erase@?$_Tree@V?$_Tmap_traits@V?$basic_string@DU?$char_traits@D@std@@V?$allocator@D@2@@std@@V12@U?$less@V?$basic_string@DU?$char_traits@D@std@@V?$allocator@D@2@@std@@@2@V?$allocator@U?$pair@$$CBV?$basic_string@DU?$char_traits@D@std@@V?$allocator@D@2@@std@@V12@@std@@@2@$0A@@std@@@std@@QAE?AViterator@12@V312@@Z 10001f50 f i CommonMonitor.obj
 0001:00001250       ??0out_of_range@std@@QAE@ABV01@@Z 10002250 f i CommonMonitor.obj
 0001:00001270       ??1?$list@PADV?$allocator@PAD@std@@@std@@QAE@XZ 10002270 f i CommonMonitor.obj
 0001:00001290       ??0?$list@V?$basic_string@DU?$char_traits@D@std@@V?$allocator@D@2@@std@@V?$allocator@V?$basic_string@DU?$char_traits@D@std@@V?$allocator@D@2@@std@@@2@@std@@QAE@XZ 10002290 f i CommonMonitor.obj
 0001:000012b0       ?push_back@?$list@V?$basic_string@DU?$char_traits@D@std@@V?$allocator@D@2@@std@@V?$allocator@V?$basic_string@DU?$char_traits@D@std@@V?$allocator@D@2@@std@@@2@@std@@QAEXABV?$basic_string@DU?$char_traits@D@std@@V?$allocator@D@2@@2@@Z 100022b0 f i CommonMonitor.obj
 0001:000012f0       ?clear@?$list@V?$basic_string@DU?$char_traits@D@std@@V?$allocator@D@2@@std@@V?$allocator@V?$basic_string@DU?$char_traits@D@std@@V?$allocator@D@2@@std@@@2@@std@@QAEXXZ 100022f0 f i CommonMonitor.obj
 0001:00001330       ?_Erase@?$_Tree@V?$_Tmap_traits@V?$basic_string@DU?$char_traits@D@std@@V?$allocator@D@2@@std@@V12@U?$less@V?$basic_string@DU?$char_traits@D@std@@V?$allocator@D@2@@std@@@2@V?$allocator@U?$pair@$$CBV?$basic_string@DU?$char_traits@D@std@@V?$allocator@D@2@@std@@V12@@std@@@2@$0A@@std@@@std@@IAEXPAU_Node@?$_Tree_nod@V?$_Tmap_traits@V?$basic_string@DU?$char_traits@D@std@@V?$allocator@D@2@@std@@V12@U?$less@V?$basic_string@DU?$char_traits@D@std@@V?$allocator@D@2@@std@@@2@V?$allocator@U?$pair@$$CBV?$basic_string@DU?$char_traits@D@std@@V?$allocator@D@2@@std@@V12@@std@@@2@$0A@@std@@@2@@Z 10002330 f i CommonMonitor.obj
 0001:00001370       ?_Copy@?$_Tree@V?$_Tmap_traits@V?$basic_string@DU?$char_traits@D@std@@V?$allocator@D@2@@std@@V12@U?$less@V?$basic_string@DU?$char_traits@D@std@@V?$allocator@D@2@@std@@@2@V?$allocator@U?$pair@$$CBV?$basic_string@DU?$char_traits@D@std@@V?$allocator@D@2@@std@@V12@@std@@@2@$0A@@std@@@std@@IAEPAU_Node@?$_Tree_nod@V?$_Tmap_traits@V?$basic_string@DU?$char_traits@D@std@@V?$allocator@D@2@@std@@V12@U?$less@V?$basic_string@DU?$char_traits@D@std@@V?$allocator@D@2@@std@@@2@V?$allocator@U?$pair@$$CBV?$basic_string@DU?$char_traits@D@std@@V?$allocator@D@2@@std@@V12@@std@@@2@$0A@@std@@@2@PAU342@0@Z 10002370 f i CommonMonitor.obj
 0001:00001420       ?MakeStringListByChar@@YA_NAAV?$list@PADV?$allocator@PAD@std@@@std@@PBD@Z 10002420 f   CommonMonitor.obj
 0001:00001490       ?MakeChar@@YAHPADAAH@Z     10002490 f   CommonMonitor.obj
 0001:00001650       ?MakeCharByParam@@YAHPADAAH0H@Z 10002650 f   CommonMonitor.obj
 0001:00001890       ?MakeLabel@@YAXAAV?$list@V?$basic_string@DU?$char_traits@D@std@@V?$allocator@D@2@@std@@V?$allocator@V?$basic_string@DU?$char_traits@D@std@@V?$allocator@D@2@@std@@@2@@std@@0PADHH@Z 10002890 f   CommonMonitor.obj
 0001:000019c0       ??1?$list@V?$basic_string@DU?$char_traits@D@std@@V?$allocator@D@2@@std@@V?$allocator@V?$basic_string@DU?$char_traits@D@std@@V?$allocator@D@2@@std@@@2@@std@@QAE@XZ 100029c0 f i CommonMonitor.obj
 0001:000019e0       ?_Copy@?$_Tree@V?$_Tmap_traits@V?$basic_string@DU?$char_traits@D@std@@V?$allocator@D@2@@std@@V12@U?$less@V?$basic_string@DU?$char_traits@D@std@@V?$allocator@D@2@@std@@@2@V?$allocator@U?$pair@$$CBV?$basic_string@DU?$char_traits@D@std@@V?$allocator@D@2@@std@@V12@@std@@@2@$0A@@std@@@std@@IAEXABV12@@Z 100029e0 f i CommonMonitor.obj
 0001:00001a70       ?erase@?$_Tree@V?$_Tmap_traits@V?$basic_string@DU?$char_traits@D@std@@V?$allocator@D@2@@std@@V12@U?$less@V?$basic_string@DU?$char_traits@D@std@@V?$allocator@D@2@@std@@@2@V?$allocator@U?$pair@$$CBV?$basic_string@DU?$char_traits@D@std@@V?$allocator@D@2@@std@@V12@@std@@@2@$0A@@std@@@std@@QAE?AViterator@12@V312@0@Z 10002a70 f i CommonMonitor.obj
 0001:00001b30       ?erase@?$_Tree@V?$_Tmap_traits@HUSNMP_Monitor_Result@@U?$less@H@std@@V?$allocator@U?$pair@$$CBHUSNMP_Monitor_Result@@@std@@@3@$0A@@std@@@std@@QAE?AViterator@12@V312@@Z 10002b30 f i CommonMonitor.obj
 0001:00001e40       ?_Erase@?$_Tree@V?$_Tmap_traits@HUSNMP_Monitor_Result@@U?$less@H@std@@V?$allocator@U?$pair@$$CBHUSNMP_Monitor_Result@@@std@@@3@$0A@@std@@@std@@IAEXPAU_Node@?$_Tree_nod@V?$_Tmap_traits@HUSNMP_Monitor_Result@@U?$less@H@std@@V?$allocator@U?$pair@$$CBHUSNMP_Monitor_Result@@@std@@@3@$0A@@std@@@2@@Z 10002e40 f i CommonMonitor.obj
 0001:00001e80       ?_Tidy@?$_Tree@V?$_Tmap_traits@V?$basic_string@DU?$char_traits@D@std@@V?$allocator@D@2@@std@@V12@U?$less@V?$basic_string@DU?$char_traits@D@std@@V?$allocator@D@2@@std@@@2@V?$allocator@U?$pair@$$CBV?$basic_string@DU?$char_traits@D@std@@V?$allocator@D@2@@std@@V12@@std@@@2@$0A@@std@@@std@@IAEXXZ 10002e80 f i CommonMonitor.obj
 0001:00001e80       ??1?$map@V?$basic_string@DU?$char_traits@D@std@@V?$allocator@D@2@@std@@V12@U?$less@V?$basic_string@DU?$char_traits@D@std@@V?$allocator@D@2@@std@@@2@V?$allocator@U?$pair@$$CBV?$basic_string@DU?$char_traits@D@std@@V?$allocator@D@2@@std@@V12@@std@@@2@@std@@QAE@XZ 10002e80 f i CommonMonitor.obj
 0001:00001eb0       ??0?$_Tree@V?$_Tmap_traits@V?$basic_string@DU?$char_traits@D@std@@V?$allocator@D@2@@std@@V12@U?$less@V?$basic_string@DU?$char_traits@D@std@@V?$allocator@D@2@@std@@@2@V?$allocator@U?$pair@$$CBV?$basic_string@DU?$char_traits@D@std@@V?$allocator@D@2@@std@@V12@@std@@@2@$0A@@std@@@std@@QAE@ABV01@@Z 10002eb0 f i CommonMonitor.obj
 0001:00001f40       ?erase@?$_Tree@V?$_Tmap_traits@HUSNMP_Monitor_Result@@U?$less@H@std@@V?$allocator@U?$pair@$$CBHUSNMP_Monitor_Result@@@std@@@3@$0A@@std@@@std@@QAE?AViterator@12@V312@0@Z 10002f40 f i CommonMonitor.obj
 0001:00002000       ?GetDataBySNMP@@YA_NV?$map@V?$basic_string@DU?$char_traits@D@std@@V?$allocator@D@2@@std@@V12@U?$less@V?$basic_string@DU?$char_traits@D@std@@V?$allocator@D@2@@std@@@2@V?$allocator@U?$pair@$$CBV?$basic_string@DU?$char_traits@D@std@@V?$allocator@D@2@@std@@V12@@std@@@2@@std@@PADAAH@Z 10003000 f   CommonMonitor.obj
 0001:00002bd0       ?GetIfBySNMP@@YA_NV?$map@V?$basic_string@DU?$char_traits@D@std@@V?$allocator@D@2@@std@@V12@U?$less@V?$basic_string@DU?$char_traits@D@std@@V?$allocator@D@2@@std@@@2@V?$allocator@U?$pair@$$CBV?$basic_string@DU?$char_traits@D@std@@V?$allocator@D@2@@std@@V12@@std@@@2@@std@@PADAAH@Z 10003bd0 f   CommonMonitor.obj
 0001:00003690       ?GetDataBySMI@@YA_NV?$map@V?$basic_string@DU?$char_traits@D@std@@V?$allocator@D@2@@std@@V12@U?$less@V?$basic_string@DU?$char_traits@D@std@@V?$allocator@D@2@@std@@@2@V?$allocator@U?$pair@$$CBV?$basic_string@DU?$char_traits@D@std@@V?$allocator@D@2@@std@@V12@@std@@@2@@std@@PADAAH@Z 10004690 f   CommonMonitor.obj
 0001:00003690       ?GetIFByCLI@@YA_NV?$map@V?$basic_string@DU?$char_traits@D@std@@V?$allocator@D@2@@std@@V12@U?$less@V?$basic_string@DU?$char_traits@D@std@@V?$allocator@D@2@@std@@@2@V?$allocator@U?$pair@$$CBV?$basic_string@DU?$char_traits@D@std@@V?$allocator@D@2@@std@@V12@@std@@@2@@std@@PADAAH@Z 10004690 f   CommonMonitor.obj
 0001:000036c0       ?GetDataByCLI@@YA_NV?$map@V?$basic_string@DU?$char_traits@D@std@@V?$allocator@D@2@@std@@V12@U?$less@V?$basic_string@DU?$char_traits@D@std@@V?$allocator@D@2@@std@@@2@V?$allocator@U?$pair@$$CBV?$basic_string@DU?$char_traits@D@std@@V?$allocator@D@2@@std@@V12@@std@@@2@@std@@PADAAH@Z 100046c0 f   CommonMonitor.obj
 0001:00003c00       ??0?$map@V?$basic_string@DU?$char_traits@D@std@@V?$allocator@D@2@@std@@V12@U?$less@V?$basic_string@DU?$char_traits@D@std@@V?$allocator@D@2@@std@@@2@V?$allocator@U?$pair@$$CBV?$basic_string@DU?$char_traits@D@std@@V?$allocator@D@2@@std@@V12@@std@@@2@@std@@QAE@ABV01@@Z 10004c00 f i CommonMonitor.obj
 0001:00003c20       ??0?$map@V?$basic_string@DU?$char_traits@D@std@@V?$allocator@D@2@@std@@V12@U?$less@V?$basic_string@DU?$char_traits@D@std@@V?$allocator@D@2@@std@@@2@V?$allocator@U?$pair@$$CBV?$basic_string@DU?$char_traits@D@std@@V?$allocator@D@2@@std@@V12@@std@@@2@@std@@QAE@XZ 10004c20 f i CommonMonitor.obj
 0001:00003c50       ?PrintDebug@@YAXV?$map@V?$basic_string@DU?$char_traits@D@std@@V?$allocator@D@2@@std@@V12@U?$less@V?$basic_string@DU?$char_traits@D@std@@V?$allocator@D@2@@std@@@2@V?$allocator@U?$pair@$$CBV?$basic_string@DU?$char_traits@D@std@@V?$allocator@D@2@@std@@V12@@std@@@2@@std@@@Z 10004c50 f   CommonMonitor.obj
 0001:00003e00       _GetData                   10004e00 f   CommonMonitor.obj
 0001:00004020       _INTERFACES                10005020 f   CommonMonitor.obj
 0001:000041e0       ??1?$map@HUSNMP_Monitor_Result@@U?$less@H@std@@V?$allocator@U?$pair@$$CBHUSNMP_Monitor_Result@@@std@@@3@@std@@QAE@XZ 100051e0 f i CommonMonitor.obj
 0001:00004210       ??0?$map@HUSNMP_Monitor_Result@@U?$less@H@std@@V?$allocator@U?$pair@$$CBHUSNMP_Monitor_Result@@@std@@@3@@std@@QAE@XZ 10005210 f i CommonMonitor.obj
 0001:00004240       ?CheckOIDIndex@@YAHAAV?$list@V?$basic_string@DU?$char_traits@D@std@@V?$allocator@D@2@@std@@V?$allocator@V?$basic_string@DU?$char_traits@D@std@@V?$allocator@D@2@@std@@@2@@std@@PADAAVCSVSnmpOID@@H@Z 10005240 f   CommonMonitor.obj
 0001:00004840       _SNMPList                  10005840 f   CommonMonitor.obj
 0001:000055b0       _SNMPProList               100065b0 f   CommonMonitor.obj
 0001:00006290       _SNMPListForPro            10007290 f   CommonMonitor.obj
 0001:00006e90       ?isOperator@CSVExpression@@AAEHABV?$basic_string@DU?$char_traits@D@std@@V?$allocator@D@2@@std@@@Z 10007e90 f   expression.obj
 0001:00006fc0       ?getToken@CSVExpression@@AAEHABV?$basic_string@DU?$char_traits@D@std@@V?$allocator@D@2@@std@@@Z 10007fc0 f   expression.obj
 0001:00007020       ?IsNumbric@CSVExpression@@AAE_NPBD@Z 10008020 f   expression.obj
 0001:000070a0       ??1?$pair@$$CBV?$basic_string@DU?$char_traits@D@std@@V?$allocator@D@2@@std@@_K@std@@QAE@XZ 100080a0 f i expression.obj
 0001:000070b0       ?_Max@?$_Tree@V?$_Tmap_traits@V?$basic_string@DU?$char_traits@D@std@@V?$allocator@D@2@@std@@_KU?$less@V?$basic_string@DU?$char_traits@D@std@@V?$allocator@D@2@@std@@@2@V?$allocator@U?$pair@$$CBV?$basic_string@DU?$char_traits@D@std@@V?$allocator@D@2@@std@@_K@std@@@2@$0A@@std@@@std@@KAPAU_Node@?$_Tree_nod@V?$_Tmap_traits@V?$basic_string@DU?$char_traits@D@std@@V?$allocator@D@2@@std@@_KU?$less@V?$basic_string@DU?$char_traits@D@std@@V?$allocator@D@2@@std@@@2@V?$allocator@U?$pair@$$CBV?$basic_string@DU?$char_traits@D@std@@V?$allocator@D@2@@std@@_K@std@@@2@$0A@@std@@@2@PAU342@@Z 100080b0 f i expression.obj
 0001:000070d0       ?_Min@?$_Tree@V?$_Tmap_traits@V?$basic_string@DU?$char_traits@D@std@@V?$allocator@D@2@@std@@_KU?$less@V?$basic_string@DU?$char_traits@D@std@@V?$allocator@D@2@@std@@@2@V?$allocator@U?$pair@$$CBV?$basic_string@DU?$char_traits@D@std@@V?$allocator@D@2@@std@@_K@std@@@2@$0A@@std@@@std@@KAPAU_Node@?$_Tree_nod@V?$_Tmap_traits@V?$basic_string@DU?$char_traits@D@std@@V?$allocator@D@2@@std@@_KU?$less@V?$basic_string@DU?$char_traits@D@std@@V?$allocator@D@2@@std@@@2@V?$allocator@U?$pair@$$CBV?$basic_string@DU?$char_traits@D@std@@V?$allocator@D@2@@std@@_K@std@@@2@$0A@@std@@@2@PAU342@@Z 100080d0 f i expression.obj
 0001:000070f0       ?_Lrotate@?$_Tree@V?$_Tmap_traits@V?$basic_string@DU?$char_traits@D@std@@V?$allocator@D@2@@std@@_KU?$less@V?$basic_string@DU?$char_traits@D@std@@V?$allocator@D@2@@std@@@2@V?$allocator@U?$pair@$$CBV?$basic_string@DU?$char_traits@D@std@@V?$allocator@D@2@@std@@_K@std@@@2@$0A@@std@@@std@@IAEXPAU_Node@?$_Tree_nod@V?$_Tmap_traits@V?$basic_string@DU?$char_traits@D@std@@V?$allocator@D@2@@std@@_KU?$less@V?$basic_string@DU?$char_traits@D@std@@V?$allocator@D@2@@std@@@2@V?$allocator@U?$pair@$$CBV?$basic_string@DU?$char_traits@D@std@@V?$allocator@D@2@@std@@_K@std@@@2@$0A@@std@@@2@@Z 100080f0 f i expression.obj
 0001:00007150       ?_Rrotate@?$_Tree@V?$_Tmap_traits@V?$basic_string@DU?$char_traits@D@std@@V?$allocator@D@2@@std@@_KU?$less@V?$basic_string@DU?$char_traits@D@std@@V?$allocator@D@2@@std@@@2@V?$allocator@U?$pair@$$CBV?$basic_string@DU?$char_traits@D@std@@V?$allocator@D@2@@std@@_K@std@@@2@$0A@@std@@@std@@IAEXPAU_Node@?$_Tree_nod@V?$_Tmap_traits@V?$basic_string@DU?$char_traits@D@std@@V?$allocator@D@2@@std@@_KU?$less@V?$basic_string@DU?$char_traits@D@std@@V?$allocator@D@2@@std@@@2@V?$allocator@U?$pair@$$CBV?$basic_string@DU?$char_traits@D@std@@V?$allocator@D@2@@std@@_K@std@@@2@$0A@@std@@@2@@Z 10008150 f i expression.obj
 0001:000071b0       ?_Rrotate@?$_Tree@V?$_Tmap_traits@V?$basic_string@DU?$char_traits@D@std@@V?$allocator@D@2@@std@@V?$map@V?$basic_string@DU?$char_traits@D@std@@V?$allocator@D@2@@std@@_KU?$less@V?$basic_string@DU?$char_traits@D@std@@V?$allocator@D@2@@std@@@2@V?$allocator@U?$pair@$$CBV?$basic_string@DU?$char_traits@D@std@@V?$allocator@D@2@@std@@_K@std@@@2@@2@U?$less@V?$basic_string@DU?$char_traits@D@std@@V?$allocator@D@2@@std@@@2@V?$allocator@U?$pair@$$CBV?$basic_string@DU?$char_traits@D@std@@V?$allocator@D@2@@std@@V?$map@V?$basic_string@DU?$char_traits@D@std@@V?$allocator@D@2@@std@@_KU?$less@V?$basic_string@DU?$char_traits@D@std@@V?$allocator@D@2@@std@@@2@V?$allocator@U?$pair@$$CBV?$basic_string@DU?$char_traits@D@std@@V?$allocator@D@2@@std@@_K@std@@@2@@2@@std@@@2@$0A@@std@@@std@@IAEXPAU_Node@?$_Tree_nod@V?$_Tmap_traits@V?$basic_string@DU?$char_traits@D@std@@V?$allocator@D@2@@std@@V?$map@V?$basic_string@DU?$char_traits@D@std@@V?$allocator@D@2@@std@@_KU?$less@V?$basic_string@DU?$char_traits@D@std@@V?$allocator@D@2@@std@@@2@V?$allocator@U?$pair@$$CBV?$basic_string@DU?$char_traits@D@std@@V?$allocator@D@2@@std@@_K@std@@@2@@2@U?$less@V?$basic_string@DU?$char_traits@D@std@@V?$allocator@D@2@@std@@@2@V?$allocator@U?$pair@$$CBV?$basic_string@DU?$char_traits@D@std@@V?$allocator@D@2@@std@@V?$map@V?$basic_string@DU?$char_traits@D@std@@V?$allocator@D@2@@std@@_KU?$less@V?$basic_string@DU?$char_traits@D@std@@V?$allocator@D@2@@std@@@2@V?$allocator@U?$pair@$$CBV?$basic_string@DU?$char_traits@D@std@@V?$allocator@D@2@@std@@_K@std@@@2@@2@@std@@@2@$0A@@std@@@2@@Z 100081b0 f i expression.obj
 0001:00007210       ?_Xlen@?$deque@V?$basic_string@DU?$char_traits@D@std@@V?$allocator@D@2@@std@@V?$allocator@V?$basic_string@DU?$char_traits@D@std@@V?$allocator@D@2@@std@@@2@@std@@IBEXXZ 10008210 f i expression.obj
 0001:00007210       ?_Xlen@?$deque@NV?$allocator@N@std@@@std@@IBEXXZ 10008210 f i expression.obj
 0001:00007290       ?_Max@?$_Tree@V?$_Tmap_traits@V?$basic_string@DU?$char_traits@D@std@@V?$allocator@D@2@@std@@V?$map@V?$basic_string@DU?$char_traits@D@std@@V?$allocator@D@2@@std@@_KU?$less@V?$basic_string@DU?$char_traits@D@std@@V?$allocator@D@2@@std@@@2@V?$allocator@U?$pair@$$CBV?$basic_string@DU?$char_traits@D@std@@V?$allocator@D@2@@std@@_K@std@@@2@@2@U?$less@V?$basic_string@DU?$char_traits@D@std@@V?$allocator@D@2@@std@@@2@V?$allocator@U?$pair@$$CBV?$basic_string@DU?$char_traits@D@std@@V?$allocator@D@2@@std@@V?$map@V?$basic_string@DU?$char_traits@D@std@@V?$allocator@D@2@@std@@_KU?$less@V?$basic_string@DU?$char_traits@D@std@@V?$allocator@D@2@@std@@@2@V?$allocator@U?$pair@$$CBV?$basic_string@DU?$char_traits@D@std@@V?$allocator@D@2@@std@@_K@std@@@2@@2@@std@@@2@$0A@@std@@@std@@KAPAU_Node@?$_Tree_nod@V?$_Tmap_traits@V?$basic_string@DU?$char_traits@D@std@@V?$allocator@D@2@@std@@V?$map@V?$basic_string@DU?$char_traits@D@std@@V?$allocator@D@2@@std@@_KU?$less@V?$basic_string@DU?$char_traits@D@std@@V?$allocator@D@2@@std@@@2@V?$allocator@U?$pair@$$CBV?$basic_string@DU?$char_traits@D@std@@V?$allocator@D@2@@std@@_K@std@@@2@@2@U?$less@V?$basic_string@DU?$char_traits@D@std@@V?$allocator@D@2@@std@@@2@V?$allocator@U?$pair@$$CBV?$basic_string@DU?$char_traits@D@std@@V?$allocator@D@2@@std@@V?$map@V?$basic_string@DU?$char_traits@D@std@@V?$allocator@D@2@@std@@_KU?$less@V?$basic_string@DU?$char_traits@D@std@@V?$allocator@D@2@@std@@@2@V?$allocator@U?$pair@$$CBV?$basic_string@DU?$char_traits@D@std@@V?$allocator@D@2@@std@@_K@std@@@2@@2@@std@@@2@$0A@@std@@@2@PAU342@@Z 10008290 f i expression.obj
 0001:000072b0       ?_Min@?$_Tree@V?$_Tmap_traits@V?$basic_string@DU?$char_traits@D@std@@V?$allocator@D@2@@std@@V?$map@V?$basic_string@DU?$char_traits@D@std@@V?$allocator@D@2@@std@@_KU?$less@V?$basic_string@DU?$char_traits@D@std@@V?$allocator@D@2@@std@@@2@V?$allocator@U?$pair@$$CBV?$basic_string@DU?$char_traits@D@std@@V?$allocator@D@2@@std@@_K@std@@@2@@2@U?$less@V?$basic_string@DU?$char_traits@D@std@@V?$allocator@D@2@@std@@@2@V?$allocator@U?$pair@$$CBV?$basic_string@DU?$char_traits@D@std@@V?$allocator@D@2@@std@@V?$map@V?$basic_string@DU?$char_traits@D@std@@V?$allocator@D@2@@std@@_KU?$less@V?$basic_string@DU?$char_traits@D@std@@V?$allocator@D@2@@std@@@2@V?$allocator@U?$pair@$$CBV?$basic_string@DU?$char_traits@D@std@@V?$allocator@D@2@@std@@_K@std@@@2@@2@@std@@@2@$0A@@std@@@std@@KAPAU_Node@?$_Tree_nod@V?$_Tmap_traits@V?$basic_string@DU?$char_traits@D@std@@V?$allocator@D@2@@std@@V?$map@V?$basic_string@DU?$char_traits@D@std@@V?$allocator@D@2@@std@@_KU?$less@V?$basic_string@DU?$char_traits@D@std@@V?$allocator@D@2@@std@@@2@V?$allocator@U?$pair@$$CBV?$basic_string@DU?$char_traits@D@std@@V?$allocator@D@2@@std@@_K@std@@@2@@2@U?$less@V?$basic_string@DU?$char_traits@D@std@@V?$allocator@D@2@@std@@@2@V?$allocator@U?$pair@$$CBV?$basic_string@DU?$char_traits@D@std@@V?$allocator@D@2@@std@@V?$map@V?$basic_string@DU?$char_traits@D@std@@V?$allocator@D@2@@std@@_KU?$less@V?$basic_string@DU?$char_traits@D@std@@V?$allocator@D@2@@std@@@2@V?$allocator@U?$pair@$$CBV?$basic_string@DU?$char_traits@D@std@@V?$allocator@D@2@@std@@_K@std@@@2@@2@@std@@@2@$0A@@std@@@2@PAU342@@Z 100082b0 f i expression.obj
 0001:000072d0       ?_Dec@const_iterator@?$_Tree@V?$_Tmap_traits@V?$basic_string@DU?$char_traits@D@std@@V?$allocator@D@2@@std@@V?$map@V?$basic_string@DU?$char_traits@D@std@@V?$allocator@D@2@@std@@_KU?$less@V?$basic_string@DU?$char_traits@D@std@@V?$allocator@D@2@@std@@@2@V?$allocator@U?$pair@$$CBV?$basic_string@DU?$char_traits@D@std@@V?$allocator@D@2@@std@@_K@std@@@2@@2@U?$less@V?$basic_string@DU?$char_traits@D@std@@V?$allocator@D@2@@std@@@2@V?$allocator@U?$pair@$$CBV?$basic_string@DU?$char_traits@D@std@@V?$allocator@D@2@@std@@V?$map@V?$basic_string@DU?$char_traits@D@std@@V?$allocator@D@2@@std@@_KU?$less@V?$basic_string@DU?$char_traits@D@std@@V?$allocator@D@2@@std@@@2@V?$allocator@U?$pair@$$CBV?$basic_string@DU?$char_traits@D@std@@V?$allocator@D@2@@std@@_K@std@@@2@@2@@std@@@2@$0A@@std@@@std@@QAEXXZ 100082d0 f i expression.obj
 0001:00007330       ?_Inc@const_iterator@?$_Tree@V?$_Tmap_traits@V?$basic_string@DU?$char_traits@D@std@@V?$allocator@D@2@@std@@V?$map@V?$basic_string@DU?$char_traits@D@std@@V?$allocator@D@2@@std@@_KU?$less@V?$basic_string@DU?$char_traits@D@std@@V?$allocator@D@2@@std@@@2@V?$allocator@U?$pair@$$CBV?$basic_string@DU?$char_traits@D@std@@V?$allocator@D@2@@std@@_K@std@@@2@@2@U?$less@V?$basic_string@DU?$char_traits@D@std@@V?$allocator@D@2@@std@@@2@V?$allocator@U?$pair@$$CBV?$basic_string@DU?$char_traits@D@std@@V?$allocator@D@2@@std@@V?$map@V?$basic_string@DU?$char_traits@D@std@@V?$allocator@D@2@@std@@_KU?$less@V?$basic_string@DU?$char_traits@D@std@@V?$allocator@D@2@@std@@@2@V?$allocator@U?$pair@$$CBV?$basic_string@DU?$char_traits@D@std@@V?$allocator@D@2@@std@@_K@std@@@2@@2@@std@@@2@$0A@@std@@@std@@QAEXXZ 10008330 f i expression.obj
 0001:00007390       ?_Dec@const_iterator@?$_Tree@V?$_Tmap_traits@V?$basic_string@DU?$char_traits@D@std@@V?$allocator@D@2@@std@@_KU?$less@V?$basic_string@DU?$char_traits@D@std@@V?$allocator@D@2@@std@@@2@V?$allocator@U?$pair@$$CBV?$basic_string@DU?$char_traits@D@std@@V?$allocator@D@2@@std@@_K@std@@@2@$0A@@std@@@std@@QAEXXZ 10008390 f i expression.obj
 0001:000073f0       ?_Inc@const_iterator@?$_Tree@V?$_Tmap_traits@V?$basic_string@DU?$char_traits@D@std@@V?$allocator@D@2@@std@@_KU?$less@V?$basic_string@DU?$char_traits@D@std@@V?$allocator@D@2@@std@@@2@V?$allocator@U?$pair@$$CBV?$basic_string@DU?$char_traits@D@std@@V?$allocator@D@2@@std@@_K@std@@@2@$0A@@std@@@std@@QAEXXZ 100083f0 f i expression.obj
 0001:00007450       ??$_Construct@V?$basic_string@DU?$char_traits@D@std@@V?$allocator@D@2@@std@@V12@@std@@YAXPAV?$basic_string@DU?$char_traits@D@std@@V?$allocator@D@2@@0@ABV10@@Z 10008450 f i expression.obj
 0001:000074a0       ??1_Node@?$_Tree_nod@V?$_Tmap_traits@V?$basic_string@DU?$char_traits@D@std@@V?$allocator@D@2@@std@@_KU?$less@V?$basic_string@DU?$char_traits@D@std@@V?$allocator@D@2@@std@@@2@V?$allocator@U?$pair@$$CBV?$basic_string@DU?$char_traits@D@std@@V?$allocator@D@2@@std@@_K@std@@@2@$0A@@std@@@std@@QAE@XZ 100084a0 f i expression.obj
 0001:000074a0       ??1_Node@?$_Tree_nod@V?$_Tmap_traits@HV?$basic_string@DU?$char_traits@D@std@@V?$allocator@D@2@@std@@U?$less@H@2@V?$allocator@U?$pair@$$CBHV?$basic_string@DU?$char_traits@D@std@@V?$allocator@D@2@@std@@@std@@@2@$0A@@std@@@std@@QAE@XZ 100084a0 f i SnmpOperate.obj
 0001:000074b0       ?_Lbound@?$_Tree@V?$_Tmap_traits@V?$basic_string@DU?$char_traits@D@std@@V?$allocator@D@2@@std@@_KU?$less@V?$basic_string@DU?$char_traits@D@std@@V?$allocator@D@2@@std@@@2@V?$allocator@U?$pair@$$CBV?$basic_string@DU?$char_traits@D@std@@V?$allocator@D@2@@std@@_K@std@@@2@$0A@@std@@@std@@IBEPAU_Node@?$_Tree_nod@V?$_Tmap_traits@V?$basic_string@DU?$char_traits@D@std@@V?$allocator@D@2@@std@@_KU?$less@V?$basic_string@DU?$char_traits@D@std@@V?$allocator@D@2@@std@@@2@V?$allocator@U?$pair@$$CBV?$basic_string@DU?$char_traits@D@std@@V?$allocator@D@2@@std@@_K@std@@@2@$0A@@std@@@2@ABV?$basic_string@DU?$char_traits@D@std@@V?$allocator@D@2@@2@@Z 100084b0 f i expression.obj
 0001:00007500       ?_Lbound@?$_Tree@V?$_Tmap_traits@V?$basic_string@DU?$char_traits@D@std@@V?$allocator@D@2@@std@@V?$map@V?$basic_string@DU?$char_traits@D@std@@V?$allocator@D@2@@std@@_KU?$less@V?$basic_string@DU?$char_traits@D@std@@V?$allocator@D@2@@std@@@2@V?$allocator@U?$pair@$$CBV?$basic_string@DU?$char_traits@D@std@@V?$allocator@D@2@@std@@_K@std@@@2@@2@U?$less@V?$basic_string@DU?$char_traits@D@std@@V?$allocator@D@2@@std@@@2@V?$allocator@U?$pair@$$CBV?$basic_string@DU?$char_traits@D@std@@V?$allocator@D@2@@std@@V?$map@V?$basic_string@DU?$char_traits@D@std@@V?$allocator@D@2@@std@@_KU?$less@V?$basic_string@DU?$char_traits@D@std@@V?$allocator@D@2@@std@@@2@V?$allocator@U?$pair@$$CBV?$basic_string@DU?$char_traits@D@std@@V?$allocator@D@2@@std@@_K@std@@@2@@2@@std@@@2@$0A@@std@@@std@@IBEPAU_Node@?$_Tree_nod@V?$_Tmap_traits@V?$basic_string@DU?$char_traits@D@std@@V?$allocator@D@2@@std@@V?$map@V?$basic_string@DU?$char_traits@D@std@@V?$allocator@D@2@@std@@_KU?$less@V?$basic_string@DU?$char_traits@D@std@@V?$allocator@D@2@@std@@@2@V?$allocator@U?$pair@$$CBV?$basic_string@DU?$char_traits@D@std@@V?$allocator@D@2@@std@@_K@std@@@2@@2@U?$less@V?$basic_string@DU?$char_traits@D@std@@V?$allocator@D@2@@std@@@2@V?$allocator@U?$pair@$$CBV?$basic_string@DU?$char_traits@D@std@@V?$allocator@D@2@@std@@V?$map@V?$basic_string@DU?$char_traits@D@std@@V?$allocator@D@2@@std@@_KU?$less@V?$basic_string@DU?$char_traits@D@std@@V?$allocator@D@2@@std@@@2@V?$allocator@U?$pair@$$CBV?$basic_string@DU?$char_traits@D@std@@V?$allocator@D@2@@std@@_K@std@@@2@@2@@std@@@2@$0A@@std@@@2@ABV?$basic_string@DU?$char_traits@D@std@@V?$allocator@D@2@@2@@Z 10008500 f i expression.obj
 0001:00007550       ?_Lrotate@?$_Tree@V?$_Tmap_traits@V?$basic_string@DU?$char_traits@D@std@@V?$allocator@D@2@@std@@V?$map@V?$basic_string@DU?$char_traits@D@std@@V?$allocator@D@2@@std@@_KU?$less@V?$basic_string@DU?$char_traits@D@std@@V?$allocator@D@2@@std@@@2@V?$allocator@U?$pair@$$CBV?$basic_string@DU?$char_traits@D@std@@V?$allocator@D@2@@std@@_K@std@@@2@@2@U?$less@V?$basic_string@DU?$char_traits@D@std@@V?$allocator@D@2@@std@@@2@V?$allocator@U?$pair@$$CBV?$basic_string@DU?$char_traits@D@std@@V?$allocator@D@2@@std@@V?$map@V?$basic_string@DU?$char_traits@D@std@@V?$allocator@D@2@@std@@_KU?$less@V?$basic_string@DU?$char_traits@D@std@@V?$allocator@D@2@@std@@@2@V?$allocator@U?$pair@$$CBV?$basic_string@DU?$char_traits@D@std@@V?$allocator@D@2@@std@@_K@std@@@2@@2@@std@@@2@$0A@@std@@@std@@IAEXPAU_Node@?$_Tree_nod@V?$_Tmap_traits@V?$basic_string@DU?$char_traits@D@std@@V?$allocator@D@2@@std@@V?$map@V?$basic_string@DU?$char_traits@D@std@@V?$allocator@D@2@@std@@_KU?$less@V?$basic_string@DU?$char_traits@D@std@@V?$allocator@D@2@@std@@@2@V?$allocator@U?$pair@$$CBV?$basic_string@DU?$char_traits@D@std@@V?$allocator@D@2@@std@@_K@std@@@2@@2@U?$less@V?$basic_string@DU?$char_traits@D@std@@V?$allocator@D@2@@std@@@2@V?$allocator@U?$pair@$$CBV?$basic_string@DU?$char_traits@D@std@@V?$allocator@D@2@@std@@V?$map@V?$basic_string@DU?$char_traits@D@std@@V?$allocator@D@2@@std@@_KU?$less@V?$basic_string@DU?$char_traits@D@std@@V?$allocator@D@2@@std@@@2@V?$allocator@U?$pair@$$CBV?$basic_string@DU?$char_traits@D@std@@V?$allocator@D@2@@std@@_K@std@@@2@@2@@std@@@2@$0A@@std@@@2@@Z 10008550 f i expression.obj
 0001:000075b0       ?_Tidy@?$deque@NV?$allocator@N@std@@@std@@IAEXXZ 100085b0 f i expression.obj
 0001:00007620       ?_Buynode@?$_Tree@V?$_Tmap_traits@V?$basic_string@DU?$char_traits@D@std@@V?$allocator@D@2@@std@@_KU?$less@V?$basic_string@DU?$char_traits@D@std@@V?$allocator@D@2@@std@@@2@V?$allocator@U?$pair@$$CBV?$basic_string@DU?$char_traits@D@std@@V?$allocator@D@2@@std@@_K@std@@@2@$0A@@std@@@std@@IAEPAU_Node@?$_Tree_nod@V?$_Tmap_traits@V?$basic_string@DU?$char_traits@D@std@@V?$allocator@D@2@@std@@_KU?$less@V?$basic_string@DU?$char_traits@D@std@@V?$allocator@D@2@@std@@@2@V?$allocator@U?$pair@$$CBV?$basic_string@DU?$char_traits@D@std@@V?$allocator@D@2@@std@@_K@std@@@2@$0A@@std@@@2@XZ 10008620 f i expression.obj
 0001:00007660       ?_Buynode@?$_Tree@V?$_Tmap_traits@V?$basic_string@DU?$char_traits@D@std@@V?$allocator@D@2@@std@@_KU?$less@V?$basic_string@DU?$char_traits@D@std@@V?$allocator@D@2@@std@@@2@V?$allocator@U?$pair@$$CBV?$basic_string@DU?$char_traits@D@std@@V?$allocator@D@2@@std@@_K@std@@@2@$0A@@std@@@std@@IAEPAU_Node@?$_Tree_nod@V?$_Tmap_traits@V?$basic_string@DU?$char_traits@D@std@@V?$allocator@D@2@@std@@_KU?$less@V?$basic_string@DU?$char_traits@D@std@@V?$allocator@D@2@@std@@@2@V?$allocator@U?$pair@$$CBV?$basic_string@DU?$char_traits@D@std@@V?$allocator@D@2@@std@@_K@std@@@2@$0A@@std@@@2@PAU342@00ABU?$pair@$$CBV?$basic_string@DU?$char_traits@D@std@@V?$allocator@D@2@@std@@_K@2@D@Z 10008660 f i expression.obj
 0001:00007710       ?_Buynode@?$_Tree@V?$_Tmap_traits@V?$basic_string@DU?$char_traits@D@std@@V?$allocator@D@2@@std@@V?$map@V?$basic_string@DU?$char_traits@D@std@@V?$allocator@D@2@@std@@_KU?$less@V?$basic_string@DU?$char_traits@D@std@@V?$allocator@D@2@@std@@@2@V?$allocator@U?$pair@$$CBV?$basic_string@DU?$char_traits@D@std@@V?$allocator@D@2@@std@@_K@std@@@2@@2@U?$less@V?$basic_string@DU?$char_traits@D@std@@V?$allocator@D@2@@std@@@2@V?$allocator@U?$pair@$$CBV?$basic_string@DU?$char_traits@D@std@@V?$allocator@D@2@@std@@V?$map@V?$basic_string@DU?$char_traits@D@std@@V?$allocator@D@2@@std@@_KU?$less@V?$basic_string@DU?$char_traits@D@std@@V?$allocator@D@2@@std@@@2@V?$allocator@U?$pair@$$CBV?$basic_string@DU?$char_traits@D@std@@V?$allocator@D@2@@std@@_K@std@@@2@@2@@std@@@2@$0A@@std@@@std@@IAEPAU_Node@?$_Tree_nod@V?$_Tmap_traits@V?$basic_string@DU?$char_traits@D@std@@V?$allocator@D@2@@std@@V?$map@V?$basic_string@DU?$char_traits@D@std@@V?$allocator@D@2@@std@@_KU?$less@V?$basic_string@DU?$char_traits@D@std@@V?$allocator@D@2@@std@@@2@V?$allocator@U?$pair@$$CBV?$basic_string@DU?$char_traits@D@std@@V?$allocator@D@2@@std@@_K@std@@@2@@2@U?$less@V?$basic_string@DU?$char_traits@D@std@@V?$allocator@D@2@@std@@@2@V?$allocator@U?$pair@$$CBV?$basic_string@DU?$char_traits@D@std@@V?$allocator@D@2@@std@@V?$map@V?$basic_string@DU?$char_traits@D@std@@V?$allocator@D@2@@std@@_KU?$less@V?$basic_string@DU?$char_traits@D@std@@V?$allocator@D@2@@std@@@2@V?$allocator@U?$pair@$$CBV?$basic_string@DU?$char_traits@D@std@@V?$allocator@D@2@@std@@_K@std@@@2@@2@@std@@@2@$0A@@std@@@2@XZ 10008710 f i expression.obj
 0001:00007750       ?find@?$_Tree@V?$_Tmap_traits@V?$basic_string@DU?$char_traits@D@std@@V?$allocator@D@2@@std@@_KU?$less@V?$basic_string@DU?$char_traits@D@std@@V?$allocator@D@2@@std@@@2@V?$allocator@U?$pair@$$CBV?$basic_string@DU?$char_traits@D@std@@V?$allocator@D@2@@std@@_K@std@@@2@$0A@@std@@@std@@QAE?AViterator@12@ABV?$basic_string@DU?$char_traits@D@std@@V?$allocator@D@2@@2@@Z 10008750 f i expression.obj
 0001:000077b0       ?find@?$_Tree@V?$_Tmap_traits@V?$basic_string@DU?$char_traits@D@std@@V?$allocator@D@2@@std@@V?$map@V?$basic_string@DU?$char_traits@D@std@@V?$allocator@D@2@@std@@_KU?$less@V?$basic_string@DU?$char_traits@D@std@@V?$allocator@D@2@@std@@@2@V?$allocator@U?$pair@$$CBV?$basic_string@DU?$char_traits@D@std@@V?$allocator@D@2@@std@@_K@std@@@2@@2@U?$less@V?$basic_string@DU?$char_traits@D@std@@V?$allocator@D@2@@std@@@2@V?$allocator@U?$pair@$$CBV?$basic_string@DU?$char_traits@D@std@@V?$allocator@D@2@@std@@V?$map@V?$basic_string@DU?$char_traits@D@std@@V?$allocator@D@2@@std@@_KU?$less@V?$basic_string@DU?$char_traits@D@std@@V?$allocator@D@2@@std@@@2@V?$allocator@U?$pair@$$CBV?$basic_string@DU?$char_traits@D@std@@V?$allocator@D@2@@std@@_K@std@@@2@@2@@std@@@2@$0A@@std@@@std@@QAE?AViterator@12@ABV?$basic_string@DU?$char_traits@D@std@@V?$allocator@D@2@@2@@Z 100087b0 f i expression.obj
 0001:00007810       ?_Tidy@?$deque@V?$basic_string@DU?$char_traits@D@std@@V?$allocator@D@2@@std@@V?$allocator@V?$basic_string@DU?$char_traits@D@std@@V?$allocator@D@2@@std@@@2@@std@@IAEXXZ 10008810 f i expression.obj
 0001:00007890       ?_Insert@?$_Tree@V?$_Tmap_traits@V?$basic_string@DU?$char_traits@D@std@@V?$allocator@D@2@@std@@_KU?$less@V?$basic_string@DU?$char_traits@D@std@@V?$allocator@D@2@@std@@@2@V?$allocator@U?$pair@$$CBV?$basic_string@DU?$char_traits@D@std@@V?$allocator@D@2@@std@@_K@std@@@2@$0A@@std@@@std@@IAE?AViterator@12@_NPAU_Node@?$_Tree_nod@V?$_Tmap_traits@V?$basic_string@DU?$char_traits@D@std@@V?$allocator@D@2@@std@@_KU?$less@V?$basic_string@DU?$char_traits@D@std@@V?$allocator@D@2@@std@@@2@V?$allocator@U?$pair@$$CBV?$basic_string@DU?$char_traits@D@std@@V?$allocator@D@2@@std@@_K@std@@@2@$0A@@std@@@2@ABU?$pair@$$CBV?$basic_string@DU?$char_traits@D@std@@V?$allocator@D@2@@std@@_K@2@@Z 10008890 f i expression.obj
 0001:00007a50       ?_Growmap@?$deque@V?$basic_string@DU?$char_traits@D@std@@V?$allocator@D@2@@std@@V?$allocator@V?$basic_string@DU?$char_traits@D@std@@V?$allocator@D@2@@std@@@2@@std@@IAEXI@Z 10008a50 f i expression.obj
 0001:00007ba0       ?_Growmap@?$deque@NV?$allocator@N@std@@@std@@IAEXI@Z 10008ba0 f i expression.obj
 0001:00007d00       ??1?$stack@NV?$deque@NV?$allocator@N@std@@@std@@@std@@QAE@XZ 10008d00 f i expression.obj
 0001:00007d10       ?GetOidValue@CSVExpression@@AAE_KABV?$basic_string@DU?$char_traits@D@std@@V?$allocator@D@2@@std@@@Z 10008d10 f   expression.obj
 0001:00007eb0       ?push_back@?$deque@V?$basic_string@DU?$char_traits@D@std@@V?$allocator@D@2@@std@@V?$allocator@V?$basic_string@DU?$char_traits@D@std@@V?$allocator@D@2@@std@@@2@@std@@QAEXABV?$basic_string@DU?$char_traits@D@std@@V?$allocator@D@2@@2@@Z 10008eb0 f i expression.obj
 0001:00007f20       ?push_back@?$deque@NV?$allocator@N@std@@@std@@QAEXABN@Z 10008f20 f i expression.obj
 0001:00007fa0       ?insert@?$_Tree@V?$_Tmap_traits@V?$basic_string@DU?$char_traits@D@std@@V?$allocator@D@2@@std@@_KU?$less@V?$basic_string@DU?$char_traits@D@std@@V?$allocator@D@2@@std@@@2@V?$allocator@U?$pair@$$CBV?$basic_string@DU?$char_traits@D@std@@V?$allocator@D@2@@std@@_K@std@@@2@$0A@@std@@@std@@QAE?AU?$pair@Viterator@?$_Tree@V?$_Tmap_traits@V?$basic_string@DU?$char_traits@D@std@@V?$allocator@D@2@@std@@_KU?$less@V?$basic_string@DU?$char_traits@D@std@@V?$allocator@D@2@@std@@@2@V?$allocator@U?$pair@$$CBV?$basic_string@DU?$char_traits@D@std@@V?$allocator@D@2@@std@@_K@std@@@2@$0A@@std@@@std@@_N@2@ABU?$pair@$$CBV?$basic_string@DU?$char_traits@D@std@@V?$allocator@D@2@@std@@_K@2@@Z 10008fa0 f i expression.obj
 0001:00008080       ?erase@?$_Tree@V?$_Tmap_traits@V?$basic_string@DU?$char_traits@D@std@@V?$allocator@D@2@@std@@_KU?$less@V?$basic_string@DU?$char_traits@D@std@@V?$allocator@D@2@@std@@@2@V?$allocator@U?$pair@$$CBV?$basic_string@DU?$char_traits@D@std@@V?$allocator@D@2@@std@@_K@std@@@2@$0A@@std@@@std@@QAE?AViterator@12@V312@@Z 10009080 f i expression.obj
 0001:00008360       ?_Erase@?$_Tree@V?$_Tmap_traits@V?$basic_string@DU?$char_traits@D@std@@V?$allocator@D@2@@std@@_KU?$less@V?$basic_string@DU?$char_traits@D@std@@V?$allocator@D@2@@std@@@2@V?$allocator@U?$pair@$$CBV?$basic_string@DU?$char_traits@D@std@@V?$allocator@D@2@@std@@_K@std@@@2@$0A@@std@@@std@@IAEXPAU_Node@?$_Tree_nod@V?$_Tmap_traits@V?$basic_string@DU?$char_traits@D@std@@V?$allocator@D@2@@std@@_KU?$less@V?$basic_string@DU?$char_traits@D@std@@V?$allocator@D@2@@std@@@2@V?$allocator@U?$pair@$$CBV?$basic_string@DU?$char_traits@D@std@@V?$allocator@D@2@@std@@_K@std@@@2@$0A@@std@@@2@@Z 10009360 f i expression.obj
 0001:000083a0       ??1?$stack@V?$basic_string@DU?$char_traits@D@std@@V?$allocator@D@2@@std@@V?$deque@V?$basic_string@DU?$char_traits@D@std@@V?$allocator@D@2@@std@@V?$allocator@V?$basic_string@DU?$char_traits@D@std@@V?$allocator@D@2@@std@@@2@@2@@std@@QAE@XZ 100093a0 f i expression.obj
 0001:000083b0       ?insert@?$_Tree@V?$_Tmap_traits@V?$basic_string@DU?$char_traits@D@std@@V?$allocator@D@2@@std@@_KU?$less@V?$basic_string@DU?$char_traits@D@std@@V?$allocator@D@2@@std@@@2@V?$allocator@U?$pair@$$CBV?$basic_string@DU?$char_traits@D@std@@V?$allocator@D@2@@std@@_K@std@@@2@$0A@@std@@@std@@QAE?AViterator@12@V312@ABU?$pair@$$CBV?$basic_string@DU?$char_traits@D@std@@V?$allocator@D@2@@std@@_K@2@@Z 100093b0 f i expression.obj
 0001:00008570       ?_Copy@?$_Tree@V?$_Tmap_traits@V?$basic_string@DU?$char_traits@D@std@@V?$allocator@D@2@@std@@_KU?$less@V?$basic_string@DU?$char_traits@D@std@@V?$allocator@D@2@@std@@@2@V?$allocator@U?$pair@$$CBV?$basic_string@DU?$char_traits@D@std@@V?$allocator@D@2@@std@@_K@std@@@2@$0A@@std@@@std@@IAEPAU_Node@?$_Tree_nod@V?$_Tmap_traits@V?$basic_string@DU?$char_traits@D@std@@V?$allocator@D@2@@std@@_KU?$less@V?$basic_string@DU?$char_traits@D@std@@V?$allocator@D@2@@std@@@2@V?$allocator@U?$pair@$$CBV?$basic_string@DU?$char_traits@D@std@@V?$allocator@D@2@@std@@_K@std@@@2@$0A@@std@@@2@PAU342@0@Z 10009570 f i expression.obj
 0001:00008620       ?toRPN@CSVExpression@@AAEHABV?$basic_string@DU?$char_traits@D@std@@V?$allocator@D@2@@std@@AAV23@@Z 10009620 f   expression.obj
 0001:00008de0       ?evaluateRPN@CSVExpression@@AAEHABV?$basic_string@DU?$char_traits@D@std@@V?$allocator@D@2@@std@@AAN@Z 10009de0 f   expression.obj
 0001:00009760       ??A?$map@V?$basic_string@DU?$char_traits@D@std@@V?$allocator@D@2@@std@@_KU?$less@V?$basic_string@DU?$char_traits@D@std@@V?$allocator@D@2@@std@@@2@V?$allocator@U?$pair@$$CBV?$basic_string@DU?$char_traits@D@std@@V?$allocator@D@2@@std@@_K@std@@@2@@std@@QAEAA_KABV?$basic_string@DU?$char_traits@D@std@@V?$allocator@D@2@@1@@Z 1000a760 f i expression.obj
 0001:00009800       ?erase@?$_Tree@V?$_Tmap_traits@V?$basic_string@DU?$char_traits@D@std@@V?$allocator@D@2@@std@@_KU?$less@V?$basic_string@DU?$char_traits@D@std@@V?$allocator@D@2@@std@@@2@V?$allocator@U?$pair@$$CBV?$basic_string@DU?$char_traits@D@std@@V?$allocator@D@2@@std@@_K@std@@@2@$0A@@std@@@std@@QAE?AViterator@12@V312@0@Z 1000a800 f i expression.obj
 0001:000098c0       ?_Copy@?$_Tree@V?$_Tmap_traits@V?$basic_string@DU?$char_traits@D@std@@V?$allocator@D@2@@std@@_KU?$less@V?$basic_string@DU?$char_traits@D@std@@V?$allocator@D@2@@std@@@2@V?$allocator@U?$pair@$$CBV?$basic_string@DU?$char_traits@D@std@@V?$allocator@D@2@@std@@_K@std@@@2@$0A@@std@@@std@@IAEXABV12@@Z 1000a8c0 f i expression.obj
 0001:00009950       ??0?$_Tree@V?$_Tmap_traits@V?$basic_string@DU?$char_traits@D@std@@V?$allocator@D@2@@std@@_KU?$less@V?$basic_string@DU?$char_traits@D@std@@V?$allocator@D@2@@std@@@2@V?$allocator@U?$pair@$$CBV?$basic_string@DU?$char_traits@D@std@@V?$allocator@D@2@@std@@_K@std@@@2@$0A@@std@@@std@@QAE@ABV01@@Z 1000a950 f i expression.obj
 0001:000099e0       ?calculateDouble@CSVExpression@@QAEHABV?$basic_string@DU?$char_traits@D@std@@V?$allocator@D@2@@std@@AAN@Z 1000a9e0 f   expression.obj
 0001:00009a80       ??1?$map@V?$basic_string@DU?$char_traits@D@std@@V?$allocator@D@2@@std@@_KU?$less@V?$basic_string@DU?$char_traits@D@std@@V?$allocator@D@2@@std@@@2@V?$allocator@U?$pair@$$CBV?$basic_string@DU?$char_traits@D@std@@V?$allocator@D@2@@std@@_K@std@@@2@@std@@QAE@XZ 1000aa80 f i expression.obj
 0001:00009a80       ?_Tidy@?$_Tree@V?$_Tmap_traits@V?$basic_string@DU?$char_traits@D@std@@V?$allocator@D@2@@std@@_KU?$less@V?$basic_string@DU?$char_traits@D@std@@V?$allocator@D@2@@std@@@2@V?$allocator@U?$pair@$$CBV?$basic_string@DU?$char_traits@D@std@@V?$allocator@D@2@@std@@_K@std@@@2@$0A@@std@@@std@@IAEXXZ 1000aa80 f i expression.obj
 0001:00009ab0       ??1?$pair@$$CBV?$basic_string@DU?$char_traits@D@std@@V?$allocator@D@2@@std@@V?$map@V?$basic_string@DU?$char_traits@D@std@@V?$allocator@D@2@@std@@_KU?$less@V?$basic_string@DU?$char_traits@D@std@@V?$allocator@D@2@@std@@@2@V?$allocator@U?$pair@$$CBV?$basic_string@DU?$char_traits@D@std@@V?$allocator@D@2@@std@@_K@std@@@2@@2@@std@@QAE@XZ 1000aab0 f i expression.obj
 0001:00009b30       ??0?$pair@$$CBV?$basic_string@DU?$char_traits@D@std@@V?$allocator@D@2@@std@@V?$map@V?$basic_string@DU?$char_traits@D@std@@V?$allocator@D@2@@std@@_KU?$less@V?$basic_string@DU?$char_traits@D@std@@V?$allocator@D@2@@std@@@2@V?$allocator@U?$pair@$$CBV?$basic_string@DU?$char_traits@D@std@@V?$allocator@D@2@@std@@_K@std@@@2@@2@@std@@QAE@ABV?$basic_string@DU?$char_traits@D@std@@V?$allocator@D@2@@1@ABV?$map@V?$basic_string@DU?$char_traits@D@std@@V?$allocator@D@2@@std@@_KU?$less@V?$basic_string@DU?$char_traits@D@std@@V?$allocator@D@2@@std@@@2@V?$allocator@U?$pair@$$CBV?$basic_string@DU?$char_traits@D@std@@V?$allocator@D@2@@std@@_K@std@@@2@@1@@Z 1000ab30 f i expression.obj
 0001:00009b90       ??0?$pair@$$CBV?$basic_string@DU?$char_traits@D@std@@V?$allocator@D@2@@std@@V?$map@V?$basic_string@DU?$char_traits@D@std@@V?$allocator@D@2@@std@@_KU?$less@V?$basic_string@DU?$char_traits@D@std@@V?$allocator@D@2@@std@@@2@V?$allocator@U?$pair@$$CBV?$basic_string@DU?$char_traits@D@std@@V?$allocator@D@2@@std@@_K@std@@@2@@2@@std@@QAE@ABU01@@Z 1000ab90 f i expression.obj
 0001:00009bf0       ??1_Node@?$_Tree_nod@V?$_Tmap_traits@V?$basic_string@DU?$char_traits@D@std@@V?$allocator@D@2@@std@@V?$map@V?$basic_string@DU?$char_traits@D@std@@V?$allocator@D@2@@std@@_KU?$less@V?$basic_string@DU?$char_traits@D@std@@V?$allocator@D@2@@std@@@2@V?$allocator@U?$pair@$$CBV?$basic_string@DU?$char_traits@D@std@@V?$allocator@D@2@@std@@_K@std@@@2@@2@U?$less@V?$basic_string@DU?$char_traits@D@std@@V?$allocator@D@2@@std@@@2@V?$allocator@U?$pair@$$CBV?$basic_string@DU?$char_traits@D@std@@V?$allocator@D@2@@std@@V?$map@V?$basic_string@DU?$char_traits@D@std@@V?$allocator@D@2@@std@@_KU?$less@V?$basic_string@DU?$char_traits@D@std@@V?$allocator@D@2@@std@@@2@V?$allocator@U?$pair@$$CBV?$basic_string@DU?$char_traits@D@std@@V?$allocator@D@2@@std@@_K@std@@@2@@2@@std@@@2@$0A@@std@@@std@@QAE@XZ 1000abf0 f i expression.obj
 0001:00009c00       ?_Buynode@?$_Tree@V?$_Tmap_traits@V?$basic_string@DU?$char_traits@D@std@@V?$allocator@D@2@@std@@V?$map@V?$basic_string@DU?$char_traits@D@std@@V?$allocator@D@2@@std@@_KU?$less@V?$basic_string@DU?$char_traits@D@std@@V?$allocator@D@2@@std@@@2@V?$allocator@U?$pair@$$CBV?$basic_string@DU?$char_traits@D@std@@V?$allocator@D@2@@std@@_K@std@@@2@@2@U?$less@V?$basic_string@DU?$char_traits@D@std@@V?$allocator@D@2@@std@@@2@V?$allocator@U?$pair@$$CBV?$basic_string@DU?$char_traits@D@std@@V?$allocator@D@2@@std@@V?$map@V?$basic_string@DU?$char_traits@D@std@@V?$allocator@D@2@@std@@_KU?$less@V?$basic_string@DU?$char_traits@D@std@@V?$allocator@D@2@@std@@@2@V?$allocator@U?$pair@$$CBV?$basic_string@DU?$char_traits@D@std@@V?$allocator@D@2@@std@@_K@std@@@2@@2@@std@@@2@$0A@@std@@@std@@IAEPAU_Node@?$_Tree_nod@V?$_Tmap_traits@V?$basic_string@DU?$char_traits@D@std@@V?$allocator@D@2@@std@@V?$map@V?$basic_string@DU?$char_traits@D@std@@V?$allocator@D@2@@std@@_KU?$less@V?$basic_string@DU?$char_traits@D@std@@V?$allocator@D@2@@std@@@2@V?$allocator@U?$pair@$$CBV?$basic_string@DU?$char_traits@D@std@@V?$allocator@D@2@@std@@_K@std@@@2@@2@U?$less@V?$basic_string@DU?$char_traits@D@std@@V?$allocator@D@2@@std@@@2@V?$allocator@U?$pair@$$CBV?$basic_string@DU?$char_traits@D@std@@V?$allocator@D@2@@std@@V?$map@V?$basic_string@DU?$char_traits@D@std@@V?$allocator@D@2@@std@@_KU?$less@V?$basic_string@DU?$char_traits@D@std@@V?$allocator@D@2@@std@@@2@V?$allocator@U?$pair@$$CBV?$basic_string@DU?$char_traits@D@std@@V?$allocator@D@2@@std@@_K@std@@@2@@2@@std@@@2@$0A@@std@@@2@PAU342@00ABU?$pair@$$CBV?$basic_string@DU?$char_traits@D@std@@V?$allocator@D@2@@std@@V?$map@V?$basic_string@DU?$char_traits@D@std@@V?$allocator@D@2@@std@@_KU?$less@V?$basic_string@DU?$char_traits@D@std@@V?$allocator@D@2@@std@@@2@V?$allocator@U?$pair@$$CBV?$basic_string@DU?$char_traits@D@std@@V?$allocator@D@2@@std@@_K@std@@@2@@2@@2@D@Z 1000ac00 f i expression.obj
 0001:00009ca0       ?_Insert@?$_Tree@V?$_Tmap_traits@V?$basic_string@DU?$char_traits@D@std@@V?$allocator@D@2@@std@@V?$map@V?$basic_string@DU?$char_traits@D@std@@V?$allocator@D@2@@std@@_KU?$less@V?$basic_string@DU?$char_traits@D@std@@V?$allocator@D@2@@std@@@2@V?$allocator@U?$pair@$$CBV?$basic_string@DU?$char_traits@D@std@@V?$allocator@D@2@@std@@_K@std@@@2@@2@U?$less@V?$basic_string@DU?$char_traits@D@std@@V?$allocator@D@2@@std@@@2@V?$allocator@U?$pair@$$CBV?$basic_string@DU?$char_traits@D@std@@V?$allocator@D@2@@std@@V?$map@V?$basic_string@DU?$char_traits@D@std@@V?$allocator@D@2@@std@@_KU?$less@V?$basic_string@DU?$char_traits@D@std@@V?$allocator@D@2@@std@@@2@V?$allocator@U?$pair@$$CBV?$basic_string@DU?$char_traits@D@std@@V?$allocator@D@2@@std@@_K@std@@@2@@2@@std@@@2@$0A@@std@@@std@@IAE?AViterator@12@_NPAU_Node@?$_Tree_nod@V?$_Tmap_traits@V?$basic_string@DU?$char_traits@D@std@@V?$allocator@D@2@@std@@V?$map@V?$basic_string@DU?$char_traits@D@std@@V?$allocator@D@2@@std@@_KU?$less@V?$basic_string@DU?$char_traits@D@std@@V?$allocator@D@2@@std@@@2@V?$allocator@U?$pair@$$CBV?$basic_string@DU?$char_traits@D@std@@V?$allocator@D@2@@std@@_K@std@@@2@@2@U?$less@V?$basic_string@DU?$char_traits@D@std@@V?$allocator@D@2@@std@@@2@V?$allocator@U?$pair@$$CBV?$basic_string@DU?$char_traits@D@std@@V?$allocator@D@2@@std@@V?$map@V?$basic_string@DU?$char_traits@D@std@@V?$allocator@D@2@@std@@_KU?$less@V?$basic_string@DU?$char_traits@D@std@@V?$allocator@D@2@@std@@@2@V?$allocator@U?$pair@$$CBV?$basic_string@DU?$char_traits@D@std@@V?$allocator@D@2@@std@@_K@std@@@2@@2@@std@@@2@$0A@@std@@@2@ABU?$pair@$$CBV?$basic_string@DU?$char_traits@D@std@@V?$allocator@D@2@@std@@V?$map@V?$basic_string@DU?$char_traits@D@std@@V?$allocator@D@2@@std@@_KU?$less@V?$basic_string@DU?$char_traits@D@std@@V?$allocator@D@2@@std@@@2@V?$allocator@U?$pair@$$CBV?$basic_string@DU?$char_traits@D@std@@V?$allocator@D@2@@std@@_K@std@@@2@@2@@2@@Z 1000aca0 f i expression.obj
 0001:00009e60       ?insert@?$_Tree@V?$_Tmap_traits@V?$basic_string@DU?$char_traits@D@std@@V?$allocator@D@2@@std@@V?$map@V?$basic_string@DU?$char_traits@D@std@@V?$allocator@D@2@@std@@_KU?$less@V?$basic_string@DU?$char_traits@D@std@@V?$allocator@D@2@@std@@@2@V?$allocator@U?$pair@$$CBV?$basic_string@DU?$char_traits@D@std@@V?$allocator@D@2@@std@@_K@std@@@2@@2@U?$less@V?$basic_string@DU?$char_traits@D@std@@V?$allocator@D@2@@std@@@2@V?$allocator@U?$pair@$$CBV?$basic_string@DU?$char_traits@D@std@@V?$allocator@D@2@@std@@V?$map@V?$basic_string@DU?$char_traits@D@std@@V?$allocator@D@2@@std@@_KU?$less@V?$basic_string@DU?$char_traits@D@std@@V?$allocator@D@2@@std@@@2@V?$allocator@U?$pair@$$CBV?$basic_string@DU?$char_traits@D@std@@V?$allocator@D@2@@std@@_K@std@@@2@@2@@std@@@2@$0A@@std@@@std@@QAE?AU?$pair@Viterator@?$_Tree@V?$_Tmap_traits@V?$basic_string@DU?$char_traits@D@std@@V?$allocator@D@2@@std@@V?$map@V?$basic_string@DU?$char_traits@D@std@@V?$allocator@D@2@@std@@_KU?$less@V?$basic_string@DU?$char_traits@D@std@@V?$allocator@D@2@@std@@@2@V?$allocator@U?$pair@$$CBV?$basic_string@DU?$char_traits@D@std@@V?$allocator@D@2@@std@@_K@std@@@2@@2@U?$less@V?$basic_string@DU?$char_traits@D@std@@V?$allocator@D@2@@std@@@2@V?$allocator@U?$pair@$$CBV?$basic_string@DU?$char_traits@D@std@@V?$allocator@D@2@@std@@V?$map@V?$basic_string@DU?$char_traits@D@std@@V?$allocator@D@2@@std@@_KU?$less@V?$basic_string@DU?$char_traits@D@std@@V?$allocator@D@2@@std@@@2@V?$allocator@U?$pair@$$CBV?$basic_string@DU?$char_traits@D@std@@V?$allocator@D@2@@std@@_K@std@@@2@@2@@std@@@2@$0A@@std@@@std@@_N@2@ABU?$pair@$$CBV?$basic_string@DU?$char_traits@D@std@@V?$allocator@D@2@@std@@V?$map@V?$basic_string@DU?$char_traits@D@std@@V?$allocator@D@2@@std@@_KU?$less@V?$basic_string@DU?$char_traits@D@std@@V?$allocator@D@2@@std@@@2@V?$allocator@U?$pair@$$CBV?$basic_string@DU?$char_traits@D@std@@V?$allocator@D@2@@std@@_K@std@@@2@@2@@2@@Z 1000ae60 f i expression.obj
 0001:00009f40       ?erase@?$_Tree@V?$_Tmap_traits@V?$basic_string@DU?$char_traits@D@std@@V?$allocator@D@2@@std@@V?$map@V?$basic_string@DU?$char_traits@D@std@@V?$allocator@D@2@@std@@_KU?$less@V?$basic_string@DU?$char_traits@D@std@@V?$allocator@D@2@@std@@@2@V?$allocator@U?$pair@$$CBV?$basic_string@DU?$char_traits@D@std@@V?$allocator@D@2@@std@@_K@std@@@2@@2@U?$less@V?$basic_string@DU?$char_traits@D@std@@V?$allocator@D@2@@std@@@2@V?$allocator@U?$pair@$$CBV?$basic_string@DU?$char_traits@D@std@@V?$allocator@D@2@@std@@V?$map@V?$basic_string@DU?$char_traits@D@std@@V?$allocator@D@2@@std@@_KU?$less@V?$basic_string@DU?$char_traits@D@std@@V?$allocator@D@2@@std@@@2@V?$allocator@U?$pair@$$CBV?$basic_string@DU?$char_traits@D@std@@V?$allocator@D@2@@std@@_K@std@@@2@@2@@std@@@2@$0A@@std@@@std@@QAE?AViterator@12@V312@@Z 1000af40 f i expression.obj
 0001:0000a220       ?_Erase@?$_Tree@V?$_Tmap_traits@V?$basic_string@DU?$char_traits@D@std@@V?$allocator@D@2@@std@@V?$map@V?$basic_string@DU?$char_traits@D@std@@V?$allocator@D@2@@std@@_KU?$less@V?$basic_string@DU?$char_traits@D@std@@V?$allocator@D@2@@std@@@2@V?$allocator@U?$pair@$$CBV?$basic_string@DU?$char_traits@D@std@@V?$allocator@D@2@@std@@_K@std@@@2@@2@U?$less@V?$basic_string@DU?$char_traits@D@std@@V?$allocator@D@2@@std@@@2@V?$allocator@U?$pair@$$CBV?$basic_string@DU?$char_traits@D@std@@V?$allocator@D@2@@std@@V?$map@V?$basic_string@DU?$char_traits@D@std@@V?$allocator@D@2@@std@@_KU?$less@V?$basic_string@DU?$char_traits@D@std@@V?$allocator@D@2@@std@@@2@V?$allocator@U?$pair@$$CBV?$basic_string@DU?$char_traits@D@std@@V?$allocator@D@2@@std@@_K@std@@@2@@2@@std@@@2@$0A@@std@@@std@@IAEXPAU_Node@?$_Tree_nod@V?$_Tmap_traits@V?$basic_string@DU?$char_traits@D@std@@V?$allocator@D@2@@std@@V?$map@V?$basic_string@DU?$char_traits@D@std@@V?$allocator@D@2@@std@@_KU?$less@V?$basic_string@DU?$char_traits@D@std@@V?$allocator@D@2@@std@@@2@V?$allocator@U?$pair@$$CBV?$basic_string@DU?$char_traits@D@std@@V?$allocator@D@2@@std@@_K@std@@@2@@2@U?$less@V?$basic_string@DU?$char_traits@D@std@@V?$allocator@D@2@@std@@@2@V?$allocator@U?$pair@$$CBV?$basic_string@DU?$char_traits@D@std@@V?$allocator@D@2@@std@@V?$map@V?$basic_string@DU?$char_traits@D@std@@V?$allocator@D@2@@std@@_KU?$less@V?$basic_string@DU?$char_traits@D@std@@V?$allocator@D@2@@std@@@2@V?$allocator@U?$pair@$$CBV?$basic_string@DU?$char_traits@D@std@@V?$allocator@D@2@@std@@_K@std@@@2@@2@@std@@@2@$0A@@std@@@2@@Z 1000b220 f i expression.obj
 0001:0000a260       ?insert@?$_Tree@V?$_Tmap_traits@V?$basic_string@DU?$char_traits@D@std@@V?$allocator@D@2@@std@@V?$map@V?$basic_string@DU?$char_traits@D@std@@V?$allocator@D@2@@std@@_KU?$less@V?$basic_string@DU?$char_traits@D@std@@V?$allocator@D@2@@std@@@2@V?$allocator@U?$pair@$$CBV?$basic_string@DU?$char_traits@D@std@@V?$allocator@D@2@@std@@_K@std@@@2@@2@U?$less@V?$basic_string@DU?$char_traits@D@std@@V?$allocator@D@2@@std@@@2@V?$allocator@U?$pair@$$CBV?$basic_string@DU?$char_traits@D@std@@V?$allocator@D@2@@std@@V?$map@V?$basic_string@DU?$char_traits@D@std@@V?$allocator@D@2@@std@@_KU?$less@V?$basic_string@DU?$char_traits@D@std@@V?$allocator@D@2@@std@@@2@V?$allocator@U?$pair@$$CBV?$basic_string@DU?$char_traits@D@std@@V?$allocator@D@2@@std@@_K@std@@@2@@2@@std@@@2@$0A@@std@@@std@@QAE?AViterator@12@V312@ABU?$pair@$$CBV?$basic_string@DU?$char_traits@D@std@@V?$allocator@D@2@@std@@V?$map@V?$basic_string@DU?$char_traits@D@std@@V?$allocator@D@2@@std@@_KU?$less@V?$basic_string@DU?$char_traits@D@std@@V?$allocator@D@2@@std@@@2@V?$allocator@U?$pair@$$CBV?$basic_string@DU?$char_traits@D@std@@V?$allocator@D@2@@std@@_K@std@@@2@@2@@2@@Z 1000b260 f i expression.obj
 0001:0000a420       ??A?$map@V?$basic_string@DU?$char_traits@D@std@@V?$allocator@D@2@@std@@V?$map@V?$basic_string@DU?$char_traits@D@std@@V?$allocator@D@2@@std@@_KU?$less@V?$basic_string@DU?$char_traits@D@std@@V?$allocator@D@2@@std@@@2@V?$allocator@U?$pair@$$CBV?$basic_string@DU?$char_traits@D@std@@V?$allocator@D@2@@std@@_K@std@@@2@@2@U?$less@V?$basic_string@DU?$char_traits@D@std@@V?$allocator@D@2@@std@@@2@V?$allocator@U?$pair@$$CBV?$basic_string@DU?$char_traits@D@std@@V?$allocator@D@2@@std@@V?$map@V?$basic_string@DU?$char_traits@D@std@@V?$allocator@D@2@@std@@_KU?$less@V?$basic_string@DU?$char_traits@D@std@@V?$allocator@D@2@@std@@@2@V?$allocator@U?$pair@$$CBV?$basic_string@DU?$char_traits@D@std@@V?$allocator@D@2@@std@@_K@std@@@2@@2@@std@@@2@@std@@QAEAAV?$map@V?$basic_string@DU?$char_traits@D@std@@V?$allocator@D@2@@std@@_KU?$less@V?$basic_string@DU?$char_traits@D@std@@V?$allocator@D@2@@std@@@2@V?$allocator@U?$pair@$$CBV?$basic_string@DU?$char_traits@D@std@@V?$allocator@D@2@@std@@_K@std@@@2@@1@ABV?$basic_string@DU?$char_traits@D@std@@V?$allocator@D@2@@1@@Z 1000b420 f i expression.obj
 0001:0000a510       ?erase@?$_Tree@V?$_Tmap_traits@V?$basic_string@DU?$char_traits@D@std@@V?$allocator@D@2@@std@@V?$map@V?$basic_string@DU?$char_traits@D@std@@V?$allocator@D@2@@std@@_KU?$less@V?$basic_string@DU?$char_traits@D@std@@V?$allocator@D@2@@std@@@2@V?$allocator@U?$pair@$$CBV?$basic_string@DU?$char_traits@D@std@@V?$allocator@D@2@@std@@_K@std@@@2@@2@U?$less@V?$basic_string@DU?$char_traits@D@std@@V?$allocator@D@2@@std@@@2@V?$allocator@U?$pair@$$CBV?$basic_string@DU?$char_traits@D@std@@V?$allocator@D@2@@std@@V?$map@V?$basic_string@DU?$char_traits@D@std@@V?$allocator@D@2@@std@@_KU?$less@V?$basic_string@DU?$char_traits@D@std@@V?$allocator@D@2@@std@@@2@V?$allocator@U?$pair@$$CBV?$basic_string@DU?$char_traits@D@std@@V?$allocator@D@2@@std@@_K@std@@@2@@2@@std@@@2@$0A@@std@@@std@@QAE?AViterator@12@V312@0@Z 1000b510 f i expression.obj
 0001:0000a5d0       ?AddFields@CSVExpression@@QAEXABV?$basic_string@DU?$char_traits@D@std@@V?$allocator@D@2@@std@@0_K@Z 1000b5d0 f   expression.obj
 0001:0000a730       ??1CSVExpression@@QAE@XZ   1000b730 f   expression.obj
 0001:0000a760       ??0CSVExpression@@QAE@XZ   1000b760 f   expression.obj
 0001:0000a790       ??4SnmpSyntax@@UAEAAV0@ABV0@@Z 1000b790 f i snmplib.obj
 0001:0000a7a0       ??_GSnmpSyntax@@UAEPAXI@Z  1000b7a0 f i snmplib.obj
 0001:0000a7a0       ??_ESnmpSyntax@@UAEPAXI@Z  1000b7a0 f i snmplib.obj
 0001:0000a7c0       ?len@OctetStr@@QBEKXZ      1000b7c0 f i snmplib.obj
 0001:0000a7d0       ??1IpAddress@@UAE@XZ       1000b7d0 f i snmplib.obj
 0001:0000a7d0       ??1UdpAddress@@UAE@XZ      1000b7d0 f i snmplib.obj
 0001:0000a7d0       ??1SnmpSyntax@@UAE@XZ      1000b7d0 f i snmplib.obj
 0001:0000a7d0       ??1Address@@UAE@XZ         1000b7d0 f i snmplib.obj
 0001:0000a7e0       ??1GenAddress@@UAE@XZ      1000b7e0 f i snmplib.obj
 0001:0000a830       ?valid@Address@@UBE_NXZ    1000b830 f i snmplib.obj
 0001:0000a840       ?hashFunction@Address@@UBEIXZ 1000b840 f i snmplib.obj
 0001:0000a850       ?get_syntax@GenAddress@@UBEKXZ 1000b850 f i snmplib.obj
 0001:0000a870       ?get_asn1_length@GenAddress@@UBEHXZ 1000b870 f i snmplib.obj
 0001:0000a890       ?clone@GenAddress@@UBEPAVSnmpSyntax@@XZ 1000b890 f i snmplib.obj
 0001:0000a8f0       ?get_printable@GenAddress@@UBEPBDXZ 1000b8f0 f i snmplib.obj
 0001:0000a910       ??BGenAddress@@UBEPBDXZ    1000b910 f i snmplib.obj
 0001:0000a930       ?get_length@GenAddress@@UBEHXZ 1000b930 f i snmplib.obj
 0001:0000a950       ?clear@GenAddress@@UAEXXZ  1000b950 f i snmplib.obj
 0001:0000a960       ?get_type@GenAddress@@UBE?AW4addr_type@Address@@XZ 1000b960 f i snmplib.obj
 0001:0000a980       ?parse_address@GenAddress@@MAE_NPBD@Z 1000b980 f i snmplib.obj
 0001:0000a990       ?is_gen_address@GenAddress@@MBE_NXZ 1000b990 f i snmplib.obj
 0001:0000a9a0       ??_GGenAddress@@UAEPAXI@Z  1000b9a0 f i snmplib.obj
 0001:0000a9a0       ??_EGenAddress@@UAEPAXI@Z  1000b9a0 f i snmplib.obj
 0001:0000a9c0       ??0Vb@@QAE@XZ              1000b9c0 f i snmplib.obj
 0001:0000a9e0       ??1Vb@@QAE@XZ              1000b9e0 f i snmplib.obj
 0001:0000aa30       ?set_oid@Vb@@QAEXABVOid@@@Z 1000ba30 f i snmplib.obj
 0001:0000aa40       ?get_oid@Vb@@QBEXAAVOid@@@Z 1000ba40 f i snmplib.obj
 0001:0000aa50       ?get_printable_oid@Vb@@QBEPBDXZ 1000ba50 f i snmplib.obj
 0001:0000aa60       ??1SnmpTarget@@UAE@XZ      1000ba60 f i snmplib.obj
 0001:0000aa70       ?set_retry@SnmpTarget@@QAEXH@Z 1000ba70 f i snmplib.obj
 0001:0000aa80       ?set_timeout@SnmpTarget@@QAEXK@Z 1000ba80 f i snmplib.obj
 0001:0000aa90       ?set_version@SnmpTarget@@QAEXW4snmp_version@@@Z 1000ba90 f i snmplib.obj
 0001:0000aaa0       ??_ESnmpTarget@@UAEPAXI@Z  1000baa0 f i snmplib.obj
 0001:0000aaa0       ??_GSnmpTarget@@UAEPAXI@Z  1000baa0 f i snmplib.obj
 0001:0000aac0       ??1CTarget@@UAE@XZ         1000bac0 f i snmplib.obj
 0001:0000ab30       ?clone@CTarget@@UBEPAVSnmpTarget@@XZ 1000bb30 f i snmplib.obj
 0001:0000ab90       ??_GCTarget@@UAEPAXI@Z     1000bb90 f i snmplib.obj
 0001:0000ab90       ??_ECTarget@@UAEPAXI@Z     1000bb90 f i snmplib.obj
 0001:0000abb0       ??1UTarget@@UAE@XZ         1000bbb0 f i snmplib.obj
 0001:0000ac20       ?clone@UTarget@@UBEPAVSnmpTarget@@XZ 1000bc20 f i snmplib.obj
 0001:0000ac80       ?set_readcommunity@CTarget@@QAEXABVOctetStr@@@Z 1000bc80 f i snmplib.obj
 0001:0000ac80       ?set_security_name@UTarget@@QAEXABVOctetStr@@@Z 1000bc80 f i snmplib.obj
 0001:0000ac90       ?set_engine_id@UTarget@@QAEXABVOctetStr@@@Z 1000bc90 f i snmplib.obj
 0001:0000aca0       ?set_security_model@UTarget@@QAEXH@Z 1000bca0 f i snmplib.obj
 0001:0000acb0       ??_GUTarget@@UAEPAXI@Z     1000bcb0 f i snmplib.obj
 0001:0000acb0       ??_EUTarget@@UAEPAXI@Z     1000bcb0 f i snmplib.obj
 0001:0000acd0       ?get_vb_count@Pdu@@QBEHXZ  1000bcd0 f i snmplib.obj
 0001:0000ace0       ?get_type@Pdu@@QBEGXZ      1000bce0 f i snmplib.obj
 0001:0000acf0       ?set_security_level@Pdu@@QAEXH@Z 1000bcf0 f i snmplib.obj
 0001:0000ad00       ?set_context_name@Pdu@@QAE_NABVOctetStr@@@Z 1000bd00 f i snmplib.obj
 0001:0000ad40       ?set_context_engine_id@Pdu@@QAE_NABVOctetStr@@@Z 1000bd40 f i snmplib.obj
 0001:0000ad80       ??0SNMP_Monitor_Result@@QAE@XZ 1000bd80 f i snmplib.obj
 0001:0000adf0       ??0SNMP_Monitor_Result@@QAE@ABU0@@Z 1000bdf0 f i snmplib.obj
 0001:0000ae60       ??0CSVBaseSNMP@@QAE@XZ     1000be60 f   snmplib.obj
 0001:0000afd0       ??1CSVBaseSNMP@@QAE@XZ     1000bfd0 f   snmplib.obj
 0001:0000b0d0       ?GetErrorMsg@CSVBaseSNMP@@QAEPBDH@Z 1000c0d0 f   snmplib.obj
 0001:0000b110       ?InitUTarget@CSVBaseSNMP@@AAEHXZ 1000c110 f   snmplib.obj
 0001:0000b230       ?SetCommunity@CSVBaseSNMP@@QAEXPBD@Z 1000c230 f   snmplib.obj
 0001:0000b240       ?SetIPAddress@CSVBaseSNMP@@QAEXPBD@Z 1000c240 f   snmplib.obj
 0001:0000b280       ?SetNetworkPort@CSVBaseSNMP@@QAEXH@Z 1000c280 f   snmplib.obj
 0001:0000b290       ?SetOID@CSVBaseSNMP@@QAEXPBD@Z 1000c290 f   snmplib.obj
 0001:0000b2e0       ?SetTimeout@CSVBaseSNMP@@QAEXH@Z 1000c2e0 f   snmplib.obj
 0001:0000b2f0       ?SetVersion@CSVBaseSNMP@@QAEXH@Z 1000c2f0 f   snmplib.obj
 0001:0000b320       ??0CSVSnmpOID@@QAE@XZ      1000c320 f   snmplib.obj
 0001:0000b3c0       ??1CSVSnmpOID@@QAE@XZ      1000c3c0 f   snmplib.obj
 0001:0000b440       ?SetOIDValue@CSVSnmpOID@@QAEXPBD@Z 1000c440 f   snmplib.obj
 0001:0000b450       ?SetOIDType@CSVSnmpOID@@QAEXH@Z 1000c450 f   snmplib.obj
 0001:0000b460       ?SetSelName@CSVSnmpOID@@QAEXPBD@Z 1000c460 f   snmplib.obj
 0001:0000b470       ?InitLib@SV_ECC_SNMP_LIB@@YAXXZ 1000c470 f   snmplib.obj
 0001:0000b480       ?ReleaseLib@SV_ECC_SNMP_LIB@@YAXXZ 1000c480 f   snmplib.obj
 0001:0000b490       ?InitSNMPV3@CSVBaseSNMP@@AAEHXZ 1000c490 f   snmplib.obj
 0001:0000b640       ?_Dec@const_iterator@?$_Tree@V?$_Tmap_traits@HUSNMP_Monitor_Result@@U?$less@H@std@@V?$allocator@U?$pair@$$CBHUSNMP_Monitor_Result@@@std@@@3@$0A@@std@@@std@@QAEXXZ 1000c640 f i snmplib.obj
 0001:0000b6a0       ?InitSNMP@CSVBaseSNMP@@QAEHXZ 1000c6a0 f   snmplib.obj
 0001:0000b7e0       ?_Buynode@?$_Tree@V?$_Tmap_traits@HUSNMP_Monitor_Result@@U?$less@H@std@@V?$allocator@U?$pair@$$CBHUSNMP_Monitor_Result@@@std@@@3@$0A@@std@@@std@@IAEPAU_Node@?$_Tree_nod@V?$_Tmap_traits@HUSNMP_Monitor_Result@@U?$less@H@std@@V?$allocator@U?$pair@$$CBHUSNMP_Monitor_Result@@@std@@@3@$0A@@std@@@2@PAU342@00ABU?$pair@$$CBHUSNMP_Monitor_Result@@@2@D@Z 1000c7e0 f i snmplib.obj
 0001:0000b880       ?_Insert@?$_Tree@V?$_Tmap_traits@HUSNMP_Monitor_Result@@U?$less@H@std@@V?$allocator@U?$pair@$$CBHUSNMP_Monitor_Result@@@std@@@3@$0A@@std@@@std@@IAE?AViterator@12@_NPAU_Node@?$_Tree_nod@V?$_Tmap_traits@HUSNMP_Monitor_Result@@U?$less@H@std@@V?$allocator@U?$pair@$$CBHUSNMP_Monitor_Result@@@std@@@3@$0A@@std@@@2@ABU?$pair@$$CBHUSNMP_Monitor_Result@@@2@@Z 1000c880 f i snmplib.obj
 0001:0000ba40       ?AvgValue@CSVSnmpOID@@QAE_KABV?$map@HUSNMP_Monitor_Result@@U?$less@H@std@@V?$allocator@U?$pair@$$CBHUSNMP_Monitor_Result@@@std@@@3@@std@@@Z 1000ca40 f   snmplib.obj
 0001:0000bbb0       ?MaxValue@CSVSnmpOID@@QAE_KABV?$map@HUSNMP_Monitor_Result@@U?$less@H@std@@V?$allocator@U?$pair@$$CBHUSNMP_Monitor_Result@@@std@@@3@@std@@@Z 1000cbb0 f   snmplib.obj
 0001:0000bd10       ?MinValue@CSVSnmpOID@@QAE_KABV?$map@HUSNMP_Monitor_Result@@U?$less@H@std@@V?$allocator@U?$pair@$$CBHUSNMP_Monitor_Result@@@std@@@3@@std@@@Z 1000cd10 f   snmplib.obj
 0001:0000be70       ?SumValue@CSVSnmpOID@@QAE_JABV?$map@HUSNMP_Monitor_Result@@U?$less@H@std@@V?$allocator@U?$pair@$$CBHUSNMP_Monitor_Result@@@std@@@3@@std@@@Z 1000ce70 f   snmplib.obj
 0001:0000bfd0       ?IndexCount@CSVSnmpOID@@QAEHABV?$map@HUSNMP_Monitor_Result@@U?$less@H@std@@V?$allocator@U?$pair@$$CBHUSNMP_Monitor_Result@@@std@@@3@@std@@@Z 1000cfd0 f   snmplib.obj
 0001:0000c120       ?insert@?$_Tree@V?$_Tmap_traits@HUSNMP_Monitor_Result@@U?$less@H@std@@V?$allocator@U?$pair@$$CBHUSNMP_Monitor_Result@@@std@@@3@$0A@@std@@@std@@QAE?AU?$pair@Viterator@?$_Tree@V?$_Tmap_traits@HUSNMP_Monitor_Result@@U?$less@H@std@@V?$allocator@U?$pair@$$CBHUSNMP_Monitor_Result@@@std@@@3@$0A@@std@@@std@@_N@2@ABU?$pair@$$CBHUSNMP_Monitor_Result@@@2@@Z 1000d120 f i snmplib.obj
 0001:0000c1e0       ?insert@?$_Tree@V?$_Tmap_traits@HUSNMP_Monitor_Result@@U?$less@H@std@@V?$allocator@U?$pair@$$CBHUSNMP_Monitor_Result@@@std@@@3@$0A@@std@@@std@@QAE?AViterator@12@V312@ABU?$pair@$$CBHUSNMP_Monitor_Result@@@2@@Z 1000d1e0 f i snmplib.obj
 0001:0000c350       ??A?$map@HUSNMP_Monitor_Result@@U?$less@H@std@@V?$allocator@U?$pair@$$CBHUSNMP_Monitor_Result@@@std@@@3@@std@@QAEAAUSNMP_Monitor_Result@@ABH@Z 1000d350 f i snmplib.obj
 0001:0000c440       ?GetBulkRequest@CSVBaseSNMP@@QAEHAAV?$map@HUSNMP_Monitor_Result@@U?$less@H@std@@V?$allocator@U?$pair@$$CBHUSNMP_Monitor_Result@@@std@@@3@@std@@@Z 1000d440 f   snmplib.obj
 0001:0000c9c0       ?GetRequest@CSVBaseSNMP@@QAEHAAV?$map@HUSNMP_Monitor_Result@@U?$less@H@std@@V?$allocator@U?$pair@$$CBHUSNMP_Monitor_Result@@@std@@@3@@std@@@Z 1000d9c0 f   snmplib.obj
 0001:0000cdd0       ?GetResult@CSVSnmpOID@@QAEHAAV?$map@HUSNMP_Monitor_Result@@U?$less@H@std@@V?$allocator@U?$pair@$$CBHUSNMP_Monitor_Result@@@std@@@3@@std@@@Z 1000ddd0 f   snmplib.obj
 0001:0000cf30       ??0_SNMPList@CSnmpOperate@@QAE@XZ 1000df30 f i SnmpOperate.obj
 0001:0000cf80       ??0_SNMPIfOIDList@CSnmpOperate@@QAE@XZ 1000df80 f i SnmpOperate.obj
 0001:0000cfc0       ?GetTotalMinutes@TTimeSpan@svutil@@QBEJXZ 1000dfc0 f i SnmpOperate.obj
 0001:0000cfe0       ?GetHours@TTimeSpan@svutil@@QBEHXZ 1000dfe0 f i SnmpOperate.obj
 0001:0000d000       ?GetCurrentTimeEx@TTime@svutil@@SA?AV12@XZ 1000e000 f i SnmpOperate.obj
 0001:0000d030       ?Format@TTime@svutil@@QBE?AV?$basic_string@DU?$char_traits@D@std@@V?$allocator@D@2@@std@@XZ 1000e030 f i SnmpOperate.obj
 0001:0000d0c0       ?OXTOD@@YA_KV?$basic_string@DU?$char_traits@D@std@@V?$allocator@D@2@@std@@@Z 1000e0c0 f   SnmpOperate.obj
 0001:0000d290       ?DumpLog@@YAXPBD0H@Z       1000e290 f   SnmpOperate.obj
 0001:0000d320       ?FuncGetInstallPath@@YA?AV?$basic_string@DU?$char_traits@D@std@@V?$allocator@D@2@@std@@XZ 1000e320 f   SnmpOperate.obj
 0001:0000d3b0       ?FuncGetStringFromIDS@@YA?AV?$basic_string@DU?$char_traits@D@std@@V?$allocator@D@2@@std@@PBD@Z 1000e3b0 f   SnmpOperate.obj
 0001:0000d3e0       ?FuncGetStringFromIDS@@YA?AV?$basic_string@DU?$char_traits@D@std@@V?$allocator@D@2@@std@@PBD0@Z 1000e3e0 f   SnmpOperate.obj
 0001:0000d410       ?GetPrivateProfileInt1@@YAHPAD0H0@Z 1000e410 f   SnmpOperate.obj
 0001:0000d510       ?GetPrivateProfileString1@@YAHPAD000H0@Z 1000e510 f   SnmpOperate.obj
 0001:0000d610       ?WritePrivateProfileString1@@YAHPAD000@Z 1000e610 f   SnmpOperate.obj
 0001:0000d730       ?InitSNMP@CSnmpOperate@@AAEHAAVCSVSnmpOID@@@Z 1000e730 f   SnmpOperate.obj
 0001:0000d7b0       ??_H@YGXPAXIHP6EPAX0@Z@Z   1000e7b0 f i SnmpOperate.obj
 0001:0000d7e0       ??1?$pair@$$CBHV?$basic_string@DU?$char_traits@D@std@@V?$allocator@D@2@@std@@@std@@QAE@XZ 1000e7e0 f i SnmpOperate.obj
 0001:0000d7f0       ??0?$pair@$$CBV?$basic_string@DU?$char_traits@D@std@@V?$allocator@D@2@@std@@V12@@std@@QAE@ABV?$basic_string@DU?$char_traits@D@std@@V?$allocator@D@2@@1@0@Z 1000e7f0 f i SnmpOperate.obj
 0001:0000d850       ?_Rrotate@?$_Tree@V?$_Tmap_traits@HV?$basic_string@DU?$char_traits@D@std@@V?$allocator@D@2@@std@@U?$less@H@2@V?$allocator@U?$pair@$$CBHV?$basic_string@DU?$char_traits@D@std@@V?$allocator@D@2@@std@@@std@@@2@$0A@@std@@@std@@IAEXPAU_Node@?$_Tree_nod@V?$_Tmap_traits@HV?$basic_string@DU?$char_traits@D@std@@V?$allocator@D@2@@std@@U?$less@H@2@V?$allocator@U?$pair@$$CBHV?$basic_string@DU?$char_traits@D@std@@V?$allocator@D@2@@std@@@std@@@2@$0A@@std@@@2@@Z 1000e850 f i SnmpOperate.obj
 0001:0000d8b0       ?_Dec@const_iterator@?$_Tree@V?$_Tmap_traits@V?$basic_string@DU?$char_traits@D@std@@V?$allocator@D@2@@std@@V12@U?$less@V?$basic_string@DU?$char_traits@D@std@@V?$allocator@D@2@@std@@@2@V?$allocator@U?$pair@$$CBV?$basic_string@DU?$char_traits@D@std@@V?$allocator@D@2@@std@@V12@@std@@@2@$0A@@std@@@std@@QAEXXZ 1000e8b0 f i SnmpOperate.obj
 0001:0000d910       ?_Max@?$_Tree@V?$_Tmap_traits@HV?$basic_string@DU?$char_traits@D@std@@V?$allocator@D@2@@std@@U?$less@H@2@V?$allocator@U?$pair@$$CBHV?$basic_string@DU?$char_traits@D@std@@V?$allocator@D@2@@std@@@std@@@2@$0A@@std@@@std@@KAPAU_Node@?$_Tree_nod@V?$_Tmap_traits@HV?$basic_string@DU?$char_traits@D@std@@V?$allocator@D@2@@std@@U?$less@H@2@V?$allocator@U?$pair@$$CBHV?$basic_string@DU?$char_traits@D@std@@V?$allocator@D@2@@std@@@std@@@2@$0A@@std@@@2@PAU342@@Z 1000e910 f i SnmpOperate.obj
 0001:0000d930       ?_Min@?$_Tree@V?$_Tmap_traits@HV?$basic_string@DU?$char_traits@D@std@@V?$allocator@D@2@@std@@U?$less@H@2@V?$allocator@U?$pair@$$CBHV?$basic_string@DU?$char_traits@D@std@@V?$allocator@D@2@@std@@@std@@@2@$0A@@std@@@std@@KAPAU_Node@?$_Tree_nod@V?$_Tmap_traits@HV?$basic_string@DU?$char_traits@D@std@@V?$allocator@D@2@@std@@U?$less@H@2@V?$allocator@U?$pair@$$CBHV?$basic_string@DU?$char_traits@D@std@@V?$allocator@D@2@@std@@@std@@@2@$0A@@std@@@2@PAU342@@Z 1000e930 f i SnmpOperate.obj
 0001:0000d950       ?_Dec@const_iterator@?$_Tree@V?$_Tmap_traits@HV?$basic_string@DU?$char_traits@D@std@@V?$allocator@D@2@@std@@U?$less@H@2@V?$allocator@U?$pair@$$CBHV?$basic_string@DU?$char_traits@D@std@@V?$allocator@D@2@@std@@@std@@@2@$0A@@std@@@std@@QAEXXZ 1000e950 f i SnmpOperate.obj
 0001:0000d9b0       ??GTTime@svutil@@QBE?AVTTimeSpan@1@V01@@Z 1000e9b0 f i SnmpOperate.obj
 0001:0000d9d0       ?FuncGetProfileStringBy@@YA?AV?$basic_string@DU?$char_traits@D@std@@V?$allocator@D@2@@std@@PAD00@Z 1000e9d0 f   SnmpOperate.obj
 0001:0000dac0       ?FuncGetProfileIntBy@@YAHPAD00@Z 1000eac0 f   SnmpOperate.obj
 0001:0000dae0       ?ReadInterfaceOID@CSnmpOperate@@AAE_NXZ 1000eae0 f   SnmpOperate.obj
 0001:0000e030       ?_Lrotate@?$_Tree@V?$_Tmap_traits@HV?$basic_string@DU?$char_traits@D@std@@V?$allocator@D@2@@std@@U?$less@H@2@V?$allocator@U?$pair@$$CBHV?$basic_string@DU?$char_traits@D@std@@V?$allocator@D@2@@std@@@std@@@2@$0A@@std@@@std@@IAEXPAU_Node@?$_Tree_nod@V?$_Tmap_traits@HV?$basic_string@DU?$char_traits@D@std@@V?$allocator@D@2@@std@@U?$less@H@2@V?$allocator@U?$pair@$$CBHV?$basic_string@DU?$char_traits@D@std@@V?$allocator@D@2@@std@@@std@@@2@$0A@@std@@@2@@Z 1000f030 f i SnmpOperate.obj
 0001:0000e090       ?_Inc@const_iterator@?$_Tree@V?$_Tmap_traits@HV?$basic_string@DU?$char_traits@D@std@@V?$allocator@D@2@@std@@U?$less@H@2@V?$allocator@U?$pair@$$CBHV?$basic_string@DU?$char_traits@D@std@@V?$allocator@D@2@@std@@@std@@@2@$0A@@std@@@std@@QAEXXZ 1000f090 f i SnmpOperate.obj
 0001:0000e0f0       ?_Buynode@?$_Tree@V?$_Tmap_traits@HV?$basic_string@DU?$char_traits@D@std@@V?$allocator@D@2@@std@@U?$less@H@2@V?$allocator@U?$pair@$$CBHV?$basic_string@DU?$char_traits@D@std@@V?$allocator@D@2@@std@@@std@@@2@$0A@@std@@@std@@IAEPAU_Node@?$_Tree_nod@V?$_Tmap_traits@HV?$basic_string@DU?$char_traits@D@std@@V?$allocator@D@2@@std@@U?$less@H@2@V?$allocator@U?$pair@$$CBHV?$basic_string@DU?$char_traits@D@std@@V?$allocator@D@2@@std@@@std@@@2@$0A@@std@@@2@XZ 1000f0f0 f i SnmpOperate.obj
 0001:0000e130       ?_Buynode@?$_Tree@V?$_Tmap_traits@HV?$basic_string@DU?$char_traits@D@std@@V?$allocator@D@2@@std@@U?$less@H@2@V?$allocator@U?$pair@$$CBHV?$basic_string@DU?$char_traits@D@std@@V?$allocator@D@2@@std@@@std@@@2@$0A@@std@@@std@@IAEPAU_Node@?$_Tree_nod@V?$_Tmap_traits@HV?$basic_string@DU?$char_traits@D@std@@V?$allocator@D@2@@std@@U?$less@H@2@V?$allocator@U?$pair@$$CBHV?$basic_string@DU?$char_traits@D@std@@V?$allocator@D@2@@std@@@std@@@2@$0A@@std@@@2@PAU342@00ABU?$pair@$$CBHV?$basic_string@DU?$char_traits@D@std@@V?$allocator@D@2@@std@@@2@D@Z 1000f130 f i SnmpOperate.obj
 0001:0000e1d0       ?find@?$_Tree@V?$_Tmap_traits@HV?$basic_string@DU?$char_traits@D@std@@V?$allocator@D@2@@std@@U?$less@H@2@V?$allocator@U?$pair@$$CBHV?$basic_string@DU?$char_traits@D@std@@V?$allocator@D@2@@std@@@std@@@2@$0A@@std@@@std@@QAE?AViterator@12@ABH@Z 1000f1d0 f i SnmpOperate.obj
 0001:0000e240       ?_Insert@?$_Tree@V?$_Tmap_traits@V?$basic_string@DU?$char_traits@D@std@@V?$allocator@D@2@@std@@V12@U?$less@V?$basic_string@DU?$char_traits@D@std@@V?$allocator@D@2@@std@@@2@V?$allocator@U?$pair@$$CBV?$basic_string@DU?$char_traits@D@std@@V?$allocator@D@2@@std@@V12@@std@@@2@$0A@@std@@@std@@IAE?AViterator@12@_NPAU_Node@?$_Tree_nod@V?$_Tmap_traits@V?$basic_string@DU?$char_traits@D@std@@V?$allocator@D@2@@std@@V12@U?$less@V?$basic_string@DU?$char_traits@D@std@@V?$allocator@D@2@@std@@@2@V?$allocator@U?$pair@$$CBV?$basic_string@DU?$char_traits@D@std@@V?$allocator@D@2@@std@@V12@@std@@@2@$0A@@std@@@2@ABU?$pair@$$CBV?$basic_string@DU?$char_traits@D@std@@V?$allocator@D@2@@std@@V12@@2@@Z 1000f240 f i SnmpOperate.obj
 0001:0000e400       ?_Insert@?$_Tree@V?$_Tmap_traits@HV?$basic_string@DU?$char_traits@D@std@@V?$allocator@D@2@@std@@U?$less@H@2@V?$allocator@U?$pair@$$CBHV?$basic_string@DU?$char_traits@D@std@@V?$allocator@D@2@@std@@@std@@@2@$0A@@std@@@std@@IAE?AViterator@12@_NPAU_Node@?$_Tree_nod@V?$_Tmap_traits@HV?$basic_string@DU?$char_traits@D@std@@V?$allocator@D@2@@std@@U?$less@H@2@V?$allocator@U?$pair@$$CBHV?$basic_string@DU?$char_traits@D@std@@V?$allocator@D@2@@std@@@std@@@2@$0A@@std@@@2@ABU?$pair@$$CBHV?$basic_string@DU?$char_traits@D@std@@V?$allocator@D@2@@std@@@2@@Z 1000f400 f i SnmpOperate.obj
 0001:0000e5c0       ?insert@?$_Tree@V?$_Tmap_traits@V?$basic_string@DU?$char_traits@D@std@@V?$allocator@D@2@@std@@V12@U?$less@V?$basic_string@DU?$char_traits@D@std@@V?$allocator@D@2@@std@@@2@V?$allocator@U?$pair@$$CBV?$basic_string@DU?$char_traits@D@std@@V?$allocator@D@2@@std@@V12@@std@@@2@$0A@@std@@@std@@QAE?AU?$pair@Viterator@?$_Tree@V?$_Tmap_traits@V?$basic_string@DU?$char_traits@D@std@@V?$allocator@D@2@@std@@V12@U?$less@V?$basic_string@DU?$char_traits@D@std@@V?$allocator@D@2@@std@@@2@V?$allocator@U?$pair@$$CBV?$basic_string@DU?$char_traits@D@std@@V?$allocator@D@2@@std@@V12@@std@@@2@$0A@@std@@@std@@_N@2@ABU?$pair@$$CBV?$basic_string@DU?$char_traits@D@std@@V?$allocator@D@2@@std@@V12@@2@@Z 1000f5c0 f i SnmpOperate.obj
 0001:0000e6a0       ?insert@?$_Tree@V?$_Tmap_traits@HV?$basic_string@DU?$char_traits@D@std@@V?$allocator@D@2@@std@@U?$less@H@2@V?$allocator@U?$pair@$$CBHV?$basic_string@DU?$char_traits@D@std@@V?$allocator@D@2@@std@@@std@@@2@$0A@@std@@@std@@QAE?AU?$pair@Viterator@?$_Tree@V?$_Tmap_traits@HV?$basic_string@DU?$char_traits@D@std@@V?$allocator@D@2@@std@@U?$less@H@2@V?$allocator@U?$pair@$$CBHV?$basic_string@DU?$char_traits@D@std@@V?$allocator@D@2@@std@@@std@@@2@$0A@@std@@@std@@_N@2@ABU?$pair@$$CBHV?$basic_string@DU?$char_traits@D@std@@V?$allocator@D@2@@std@@@2@@Z 1000f6a0 f i SnmpOperate.obj
 0001:0000e760       ?erase@?$_Tree@V?$_Tmap_traits@HV?$basic_string@DU?$char_traits@D@std@@V?$allocator@D@2@@std@@U?$less@H@2@V?$allocator@U?$pair@$$CBHV?$basic_string@DU?$char_traits@D@std@@V?$allocator@D@2@@std@@@std@@@2@$0A@@std@@@std@@QAE?AViterator@12@V312@@Z 1000f760 f i SnmpOperate.obj
 0001:0000ea40       ?_Erase@?$_Tree@V?$_Tmap_traits@HV?$basic_string@DU?$char_traits@D@std@@V?$allocator@D@2@@std@@U?$less@H@2@V?$allocator@U?$pair@$$CBHV?$basic_string@DU?$char_traits@D@std@@V?$allocator@D@2@@std@@@std@@@2@$0A@@std@@@std@@IAEXPAU_Node@?$_Tree_nod@V?$_Tmap_traits@HV?$basic_string@DU?$char_traits@D@std@@V?$allocator@D@2@@std@@U?$less@H@2@V?$allocator@U?$pair@$$CBHV?$basic_string@DU?$char_traits@D@std@@V?$allocator@D@2@@std@@@std@@@2@$0A@@std@@@2@@Z 1000fa40 f i SnmpOperate.obj
 0001:0000ea80       ?insert@?$_Tree@V?$_Tmap_traits@V?$basic_string@DU?$char_traits@D@std@@V?$allocator@D@2@@std@@V12@U?$less@V?$basic_string@DU?$char_traits@D@std@@V?$allocator@D@2@@std@@@2@V?$allocator@U?$pair@$$CBV?$basic_string@DU?$char_traits@D@std@@V?$allocator@D@2@@std@@V12@@std@@@2@$0A@@std@@@std@@QAE?AViterator@12@V312@ABU?$pair@$$CBV?$basic_string@DU?$char_traits@D@std@@V?$allocator@D@2@@std@@V12@@2@@Z 1000fa80 f i SnmpOperate.obj
 0001:0000ec40       ?insert@?$_Tree@V?$_Tmap_traits@HV?$basic_string@DU?$char_traits@D@std@@V?$allocator@D@2@@std@@U?$less@H@2@V?$allocator@U?$pair@$$CBHV?$basic_string@DU?$char_traits@D@std@@V?$allocator@D@2@@std@@@std@@@2@$0A@@std@@@std@@QAE?AViterator@12@V312@ABU?$pair@$$CBHV?$basic_string@DU?$char_traits@D@std@@V?$allocator@D@2@@std@@@2@@Z 1000fc40 f i SnmpOperate.obj
 0001:0000edb0       ??A?$map@V?$basic_string@DU?$char_traits@D@std@@V?$allocator@D@2@@std@@V12@U?$less@V?$basic_string@DU?$char_traits@D@std@@V?$allocator@D@2@@std@@@2@V?$allocator@U?$pair@$$CBV?$basic_string@DU?$char_traits@D@std@@V?$allocator@D@2@@std@@V12@@std@@@2@@std@@QAEAAV?$basic_string@DU?$char_traits@D@std@@V?$allocator@D@2@@1@ABV21@@Z 1000fdb0 f i SnmpOperate.obj
 0001:0000ee60       ??A?$map@HV?$basic_string@DU?$char_traits@D@std@@V?$allocator@D@2@@std@@U?$less@H@2@V?$allocator@U?$pair@$$CBHV?$basic_string@DU?$char_traits@D@std@@V?$allocator@D@2@@std@@@std@@@2@@std@@QAEAAV?$basic_string@DU?$char_traits@D@std@@V?$allocator@D@2@@1@ABH@Z 1000fe60 f i SnmpOperate.obj
 0001:0000ef30       ?erase@?$_Tree@V?$_Tmap_traits@HV?$basic_string@DU?$char_traits@D@std@@V?$allocator@D@2@@std@@U?$less@H@2@V?$allocator@U?$pair@$$CBHV?$basic_string@DU?$char_traits@D@std@@V?$allocator@D@2@@std@@@std@@@2@$0A@@std@@@std@@QAE?AViterator@12@V312@0@Z 1000ff30 f i SnmpOperate.obj
 0001:0000eff0       ?ReadConfig@CSnmpOperate@@AAE_NXZ 1000fff0 f   SnmpOperate.obj
 0001:0000f620       ??1CSnmpOperate@@UAE@XZ    10010620 f   SnmpOperate.obj
 0001:0000f690       ??1?$map@HV?$basic_string@DU?$char_traits@D@std@@V?$allocator@D@2@@std@@U?$less@H@2@V?$allocator@U?$pair@$$CBHV?$basic_string@DU?$char_traits@D@std@@V?$allocator@D@2@@std@@@std@@@2@@std@@QAE@XZ 10010690 f i SnmpOperate.obj
 0001:0000f6c0       ??_ECSnmpOperate@@UAEPAXI@Z 100106c0 f i SnmpOperate.obj
 0001:0000f6c0       ??_GCSnmpOperate@@UAEPAXI@Z 100106c0 f i SnmpOperate.obj
 0001:0000f6e0       ??0CSnmpOperate@@QAE@PBD00000ABH111@Z 100106e0 f   SnmpOperate.obj
 0001:0000f7f0       ?GetResult@CSnmpOperate@@QAE_NPADAAH@Z 100107f0 f   SnmpOperate.obj
 0001:00010a20       ?GetResultByOID@CSnmpOperate@@QAE_NPADV?$basic_string@DU?$char_traits@D@std@@V?$allocator@D@2@@std@@AAH@Z 10011a20 f   SnmpOperate.obj
 0001:00010df0       ?GetInterfaceInfo@CSnmpOperate@@QAE_NPADV?$basic_string@DU?$char_traits@D@std@@V?$allocator@D@2@@std@@AAH@Z 10011df0 f   SnmpOperate.obj
 0001:00011ad0       ?GetSEIP@@YA?AV?$basic_string@DU?$char_traits@D@std@@V?$allocator@D@2@@std@@XZ 10012ad0 f   SVDefines.obj
 0001:00011ba0       ?GetResourceValue@@YA?AV?$basic_string@DU?$char_traits@D@std@@V?$allocator@D@2@@std@@V12@@Z 10012ba0 f   SVDefines.obj
 0001:00011ce0       ?splitparam@@YA_NPBDAAV?$map@V?$basic_string@DU?$char_traits@D@std@@V?$allocator@D@2@@std@@V12@U?$less@V?$basic_string@DU?$char_traits@D@std@@V?$allocator@D@2@@std@@@2@V?$allocator@U?$pair@$$CBV?$basic_string@DU?$char_traits@D@std@@V?$allocator@D@2@@std@@V12@@std@@@2@@std@@@Z 10012ce0 f   SVDefines.obj
 0001:00011df0       ??0Address@@QAE@XZ         10012df0 f   Snmp_pp:address.obj
 0001:00011e60       ?is_gen_address@Address@@MBE_NXZ 10012e60 f i Snmp_pp:address.obj
 0001:00011e90       ??_EAddress@@UAEPAXI@Z     10012e90 f i Snmp_pp:address.obj
 0001:00011e90       ??_EIpAddress@@UAEPAXI@Z   10012e90 f i Snmp_pp:address.obj
 0001:00011e90       ??_GUdpAddress@@UAEPAXI@Z  10012e90 f i Snmp_pp:address.obj
 0001:00011e90       ??_GAddress@@UAEPAXI@Z     10012e90 f i Snmp_pp:address.obj
 0001:00011e90       ??_GIpAddress@@UAEPAXI@Z   10012e90 f i Snmp_pp:address.obj
 0001:00011e90       ??_EUdpAddress@@UAEPAXI@Z  10012e90 f i Snmp_pp:address.obj
 0001:00011ef0       ??0SnmpSyntax@@QAE@XZ      10012ef0 f i Snmp_pp:address.obj
 0001:00011f30       ?trim_white_space@Address@@IAEXPAD@Z 10012f30 f   Snmp_pp:address.obj
 0001:00011fc0       ?clear@Address@@MAEXXZ     10012fc0 f   Snmp_pp:address.obj
 0001:00012020       ??8@YAHABVAddress@@0@Z     10013020 f   Snmp_pp:address.obj
 0001:00012090       ??8@YAHABVAddress@@PBD@Z   10013090 f   Snmp_pp:address.obj
 0001:00012120       ??0IpAddress@@QAE@XZ       10013120 f   Snmp_pp:address.obj
 0001:000121c0       ?clone@IpAddress@@UBEPAVSnmpSyntax@@XZ 100131c0 f i Snmp_pp:address.obj
 0001:00012280       ??BIpAddress@@UBEPBDXZ     10013280 f i Snmp_pp:address.obj
 0001:00012280       ?get_printable@IpAddress@@UBEPBDXZ 10013280 f i Snmp_pp:address.obj
 0001:000122e0       ?get_length@IpAddress@@UBEHXZ 100132e0 f i Snmp_pp:address.obj
 0001:00012350       ?get_type@IpAddress@@UBE?AW4addr_type@Address@@XZ 10013350 f i Snmp_pp:address.obj
 0001:00012350       ?Done@CNotifyEventQueue@@UAEHXZ 10013350 f i Snmp_pp:notifyqueue.obj
 0001:00012380       ?get_syntax@IpAddress@@UBEKXZ 10013380 f i Snmp_pp:address.obj
 0001:000123b0       ?get_ip_version@IpAddress@@UBE?AW4version_type@Address@@XZ 100133b0 f i Snmp_pp:address.obj
 0001:000123f0       ??0IpAddress@@QAE@PBD@Z    100133f0 f   Snmp_pp:address.obj
 0001:000124a0       ??0IpAddress@@QAE@ABV0@@Z  100134a0 f   Snmp_pp:address.obj
 0001:000125d0       ??0IpAddress@@QAE@ABVGenAddress@@@Z 100135d0 f   Snmp_pp:address.obj
 0001:00012720       ?cast_ipaddress@GenAddress@@QBEABVIpAddress@@XZ 10013720 f i Snmp_pp:address.obj
 0001:00012720       ?get_stats_wrong_digests@USM@@QBEKXZ 10013720 f i Snmp_pp:mp_v3.obj
 0001:00012720       ?cast_udpaddress@GenAddress@@QBEABVUdpAddress@@XZ 10013720 f i Snmp_pp:address.obj
 0001:00012750       ??4IpAddress@@UAEAAVSnmpSyntax@@ABV1@@Z 10013750 f   Snmp_pp:address.obj
 0001:00012910       ??4IpAddress@@QAEAAV0@ABV0@@Z 10013910 f   Snmp_pp:address.obj
 0001:00012ab0       ?parse_dotted_ipstring@IpAddress@@IAEHPBD@Z 10013ab0 f   Snmp_pp:address.obj
 0001:00012cc0       ?parse_coloned_ipstring@IpAddress@@IAEHPBD@Z 10013cc0 f   Snmp_pp:address.obj
 0001:00013a10       ?parse_address@IpAddress@@MAE_NPBD@Z 10014a10 f   Snmp_pp:address.obj
 0001:00013b80       ?get_scope@IpAddress@@UBEIXZ 10014b80 f   Snmp_pp:address.obj
 0001:00013c00       ?set_scope@IpAddress@@UAE_NI@Z 10014c00 f   Snmp_pp:address.obj
 0001:00013c90       ?format_output@IpAddress@@MBEXXZ 10014c90 f   Snmp_pp:address.obj
 0001:00013eb0       ?map_to_ipv6@IpAddress@@UAEHXZ 10014eb0 f   Snmp_pp:address.obj
 0001:00013f80       ?clear@IpAddress@@UAEXXZ   10014f80 f   Snmp_pp:address.obj
 0001:00014020       ??0UdpAddress@@QAE@XZ      10015020 f   Snmp_pp:address.obj
 0001:000140d0       ?get_syntax@OctetStr@@UBEKXZ 100150d0 f i Snmp_pp:octet.obj
 0001:000140d0       ?get_syntax@UdpAddress@@UBEKXZ 100150d0 f i Snmp_pp:address.obj
 0001:00014100       ?get_asn1_length@UdpAddress@@UBEHXZ 10015100 f i Snmp_pp:address.obj
 0001:00014100       ?get_asn1_length@IpAddress@@UBEHXZ 10015100 f i Snmp_pp:address.obj
 0001:00014150       ?clone@UdpAddress@@UBEPAVSnmpSyntax@@XZ 10015150 f i Snmp_pp:address.obj
 0001:00014210       ??BUdpAddress@@UBEPBDXZ    10015210 f i Snmp_pp:address.obj
 0001:00014210       ?get_printable@UdpAddress@@UBEPBDXZ 10015210 f i Snmp_pp:address.obj
 0001:00014270       ?get_length@UdpAddress@@UBEHXZ 10015270 f i Snmp_pp:address.obj
 0001:000142e0       ?clear@UdpAddress@@UAEXXZ  100152e0 f i Snmp_pp:address.obj
 0001:00014340       ??0UdpAddress@@QAE@ABV0@@Z 10015340 f   Snmp_pp:address.obj
 0001:00014430       ??0UdpAddress@@QAE@PBD@Z   10015430 f   Snmp_pp:address.obj
 0001:000144f0       ??0UdpAddress@@QAE@ABVGenAddress@@@Z 100154f0 f   Snmp_pp:address.obj
 0001:00014620       ??0UdpAddress@@QAE@ABVIpAddress@@@Z 10015620 f   Snmp_pp:address.obj
 0001:00014710       ??4UdpAddress@@UAEAAVSnmpSyntax@@ABV1@@Z 10015710 f   Snmp_pp:address.obj
 0001:00014970       ??4UdpAddress@@QAEAAV0@ABV0@@Z 10015970 f   Snmp_pp:address.obj
 0001:00014a50       ??4UdpAddress@@QAEAAV0@ABVIpAddress@@@Z 10015a50 f   Snmp_pp:address.obj
 0001:00014b00       ??4UdpAddress@@QAEAAV0@PBD@Z 10015b00 f   Snmp_pp:address.obj
 0001:00014b00       ??4IpAddress@@QAEAAV0@PBD@Z 10015b00 f   Snmp_pp:address.obj
 0001:00014b70       ?parse_address@UdpAddress@@MAE_NPBD@Z 10015b70 f   Snmp_pp:address.obj
 0001:00014ee0       ?set_port@UdpAddress@@QAEXG@Z 10015ee0 f   Snmp_pp:address.obj
 0001:00014f70       ?get_port@UdpAddress@@QBEGXZ 10015f70 f   Snmp_pp:address.obj
 0001:00015000       ?format_output@UdpAddress@@MBEXXZ 10016000 f   Snmp_pp:address.obj
 0001:000150f0       ?set_scope@UdpAddress@@UAE_NI@Z 100160f0 f   Snmp_pp:address.obj
 0001:00015170       ?map_to_ipv6@UdpAddress@@UAEHXZ 10016170 f   Snmp_pp:address.obj
 0001:00015200       ??0GenAddress@@QAE@XZ      10016200 f   Snmp_pp:address.obj
 0001:00015290       ??0GenAddress@@QAE@ABVAddress@@@Z 10016290 f   Snmp_pp:address.obj
 0001:00015450       ??0GenAddress@@QAE@ABV0@@Z 10016450 f   Snmp_pp:address.obj
 0001:000155b0       ??4GenAddress@@QAEAAV0@ABV0@@Z 100165b0 f   Snmp_pp:address.obj
 0001:00015710       ??4GenAddress@@QAEAAV0@ABVAddress@@@Z 10016710 f   Snmp_pp:address.obj
 0001:000158a0       ??4GenAddress@@UAEAAVSnmpSyntax@@ABV1@@Z 100168a0 f   Snmp_pp:address.obj
 0001:00015bf0       ?parse_address@GenAddress@@MAE_NPBDW4addr_type@Address@@@Z 10016bf0 f   Snmp_pp:address.obj
 0001:00015eb0       ??0Oid@@QAE@XZ             10016eb0 f   Snmp_pp:oid.obj
 0001:00015f40       ?get_syntax@Oid@@UBEKXZ    10016f40 f i Snmp_pp:oid.obj
 0001:00015f70       ?valid@Oid@@UBE_NXZ        10016f70 f i Snmp_pp:oid.obj
 0001:00015fb0       ?get_printable@Oid@@UBEPBDXZ 10016fb0 f i Snmp_pp:oid.obj
 0001:00016000       ?clone@Oid@@UBEPAVSnmpSyntax@@XZ 10017000 f i Snmp_pp:oid.obj
 0001:000160b0       ?clear@Oid@@UAEXXZ         100170b0 f i Snmp_pp:oid.obj
 0001:000160f0       ?delete_oid_ptr@Oid@@IAEXXZ 100170f0 f i Snmp_pp:oid.obj
 0001:00016170       ??_EOid@@UAEPAXI@Z         10017170 f i Snmp_pp:oid.obj
 0001:00016170       ??_GOid@@UAEPAXI@Z         10017170 f i Snmp_pp:oid.obj
 0001:000161d0       ??0Oid@@QAE@PBD_N@Z        100171d0 f   Snmp_pp:oid.obj
 0001:000162e0       ??0Oid@@QAE@ABV0@@Z        100172e0 f   Snmp_pp:oid.obj
 0001:000163e0       ??0Oid@@QAE@PBKH@Z         100173e0 f   Snmp_pp:oid.obj
 0001:00016510       ??1Oid@@UAE@XZ             10017510 f   Snmp_pp:oid.obj
 0001:000165e0       ??4Oid@@UAEAAV0@PBD@Z      100175e0 f   Snmp_pp:oid.obj
 0001:00016650       ??4Oid@@UAEAAV0@ABV0@@Z    10017650 f   Snmp_pp:oid.obj
 0001:00016700       ??YOid@@QAEAAV0@PBD@Z      10017700 f   Snmp_pp:oid.obj
 0001:00016840       ??8@YAHABVOid@@0@Z         10017840 f   Snmp_pp:oid.obj
 0001:000168b0       ??8@YAHABVOid@@PBD@Z       100178b0 f   Snmp_pp:oid.obj
 0001:00016970       ??9@YAHABVOid@@PBD@Z       10017970 f   Snmp_pp:oid.obj
 0001:00016a30       ??9@YAHABVOid@@0@Z         10017a30 f i Snmp_pp:oid.obj
 0001:00016a80       ?set_data@Oid@@QAEXPBKI@Z  10017a80 f   Snmp_pp:oid.obj
 0001:00016b30       ?set_data@Oid@@QAEXPBDI@Z  10017b30 f   Snmp_pp:oid.obj
 0001:00016c00       ?trim@Oid@@QAEXK@Z         10017c00 f   Snmp_pp:oid.obj
 0001:00016c80       ??YOid@@QAEAAV0@K@Z        10017c80 f   Snmp_pp:oid.obj
 0001:00016d50       ??YOid@@QAEAAV0@ABV0@@Z    10017d50 f   Snmp_pp:oid.obj
 0001:00016e70       ?get_printable@Oid@@QBEPBDKKAAPAD@Z 10017e70 f   Snmp_pp:oid.obj
 0001:00016ff0       ?StrToOid@Oid@@MBEHPBDPAUSmiOID@@@Z 10017ff0 f   Snmp_pp:oid.obj
 0001:000172f0       ?OidCopy@Oid@@MBEHPAUSmiOID@@0@Z 100182f0 f   Snmp_pp:oid.obj
 0001:00017370       ?nCompare@Oid@@QBEHKABV1@@Z 10018370 f   Snmp_pp:oid.obj
 0001:00017490       ?OidToStr@Oid@@MBEHPBUSmiOID@@KPAD@Z 10018490 f   Snmp_pp:oid.obj
 0001:000175b0       ??4Oid@@UAEAAVSnmpSyntax@@ABV1@@Z 100185b0 f   Snmp_pp:oid.obj
 0001:00017660       ?get_asn1_length@Oid@@UBEHXZ 10018660 f   Snmp_pp:oid.obj
 0001:00017740       ?valid@Vb@@QBE_NXZ         10018740 f   Snmp_pp:vb.obj
 0001:000177d0       ??4Vb@@QAEAAV0@ABV0@@Z     100187d0 f   Snmp_pp:vb.obj
 0001:00017870       ?free_vb@Vb@@IAEXXZ        10018870 f   Snmp_pp:vb.obj
 0001:00017920       ?get_value@Vb@@QBEHAAJ@Z   10018920 f   Snmp_pp:vb.obj
 0001:000179c0       ?get_value@Vb@@QBEHAAK@Z   100189c0 f   Snmp_pp:vb.obj
 0001:00017ad0       ??BTimeTicks@@QAEKXZ       10018ad0 f i Snmp_pp:uxsnmp.obj
 0001:00017ad0       ??BSnmpUInt32@@QBEKXZ      10018ad0 f i Snmp_pp:vb.obj
 0001:00017ad0       ?len@Oid@@QBEKXZ           10018ad0 f i Snmp_pp:oid.obj
 0001:00017ad0       ?get_timeout@SnmpTarget@@QBEKXZ 10018ad0 f i Snmp_pp:msgqueue.obj
 0001:00017ad0       ??BSnmpInt32@@QBEJXZ       10018ad0 f i Snmp_pp:vb.obj
 0001:00017ad0       ?high@Counter64@@QBEKXZ    10018ad0 f i Snmp_pp:ctr64.obj
 0001:00017b00       ?get_retry@SnmpTarget@@QBEHXZ 10018b00 f i Snmp_pp:msgqueue.obj
 0001:00017b00       ?get_value@LogEntryImpl@@UBEPBDXZ 10018b00 f i Snmp_pp:log.obj
 0001:00017b00       ?low@Counter64@@QBEKXZ     10018b00 f i Snmp_pp:ctr64.obj
 0001:00017b00       ?data@OctetStr@@QBEPAEXZ   10018b00 f i Snmp_pp:vb.obj
 0001:00017b30       ?get_value@Vb@@QBEHAAVSnmpSyntax@@@Z 10018b30 f   Snmp_pp:vb.obj
 0001:00017bc0       ?get_syntax@Vb@@QBEKXZ     10018bc0 f   Snmp_pp:vb.obj
 0001:00017c50       ??0TimeTicks@@QAE@XZ       10018c50 f i Snmp_pp:vb.obj
 0001:00017cb0       ?valid@SnmpInt32@@UBE_NXZ  10018cb0 f i Snmp_pp:pdu.obj
 0001:00017cb0       ?valid@SnmpUInt32@@UBE_NXZ 10018cb0 f i Snmp_pp:vb.obj
 0001:00017ce0       ?get_syntax@TimeTicks@@UBEKXZ 10018ce0 f i Snmp_pp:vb.obj
 0001:00017d10       ?clone@TimeTicks@@UBEPAVSnmpSyntax@@XZ 10018d10 f i Snmp_pp:vb.obj
 0001:00017dc0       ?clear@TimeTicks@@UAEXXZ   10018dc0 f i Snmp_pp:vb.obj
 0001:00017e00       ??_ETimeTicks@@UAEPAXI@Z   10018e00 f i Snmp_pp:vb.obj
 0001:00017e00       ??_GTimeTicks@@UAEPAXI@Z   10018e00 f i Snmp_pp:vb.obj
 0001:00017e60       ??1TimeTicks@@UAE@XZ       10018e60 f i Snmp_pp:vb.obj
 0001:00017eb0       ??1SnmpUInt32@@UAE@XZ      10018eb0 f i Snmp_pp:vb.obj
 0001:00017f00       ?get_syntax@SnmpUInt32@@UBEKXZ 10018f00 f i Snmp_pp:vb.obj
 0001:00017f00       ?get_syntax@Gauge32@@UBEKXZ 10018f00 f i Snmp_pp:vb.obj
 0001:00017f30       ?clone@SnmpUInt32@@UBEPAVSnmpSyntax@@XZ 10018f30 f i Snmp_pp:vb.obj
 0001:00017fe0       ?clear@SnmpUInt32@@UAEXXZ  10018fe0 f i Snmp_pp:vb.obj
 0001:00017fe0       ?clear@SnmpInt32@@UAEXXZ   10018fe0 f i Snmp_pp:pdu.obj
 0001:00018030       ??_ESnmpUInt32@@UAEPAXI@Z  10019030 f i Snmp_pp:vb.obj
 0001:00018030       ??_GSnmpUInt32@@UAEPAXI@Z  10019030 f i Snmp_pp:vb.obj
 0001:00018090       ?get_syntax@Counter32@@UBEKXZ 10019090 f i Snmp_pp:vb.obj
 0001:000180c0       ?clone@Counter32@@UBEPAVSnmpSyntax@@XZ 100190c0 f i Snmp_pp:vb.obj
 0001:00018170       ??_GCounter32@@UAEPAXI@Z   10019170 f i Snmp_pp:vb.obj
 0001:00018170       ??_ECounter32@@UAEPAXI@Z   10019170 f i Snmp_pp:vb.obj
 0001:000181d0       ??1Counter32@@UAE@XZ       100191d0 f i Snmp_pp:vb.obj
 0001:00018210       ?clone@Gauge32@@UBEPAVSnmpSyntax@@XZ 10019210 f i Snmp_pp:vb.obj
 0001:000182c0       ??_EGauge32@@UAEPAXI@Z     100192c0 f i Snmp_pp:vb.obj
 0001:000182c0       ??_GGauge32@@UAEPAXI@Z     100192c0 f i Snmp_pp:vb.obj
 0001:00018320       ??1Gauge32@@UAE@XZ         10019320 f i Snmp_pp:vb.obj
 0001:00018370       ?valid@OctetStr@@UBE_NXZ   10019370 f i Snmp_pp:vb.obj
 0001:000183a0       ?clone@OpaqueStr@@UBEPAVSnmpSyntax@@XZ 100193a0 f i Snmp_pp:vb.obj
 0001:00018450       ??0OpaqueStr@@QAE@ABV0@@Z  10019450 f i Snmp_pp:vb.obj
 0001:000184b0       ?get_syntax@OpaqueStr@@UBEKXZ 100194b0 f i Snmp_pp:vb.obj
 0001:000184e0       ??4OpaqueStr@@UAEAAVSnmpSyntax@@ABV1@@Z 100194e0 f i Snmp_pp:vb.obj
 0001:00018530       ??_GOpaqueStr@@UAEPAXI@Z   10019530 f i Snmp_pp:vb.obj
 0001:00018530       ??_EOpaqueStr@@UAEPAXI@Z   10019530 f i Snmp_pp:vb.obj
 0001:00018590       ??1OpaqueStr@@UAE@XZ       10019590 f i Snmp_pp:vb.obj
 0001:000185d0       ?get_printable_value@Vb@@QBEPBDXZ 100195d0 f   Snmp_pp:vb.obj
 0001:00018640       ?get_asn1_length@Vb@@QBEHXZ 10019640 f   Snmp_pp:vb.obj
 0001:000186d0       ?get_address@SnmpTarget@@QBEHAAVGenAddress@@@Z 100196d0 f   Snmp_pp:target.obj
 0001:00018730       ?set_address@SnmpTarget@@UAEHABVAddress@@@Z 10019730 f   Snmp_pp:target.obj
 0001:000187b0       ?clone@SnmpTarget@@UBEPAV1@XZ 100197b0 f   Snmp_pp:target.obj
 0001:00018900       ??0SnmpTarget@@QAE@XZ      10019900 f i Snmp_pp:target.obj
 0001:00018990       ??8SnmpTarget@@QBEHABV0@@Z 10019990 f   Snmp_pp:target.obj
 0001:00018a30       ??9@YAHABVAddress@@0@Z     10019a30 f i Snmp_pp:target.obj
 0001:00018a80       ?clear@SnmpTarget@@UAEXXZ  10019a80 f   Snmp_pp:target.obj
 0001:00018b10       ??0CTarget@@QAE@XZ         10019b10 f   Snmp_pp:target.obj
 0001:00018bc0       ??0SnmpTarget@@QAE@ABVAddress@@@Z 10019bc0 f i Snmp_pp:target.obj
 0001:00018ca0       ??0CTarget@@QAE@ABVAddress@@@Z 10019ca0 f   Snmp_pp:target.obj
 0001:00018d50       ??0CTarget@@QAE@ABV0@@Z    10019d50 f   Snmp_pp:target.obj
 0001:00018e60       ?resolve_to_C@CTarget@@QBEHAAVOctetStr@@0AAVGenAddress@@AAKAAHAAE@Z 10019e60 f   Snmp_pp:target.obj
 0001:00018f00       ??4CTarget@@QAEAAV0@ABV0@@Z 10019f00 f   Snmp_pp:target.obj
 0001:00018fc0       ?clear@CTarget@@UAEXXZ     10019fc0 f   Snmp_pp:target.obj
 0001:00019040       ??0UTarget@@QAE@XZ         1001a040 f   Snmp_pp:target.obj
 0001:00019100       ??0UTarget@@QAE@ABVAddress@@@Z 1001a100 f   Snmp_pp:target.obj
 0001:000191d0       ??0UTarget@@QAE@ABV0@@Z    1001a1d0 f   Snmp_pp:target.obj
 0001:00019300       ?set_address@UTarget@@UAEHABVAddress@@@Z 1001a300 f   Snmp_pp:target.obj
 0001:00019360       ?resolve_to_U@UTarget@@QBEHAAVOctetStr@@AAHAAVGenAddress@@AAK1AAE@Z 1001a360 f   Snmp_pp:target.obj
 0001:00019400       ??4UTarget@@QAEAAV0@ABV0@@Z 1001a400 f   Snmp_pp:target.obj
 0001:000194d0       ??8UTarget@@UBEHABV0@@Z    1001a4d0 f   Snmp_pp:target.obj
 0001:00019560       ?clear@UTarget@@UAEXXZ     1001a560 f   Snmp_pp:target.obj
 0001:000195f0       ??0OctetStr@@QAE@XZ        1001a5f0 f   Snmp_pp:octet.obj
 0001:00019680       ?clone@OctetStr@@UBEPAVSnmpSyntax@@XZ 1001a680 f i Snmp_pp:octet.obj
 0001:00019730       ??_EOctetStr@@UAEPAXI@Z    1001a730 f i Snmp_pp:octet.obj
 0001:00019730       ??_GOctetStr@@UAEPAXI@Z    1001a730 f i Snmp_pp:octet.obj
 0001:00019790       ??0OctetStr@@QAE@PBD@Z     1001a790 f   Snmp_pp:octet.obj
 0001:000198c0       ??0OctetStr@@QAE@PBEK@Z    1001a8c0 f   Snmp_pp:octet.obj
 0001:000199e0       ??0OctetStr@@QAE@ABV0@@Z   1001a9e0 f   Snmp_pp:octet.obj
 0001:00019b20       ??1OctetStr@@UAE@XZ        1001ab20 f   Snmp_pp:octet.obj
 0001:00019c10       ?set_data@OctetStr@@QAEXPBEK@Z 1001ac10 f   Snmp_pp:octet.obj
 0001:00019d00       ??4OctetStr@@QAEAAV0@PBD@Z 1001ad00 f   Snmp_pp:octet.obj
 0001:00019e00       ??4OctetStr@@QAEAAV0@ABV0@@Z 1001ae00 f   Snmp_pp:octet.obj
 0001:00019e70       ??8@YAHABVOctetStr@@0@Z    1001ae70 f   Snmp_pp:octet.obj
 0001:00019ed0       ??9@YAHABVOctetStr@@0@Z    1001aed0 f   Snmp_pp:octet.obj
 0001:00019f30       ?nCompare@OctetStr@@QBEHKABV1@@Z 1001af30 f   Snmp_pp:octet.obj
 0001:0001a0e0       ?get_printable@OctetStr@@UBEPBDXZ 1001b0e0 f   Snmp_pp:octet.obj
 0001:0001a2a0       ?get_printable_clear@OctetStr@@QBEPBDXZ 1001b2a0 f   Snmp_pp:octet.obj
 0001:0001a430       ??4OctetStr@@UAEAAVSnmpSyntax@@ABV1@@Z 1001b430 f   Snmp_pp:octet.obj
 0001:0001a590       ?get_printable_hex@OctetStr@@QBEPBDXZ 1001b590 f   Snmp_pp:octet.obj
 0001:0001a970       ?clear@OctetStr@@UAEXXZ    1001b970 f   Snmp_pp:octet.obj
 0001:0001aa00       ?get_asn1_length@OctetStr@@UBEHXZ 1001ba00 f   Snmp_pp:octet.obj
 0001:0001aa90       ?v3CallBack@@YAXHPAVSnmp@@AAVPdu@@AAVSnmpTarget@@PAX@Z 1001ba90 f   Snmp_pp:uxsnmp.obj
 0001:0001adc0       ?MyMakeReqId@Snmp@@IAEJXZ  1001bdc0 f   Snmp_pp:uxsnmp.obj
 0001:0001aef0       ?send_snmp_request@@YAHIPAEIAAVAddress@@@Z 1001bef0 f   Snmp_pp:uxsnmp.obj
 0001:0001b070       ?receive_snmp_response@@YAHIAAVSnmp@@AAVPdu@@AAVUdpAddress@@AAVOctetStr@@_N@Z 1001c070 f   Snmp_pp:uxsnmp.obj
 0001:0001b570       ?get_error_status@Pdu@@QBEHXZ 1001c570 f i Snmp_pp:uxsnmp.obj
 0001:0001b570       ?get_version@SnmpTarget@@QBE?AW4snmp_version@@XZ 1001c570 f i Snmp_pp:uxsnmp.obj
 0001:0001b5a0       ?get_request_id@Pdu@@QBEKXZ 1001c5a0 f i Snmp_pp:uxsnmp.obj
 0001:0001b5d0       ?get_security_level@Pdu@@QBEHXZ 1001c5d0 f i Snmp_pp:uxsnmp.obj
 0001:0001b610       ??0SnmpMessage@@QAE@XZ     1001c610 f i Snmp_pp:uxsnmp.obj
 0001:0001b660       ?unload@SnmpMessage@@QAEHAAVPdu@@AAVOctetStr@@AAW4snmp_version@@@Z 1001c660 f i Snmp_pp:uxsnmp.obj
 0001:0001b6c0       ?is_v3_message@SnmpMessage@@QAE_NXZ 1001c6c0 f i Snmp_pp:uxsnmp.obj
 0001:0001b710       ?receive_snmp_notification@@YAHIAAVSnmp@@AAVPdu@@PAPAVSnmpTarget@@@Z 1001c710 f   Snmp_pp:uxsnmp.obj
 0001:0001be10       ?set_writecommunity@CTarget@@QAEXABVOctetStr@@@Z 1001ce10 f i Snmp_pp:uxsnmp.obj
 0001:0001be60       ?add_to_engine_id_table@v3MP@@QAEHABVOctetStr@@0H@Z 1001ce60 f i Snmp_pp:uxsnmp.obj
 0001:0001beb0       ?map_action@Snmp@@IAEXGAAG@Z 1001ceb0 f   Snmp_pp:uxsnmp.obj
 0001:0001c020       ??0Snmp@@QAE@AAHG_N@Z      1001d020 f   Snmp_pp:uxsnmp.obj
 0001:0001c170       ?get_notify_filter@Snmp@@UAEHAAV?$SnmpCollection@VOid@@@@AAV?$SnmpCollection@VSnmpTarget@@@@@Z 1001d170 f i Snmp_pp:uxsnmp.obj
 0001:0001c250       ??_GSnmp@@UAEPAXI@Z        1001d250 f i Snmp_pp:uxsnmp.obj
 0001:0001c250       ??_ESnmp@@UAEPAXI@Z        1001d250 f i Snmp_pp:uxsnmp.obj
 0001:0001c2b0       ?socket_startup@Snmp@@SAXXZ 1001d2b0 f   Snmp_pp:uxsnmp.obj
 0001:0001c320       ?socket_cleanup@Snmp@@SAXXZ 1001d320 f   Snmp_pp:uxsnmp.obj
 0001:0001c370       ?init@Snmp@@IAEXAAHQAPAVIpAddress@@GG@Z 1001d370 f   Snmp_pp:uxsnmp.obj
 0001:0001c710       ??1Snmp@@UAE@XZ            1001d710 f   Snmp_pp:uxsnmp.obj
 0001:0001c830       ??_GEventListHolder@@QAEPAXI@Z 1001d830 f i Snmp_pp:uxsnmp.obj
 0001:0001c890       ??1EventListHolder@@QAE@XZ 1001d890 f i Snmp_pp:uxsnmp.obj
 0001:0001c910       ?error_msg@Snmp@@SAPBDH@Z  1001d910 f   Snmp_pp:uxsnmp.obj
 0001:0001ca20       ?error_msg@Snmp@@SAPBDABVOid@@@Z 1001da20 f   Snmp_pp:uxsnmp.obj
 0001:0001cc00       ?get@Snmp@@UAEHAAVPdu@@ABVSnmpTarget@@@Z 1001dc00 f   Snmp_pp:uxsnmp.obj
 0001:0001cc70       ?set_type@Pdu@@QAEXG@Z     1001dc70 f i Snmp_pp:uxsnmp.obj
 0001:0001ccb0       ?get@Snmp@@UAEHAAVPdu@@ABVSnmpTarget@@Q6AXHPAV1@0AAV3@PAX@ZPBX@Z 1001dcb0 f   Snmp_pp:uxsnmp.obj
 0001:0001cd20       ?get_next@Snmp@@UAEHAAVPdu@@ABVSnmpTarget@@@Z 1001dd20 f   Snmp_pp:uxsnmp.obj
 0001:0001cd90       ?get_next@Snmp@@UAEHAAVPdu@@ABVSnmpTarget@@Q6AXHPAV1@0AAV3@PAX@ZPBX@Z 1001dd90 f   Snmp_pp:uxsnmp.obj
 0001:0001ce00       ?set@Snmp@@UAEHAAVPdu@@ABVSnmpTarget@@@Z 1001de00 f   Snmp_pp:uxsnmp.obj
 0001:0001ce70       ?set@Snmp@@UAEHAAVPdu@@ABVSnmpTarget@@Q6AXHPAV1@0AAV3@PAX@ZPBX@Z 1001de70 f   Snmp_pp:uxsnmp.obj
 0001:0001cee0       ?get_bulk@Snmp@@UAEHAAVPdu@@ABVSnmpTarget@@HH@Z 1001dee0 f   Snmp_pp:uxsnmp.obj
 0001:0001cf50       ?get_bulk@Snmp@@UAEHAAVPdu@@ABVSnmpTarget@@HHQ6AXHPAV1@0AAV3@PAX@ZPBX@Z 1001df50 f   Snmp_pp:uxsnmp.obj
 0001:0001cfc0       ?response@Snmp@@UAEHAAVPdu@@ABVSnmpTarget@@I@Z 1001dfc0 f   Snmp_pp:uxsnmp.obj
 0001:0001d030       ?send_raw_data@Snmp@@UAEHPAEIAAVUdpAddress@@I@Z 1001e030 f   Snmp_pp:uxsnmp.obj
 0001:0001d140       ??0SnmpSynchronize@@QAE@AAVSnmpSynchronized@@@Z 1001e140 f i Snmp_pp:uxsnmp.obj
 0001:0001d190       ??1SnmpSynchronize@@QAE@XZ 1001e190 f i Snmp_pp:uxsnmp.obj
 0001:0001d1e0       ?cancel@Snmp@@UAEHK@Z      1001e1e0 f   Snmp_pp:uxsnmp.obj
 0001:0001d260       ?report@Snmp@@UAEHAAVPdu@@ABVSnmpTarget@@@Z 1001e260 f   Snmp_pp:uxsnmp.obj
 0001:0001d2d0       ?inform@Snmp@@UAEHAAVPdu@@ABVSnmpTarget@@@Z 1001e2d0 f   Snmp_pp:uxsnmp.obj
 0001:0001d440       ?log@DefaultLog@@SAPAVAgentLog@@XZ 1001e440 f i Snmp_pp:uxsnmp.obj
 0001:0001d510       ?init@DefaultLog@@SAXPAVAgentLog@@@Z 1001e510 f i Snmp_pp:uxsnmp.obj
 0001:0001d5a0       ?create_log_entry@DefaultLog@@SAXE@Z 1001e5a0 f i Snmp_pp:uxsnmp.obj
 0001:0001d630       ?log_entry@DefaultLog@@SAPAVLogEntry@@XZ 1001e630 f i Snmp_pp:uxsnmp.obj
 0001:0001d680       ?delete_log_entry@DefaultLog@@SAXXZ 1001e680 f i Snmp_pp:uxsnmp.obj
 0001:0001d720       ?inform@Snmp@@UAEHAAVPdu@@ABVSnmpTarget@@Q6AXHPAV1@0AAV3@PAX@ZPBX@Z 1001e720 f   Snmp_pp:uxsnmp.obj
 0001:0001d890       ?trap@Snmp@@UAEHAAVPdu@@ABVSnmpTarget@@@Z 1001e890 f   Snmp_pp:uxsnmp.obj
 0001:0001e470       ?valid@SnmpTarget@@QBE_NXZ 1001f470 f i Snmp_pp:uxsnmp.obj
 0001:0001e4a0       ?set_request_id@Pdu@@QAEXK@Z 1001f4a0 f i Snmp_pp:uxsnmp.obj
 0001:0001e4e0       ?valid@Pdu@@QBE_NXZ        1001f4e0 f i Snmp_pp:uxsnmp.obj
 0001:0001e510       ?get_context_engine_id@Pdu@@QBEABVOctetStr@@XZ 1001f510 f i Snmp_pp:uxsnmp.obj
 0001:0001e550       ?get_local_engine_id@v3MP@@QBEABVOctetStr@@XZ 1001f550 f i Snmp_pp:uxsnmp.obj
 0001:0001e580       ?load@SnmpMessage@@QAEHABVPdu@@ABVOctetStr@@W4snmp_version@@@Z 1001f580 f i Snmp_pp:uxsnmp.obj
 0001:0001e5e0       ?loadv3@SnmpMessage@@QAEHABVPdu@@ABVOctetStr@@1HW4snmp_version@@@Z 1001f5e0 f i Snmp_pp:uxsnmp.obj
 0001:0001e690       ?len@SnmpMessage@@QBEKXZ   1001f690 f i Snmp_pp:uxsnmp.obj
 0001:0001e6d0       ?check_notify_timestamp@Snmp@@IAEXAAVPdu@@@Z 1001f6d0 f   Snmp_pp:uxsnmp.obj
 0001:0001e7f0       ??4TimeTicks@@QAEAAV0@K@Z  1001f7f0 f i Snmp_pp:uxsnmp.obj
 0001:0001e830       ?set_notify_timestamp@Pdu@@QAEXABVTimeTicks@@@Z 1001f830 f i Snmp_pp:uxsnmp.obj
 0001:0001e880       ??4TimeTicks@@QAEAAV0@ABV0@@Z 1001f880 f i Snmp_pp:uxsnmp.obj
 0001:0001e8d0       ?get_notify_timestamp@Pdu@@QBEXAAVTimeTicks@@@Z 1001f8d0 f i Snmp_pp:uxsnmp.obj
 0001:0001e920       ?get_notify_filter@Snmp@@UAEHAAV?$SnmpCollection@VOid@@@@AAV?$SnmpCollection@VSnmpTarget@@@@AAV?$SnmpCollection@VGenAddress@@@@@Z 1001f920 f   Snmp_pp:uxsnmp.obj
 0001:0001e9a0       ?get_filter@CNotifyEvent@@QAEXAAV?$SnmpCollection@VOid@@@@AAV?$SnmpCollection@VSnmpTarget@@@@AAV?$SnmpCollection@VGenAddress@@@@@Z 1001f9a0 f i Snmp_pp:uxsnmp.obj
 0001:0001ea10       ?notifyEventList@EventListHolder@@QAEAAPAVCNotifyEventQueue@@XZ 1001fa10 f i Snmp_pp:uxsnmp.obj
 0001:0001ea40       ?notify_set_listen_port@Snmp@@UAEXH@Z 1001fa40 f   Snmp_pp:uxsnmp.obj
 0001:0001ea90       ?set_listen_port@CNotifyEventQueue@@QAEXH@Z 1001fa90 f i Snmp_pp:uxsnmp.obj
 0001:0001ead0       ?notify_get_listen_port@Snmp@@UAEHXZ 1001fad0 f   Snmp_pp:uxsnmp.obj
 0001:0001eb20       ?notify_register@Snmp@@UAEHABV?$SnmpCollection@VOid@@@@ABV?$SnmpCollection@VSnmpTarget@@@@ABV?$SnmpCollection@VGenAddress@@@@Q6AXHPAV1@AAVPdu@@AAVSnmpTarget@@PAX@ZPBX@Z 1001fb20 f   Snmp_pp:uxsnmp.obj
 0001:0001ebd0       ?notify_register@Snmp@@UAEHABV?$SnmpCollection@VOid@@@@ABV?$SnmpCollection@VSnmpTarget@@@@Q6AXHPAV1@AAVPdu@@AAVSnmpTarget@@PAX@ZPBX@Z 1001fbd0 f   Snmp_pp:uxsnmp.obj
 0001:0001ecc0       ?notify_unregister@Snmp@@UAEHXZ 1001fcc0 f   Snmp_pp:uxsnmp.obj
 0001:0001ed40       ?snmp_engine@Snmp@@IAEHAAVPdu@@JJABVSnmpTarget@@Q6AXHPAV1@0AAV3@PAX@ZPBXIH@Z 1001fd40 f   Snmp_pp:uxsnmp.obj
 0001:00020aa0       ?get_engine_id@UTarget@@QBEXAAVOctetStr@@@Z 10021aa0 f i Snmp_pp:uxsnmp.obj
 0001:00020af0       ??0Pdu@@QAE@ABV0@@Z        10021af0 f i Snmp_pp:uxsnmp.obj
 0001:00020bf0       ?set_error_status@Pdu@@QAEXH@Z 10021bf0 f i Snmp_pp:uxsnmp.obj
 0001:00020c30       ?set_error_index@Pdu@@QAEXH@Z 10021c30 f i Snmp_pp:uxsnmp.obj
 0001:00020c70       ??_EPdu@@UAEPAXI@Z         10021c70 f i Snmp_pp:uxsnmp.obj
 0001:00020c70       ??_GPdu@@UAEPAXI@Z         10021c70 f i Snmp_pp:uxsnmp.obj
 0001:00020cd0       ?get_from_engine_id_table@v3MP@@QBEHAAVOctetStr@@ABV2@@Z 10021cd0 f i Snmp_pp:uxsnmp.obj
 0001:00020d20       ?engine_id_discovery@Snmp@@UAEHAAVOctetStr@@HABVUdpAddress@@@Z 10021d20 f   Snmp_pp:uxsnmp.obj
 0001:000212c0       ??0msec@@QAE@XZ            100222c0 f i Snmp_pp:uxsnmp.obj
 0001:00021310       ?GetDeltaFromNow@msec@@QBEXAAUtimeval@@@Z 10022310 f i Snmp_pp:uxsnmp.obj
 0001:00021390       ?broadcast_discovery@Snmp@@UAEHAAV?$SnmpCollection@VUdpAddress@@@@HABVUdpAddress@@W4snmp_version@@PBVOctetStr@@@Z 10022390 f   Snmp_pp:uxsnmp.obj
 0001:00021ac0       ?stop_poll_thread@Snmp@@QAEXXZ 10022ac0 f   Snmp_pp:uxsnmp.obj
 0001:00021b50       ??0?$SnmpCollection@VGenAddress@@@@QAE@XZ 10022b50 f i Snmp_pp:uxsnmp.obj
 0001:00021bb0       ??1?$SnmpCollection@VOid@@@@QAE@XZ 10022bb0 f i Snmp_pp:notifyqueue.obj
 0001:00021bb0       ??1?$SnmpCollection@VGenAddress@@@@QAE@XZ 10022bb0 f i Snmp_pp:uxsnmp.obj
 0001:00021bf0       ??4?$SnmpCollection@VGenAddress@@@@QAEAAV0@ABV0@@Z 10022bf0 f i Snmp_pp:uxsnmp.obj
 0001:00021bf0       ??4?$SnmpCollection@VOid@@@@QAEAAV0@ABV0@@Z 10022bf0 f i Snmp_pp:uxsnmp.obj
 0001:00021d90       ??4?$SnmpCollection@VSnmpTarget@@@@QAEAAV0@ABV0@@Z 10022d90 f i Snmp_pp:uxsnmp.obj
 0001:00021f30       ??Y?$SnmpCollection@VUdpAddress@@@@QAEAAV0@ABVUdpAddress@@@Z 10022f30 f i Snmp_pp:uxsnmp.obj
 0001:000220a0       ?get_element@?$SnmpCollection@VOid@@@@QBEHAAPAVOid@@H@Z 100230a0 f i Snmp_pp:uxsnmp.obj
 0001:000220a0       ?get_element@?$SnmpCollection@VSnmpTarget@@@@QBEHAAPAVSnmpTarget@@H@Z 100230a0 f i Snmp_pp:uxsnmp.obj
 0001:000220a0       ?get_element@?$SnmpCollection@VGenAddress@@@@QBEHAAPAVGenAddress@@H@Z 100230a0 f i Snmp_pp:uxsnmp.obj
 0001:00022140       ?clear@?$SnmpCollection@VGenAddress@@@@QAEXXZ 10023140 f i Snmp_pp:uxsnmp.obj
 0001:00022140       ?clear@?$SnmpCollection@VOid@@@@QAEXXZ 10023140 f i Snmp_pp:uxsnmp.obj
 0001:00022290       ?clear@?$SnmpCollection@VSnmpTarget@@@@QAEXXZ 10023290 f i Snmp_pp:uxsnmp.obj
 0001:000223e0       ??0cBlock@?$SnmpCollection@VOid@@@@QAE@PAV01@0@Z 100233e0 f i Snmp_pp:uxsnmp.obj
 0001:000223e0       ??0cBlock@?$SnmpCollection@VSnmpTarget@@@@QAE@PAV01@0@Z 100233e0 f i Snmp_pp:uxsnmp.obj
 0001:000223e0       ??0cBlock@?$SnmpCollection@VGenAddress@@@@QAE@PAV01@0@Z 100233e0 f i Snmp_pp:uxsnmp.obj
 0001:000223e0       ??0cBlock@?$SnmpCollection@VUdpAddress@@@@QAE@PAV01@0@Z 100233e0 f i Snmp_pp:uxsnmp.obj
 0001:00022430       ??0coldStartOid@@QAE@XZ    10023430 f i Snmp_pp:uxsnmp.obj
 0001:000224c0       ??0snmpTrapsOid@@QAE@XZ    100234c0 f i Snmp_pp:uxsnmp.obj
 0001:00022520       ??1snmpTrapsOid@@UAE@XZ    10023520 f i Snmp_pp:uxsnmp.obj
 0001:00022520       ??1snmpTrapEnterpriseOid@@UAE@XZ 10023520 f i Snmp_pp:uxsnmp.obj
 0001:00022560       ??1coldStartOid@@UAE@XZ    10023560 f i Snmp_pp:uxsnmp.obj
 0001:00022560       ??1egpNeighborLossOid@@UAE@XZ 10023560 f i Snmp_pp:uxsnmp.obj
 0001:00022560       ??1linkDownOid@@UAE@XZ     10023560 f i Snmp_pp:uxsnmp.obj
 0001:00022560       ??1authenticationFailureOid@@UAE@XZ 10023560 f i Snmp_pp:uxsnmp.obj
 0001:00022560       ??1warmStartOid@@UAE@XZ    10023560 f i Snmp_pp:uxsnmp.obj
 0001:00022560       ??1linkUpOid@@UAE@XZ       10023560 f i Snmp_pp:uxsnmp.obj
 0001:000225a0       ??0warmStartOid@@QAE@XZ    100235a0 f i Snmp_pp:uxsnmp.obj
 0001:00022630       ??0linkDownOid@@QAE@XZ     10023630 f i Snmp_pp:uxsnmp.obj
 0001:000226c0       ??0linkUpOid@@QAE@XZ       100236c0 f i Snmp_pp:uxsnmp.obj
 0001:00022750       ??0authenticationFailureOid@@QAE@XZ 10023750 f i Snmp_pp:uxsnmp.obj
 0001:000227e0       ??0egpNeighborLossOid@@QAE@XZ 100237e0 f i Snmp_pp:uxsnmp.obj
 0001:00022870       ??_GlinkUpOid@@UAEPAXI@Z   10023870 f i Snmp_pp:uxsnmp.obj
 0001:00022870       ??_ElinkUpOid@@UAEPAXI@Z   10023870 f i Snmp_pp:uxsnmp.obj
 0001:00022870       ??_EegpNeighborLossOid@@UAEPAXI@Z 10023870 f i Snmp_pp:uxsnmp.obj
 0001:00022870       ??_EwarmStartOid@@UAEPAXI@Z 10023870 f i Snmp_pp:uxsnmp.obj
 0001:00022870       ??_GlinkDownOid@@UAEPAXI@Z 10023870 f i Snmp_pp:uxsnmp.obj
 0001:00022870       ??_EcoldStartOid@@UAEPAXI@Z 10023870 f i Snmp_pp:uxsnmp.obj
 0001:00022870       ??_GcoldStartOid@@UAEPAXI@Z 10023870 f i Snmp_pp:uxsnmp.obj
 0001:00022870       ??_GauthenticationFailureOid@@UAEPAXI@Z 10023870 f i Snmp_pp:uxsnmp.obj
 0001:00022870       ??_GegpNeighborLossOid@@UAEPAXI@Z 10023870 f i Snmp_pp:uxsnmp.obj
 0001:00022870       ??_ElinkDownOid@@UAEPAXI@Z 10023870 f i Snmp_pp:uxsnmp.obj
 0001:00022870       ??_GwarmStartOid@@UAEPAXI@Z 10023870 f i Snmp_pp:uxsnmp.obj
 0001:00022870       ??_EauthenticationFailureOid@@UAEPAXI@Z 10023870 f i Snmp_pp:uxsnmp.obj
 0001:000228d0       ??0snmpTrapEnterpriseOid@@QAE@XZ 100238d0 f i Snmp_pp:uxsnmp.obj
 0001:00022930       ??_GsnmpTrapEnterpriseOid@@UAEPAXI@Z 10023930 f i Snmp_pp:uxsnmp.obj
 0001:00022930       ??_EsnmpTrapEnterpriseOid@@UAEPAXI@Z 10023930 f i Snmp_pp:uxsnmp.obj
 0001:00022930       ??_EsnmpTrapsOid@@UAEPAXI@Z 10023930 f i Snmp_pp:uxsnmp.obj
 0001:00022930       ??_GsnmpTrapsOid@@UAEPAXI@Z 10023930 f i Snmp_pp:uxsnmp.obj
 0001:00022990       ??0EngineIdTable@v3MP@@QAE@H@Z 10023990 f   Snmp_pp:mp_v3.obj
 0001:00022b10       ??1EngineIdTable@v3MP@@QAE@XZ 10023b10 f   Snmp_pp:mp_v3.obj
 0001:00022bd0       ??_EEntry_T@EngineIdTable@v3MP@@QAEPAXI@Z 10023bd0 f i Snmp_pp:mp_v3.obj
 0001:00022c70       ??1Entry_T@EngineIdTable@v3MP@@QAE@XZ 10023c70 f i Snmp_pp:mp_v3.obj
 0001:00022cf0       ?add_entry@EngineIdTable@v3MP@@QAEHABVOctetStr@@0H@Z 10023cf0 f   Snmp_pp:mp_v3.obj
 0001:00023430       ??0Entry_T@EngineIdTable@v3MP@@QAE@XZ 10024430 f i Snmp_pp:mp_v3.obj
 0001:000234b0       ??4Entry_T@EngineIdTable@v3MP@@QAEAAU012@ABU012@@Z 100244b0 f i Snmp_pp:mp_v3.obj
 0001:00023520       ?get_entry@EngineIdTable@v3MP@@QBEHAAVOctetStr@@ABV3@@Z 10024520 f   Snmp_pp:mp_v3.obj
 0001:00023710       ?get_entry@EngineIdTable@v3MP@@QBEHAAVOctetStr@@ABV3@H@Z 10024710 f   Snmp_pp:mp_v3.obj
 0001:000239d0       ?initialize_table@EngineIdTable@v3MP@@AAEHH@Z 100249d0 f   Snmp_pp:mp_v3.obj
 0001:00023b00       ??0Cache@v3MP@@QAE@XZ      10024b00 f   Snmp_pp:mp_v3.obj
 0001:00023d00       ??_EEntry_T@Cache@v3MP@@QAEPAXI@Z 10024d00 f i Snmp_pp:mp_v3.obj
 0001:00023da0       ??0Entry_T@Cache@v3MP@@QAE@XZ 10024da0 f i Snmp_pp:mp_v3.obj
 0001:00023e40       ??1Entry_T@Cache@v3MP@@QAE@XZ 10024e40 f i Snmp_pp:mp_v3.obj
 0001:00023ee0       ??1Cache@v3MP@@QAE@XZ      10024ee0 f   Snmp_pp:mp_v3.obj
 0001:00024000       ?add_entry@Cache@v3MP@@QAEHHKABVOctetStr@@H0H00PAUSecurityStateReference@@H_N@Z 10025000 f   Snmp_pp:mp_v3.obj
 0001:000247f0       ??4Entry_T@Cache@v3MP@@QAEAAU012@ABU012@@Z 100257f0 f i Snmp_pp:mp_v3.obj
 0001:000248e0       ?get_entry@Cache@v3MP@@QAEHH_NPAHPAPAUSecurityStateReference@@@Z 100258e0 f   Snmp_pp:mp_v3.obj
 0001:00024ec0       ?delete_entry@Cache@v3MP@@QAEXK_N@Z 10025ec0 f   Snmp_pp:mp_v3.obj
 0001:00025460       ?get_entry@Cache@v3MP@@QAEHH_NPAUEntry_T@12@@Z 10026460 f   Snmp_pp:mp_v3.obj
 0001:00025b50       ?delete_content@Cache@v3MP@@QAEXAAUEntry_T@12@@Z 10026b50 f   Snmp_pp:mp_v3.obj
 0001:00025bb0       ??0v3MP@@QAE@ABVOctetStr@@IAAH@Z 10026bb0 f   Snmp_pp:mp_v3.obj
 0001:00025e30       ?set_usm@Cache@v3MP@@QAEXPAVUSM@@@Z 10026e30 f i Snmp_pp:mp_v3.obj
 0001:00025e70       ??1v3MP@@QAE@XZ            10026e70 f   Snmp_pp:mp_v3.obj
 0001:00025fa0       ??_GUSM@@QAEPAXI@Z         10026fa0 f i Snmp_pp:mp_v3.obj
 0001:00026000       ?send_report@v3MP@@AAEHPAEHPAUsnmp_pdu@@HHHAAVOctetStr@@AAVUdpAddress@@PAVSnmp@@@Z 10027000 f   Snmp_pp:mp_v3.obj
 0001:00026c30       ?get_stats_unknown_security_models@v3MP@@QBEKXZ 10027c30 f i Snmp_pp:mp_v3.obj
 0001:00026c70       ?get_stats_invalid_msgs@v3MP@@QBEKXZ 10027c70 f i Snmp_pp:mp_v3.obj
 0001:00026cb0       ?get_listen_port@CNotifyEventQueue@@QAEHXZ 10027cb0 f i Snmp_pp:uxsnmp.obj
 0001:00026cb0       ?get_stats_unsupported_sec_levels@USM@@QBEKXZ 10027cb0 f i Snmp_pp:mp_v3.obj
 0001:00026ce0       ?get_stats_not_in_time_windows@USM@@QBEKXZ 10027ce0 f i Snmp_pp:mp_v3.obj
 0001:00026d10       ?get_stats_unknown_user_names@USM@@QBEKXZ 10027d10 f i Snmp_pp:mp_v3.obj
 0001:00026d40       ?get_stats_unknown_engine_ids@USM@@QBEKXZ 10027d40 f i Snmp_pp:mp_v3.obj
 0001:00026d70       ?get_stats_decryption_errors@USM@@QBEKXZ 10027d70 f i Snmp_pp:mp_v3.obj
 0001:00026da0       ?oidval@Oid@@QAEPAUSmiOID@@XZ 10027da0 f i Snmp_pp:mp_v3.obj
 0001:00026dd0       ??0Counter32@@QAE@K@Z      10027dd0 f i Snmp_pp:mp_v3.obj
 0001:00026e30       ?set_value@Vb@@QAEXABVSnmpSyntax@@@Z 10027e30 f i Snmp_pp:mp_v3.obj
 0001:00026e90       ?snmp_parse@v3MP@@IAEHPAVSnmp@@PAUsnmp_pdu@@PAEHAAVOctetStr@@333AAJ4AAW4snmp_version@@VUdpAddress@@@Z 10027e90 f   Snmp_pp:mp_v3.obj
 0001:000285c0       ?inc_stats_unknown_pdu_handlers@v3MP@@QAEXXZ 100295c0 f i Snmp_pp:mp_v3.obj
 0001:00028600       ?is_v3_msg@v3MP@@KA_NPAEH@Z 10029600 f   Snmp_pp:mp_v3.obj
 0001:000289b0       ?snmp_build@v3MP@@IAEHPAUsnmp_pdu@@PAEPAHABVOctetStr@@3HH33@Z 100299b0 f   Snmp_pp:mp_v3.obj
 0001:00029af0       ??0?$Buffer@E@@QAE@I@Z     1002aaf0 f i Snmp_pp:mp_v3.obj
 0001:00029b70       ??1?$Buffer@E@@QAE@XZ      1002ab70 f i Snmp_pp:mp_v3.obj
 0001:00029bd0       ?GetNotifyEvent@CNotifyEventQueueElt@CNotifyEventQueue@@QAEPAVCNotifyEvent@@XZ 1002abd0 f i Snmp_pp:notifyqueue.obj
 0001:00029bd0       ?GetMessageA@CSNMPMessageQueueElt@CSNMPMessageQueue@@QAEPAVCSNMPMessage@@XZ 1002abd0 f i Snmp_pp:msgqueue.obj
 0001:00029bd0       ?GetEvents@CEventListElt@CEventList@@QAEPAVCEvents@@XZ 1002abd0 f i Snmp_pp:eventlist.obj
 0001:00029bd0       ?size@?$SnmpCollection@VSnmpTarget@@@@QBEHXZ 1002abd0 f i Snmp_pp:notifyqueue.obj
 0001:00029bd0       ?get_ptr@?$Buffer@E@@QAEPAEXZ 1002abd0 f i Snmp_pp:mp_v3.obj
 0001:00029bd0       ?size@?$SnmpCollection@VGenAddress@@@@QBEHXZ 1002abd0 f i Snmp_pp:notifyqueue.obj
 0001:00029bd0       ?GetId@CNotifyEvent@@QAEPAVSnmp@@XZ 1002abd0 f i Snmp_pp:notifyqueue.obj
 0001:00029bd0       ?size@?$SnmpCollection@VOid@@@@QBEHXZ 1002abd0 f i Snmp_pp:notifyqueue.obj
 0001:00029c00       ?inc_stats_unsupported_sec_levels@USM@@QAEXXZ 1002ac00 f   Snmp_pp:usm_v3.obj
 0001:00029c50       ?inc_stats_not_in_time_windows@USM@@QAEXXZ 1002ac50 f   Snmp_pp:usm_v3.obj
 0001:00029ca0       ?inc_stats_unknown_user_names@USM@@QAEXXZ 1002aca0 f   Snmp_pp:usm_v3.obj
 0001:00029cf0       ?inc_stats_unknown_engine_ids@USM@@QAEXXZ 1002acf0 f   Snmp_pp:usm_v3.obj
 0001:00029d40       ?inc_stats_wrong_digests@USM@@QAEXXZ 1002ad40 f   Snmp_pp:usm_v3.obj
 0001:00029d90       ?inc_stats_decryption_errors@USM@@QAEXXZ 1002ad90 f   Snmp_pp:usm_v3.obj
 0001:00029de0       ?delete_sec_state_reference@USM@@QAEXPAUSecurityStateReference@@@Z 1002ade0 f   Snmp_pp:usm_v3.obj
 0001:00029f10       ?get_new_sec_state_reference@USM@@IAEPAUSecurityStateReference@@XZ 1002af10 f   Snmp_pp:usm_v3.obj
 0001:00029f80       ??0USM@@QAE@IABVOctetStr@@PBVv3MP@@PAIAAH@Z 1002af80 f   Snmp_pp:usm_v3.obj
 0001:0002a220       ??1USM@@QAE@XZ             1002b220 f   Snmp_pp:usm_v3.obj
 0001:0002a410       ??_GAuthPriv@@QAEPAXI@Z    1002b410 f i Snmp_pp:usm_v3.obj
 0001:0002a470       ?add_localized_user@USM@@QAEHABVOctetStr@@00J0J0@Z 1002b470 f   Snmp_pp:usm_v3.obj
 0001:0002a4d0       ?add_usm_user@USM@@QAEHABVOctetStr@@0JJ00@Z 1002b4d0 f   Snmp_pp:usm_v3.obj
 0001:0002a5a0       ?add_usm_user@USM@@QAEHABVOctetStr@@JJ00@Z 1002b5a0 f   Snmp_pp:usm_v3.obj
 0001:0002a600       ?delete_localized_user@USM@@QAEHABVOctetStr@@@Z 1002b600 f   Snmp_pp:usm_v3.obj
 0001:0002a650       ?build_localized_keys@USM@@QAEHABVOctetStr@@HHPBEI1IPAEPAI23@Z 1002b650 f   Snmp_pp:usm_v3.obj
 0001:0002ab70       ?get_user@USM@@QAEPAUUsmUser@@ABVOctetStr@@0@Z 1002bb70 f   Snmp_pp:usm_v3.obj
 0001:0002b5d0       ?free_user@USM@@QAEXAAPAUUsmUser@@@Z 1002c5d0 f   Snmp_pp:usm_v3.obj
 0001:0002b5d0       ?delete_cloned_entry@USMUserTable@@QAEXAAPAUUsmUserTableEntry@@@Z 1002c5d0 f   Snmp_pp:usm_v3.obj
 0001:0002b740       ?get_security_name@USM@@QAEHPBEJAAVOctetStr@@@Z 1002c740 f   Snmp_pp:usm_v3.obj
 0001:0002b880       ?get_user_name@USM@@QAEHPAEPAJPBEJ@Z 1002c880 f   Snmp_pp:usm_v3.obj
 0001:0002b940       ?delete_sec_parameters@USM@@AAEXPAUUsmSecurityParameters@@@Z 1002c940 f   Snmp_pp:usm_v3.obj
 0001:0002ba20       ??AOctetStr@@QAEAAEH@Z     1002ca20 f i Snmp_pp:usm_v3.obj
 0001:0002ba60       ?generate_msg@USM@@IAEHPAEHHABVOctetStr@@1H0HPAUSecurityStateReference@@0PAH@Z 1002ca60 f   Snmp_pp:usm_v3.obj
 0001:0002c6d0       ?process_msg@USM@@IAEHHPAEHHJ0H0HAAVOctetStr@@10PAHPAJPAUSecurityStateReference@@ABVUdpAddress@@@Z 1002d6d0 f   Snmp_pp:usm_v3.obj
 0001:0002d5b0       ?build_sec_params@USM@@AAEPAEPAEPAHUUsmSecurityParameters@@1@Z 1002e5b0 f   Snmp_pp:usm_v3.obj
 0001:0002da30       ?build_whole_msg@USM@@AAEPAEPAEPAH0J1UUsmSecurityParameters@@0J@Z 1002ea30 f   Snmp_pp:usm_v3.obj
 0001:0002df50       ??0USMTimeTable@@QAE@PBVUSM@@IAAH@Z 1002ef50 f   Snmp_pp:usm_v3.obj
 0001:0002e1e0       ?get_local_engine_id@USM@@QBEABVOctetStr@@XZ 1002f1e0 f i Snmp_pp:usm_v3.obj
 0001:0002e1e0       ?get_oid@Vb@@QBEABVOid@@XZ 1002f1e0 f i Snmp_pp:uxsnmp.obj
 0001:0002e1e0       ?snmpEventList@EventListHolder@@QAEAAPAVCSNMPMessageQueue@@XZ 1002f1e0 f i Snmp_pp:uxsnmp.obj
 0001:0002e1e0       ?data@SnmpMessage@@QAEPAEXZ 1002f1e0 f i Snmp_pp:uxsnmp.obj
 0001:0002e210       ??_GUSMTimeTable@@UAEPAXI@Z 1002f210 f i Snmp_pp:usm_v3.obj
 0001:0002e210       ??_EUSMTimeTable@@UAEPAXI@Z 1002f210 f i Snmp_pp:usm_v3.obj
 0001:0002e270       ??1USMTimeTable@@UAE@XZ    1002f270 f   Snmp_pp:usm_v3.obj
 0001:0002e330       ?add_entry@USMTimeTable@@QAEHABVOctetStr@@JJ@Z 1002f330 f   Snmp_pp:usm_v3.obj
 0001:0002e740       ?get_time@USMTimeTable@@QAEHABVOctetStr@@AAJ1@Z 1002f740 f   Snmp_pp:usm_v3.obj
 0001:0002eb90       ?check_time@USMTimeTable@@QAEHABVOctetStr@@JJ@Z 1002fb90 f   Snmp_pp:usm_v3.obj
 0001:0002f4a0       ?check_engine_id@USMTimeTable@@QAEHABVOctetStr@@@Z 100304a0 f   Snmp_pp:usm_v3.obj
 0001:0002f720       ??0USMUserNameTable@@QAE@AAH@Z 10030720 f   Snmp_pp:usm_v3.obj
 0001:0002f850       ??_GUSMUserNameTable@@UAEPAXI@Z 10030850 f i Snmp_pp:usm_v3.obj
 0001:0002f850       ??_EUSMUserNameTable@@UAEPAXI@Z 10030850 f i Snmp_pp:usm_v3.obj
 0001:0002f8b0       ??_EUsmUserNameTableEntry@@QAEPAXI@Z 100308b0 f i Snmp_pp:usm_v3.obj
 0001:0002f950       ??0UsmUserNameTableEntry@@QAE@XZ 10030950 f i Snmp_pp:usm_v3.obj
 0001:0002f9d0       ??1UsmUserNameTableEntry@@QAE@XZ 100309d0 f i Snmp_pp:usm_v3.obj
 0001:0002fa50       ??1USMUserNameTable@@UAE@XZ 10030a50 f   Snmp_pp:usm_v3.obj
 0001:0002fc20       ?add_entry@USMUserNameTable@@QAEHABVOctetStr@@0JJ00@Z 10030c20 f   Snmp_pp:usm_v3.obj
 0001:000301c0       ??4UsmUserNameTableEntry@@QAEAAU0@ABU0@@Z 100311c0 f i Snmp_pp:usm_v3.obj
 0001:00030270       ?get_entry@USMUserNameTable@@QAEPBUUsmUserNameTableEntry@@ABVOctetStr@@@Z 10031270 f   Snmp_pp:usm_v3.obj
 0001:00030310       ?get_cloned_entry@USMUserNameTable@@QAEPAUUsmUserNameTableEntry@@ABVOctetStr@@@Z 10031310 f   Snmp_pp:usm_v3.obj
 0001:000304e0       ?delete_cloned_entry@USMUserNameTable@@QAEXAAPAUUsmUserNameTableEntry@@@Z 100314e0 f   Snmp_pp:usm_v3.obj
 0001:00030600       ??_GUsmUserNameTableEntry@@QAEPAXI@Z 10031600 f i Snmp_pp:usm_v3.obj
 0001:00030660       ?get_security_name@USMUserNameTable@@QAEHPBEJAAVOctetStr@@@Z 10031660 f   Snmp_pp:usm_v3.obj
 0001:00030aa0       ?get_user_name@USMUserNameTable@@QAEHPAEPAJPBEJ@Z 10031aa0 f   Snmp_pp:usm_v3.obj
 0001:00031020       ??0USMUserTable@@QAE@AAH@Z 10032020 f   Snmp_pp:usm_v3.obj
 0001:000310f0       ??_GUSMUserTable@@UAEPAXI@Z 100320f0 f i Snmp_pp:usm_v3.obj
 0001:000310f0       ??_EUSMUserTable@@UAEPAXI@Z 100320f0 f i Snmp_pp:usm_v3.obj
 0001:00031150       ??1USMUserTable@@UAE@XZ    10032150 f   Snmp_pp:usm_v3.obj
 0001:000313a0       ?get_user_name@USMUserTable@@QAEHPAEPAJPBEJ@Z 100323a0 f   Snmp_pp:usm_v3.obj
 0001:00031a30       ?get_security_name@USMUserTable@@QAEHPBEJAAVOctetStr@@@Z 10032a30 f   Snmp_pp:usm_v3.obj
 0001:00031ed0       ?delete_entries@USMUserTable@@QAEHABVOctetStr@@@Z 10032ed0 f   Snmp_pp:usm_v3.obj
 0001:00032010       ?get_entry@USMUserTable@@QAEPBUUsmUserTableEntry@@ABVOctetStr@@0@Z 10033010 f   Snmp_pp:usm_v3.obj
 0001:00032110       ?get_cloned_entry@USMUserTable@@QAEPAUUsmUserTableEntry@@ABVOctetStr@@0@Z 10033110 f   Snmp_pp:usm_v3.obj
 0001:00032310       ?get_entry@USMUserTable@@QAEPBUUsmUserTableEntry@@ABVOctetStr@@@Z 10033310 f   Snmp_pp:usm_v3.obj
 0001:000323d0       ?add_entry@USMUserTable@@QAEHABVOctetStr@@00J0J0@Z 100333d0 f   Snmp_pp:usm_v3.obj
 0001:00032970       ?delete_entry@USMUserTable@@AAEXH@Z 10033970 f   Snmp_pp:usm_v3.obj
 0001:00032b60       ?debughexcprintf@@YAXHPBDPBEI@Z 10033b60 f   Snmp_pp:v3.obj
 0001:00032fe0       ?debugprintf@@YAXHPBDZZ    10033fe0 f   Snmp_pp:v3.obj
 0001:00033170       ?v3strcpy@@YAPAEPBEH@Z     10034170 f   Snmp_pp:v3.obj
 0001:000331f0       ?unsignedCharCompare@@YAHPBEJ0J@Z 100341f0 f   Snmp_pp:v3.obj
 0001:000332a0       ?encodeString@@YAXPBEHPAD@Z 100342a0 f   Snmp_pp:v3.obj
 0001:00033330       ?getBootCounter@@YAHPBDABVOctetStr@@AAI@Z 10034330 f   Snmp_pp:v3.obj
 0001:00033b90       ?saveBootCounter@@YAHPBDABVOctetStr@@I@Z 10034b90 f   Snmp_pp:v3.obj
 0001:00034880       ??0Pdu@@QAE@XZ             10035880 f   Snmp_pp:pdu.obj
 0001:000349d0       ??0TimeTicks@@QAE@K@Z      100359d0 f i Snmp_pp:pdu.obj
 0001:00034a30       ??0Vb@@QAE@ABV0@@Z         10035a30 f i Snmp_pp:pdu.obj
 0001:00034ac0       ??_GVb@@QAEPAXI@Z          10035ac0 f i Snmp_pp:pdu.obj
 0001:00034b20       ??1Pdu@@UAE@XZ             10035b20 f   Snmp_pp:pdu.obj
 0001:00034ca0       ??4Pdu@@QAEAAV0@ABV0@@Z    10035ca0 f   Snmp_pp:pdu.obj
 0001:000350e0       ??YPdu@@QAEAAV0@ABVVb@@@Z  100360e0 f   Snmp_pp:pdu.obj
 0001:00035290       ?set_vblist@Pdu@@QAEHPAVVb@@H@Z 10036290 f   Snmp_pp:pdu.obj
 0001:00035600       ?get_vb@Pdu@@QBEHAAVVb@@H@Z 10036600 f   Snmp_pp:pdu.obj
 0001:00035680       ?trim@Pdu@@QAEHH@Z         10036680 f   Snmp_pp:pdu.obj
 0001:00035770       ?delete_vb@Pdu@@QAEHH@Z    10036770 f   Snmp_pp:pdu.obj
 0001:00035860       ?get_v1_trap_address@Pdu@@QBEHAAVGenAddress@@@Z 10036860 f   Snmp_pp:pdu.obj
 0001:000358c0       ?set_v1_trap_address@Pdu@@QAEHABVAddress@@@Z 100368c0 f   Snmp_pp:pdu.obj
 0001:00035950       ?get_asn1_length@Pdu@@QBEHXZ 10036950 f   Snmp_pp:pdu.obj
 0001:00035bc0       ??1SnmpInt32@@UAE@XZ       10036bc0 f i Snmp_pp:pdu.obj
 0001:00035c10       ?get_type@UdpAddress@@UBE?AW4addr_type@Address@@XZ 10036c10 f i Snmp_pp:address.obj
 0001:00035c10       ?get_id@PrivDES@@UBEHXZ    10036c10 f i Snmp_pp:auth_priv.obj
 0001:00035c10       ?get_syntax@SnmpInt32@@UBEKXZ 10036c10 f i Snmp_pp:pdu.obj
 0001:00035c10       ?get_id@AuthMD5@@UBEHXZ    10036c10 f i Snmp_pp:auth_priv.obj
 0001:00035c40       ?clone@SnmpInt32@@UBEPAVSnmpSyntax@@XZ 10036c40 f i Snmp_pp:pdu.obj
 0001:00035cf0       ??_GSnmpInt32@@UAEPAXI@Z   10036cf0 f i Snmp_pp:pdu.obj
 0001:00035cf0       ??_ESnmpInt32@@UAEPAXI@Z   10036cf0 f i Snmp_pp:pdu.obj
 0001:00035d50       ?extend_vbs@Pdu@@IAE_NXZ   10036d50 f   Snmp_pp:pdu.obj
 0001:00035e70       ?clear@Pdu@@QAEXXZ         10036e70 f   Snmp_pp:pdu.obj
 0001:00036000       ?match_type@Pdu@@SA_NHH@Z  10037000 f   Snmp_pp:pdu.obj
 0001:00036110       ??0SnmpSynchronized@@QAE@XZ 10037110 f   Snmp_pp:reentrant.obj
 0001:00036170       ??_GSnmpSynchronized@@UAEPAXI@Z 10037170 f i Snmp_pp:reentrant.obj
 0001:00036170       ??_ESnmpSynchronized@@UAEPAXI@Z 10037170 f i Snmp_pp:reentrant.obj
 0001:000361d0       ??1SnmpSynchronized@@UAE@XZ 100371d0 f   Snmp_pp:reentrant.obj
 0001:00036230       ?lock@SnmpSynchronized@@QAEXXZ 10037230 f   Snmp_pp:reentrant.obj
 0001:00036280       ?unlock@SnmpSynchronized@@QAEXXZ 10037280 f   Snmp_pp:reentrant.obj
 0001:000362d0       ??0Counter64@@QAE@XZ       100372d0 f   Snmp_pp:ctr64.obj
 0001:00036340       ?get_syntax@Counter64@@UBEKXZ 10037340 f i Snmp_pp:ctr64.obj
 0001:00036370       ?clone@Counter64@@UBEPAVSnmpSyntax@@XZ 10037370 f i Snmp_pp:ctr64.obj
 0001:00036420       ?valid@Counter64@@UBE_NXZ  10037420 f i Snmp_pp:ctr64.obj
 0001:00036450       ?clear@Counter64@@UAEXXZ   10037450 f i Snmp_pp:ctr64.obj
 0001:000364a0       ??_GCounter64@@UAEPAXI@Z   100374a0 f i Snmp_pp:ctr64.obj
 0001:000364a0       ??_ECounter64@@UAEPAXI@Z   100374a0 f i Snmp_pp:ctr64.obj
 0001:00036500       ??1Counter64@@UAE@XZ       10037500 f i Snmp_pp:ctr64.obj
 0001:00036550       ??0Counter64@@QAE@KK@Z     10037550 f   Snmp_pp:ctr64.obj
 0001:000365c0       ??0Counter64@@QAE@ABV0@@Z  100375c0 f   Snmp_pp:ctr64.obj
 0001:00036670       ?get_printable@Counter64@@UBEPBDXZ 10037670 f   Snmp_pp:ctr64.obj
 0001:00036740       ??4Counter64@@UAEAAVSnmpSyntax@@ABV1@@Z 10037740 f   Snmp_pp:ctr64.obj
 0001:00036890       ?get_asn1_length@Counter64@@UBEHXZ 10037890 f   Snmp_pp:ctr64.obj
 0001:00036970       ??0SnmpUInt32@@QAE@XZ      10037970 f   Snmp_pp:integer.obj
 0001:000369e0       ??0SnmpUInt32@@QAE@K@Z     100379e0 f   Snmp_pp:integer.obj
 0001:00036a50       ??0SnmpUInt32@@QAE@ABV0@@Z 10037a50 f   Snmp_pp:integer.obj
 0001:00036ad0       ?get_printable@SnmpUInt32@@UBEPBDXZ 10037ad0 f   Snmp_pp:integer.obj
 0001:00036b60       ?get_asn1_length@SnmpUInt32@@UBEHXZ 10037b60 f   Snmp_pp:integer.obj
 0001:00036be0       ??0SnmpInt32@@QAE@J@Z      10037be0 f   Snmp_pp:integer.obj
 0001:00036c50       ??0SnmpInt32@@QAE@ABV0@@Z  10037c50 f   Snmp_pp:integer.obj
 0001:00036cd0       ??4SnmpInt32@@QAEAAV0@J@Z  10037cd0 f   Snmp_pp:integer.obj
 0001:00036d20       ?get_printable@SnmpInt32@@UBEPBDXZ 10037d20 f   Snmp_pp:integer.obj
 0001:00036db0       ?get_asn1_length@SnmpInt32@@UBEHXZ 10037db0 f   Snmp_pp:integer.obj
 0001:00036e40       ??0TimeTicks@@QAE@ABV0@@Z  10037e40 f   Snmp_pp:timetick.obj
 0001:00036eb0       ??4Counter32@@UAEAAVSnmpSyntax@@ABV1@@Z 10037eb0 f   Snmp_pp:counter.obj
 0001:00036eb0       ??4SnmpUInt32@@UAEAAVSnmpSyntax@@ABV1@@Z 10037eb0 f   Snmp_pp:integer.obj
 0001:00036eb0       ??4SnmpInt32@@UAEAAVSnmpSyntax@@ABV1@@Z 10037eb0 f   Snmp_pp:integer.obj
 0001:00036eb0       ??4TimeTicks@@UAEAAVSnmpSyntax@@ABV1@@Z 10037eb0 f   Snmp_pp:timetick.obj
 0001:00036f70       ?get_printable@TimeTicks@@UBEPBDXZ 10037f70 f   Snmp_pp:timetick.obj
 0001:00037100       ??0Counter32@@QAE@ABV0@@Z  10038100 f   Snmp_pp:counter.obj
 0001:00037180       ??0Gauge32@@QAE@ABV0@@Z    10038180 f   Snmp_pp:gauge.obj
 0001:000371f0       ??0CSNMPMessage@@QAE@KPAVSnmp@@IABVSnmpTarget@@AAVPdu@@PAEIABVAddress@@P6AXH02AAV2@PAX@Z6@Z 100381f0 f   Snmp_pp:msgqueue.obj
 0001:00037380       ??_GCSNMPMessage@@UAEPAXI@Z 10038380 f i Snmp_pp:msgqueue.obj
 0001:00037380       ??_ECSNMPMessage@@UAEPAXI@Z 10038380 f i Snmp_pp:msgqueue.obj
 0001:000373e0       ??1CSNMPMessage@@UAE@XZ    100383e0 f   Snmp_pp:msgqueue.obj
 0001:00037520       ?SetSendTime@CSNMPMessage@@QAEXXZ 10038520 f   Snmp_pp:msgqueue.obj
 0001:00037580       ?SetPdu@CSNMPMessage@@QAEHHABVPdu@@ABVUdpAddress@@@Z 10038580 f   Snmp_pp:msgqueue.obj
 0001:00037bd0       ?get_vb@Pdu@@QBEABVVb@@H@Z 10038bd0 f i Snmp_pp:msgqueue.obj
 0001:00037c10       ?set_notify_id@Pdu@@QAE_NABVOid@@@Z 10038c10 f i Snmp_pp:msgqueue.obj
 0001:00037c90       ?ResendMessage@CSNMPMessage@@QAEHXZ 10038c90 f   Snmp_pp:msgqueue.obj
 0001:00037d70       ?Callback@CSNMPMessage@@QAEHH@Z 10038d70 f   Snmp_pp:msgqueue.obj
 0001:00037e10       ??0CEventListElt@CEventList@@QAE@PAVCEvents@@PAV01@1@Z 10038e10 f   Snmp_pp:eventlist.obj
 0001:00037e10       ??0CSNMPMessageQueueElt@CSNMPMessageQueue@@QAE@PAVCSNMPMessage@@PAV01@1@Z 10038e10 f   Snmp_pp:msgqueue.obj
 0001:00037e10       ??0CNotifyEventQueueElt@CNotifyEventQueue@@QAE@PAVCNotifyEvent@@PAV01@1@Z 10038e10 f   Snmp_pp:notifyqueue.obj
 0001:00037e90       ??1CSNMPMessageQueueElt@CSNMPMessageQueue@@QAE@XZ 10038e90 f   Snmp_pp:msgqueue.obj
 0001:00037e90       ??1CEventListElt@CEventList@@QAE@XZ 10038e90 f   Snmp_pp:eventlist.obj
 0001:00037f50       ?TestId@CSNMPMessageQueueElt@CSNMPMessageQueue@@QAEPAVCSNMPMessage@@K@Z 10038f50 f   Snmp_pp:msgqueue.obj
 0001:00037fb0       ??0CSNMPMessageQueue@@QAE@PAVEventListHolder@@PAVSnmp@@@Z 10038fb0 f   Snmp_pp:msgqueue.obj
 0001:00038090       ??1CEvents@@UAE@XZ         10039090 f i Snmp_pp:msgqueue.obj
 0001:000380e0       ??_GCEvents@@UAEPAXI@Z     100390e0 f i Snmp_pp:msgqueue.obj
 0001:000380e0       ??_ECEvents@@UAEPAXI@Z     100390e0 f i Snmp_pp:msgqueue.obj
 0001:00038140       ?GetCount@CSNMPMessageQueue@@UAEHXZ 10039140 f i Snmp_pp:msgqueue.obj
 0001:00038140       ?GetCount@CNotifyEventQueue@@UAEHXZ 10039140 f i Snmp_pp:notifyqueue.obj
 0001:00038170       ??_ECSNMPMessageQueue@@UAEPAXI@Z 10039170 f i Snmp_pp:msgqueue.obj
 0001:00038170       ??_GCSNMPMessageQueue@@UAEPAXI@Z 10039170 f i Snmp_pp:msgqueue.obj
 0001:000381d0       ??0CEvents@@QAE@XZ         100391d0 f i Snmp_pp:msgqueue.obj
 0001:00038220       ??1CSNMPMessageQueue@@UAE@XZ 10039220 f   Snmp_pp:msgqueue.obj
 0001:00038330       ?AddEntry@CSNMPMessageQueue@@QAEPAVCSNMPMessage@@KPAVSnmp@@IABVSnmpTarget@@AAVPdu@@PAEIABVAddress@@P6AXH02AAV4@PAX@Z6@Z 10039330 f   Snmp_pp:msgqueue.obj
 0001:00038590       ?GetEntry@CSNMPMessageQueue@@QAEPAVCSNMPMessage@@K@Z 10039590 f   Snmp_pp:msgqueue.obj
 0001:00038610       ?DeleteEntry@CSNMPMessageQueue@@QAEHK@Z 10039610 f   Snmp_pp:msgqueue.obj
 0001:000386d0       ?DeleteSocketEntry@CSNMPMessageQueue@@QAEXI@Z 100396d0 f   Snmp_pp:msgqueue.obj
 0001:00038820       ?GetSocket@CSNMPMessage@@QBEIXZ 10039820 f i Snmp_pp:msgqueue.obj
 0001:00038850       ?GetNextTimeoutEntry@CSNMPMessageQueue@@QAEPAVCSNMPMessage@@XZ 10039850 f   Snmp_pp:msgqueue.obj
 0001:00038970       ??4msec@@QAEAAV0@ABV0@@Z   10039970 f i Snmp_pp:msgqueue.obj
 0001:00038970       ??0msec@@QAE@ABV0@@Z       10039970 f i Snmp_pp:msgqueue.obj
 0001:000389c0       ?GetSendTime@CSNMPMessage@@QBEXAAVmsec@@@Z 100399c0 f i Snmp_pp:msgqueue.obj
 0001:00038a10       ?GetNextTimeout@CSNMPMessageQueue@@UAEHAAVmsec@@@Z 10039a10 f   Snmp_pp:msgqueue.obj
 0001:00038a70       ?GetFdSets@CSNMPMessageQueue@@UAEXAAHAAUfd_set@@11@Z 10039a70 f   Snmp_pp:msgqueue.obj
 0001:00038b90       ?PushId@CSNMPMessageQueue@@QAEXK@Z 10039b90 f   Snmp_pp:msgqueue.obj
 0001:00038d50       ?PeekId@CSNMPMessageQueue@@QAEKXZ 10039d50 f   Snmp_pp:msgqueue.obj
 0001:00038e20       ?HandleEvents@CSNMPMessageQueue@@UAEHHABUfd_set@@00@Z 10039e20 f   Snmp_pp:msgqueue.obj
 0001:000393a0       ?get_address@SnmpTarget@@QBEABVGenAddress@@XZ 1003a3a0 f i Snmp_pp:msgqueue.obj
 0001:000393d0       ?is_discovery_enabled@USM@@QBEHXZ 1003a3d0 f i Snmp_pp:mp_v3.obj
 0001:000393d0       ?GetTarget@CSNMPMessage@@QAEPAVSnmpTarget@@XZ 1003a3d0 f i Snmp_pp:msgqueue.obj
 0001:00039400       ?DoRetries@CSNMPMessageQueue@@UAEHABVmsec@@@Z 1003a400 f   Snmp_pp:msgqueue.obj
 0001:00039650       ??0msec@@QAE@HH@Z          1003a650 f i Snmp_pp:msgqueue.obj
 0001:000396a0       ??N@YAHABVmsec@@0@Z        1003a6a0 f i Snmp_pp:msgqueue.obj
 0001:00039720       ?delete_from_cache@v3MP@@IAEXK_N@Z 1003a720 f i Snmp_pp:msgqueue.obj
 0001:00039770       ?Done@CSNMPMessageQueue@@UAEHXZ 1003a770 f   Snmp_pp:msgqueue.obj
 0001:000397f0       ?GetReceived@CSNMPMessage@@QBEHXZ 1003a7f0 f i Snmp_pp:msgqueue.obj
 0001:00039830       ?Done@CSNMPMessageQueue@@QAEHK@Z 1003a830 f   Snmp_pp:msgqueue.obj
 0001:00039950       ?convertVbToSmival@@YAHABVVb@@PAUSmiVALUE@@@Z 1003a950 f   Snmp_pp:snmpmsg.obj
 0001:00039d40       ??AOid@@QAEAAKI@Z          1003ad40 f i Snmp_pp:snmpmsg.obj
 0001:00039d80       ?freeSmivalDescriptor@@YAXPAUSmiVALUE@@@Z 1003ad80 f   Snmp_pp:snmpmsg.obj
 0001:00039e80       ?unloadv3@SnmpMessage@@QAEHAAVPdu@@AAW4snmp_version@@AAVOctetStr@@2AAJAAVUdpAddress@@AAVSnmp@@@Z 1003ae80 f   Snmp_pp:snmpmsg.obj
 0001:00039f60       ?load@SnmpMessage@@AAEHABVPdu@@ABVOctetStr@@W4snmp_version@@PBV3@3H@Z 1003af60 f   Snmp_pp:snmpmsg.obj
 0001:0003b3f0       ?get_type@SnmpTarget@@QBE?AW4target_type@1@XZ 1003c3f0 f i Snmp_pp:uxsnmp.obj
 0001:0003b3f0       ?get_error_index@Pdu@@QBEHXZ 1003c3f0 f i Snmp_pp:snmpmsg.obj
 0001:0003b420       ?get_notify_id@Pdu@@QBE_NAAVOid@@@Z 1003c420 f i Snmp_pp:snmpmsg.obj
 0001:0003b4a0       ?get_notify_enterprise@Pdu@@QBE_NAAVOid@@@Z 1003c4a0 f i Snmp_pp:snmpmsg.obj
 0001:0003b520       ?get_context_name@Pdu@@QBEABVOctetStr@@XZ 1003c520 f i Snmp_pp:snmpmsg.obj
 0001:0003b560       ?get_message_id@Pdu@@QBEKXZ 1003c560 f i Snmp_pp:snmpmsg.obj
 0001:0003b5a0       ?get_maxsize_scopedpdu@Pdu@@QBEKXZ 1003c5a0 f i Snmp_pp:snmpmsg.obj
 0001:0003b5e0       ?set_null@Vb@@QAEXXZ       1003c5e0 f i Snmp_pp:snmpmsg.obj
 0001:0003b620       ?load@SnmpMessage@@QAEHPAEK@Z 1003c620 f   Snmp_pp:snmpmsg.obj
 0001:0003b6b0       ?unload@SnmpMessage@@AAEHAAVPdu@@AAVOctetStr@@AAW4snmp_version@@PAV3@3PAJPAVUdpAddress@@PAVSnmp@@@Z 1003c6b0 f   Snmp_pp:snmpmsg.obj
 0001:0003c640       ??9@YAHABVAddress@@PBD@Z   1003d640 f i Snmp_pp:snmpmsg.obj
 0001:0003c690       ??0OpaqueStr@@QAE@PBEK@Z   1003d690 f i Snmp_pp:snmpmsg.obj
 0001:0003c6f0       ?set_notify_enterprise@Pdu@@QAE_NABVOid@@@Z 1003d6f0 f i Snmp_pp:snmpmsg.obj
 0001:0003c770       ?set_message_id@Pdu@@QAEXK@Z 1003d770 f i Snmp_pp:snmpmsg.obj
 0001:0003c7b0       ?set_maxsize_scopedpdu@Pdu@@QAEXK@Z 1003d7b0 f i Snmp_pp:snmpmsg.obj
 0001:0003c7f0       ??0Gauge32@@QAE@K@Z        1003d7f0 f i Snmp_pp:snmpmsg.obj
 0001:0003c850       ?set_exception_status@Vb@@QAEXK@Z 1003d850 f i Snmp_pp:snmpmsg.obj
 0001:0003c890       ??0EventListHolder@@QAE@PAVSnmp@@@Z 1003d890 f   Snmp_pp:eventlistholder.obj
 0001:0003ca00       ??0CEventList@@QAE@XZ      1003da00 f i Snmp_pp:eventlistholder.obj
 0001:0003caa0       ??_ECEventList@@UAEPAXI@Z  1003daa0 f i Snmp_pp:eventlistholder.obj
 0001:0003caa0       ??_GCEventList@@UAEPAXI@Z  1003daa0 f i Snmp_pp:eventlistholder.obj
 0001:0003cb00       ?SNMPBlockForResponse@EventListHolder@@QAEHKAAVPdu@@@Z 1003db00 f   Snmp_pp:eventlistholder.obj
 0001:0003cbf0       ?GetPdu@CSNMPMessage@@QAEHAAHAAVPdu@@@Z 1003dbf0 f i Snmp_pp:eventlistholder.obj
 0001:0003cc80       ?SNMPProcessPendingEvents@EventListHolder@@QAEHXZ 1003dc80 f   Snmp_pp:eventlistholder.obj
 0001:0003ce60       ?SNMPProcessEvents@EventListHolder@@QAEHH@Z 1003de60 f   Snmp_pp:eventlistholder.obj
 0001:0003d070       ?IsInfinite@msec@@QBEHXZ   1003e070 f i Snmp_pp:eventlistholder.obj
 0001:0003d0d0       ??1CEventList@@UAE@XZ      1003e0d0 f   Snmp_pp:eventlist.obj
 0001:0003d1c0       ??_GCSNMPMessageQueueElt@CSNMPMessageQueue@@QAEPAXI@Z 1003e1c0 f i Snmp_pp:msgqueue.obj
 0001:0003d1c0       ??_GCEventListElt@CEventList@@QAEPAXI@Z 1003e1c0 f i Snmp_pp:eventlist.obj
 0001:0003d220       ?AddEntry@CEventList@@QAEPAVCEvents@@PAV2@@Z 1003e220 f   Snmp_pp:eventlist.obj
 0001:0003d350       ?GetNextTimeout@CEventList@@QAEHAAVmsec@@@Z 1003e350 f   Snmp_pp:eventlist.obj
 0001:0003d4e0       ?SetInfinite@msec@@QAEXXZ  1003e4e0 f i Snmp_pp:eventlist.obj
 0001:0003d530       ?GetFdSets@CEventList@@QAEXAAHAAUfd_set@@11@Z 1003e530 f   Snmp_pp:eventlist.obj
 0001:0003d690       ?HandleEvents@CEventList@@QAEHHABUfd_set@@00@Z 1003e690 f   Snmp_pp:eventlist.obj
 0001:0003d790       ?DoRetries@CEventList@@QAEHABVmsec@@@Z 1003e790 f   Snmp_pp:eventlist.obj
 0001:0003d8d0       ?init@LogEntry@@UAEXXZ     1003e8d0 f   Snmp_pp:log.obj
 0001:0003db40       ?get_level@LogEntry@@QBEEXZ 1003eb40 f i Snmp_pp:log.obj
 0001:0003db80       ??YLogEntry@@UAEAAV0@PBD@Z 1003eb80 f   Snmp_pp:log.obj
 0001:0003dc80       ??YLogEntry@@UAEAAV0@J@Z   1003ec80 f   Snmp_pp:log.obj
 0001:0003dd60       ?add_integer@LogEntry@@MAE_NJ@Z 1003ed60 f   Snmp_pp:log.obj
 0001:0003de00       ?add_timestamp@LogEntry@@MAE_NXZ 1003ee00 f   Snmp_pp:log.obj
 0001:0003de80       ??0LogEntryImpl@@QAE@E@Z   1003ee80 f   Snmp_pp:log.obj
 0001:0003df40       ??0LogEntry@@QAE@E@Z       1003ef40 f i Snmp_pp:log.obj
 0001:0003df90       ??1LogEntry@@UAE@XZ        1003ef90 f i Snmp_pp:log.obj
 0001:0003dfd0       ?get_value@LogEntry@@UBEPBDXZ 1003efd0 f i Snmp_pp:log.obj
 0001:0003e000       ??_ELogEntry@@UAEPAXI@Z    1003f000 f i Snmp_pp:log.obj
 0001:0003e000       ??_GLogEntry@@UAEPAXI@Z    1003f000 f i Snmp_pp:log.obj
 0001:0003e060       ??_ELogEntryImpl@@UAEPAXI@Z 1003f060 f i Snmp_pp:log.obj
 0001:0003e060       ??_GLogEntryImpl@@UAEPAXI@Z 1003f060 f i Snmp_pp:log.obj
 0001:0003e0c0       ??1LogEntryImpl@@UAE@XZ    1003f0c0 f   Snmp_pp:log.obj
 0001:0003e150       ?add_string@LogEntryImpl@@MAE_NPBD@Z 1003f150 f   Snmp_pp:log.obj
 0001:0003e220       ?bytes_left@LogEntryImpl@@IAEIXZ 1003f220 f i Snmp_pp:log.obj
 0001:0003e260       ??0AgentLog@@QAE@XZ        1003f260 f   Snmp_pp:log.obj
 0001:0003e2d0       ?lock@AgentLog@@UAEXXZ     1003f2d0 f i Snmp_pp:log.obj
 0001:0003e2d0       ?unlock@AgentLog@@UAEXXZ   1003f2d0 f i Snmp_pp:log.obj
 0001:0003e300       ?log_needed@AgentLog@@UAE_NE@Z 1003f300 f i Snmp_pp:log.obj
 0001:0003e360       ??_EAgentLog@@UAEPAXI@Z    1003f360 f i Snmp_pp:log.obj
 0001:0003e360       ??_GAgentLog@@UAEPAXI@Z    1003f360 f i Snmp_pp:log.obj
 0001:0003e3c0       ??1AgentLog@@UAE@XZ        1003f3c0 f i Snmp_pp:log.obj
 0001:0003e400       ?set_filter@AgentLog@@UAEXHE@Z 1003f400 f   Snmp_pp:log.obj
 0001:0003e460       ?get_filter@AgentLog@@UBEEH@Z 1003f460 f   Snmp_pp:log.obj
 0001:0003e4c0       ?now@AgentLog@@UAEPBDPAD@Z 1003f4c0 f   Snmp_pp:log.obj
 0001:0003e580       ??0AgentLogImpl@@QAE@PAU_iobuf@@@Z 1003f580 f   Snmp_pp:log.obj
 0001:0003e620       ?lock@AgentLogImpl@@UAEXXZ 1003f620 f i Snmp_pp:log.obj
 0001:0003e670       ?unlock@AgentLogImpl@@UAEXXZ 1003f670 f i Snmp_pp:log.obj
 0001:0003e6c0       ??_GAgentLogImpl@@UAEPAXI@Z 1003f6c0 f i Snmp_pp:log.obj
 0001:0003e6c0       ??_EAgentLogImpl@@UAEPAXI@Z 1003f6c0 f i Snmp_pp:log.obj
 0001:0003e720       ??1AgentLogImpl@@UAE@XZ    1003f720 f   Snmp_pp:log.obj
 0001:0003e7d0       ?set_dest@AgentLogImpl@@QAEXPAU_iobuf@@@Z 1003f7d0 f   Snmp_pp:log.obj
 0001:0003e830       ?create_log_entry@AgentLogImpl@@UBEPAVLogEntry@@E@Z 1003f830 f   Snmp_pp:log.obj
 0001:0003e8f0       ??YAgentLogImpl@@UAEAAVAgentLog@@PBVLogEntry@@@Z 1003f8f0 f   Snmp_pp:log.obj
 0001:0003e9a0       ?get_class@LogEntry@@QBEEXZ 1003f9a0 f i Snmp_pp:log.obj
 0001:0003e9e0       ??0CNotifyEvent@@QAE@PAVSnmp@@ABV?$SnmpCollection@VOid@@@@ABV?$SnmpCollection@VSnmpTarget@@@@ABV?$SnmpCollection@VGenAddress@@@@@Z 1003f9e0 f   Snmp_pp:notifyqueue.obj
 0001:0003eb70       ??1CNotifyEvent@@QAE@XZ    1003fb70 f   Snmp_pp:notifyqueue.obj
 0001:0003eca0       ??_G?$SnmpCollection@VSnmpTarget@@@@QAEPAXI@Z 1003fca0 f i Snmp_pp:notifyqueue.obj
 0001:0003ed00       ??_G?$SnmpCollection@VOid@@@@QAEPAXI@Z 1003fd00 f i Snmp_pp:notifyqueue.obj
 0001:0003ed00       ??_G?$SnmpCollection@VGenAddress@@@@QAEPAXI@Z 1003fd00 f i Snmp_pp:notifyqueue.obj
 0001:0003ed60       ?notify_filter@CNotifyEvent@@QBEHABVOid@@AAVSnmpTarget@@@Z 1003fd60 f   Snmp_pp:notifyqueue.obj
 0001:0003f410       ?get_readcommunity@CTarget@@QBEPBDXZ 10040410 f i Snmp_pp:notifyqueue.obj
 0001:0003f460       ?get_security_name@UTarget@@QBEABVOctetStr@@XZ 10040460 f i Snmp_pp:notifyqueue.obj
 0001:0003f490       ?get_security_model@UTarget@@QBEHXZ 10040490 f i Snmp_pp:notifyqueue.obj
 0001:0003f4d0       ?Callback@CNotifyEvent@@QAEHAAVSnmpTarget@@AAVPdu@@IH@Z 100404d0 f   Snmp_pp:notifyqueue.obj
 0001:0003f610       ?get_notify_callback@Snmp@@QAEP6AXHPAV1@AAVPdu@@AAVSnmpTarget@@PAX@ZXZ 10040610 f i Snmp_pp:notifyqueue.obj
 0001:0003f650       ?get_notify_callback_data@Snmp@@QAEPAXXZ 10040650 f i Snmp_pp:notifyqueue.obj
 0001:0003f690       ??1CNotifyEventQueueElt@CNotifyEventQueue@@QAE@XZ 10040690 f   Snmp_pp:notifyqueue.obj
 0001:0003f740       ??_GCNotifyEvent@@QAEPAXI@Z 10040740 f i Snmp_pp:notifyqueue.obj
 0001:0003f7a0       ?TestId@CNotifyEventQueueElt@CNotifyEventQueue@@QAEPAVCNotifyEvent@@PAVSnmp@@@Z 100407a0 f   Snmp_pp:notifyqueue.obj
 0001:0003f800       ??0CNotifyEventQueue@@QAE@PAVEventListHolder@@PAVSnmp@@@Z 10040800 f   Snmp_pp:notifyqueue.obj
 0001:0003f8e0       ?GetNextTimeout@CNotifyEventQueue@@UAEHAAVmsec@@@Z 100408e0 f i Snmp_pp:notifyqueue.obj
 0001:0003f920       ?DoRetries@CNotifyEventQueue@@UAEHABVmsec@@@Z 10040920 f i Snmp_pp:notifyqueue.obj
 0001:0003f950       ??_ECNotifyEventQueue@@UAEPAXI@Z 10040950 f i Snmp_pp:notifyqueue.obj
 0001:0003f950       ??_GCNotifyEventQueue@@UAEPAXI@Z 10040950 f i Snmp_pp:notifyqueue.obj
 0001:0003f9b0       ??1CNotifyEventQueue@@UAE@XZ 100409b0 f   Snmp_pp:notifyqueue.obj
 0001:0003fab0       ?GetNext@CNotifyEventQueueElt@CNotifyEventQueue@@QAEPAV12@XZ 10040ab0 f i Snmp_pp:notifyqueue.obj
 0001:0003fab0       ?GetId@CSNMPMessage@@QBEKXZ 10040ab0 f i Snmp_pp:msgqueue.obj
 0001:0003fab0       ?GetNext@CEventListElt@CEventList@@QAEPAV12@XZ 10040ab0 f i Snmp_pp:eventlist.obj
 0001:0003fab0       ?GetNext@CSNMPMessageQueueElt@CSNMPMessageQueue@@QAEPAV12@XZ 10040ab0 f i Snmp_pp:msgqueue.obj
 0001:0003fae0       ??_GCNotifyEventQueueElt@CNotifyEventQueue@@QAEPAXI@Z 10040ae0 f i Snmp_pp:notifyqueue.obj
 0001:0003fb40       ?get_notify_fd@CNotifyEventQueue@@QBEIH@Z 10040b40 f   Snmp_pp:notifyqueue.obj
 0001:0003fb90       ?AddEntry@CNotifyEventQueue@@QAEHPAVSnmp@@ABV?$SnmpCollection@VOid@@@@ABV?$SnmpCollection@VSnmpTarget@@@@ABV?$SnmpCollection@VGenAddress@@@@@Z 10040b90 f   Snmp_pp:notifyqueue.obj
 0001:00040310       ?get_listen_address@Snmp@@QBEABVIpAddress@@XZ 10041310 f i Snmp_pp:notifyqueue.obj
 0001:00040340       ?GetEntry@CNotifyEventQueue@@QAEPAVCNotifyEvent@@PAVSnmp@@@Z 10041340 f   Snmp_pp:notifyqueue.obj
 0001:00040460       ?DeleteEntry@CNotifyEventQueue@@QAEXPAVSnmp@@@Z 10041460 f   Snmp_pp:notifyqueue.obj
 0001:00040670       ?GetFdSets@CNotifyEventQueue@@UAEXAAHAAUfd_set@@11@Z 10041670 f   Snmp_pp:notifyqueue.obj
 0001:000407a0       ?HandleEvents@CNotifyEventQueue@@UAEHHABUfd_set@@00@Z 100417a0 f   Snmp_pp:notifyqueue.obj
 0001:00040a70       ?get_element@?$SnmpCollection@VOid@@@@QBEHAAVOid@@H@Z 10041a70 f i Snmp_pp:notifyqueue.obj
 0001:00040b30       ??0?$SnmpCollection@VSnmpTarget@@@@QAE@ABV0@@Z 10041b30 f i Snmp_pp:notifyqueue.obj
 0001:00040cc0       ??1?$SnmpCollection@VSnmpTarget@@@@QAE@XZ 10041cc0 f i Snmp_pp:notifyqueue.obj
 0001:00040d00       ??0?$SnmpCollection@VOid@@@@QAE@ABV0@@Z 10041d00 f i Snmp_pp:notifyqueue.obj
 0001:00040d00       ??0?$SnmpCollection@VGenAddress@@@@QAE@ABV0@@Z 10041d00 f i Snmp_pp:notifyqueue.obj
 0001:00040e90       ??Y?$SnmpCollection@VGenAddress@@@@QAEAAV0@ABVGenAddress@@@Z 10041e90 f i Snmp_pp:notifyqueue.obj
 0001:00041000       ??A?$SnmpCollection@VGenAddress@@@@QBE?AVGenAddress@@H@Z 10042000 f i Snmp_pp:notifyqueue.obj
 0001:00041150       ??8@YAHABVmsec@@0@Z        10042150 f   Snmp_pp:msec.obj
 0001:000411b0       ??M@YAHABVmsec@@0@Z        100421b0 f   Snmp_pp:msec.obj
 0001:00041240       ??O@YAHABVmsec@@0@Z        10042240 f   Snmp_pp:msec.obj
 0001:000412d0       ??Ymsec@@QAEAAV0@J@Z       100422d0 f   Snmp_pp:msec.obj
 0001:00041370       ??Ymsec@@QAEAAV0@ABUtimeval@@@Z 10042370 f   Snmp_pp:msec.obj
 0001:00041430       ?refresh@msec@@QAEXXZ      10042430 f   Snmp_pp:msec.obj
 0001:000414d0       ?GetDelta@msec@@QBEXABV1@AAUtimeval@@@Z 100424d0 f   Snmp_pp:msec.obj
 0001:000415d0       ?asn_parse_int@@YAPAEPAEPAH0PAJH@Z 100425d0 f   Snmp_pp:asn1.obj
 0001:000417a0       ?asn_parse_unsigned_int@@YAPAEPAEPAH0PAKH@Z 100427a0 f   Snmp_pp:asn1.obj
 0001:000419a0       ?asn_build_int@@YAPAEPAEPAHEPBJH@Z 100429a0 f   Snmp_pp:asn1.obj
 0001:00041ab0       ?asn_build_unsigned_int@@YAPAEPAEPAHEPAKH@Z 10042ab0 f   Snmp_pp:asn1.obj
 0001:00041c30       ?asn_parse_string@@YAPAEPAEPAH001@Z 10042c30 f   Snmp_pp:asn1.obj
 0001:00041da0       ?asn_build_string@@YAPAEPAEPAHEPBEH@Z 10042da0 f   Snmp_pp:asn1.obj
 0001:00041e30       ?asn_parse_header@@YAPAEPAEPAH0@Z 10042e30 f   Snmp_pp:asn1.obj
 0001:00041f30       ?asn_build_header@@YAPAEPAEPAHEH@Z 10042f30 f   Snmp_pp:asn1.obj
 0001:00041fa0       ?asn_build_sequence@@YAPAEPAEPAHEH@Z 10042fa0 f   Snmp_pp:asn1.obj
 0001:00042050       ?asn_parse_length@@YAPAEPAEPAK@Z 10043050 f   Snmp_pp:asn1.obj
 0001:00042180       ?asn_build_length@@YAPAEPAEPAHH@Z 10043180 f   Snmp_pp:asn1.obj
 0001:000423f0       ?asn_parse_objid@@YAPAEPAEPAH0PAK1@Z 100433f0 f   Snmp_pp:asn1.obj
 0001:00042650       ?asn_build_objid@@YAPAEPAEPAHEPAKH@Z 10043650 f   Snmp_pp:asn1.obj
 0001:00042940       ?asn_build_null@@YAPAEPAEPAHE@Z 10043940 f   Snmp_pp:asn1.obj
 0001:00042990       ?asn_build_bitstring@@YAPAEPAEPAHE0H@Z 10043990 f   Snmp_pp:asn1.obj
 0001:00042a50       ?asn_parse_unsigned_int64@@YAPAEPAEPAH0PAUcounter64@@H@Z 10043a50 f   Snmp_pp:asn1.obj
 0001:00042c70       ?asn_build_unsigned_int64@@YAPAEPAEPAHEPAUcounter64@@H@Z 10043c70 f   Snmp_pp:asn1.obj
 0001:00042e00       ?snmp_pdu_create@@YAPAUsnmp_pdu@@H@Z 10043e00 f   Snmp_pp:asn1.obj
 0001:00042ea0       ?clear_pdu@@YAXPAUsnmp_pdu@@_N@Z 10043ea0 f   Snmp_pp:asn1.obj
 0001:00042ff0       ?snmp_free_pdu@@YAXPAUsnmp_pdu@@@Z 10043ff0 f   Snmp_pp:asn1.obj
 0001:00043050       ?snmp_add_var@@YAXPAUsnmp_pdu@@PAKHPAUSmiVALUE@@@Z 10044050 f   Snmp_pp:asn1.obj
 0001:00043420       ?snmp_build_var_op@@YAPAEPAEPAKPAHEH02@Z 10044420 f   Snmp_pp:asn1.obj
 0001:00043840       ?build_vb@@YAPAEPAUsnmp_pdu@@PAEPAH@Z 10044840 f   Snmp_pp:asn1.obj
 0001:00043a40       ?build_data_pdu@@YAPAEPAUsnmp_pdu@@PAEPAH1H@Z 10044a40 f   Snmp_pp:asn1.obj
 0001:00043e90       ?snmp_build@@YAHPAUsnmp_pdu@@PAEPAHJPBEH@Z 10044e90 f   Snmp_pp:asn1.obj
 0001:00044210       ?snmp_parse_var_op@@YAPAEPAEPAKPAH02PAPAE2@Z 10045210 f   Snmp_pp:asn1.obj
 0001:000443c0       ?snmp_parse_vb@@YAHPAUsnmp_pdu@@AAPAEAAH@Z 100453c0 f   Snmp_pp:asn1.obj
 0001:00044860       ?snmp_parse_data_pdu@@YAHPAUsnmp_pdu@@AAPAEAAH@Z 10045860 f   Snmp_pp:asn1.obj
 0001:00044ba0       ?snmp_parse@@YAHPAUsnmp_pdu@@PAEH1AAHAAW4snmp_version@@@Z 10045ba0 f   Snmp_pp:asn1.obj
 0001:00044dd0       ?asn1_parse_header_data@@YAPAEPAEPAHPAJ202@Z 10045dd0 f   Snmp_pp:asn1.obj
 0001:00045000       ?asn1_build_header_data@@YAPAEPAEPAHJJEJ@Z 10046000 f   Snmp_pp:asn1.obj
 0001:00045240       ?asn1_parse_scoped_pdu@@YAPAEPAEPAH0101@Z 10046240 f   Snmp_pp:asn1.obj
 0001:00045380       ?asn1_build_scoped_pdu@@YAPAEPAEPAH0J0J0J@Z 10046380 f   Snmp_pp:asn1.obj
 0001:00045b00       ??0AuthPriv@@QAE@AAH@Z     10046b00 f   Snmp_pp:auth_priv.obj
 0001:00045f60       ??1AuthPriv@@QAE@XZ        10046f60 f   Snmp_pp:auth_priv.obj
 0001:00046100       ?add_auth@AuthPriv@@QAEHPAVAuth@@@Z 10047100 f   Snmp_pp:auth_priv.obj
 0001:000465d0       ?add_priv@AuthPriv@@QAEHPAVPriv@@@Z 100475d0 f   Snmp_pp:auth_priv.obj
 0001:00046aa0       ?get_auth@AuthPriv@@QAEPAVAuth@@H@Z 10047aa0 f   Snmp_pp:auth_priv.obj
 0001:00046af0       ?get_priv@AuthPriv@@QAEPAVPriv@@H@Z 10047af0 f   Snmp_pp:auth_priv.obj
 0001:00046b40       ?password_to_key_auth@AuthPriv@@QAEHHPBEI0IPAEPAI@Z 10047b40 f   Snmp_pp:auth_priv.obj
 0001:00046ce0       ?password_to_key_priv@AuthPriv@@QAEHHHPBEI0IPAEPAI@Z 10047ce0 f   Snmp_pp:auth_priv.obj
 0001:00046f40       ?encrypt_msg@AuthPriv@@QAEHHPBEI0IPAEPAI12KK@Z 10047f40 f   Snmp_pp:auth_priv.obj
 0001:00046fe0       ?decrypt_msg@AuthPriv@@QAEHHPBEI0IPAEPAI0IKK@Z 10047fe0 f   Snmp_pp:auth_priv.obj
 0001:00047080       ?add_default_modules@AuthPriv@@QAEHXZ 10048080 f   Snmp_pp:auth_priv.obj
 0001:00047550       ??0AuthSHA@@QAE@XZ         10048550 f i Snmp_pp:auth_priv.obj
 0001:000475a0       ?set_salt@Auth@@UAEXPA_K@Z 100485a0 f i Snmp_pp:auth_priv.obj
 0001:000475a0       ?set_salt@Priv@@UAEXPA_K@Z 100485a0 f i Snmp_pp:auth_priv.obj
 0001:000475e0       ?get_id@AuthSHA@@UBEHXZ    100485e0 f i Snmp_pp:auth_priv.obj
 0001:00047610       ?get_id_string@AuthSHA@@UBEPBDXZ 10048610 f i Snmp_pp:auth_priv.obj
 0001:00047640       ?get_hash_len@AuthSHA@@UBEHXZ 10048640 f i Snmp_pp:auth_priv.obj
 0001:00047670       ??0AuthMD5@@QAE@XZ         10048670 f i Snmp_pp:auth_priv.obj
 0001:000476c0       ?get_id_string@AuthMD5@@UBEPBDXZ 100486c0 f i Snmp_pp:auth_priv.obj
 0001:000476f0       ?get_auth_params_len@AuthSHA@@UBEHXZ 100486f0 f i Snmp_pp:auth_priv.obj
 0001:000476f0       ?get_auth_params_len@AuthMD5@@UBEHXZ 100486f0 f i Snmp_pp:auth_priv.obj
 0001:00047720       ??0PrivDES@@QAE@XZ         10048720 f i Snmp_pp:auth_priv.obj
 0001:00047770       ?extend_short_key@PrivDES@@UAEHPBEI0IPAEPAIIPAVAuth@@@Z 10048770 f i Snmp_pp:auth_priv.obj
 0001:000477b0       ?get_id_string@PrivDES@@UBEPBDXZ 100487b0 f i Snmp_pp:auth_priv.obj
 0001:000477e0       ?get_priv_params_len@PrivDES@@UBEHXZ 100487e0 f i Snmp_pp:auth_priv.obj
 0001:00047810       ?get_hash_len@AuthMD5@@UBEHXZ 10048810 f i Snmp_pp:auth_priv.obj
 0001:00047810       ?get_min_key_len@PrivDES@@UBEHXZ 10048810 f i Snmp_pp:auth_priv.obj
 0001:00047840       ?fix_key_len@PrivDES@@UBEXAAI@Z 10048840 f i Snmp_pp:auth_priv.obj
 0001:00047880       ??0Auth@@QAE@XZ            10048880 f i Snmp_pp:auth_priv.obj
 0001:000478c0       ??_GAuth@@UAEPAXI@Z        100488c0 f i Snmp_pp:auth_priv.obj
 0001:000478c0       ??_EAuth@@UAEPAXI@Z        100488c0 f i Snmp_pp:auth_priv.obj
 0001:00047920       ??1Auth@@UAE@XZ            10048920 f i Snmp_pp:auth_priv.obj
 0001:00047960       ??_GAuthSHA@@UAEPAXI@Z     10048960 f i Snmp_pp:auth_priv.obj
 0001:00047960       ??_EAuthSHA@@UAEPAXI@Z     10048960 f i Snmp_pp:auth_priv.obj
 0001:00047960       ??_EAuthMD5@@UAEPAXI@Z     10048960 f i Snmp_pp:auth_priv.obj
 0001:00047960       ??_GAuthMD5@@UAEPAXI@Z     10048960 f i Snmp_pp:auth_priv.obj
 0001:000479c0       ??_EPrivDES@@UAEPAXI@Z     100489c0 f i Snmp_pp:auth_priv.obj
 0001:000479c0       ??_GPrivDES@@UAEPAXI@Z     100489c0 f i Snmp_pp:auth_priv.obj
 0001:00047a20       ??0Priv@@QAE@XZ            10048a20 f i Snmp_pp:auth_priv.obj
 0001:00047a60       ??_GPriv@@UAEPAXI@Z        10048a60 f i Snmp_pp:auth_priv.obj
 0001:00047a60       ??_EPriv@@UAEPAXI@Z        10048a60 f i Snmp_pp:auth_priv.obj
 0001:00047ac0       ??1Priv@@UAE@XZ            10048ac0 f i Snmp_pp:auth_priv.obj
 0001:00047b00       ??1AuthSHA@@UAE@XZ         10048b00 f i Snmp_pp:auth_priv.obj
 0001:00047b00       ??1AuthMD5@@UAE@XZ         10048b00 f i Snmp_pp:auth_priv.obj
 0001:00047b40       ??1PrivDES@@UAE@XZ         10048b40 f i Snmp_pp:auth_priv.obj
 0001:00047b80       ?get_auth_params_len@AuthPriv@@QAEHH@Z 10048b80 f   Snmp_pp:auth_priv.obj
 0001:00047bf0       ?get_priv_params_len@AuthPriv@@QAEHH@Z 10048bf0 f   Snmp_pp:auth_priv.obj
 0001:00047c60       ?auth_out_msg@AuthPriv@@QAEHHPBEPAEH1@Z 10048c60 f   Snmp_pp:auth_priv.obj
 0001:00047cf0       ?auth_inc_msg@AuthPriv@@QAEHHPBEPAEH1H@Z 10048cf0 f   Snmp_pp:auth_priv.obj
 0001:00047d80       ?password_to_key@AuthSHA@@UAEHPBEI0IPAEPAI@Z 10048d80 f   Snmp_pp:auth_priv.obj
 0001:00047f70       ?hash@AuthSHA@@UBEHPBEIPAE@Z 10048f70 f   Snmp_pp:auth_priv.obj
 0001:00048020       ?auth_out_msg@AuthSHA@@UAEHPBEPAEH1@Z 10049020 f   Snmp_pp:auth_priv.obj
 0001:00048230       ?auth_inc_msg@AuthSHA@@UAEHPBEPAEH1H@Z 10049230 f   Snmp_pp:auth_priv.obj
 0001:00048390       ?password_to_key@AuthMD5@@UAEHPBEI0IPAEPAI@Z 10049390 f   Snmp_pp:auth_priv.obj
 0001:00048580       ?hash@AuthMD5@@UBEHPBEIPAE@Z 10049580 f   Snmp_pp:auth_priv.obj
 0001:00048630       ?auth_out_msg@AuthMD5@@UAEHPBEPAEH1@Z 10049630 f   Snmp_pp:auth_priv.obj
 0001:00048850       ?auth_inc_msg@AuthMD5@@UAEHPBEPAEH1H@Z 10049850 f   Snmp_pp:auth_priv.obj
 0001:000489b0       ?encrypt@PrivDES@@UAEHPBEI0IPAEPAI12KK@Z 100499b0 f   Snmp_pp:auth_priv.obj
 0001:00048cd0       ?decrypt@PrivDES@@UAEHPBEI0IPAEPAI0IKK@Z 10049cd0 f   Snmp_pp:auth_priv.obj
 0001:00048e60       ?SHAInit@@YAXPAUSHA_CTX@@@Z 10049e60 f   Snmp_pp:sha.obj
 0001:00048f50       ?SHAUpdate@@YAXPAUSHA_CTX@@PBEI@Z 10049f50 f   Snmp_pp:sha.obj
 0001:00049510       ?SHAFinal@@YAXPAEPAUSHA_CTX@@@Z 1004a510 f   Snmp_pp:sha.obj
 0001:00049770       _MD5Init                   1004a770 f   Snmp_pp:md5c.obj
 0001:000497d0       _MD5Update                 1004a7d0 f   Snmp_pp:md5c.obj
 0001:00049900       _MD5Final                  1004a900 f   Snmp_pp:md5c.obj
 0001:0004aa90       _des_ncbc_encrypt          1004ba90 f   Snmp_pp:ncbc_enc.obj
 0001:0004b760       _des_is_weak_key           1004c760 f   Snmp_pp:set_key.obj
 0001:0004b7e0       _des_set_key               1004c7e0 f   Snmp_pp:set_key.obj
 0001:0004bc50       _des_key_sched             1004cc50 f   Snmp_pp:set_key.obj
 0001:0004bca0       _des_encrypt               1004cca0 f   Snmp_pp:des_enc.obj
 0001:0004c4d6       ??2@YAPAXI@Z               1004d4d6 f   msvcprt:newop_s.obj
 0001:0004c4fb       ??_U@YAPAXI@Z              1004d4fb f   msvcprt:newaop_s.obj
 0001:0004c500       _WSACleanup@0              1004d500 f   wsock32:WSOCK32.dll
 0001:0004c506       _WSAStartup@8              1004d506 f   wsock32:WSOCK32.dll
 0001:0004c50c       _htonl@4                   1004d50c f   wsock32:WSOCK32.dll
 0001:0004c512       _WSAGetLastError@0         1004d512 f   wsock32:WSOCK32.dll
 0001:0004c518       _inet_ntoa@4               1004d518 f   wsock32:WSOCK32.dll
 0001:0004c51e       _gethostbyname@4           1004d51e f   wsock32:WSOCK32.dll
 0001:0004c524       _inet_addr@4               1004d524 f   wsock32:WSOCK32.dll
 0001:0004c52a       _ntohl@4                   1004d52a f   wsock32:WSOCK32.dll
 0001:0004c530       _htons@4                   1004d530 f   wsock32:WSOCK32.dll
 0001:0004c536       _ntohs@4                   1004d536 f   wsock32:WSOCK32.dll
 0001:0004c53c       _select@20                 1004d53c f   wsock32:WSOCK32.dll
 0001:0004c542       _sendto@24                 1004d542 f   wsock32:WSOCK32.dll
 0001:0004c548       _recvfrom@24               1004d548 f   wsock32:WSOCK32.dll
 0001:0004c54e       _setsockopt@20             1004d54e f   wsock32:WSOCK32.dll
 0001:0004c554       _closesocket@4             1004d554 f   wsock32:WSOCK32.dll
 0001:0004c55a       _bind@12                   1004d55a f   wsock32:WSOCK32.dll
 0001:0004c560       _socket@12                 1004d560 f   wsock32:WSOCK32.dll
 0001:0004c566       ___WSAFDIsSet@8            1004d566 f   wsock32:WSOCK32.dll
 0001:0004c56c       _gethostname@8             1004d56c f   wsock32:WSOCK32.dll
 0001:0004c572       ___CxxFrameHandler         1004d572 f   MSVCRT:MSVCR71.dll
 0001:0004c580       ??3@YAXPAX@Z               1004d580 f   MSVCRT:MSVCR71.dll
 0001:0004c5b7       @__security_check_cookie@4 1004d5b7 f   MSVCRT:secchk.obj
 0001:0004c5c6       ??0exception@@QAE@ABV0@@Z  1004d5c6 f   MSVCRT:MSVCR71.dll
 0001:0004c5cc       ??_Etype_info@@UAEPAXI@Z   1004d5cc f i MSVCRT:ti_inst.obj
 0001:0004c618       __CxxThrowException@8      1004d618 f   MSVCRT:MSVCR71.dll
 0001:0004c61e       _malloc                    1004d61e f   MSVCRT:MSVCR71.dll
 0001:0004c630       __chkstk                   1004d630 f   MSVCRT:chkstk.obj
 0001:0004c630       __alloca_probe             1004d630     MSVCRT:chkstk.obj
 0001:0004c66d       __onexit                   1004d66d f   MSVCRT:atonexit.obj
 0001:0004c693       _atexit                    1004d693 f   MSVCRT:atonexit.obj
 0001:0004c6b0       __allshr                   1004d6b0 f   MSVCRT:llshr.obj
 0001:0004c6e0       __allshl                   1004d6e0 f   MSVCRT:llshl.obj
 0001:0004c700       __allrem                   1004d700 f   MSVCRT:llrem.obj
 0001:0004c7b4       __ftol2                    1004d7b4 f   MSVCRT:ftol2.obj
 0001:0004c82a       __purecall                 1004d82a f   MSVCRT:MSVCR71.dll
 0001:0004c830       __alldiv                   1004d830 f   MSVCRT:lldiv.obj
 0001:0004c8e0       __allmul                   1004d8e0 f   MSVCRT:llmul.obj
 0001:0004c914       ??_V@YAXPAX@Z              1004d914 f   MSVCRT:MSVCR71.dll
 0001:0004c91a       __CRT_INIT@12              1004d91a f   MSVCRT:crtdll.obj
 0001:0004c9d8       __DllMainCRTStartup@12     1004d9d8 f   MSVCRT:crtdll.obj
 0001:0004cabc       _memset                    1004dabc f   MSVCRT:MSVCR71.dll
 0001:0004cac2       __RTC_CheckEsp             1004dac2 f   MSVCRT:stack.obj
 0001:0004cae5       @_RTC_CheckStackVars@8     1004dae5 f   MSVCRT:stack.obj
 0001:0004cb3f       __RTC_InitBase             1004db3f f   MSVCRT:init.obj
 0001:0004cb65       __RTC_Shutdown             1004db65 f   MSVCRT:init.obj
 0001:0004cb78       _strcmp                    1004db78 f   MSVCRT:MSVCR71.dll
 0001:0004cb7e       _strcpy                    1004db7e f   MSVCRT:MSVCR71.dll
 0001:0004cb84       _memcpy                    1004db84 f   MSVCRT:MSVCR71.dll
 0001:0004cb8a       _strlen                    1004db8a f   MSVCRT:MSVCR71.dll
 0001:0004cdc2       ?_RTC_Failure@@YAXPAXH@Z   1004ddc2 f   MSVCRT:error.obj
 0001:0004ce00       ?_RTC_StackFailure@@YAXPAXPBD@Z 1004de00 f   MSVCRT:error.obj
 0001:0004ce8c       __RTC_UninitUse            1004de8c f   MSVCRT:error.obj
 0001:0004cf32       _strcat                    1004df32 f   MSVCRT:MSVCR71.dll
 0001:0004cf38       ?__ArrayUnwind@@YGXPAXIHP6EX0@Z@Z 1004df38 f   MSVCRT:ehvecdtr.obj
 0001:0004cf96       ??_M@YGXPAXIHP6EX0@Z@Z     1004df96 f   MSVCRT:ehvecdtr.obj
 0001:0004cff6       ??_L@YGXPAXIHP6EX0@Z1@Z    1004dff6 f   MSVCRT:ehvecctr.obj
 0001:0004d058       _labs                      1004e058 f   MSVCRT:MSVCR71.dll
 0001:0004d060       __aulldiv                  1004e060 f   MSVCRT:ulldiv.obj
 0001:0004d0d0       __aullshr                  1004e0d0 f   MSVCRT:ullshr.obj
 0001:0004d0f0       _memcmp                    1004e0f0 f   MSVCRT:MSVCR71.dll
 0001:0004d0f6       __lrotr                    1004e0f6 f   MSVCRT:MSVCR71.dll
 0001:0004d0fc       __callnewh                 1004e0fc f   MSVCRT:MSVCR71.dll
 0001:0004d102       ___security_init_cookie    1004e102 f   MSVCRT:seccinit.obj
 0001:0004d168       ___security_error_handler  1004e168 f   MSVCRT:MSVCR71.dll
 0001:0004d170       __SEH_prolog               1004e170 f   MSVCRT:sehprolg.obj
 0001:0004d1ab       __SEH_epilog               1004e1ab f   MSVCRT:sehprolg.obj
 0001:0004d1bc       __except_handler3          1004e1bc f   MSVCRT:MSVCR71.dll
 0001:0004d1c2       ??1type_info@@UAE@XZ       1004e1c2 f   MSVCRT:MSVCR71.dll
 0001:0004d1c8       ___dllonexit               1004e1c8 f   MSVCRT:MSVCR71.dll
 0001:0004d1ce       __initterm                 1004e1ce f   MSVCRT:MSVCR71.dll
 0001:0004d1d4       __RTC_Initialize           1004e1d4 f   MSVCRT:initsect.obj
 0001:0004d218       __RTC_Terminate            1004e218 f   MSVCRT:initsect.obj
 0001:0004d25c       ___CppXcptFilter           1004e25c f   MSVCRT:MSVCR71.dll
 0001:0004d262       _DllMain@12                1004e262 f   MSVCRT:dllmain.obj
 0001:0004d282       __RTC_SetErrorFunc         1004e282 f   MSVCRT:userapi.obj
 0001:0004d292       ?_RTC_GetErrorFunc@@YAP6AHHPBDH00ZZPBX@Z 1004e292 f   MSVCRT:userapi.obj
 0001:0004d298       __CRT_RTC_INIT             1004e298 f   MSVCRT:MSVCR71.dll
 0001:0004d727       ?_RTC_GetSrcLine@@YAHKPADHPAHPAPAD@Z 1004e727 f   MSVCRT:pdblkup.obj
 0001:0004da76       ?terminate@@YAXXZ          1004ea76 f   MSVCRT:MSVCR71.dll
 0002:00000000       __imp__GetCurrentProcess@0 10052000     kernel32:KERNEL32.dll
 0002:00000004       __imp__Sleep@4             10052004     kernel32:KERNEL32.dll
 0002:00000008       __imp__WritePrivateProfileStringA@16 10052008     kernel32:KERNEL32.dll
 0002:0000000c       __imp__FreeLibrary@4       1005200c     kernel32:KERNEL32.dll
 0002:00000010       __imp__GetProcessHeap@0    10052010     kernel32:KERNEL32.dll
 0002:00000014       __imp__HeapFree@12         10052014     kernel32:KERNEL32.dll
 0002:00000018       __imp__GetPrivateProfileStringA@24 10052018     kernel32:KERNEL32.dll
 0002:0000001c       __imp__GetPrivateProfileIntA@16 1005201c     kernel32:KERNEL32.dll
 0002:00000020       __imp__GetLastError@0      10052020     kernel32:KERNEL32.dll
 0002:00000024       __imp__LoadLibraryA@4      10052024     kernel32:KERNEL32.dll
 0002:00000028       __imp__GetProcAddress@8    10052028     kernel32:KERNEL32.dll
 0002:0000002c       __imp__OutputDebugStringA@4 1005202c     kernel32:KERNEL32.dll
 0002:00000030       __imp__CloseHandle@4       10052030     kernel32:KERNEL32.dll
 0002:00000034       __imp__WaitForSingleObject@8 10052034     kernel32:KERNEL32.dll
 0002:00000038       __imp__InitializeCriticalSection@4 10052038     kernel32:KERNEL32.dll
 0002:0000003c       __imp__DeleteCriticalSection@4 1005203c     kernel32:KERNEL32.dll
 0002:00000040       __imp__EnterCriticalSection@4 10052040     kernel32:KERNEL32.dll
 0002:00000044       __imp__LeaveCriticalSection@4 10052044     kernel32:KERNEL32.dll
 0002:00000048       __imp__ExitProcess@4       10052048     kernel32:KERNEL32.dll
 0002:0000004c       __imp__RaiseException@16   1005204c     kernel32:KERNEL32.dll
 0002:00000050       __imp__GetVersionExA@4     10052050     kernel32:KERNEL32.dll
 0002:00000054       __imp__DebugBreak@0        10052054     kernel32:KERNEL32.dll
 0002:00000058       __imp__QueryPerformanceCounter@4 10052058     kernel32:KERNEL32.dll
 0002:0000005c       __imp__GetTickCount@0      1005205c     kernel32:KERNEL32.dll
 0002:00000060       __imp__GetCurrentThreadId@0 10052060     kernel32:KERNEL32.dll
 0002:00000064       __imp__GetCurrentProcessId@0 10052064     kernel32:KERNEL32.dll
 0002:00000068       __imp__GetSystemTimeAsFileTime@4 10052068     kernel32:KERNEL32.dll
 0002:0000006c       __imp__DisableThreadLibraryCalls@4 1005206c     kernel32:KERNEL32.dll
 0002:00000070       __imp__GetModuleFileNameA@12 10052070     kernel32:KERNEL32.dll
 0002:00000074       __imp__HeapAlloc@12        10052074     kernel32:KERNEL32.dll
 0002:00000078       __imp__CreateEventA@16     10052078     kernel32:KERNEL32.dll
 0002:0000007c       \177KERNEL32_NULL_THUNK_DATA 1005207c     kernel32:KERNEL32.dll
 0002:00000080       __imp_?uncaught_exception@std@@YA_NXZ 10052080     msvcprt:MSVCP71.dll
 0002:00000084       __imp_?flush@?$basic_ostream@DU?$char_traits@D@std@@@std@@QAEAAV12@XZ 10052084     msvcprt:MSVCP71.dll
 0002:00000088       __imp_?_Osfx@?$basic_ostream@DU?$char_traits@D@std@@@std@@QAEXXZ 10052088     msvcprt:MSVCP71.dll
 0002:0000008c       __imp_?clear@ios_base@std@@QAEXH_N@Z 1005208c     msvcprt:MSVCP71.dll
 0002:00000090       __imp_?erase@?$basic_string@DU?$char_traits@D@std@@V?$allocator@D@2@@std@@QAEAAV12@II@Z 10052090     msvcprt:MSVCP71.dll
 0002:00000094       __imp_?npos@?$basic_string@DU?$char_traits@D@std@@V?$allocator@D@2@@std@@2IB 10052094     msvcprt:MSVCP71.dll
 0002:00000098       __imp_?sputc@?$basic_streambuf@DU?$char_traits@D@std@@@std@@QAEHD@Z 10052098     msvcprt:MSVCP71.dll
 0002:0000009c       __imp_?substr@?$basic_string@DU?$char_traits@D@std@@V?$allocator@D@2@@std@@QBE?AV12@II@Z 1005209c     msvcprt:MSVCP71.dll
 0002:000000a0       __imp_?find@?$basic_string@DU?$char_traits@D@std@@V?$allocator@D@2@@std@@QBEIPBDII@Z 100520a0     msvcprt:MSVCP71.dll
 0002:000000a4       __imp_??0?$basic_string@DU?$char_traits@D@std@@V?$allocator@D@2@@std@@QAE@XZ 100520a4     msvcprt:MSVCP71.dll
 0002:000000a8       __imp_??4?$basic_string@DU?$char_traits@D@std@@V?$allocator@D@2@@std@@QAEAAV01@PBD@Z 100520a8     msvcprt:MSVCP71.dll
 0002:000000ac       __imp_??$?8DU?$char_traits@D@std@@V?$allocator@D@1@@std@@YA_NABV?$basic_string@DU?$char_traits@D@std@@V?$allocator@D@2@@0@PBD@Z 100520ac     msvcprt:MSVCP71.dll
 0002:000000b0       __imp_??$?9DU?$char_traits@D@std@@V?$allocator@D@1@@std@@YA_NABV?$basic_string@DU?$char_traits@D@std@@V?$allocator@D@2@@0@PBD@Z 100520b0     msvcprt:MSVCP71.dll
 0002:000000b4       __imp_?append@?$basic_string@DU?$char_traits@D@std@@V?$allocator@D@2@@std@@QAEAAV12@ABV12@@Z 100520b4     msvcprt:MSVCP71.dll
 0002:000000b8       __imp_??$?8DU?$char_traits@D@std@@V?$allocator@D@1@@std@@YA_NABV?$basic_string@DU?$char_traits@D@std@@V?$allocator@D@2@@0@0@Z 100520b8     msvcprt:MSVCP71.dll
 0002:000000bc       __imp_?rfind@?$basic_string@DU?$char_traits@D@std@@V?$allocator@D@2@@std@@QBEIPBDII@Z 100520bc     msvcprt:MSVCP71.dll
 0002:000000c0       __imp_??_D?$basic_ofstream@DU?$char_traits@D@std@@@std@@QAEXXZ 100520c0     msvcprt:MSVCP71.dll
 0002:000000c4       __imp_?close@?$basic_ofstream@DU?$char_traits@D@std@@@std@@QAEXXZ 100520c4     msvcprt:MSVCP71.dll
 0002:000000c8       __imp_??6?$basic_ostream@DU?$char_traits@D@std@@@std@@QAEAAV01@P6AAAV01@AAV01@@Z@Z 100520c8     msvcprt:MSVCP71.dll
 0002:000000cc       __imp_?flush@std@@YAAAV?$basic_ostream@DU?$char_traits@D@std@@@1@AAV21@@Z 100520cc     msvcprt:MSVCP71.dll
 0002:000000d0       __imp_??6?$basic_ostream@DU?$char_traits@D@std@@@std@@QAEAAV01@K@Z 100520d0     msvcprt:MSVCP71.dll
 0002:000000d4       __imp_??6?$basic_ostream@DU?$char_traits@D@std@@@std@@QAEAAV01@_K@Z 100520d4     msvcprt:MSVCP71.dll
 0002:000000d8       __imp_??6?$basic_ostream@DU?$char_traits@D@std@@@std@@QAEAAV01@H@Z 100520d8     msvcprt:MSVCP71.dll
 0002:000000dc       __imp_??0?$basic_ofstream@DU?$char_traits@D@std@@@std@@QAE@PBDHH@Z 100520dc     msvcprt:MSVCP71.dll
 0002:000000e0       __imp_??$?6U?$char_traits@D@std@@@std@@YAAAV?$basic_ostream@DU?$char_traits@D@std@@@0@AAV10@PBD@Z 100520e0     msvcprt:MSVCP71.dll
 0002:000000e4       __imp_?endl@std@@YAAAV?$basic_ostream@DU?$char_traits@D@std@@@1@AAV21@@Z 100520e4     msvcprt:MSVCP71.dll
 0002:000000e8       __imp_?cout@std@@3V?$basic_ostream@DU?$char_traits@D@std@@@1@A 100520e8     msvcprt:MSVCP71.dll
 0002:000000ec       __imp_?_Nomemory@std@@YAXXZ 100520ec     msvcprt:MSVCP71.dll
 0002:000000f0       __imp_??Y?$basic_string@DU?$char_traits@D@std@@V?$allocator@D@2@@std@@QAEAAV01@D@Z 100520f0     msvcprt:MSVCP71.dll
 0002:000000f4       __imp_??Y?$basic_string@DU?$char_traits@D@std@@V?$allocator@D@2@@std@@QAEAAV01@PBD@Z 100520f4     msvcprt:MSVCP71.dll
 0002:000000f8       __imp_??0?$basic_string@DU?$char_traits@D@std@@V?$allocator@D@2@@std@@QAE@PBD@Z 100520f8     msvcprt:MSVCP71.dll
 0002:000000fc       __imp_??Y?$basic_string@DU?$char_traits@D@std@@V?$allocator@D@2@@std@@QAEAAV01@ABV01@@Z 100520fc     msvcprt:MSVCP71.dll
 0002:00000100       __imp_??0?$basic_string@DU?$char_traits@D@std@@V?$allocator@D@2@@std@@QAE@ABV01@@Z 10052100     msvcprt:MSVCP71.dll
 0002:00000104       __imp_??1?$basic_string@DU?$char_traits@D@std@@V?$allocator@D@2@@std@@QAE@XZ 10052104     msvcprt:MSVCP71.dll
 0002:00000108       __imp_??4?$basic_string@DU?$char_traits@D@std@@V?$allocator@D@2@@std@@QAEAAV01@ABV01@@Z 10052108     msvcprt:MSVCP71.dll
 0002:0000010c       __imp_?_Unlock@_Mutex@std@@QAEXXZ 1005210c     msvcprt:MSVCP71.dll
 0002:00000110       __imp_?_Lock@_Mutex@std@@QAEXXZ 10052110     msvcprt:MSVCP71.dll
 0002:00000114       __imp_??$?MDU?$char_traits@D@std@@V?$allocator@D@1@@std@@YA_NABV?$basic_string@DU?$char_traits@D@std@@V?$allocator@D@2@@0@0@Z 10052114     msvcprt:MSVCP71.dll
 0002:00000118       \177MSVCP71_NULL_THUNK_DATA 10052118     msvcprt:MSVCP71.dll
 0002:0000011c       __imp__fopen               1005211c     MSVCRT:MSVCR71.dll
 0002:00000120       __imp__printf              10052120     MSVCRT:MSVCR71.dll
 0002:00000124       __imp_??0exception@@QAE@ABV0@@Z 10052124     MSVCRT:MSVCR71.dll
 0002:00000128       __imp___CxxThrowException@8 10052128     MSVCRT:MSVCR71.dll
 0002:0000012c       __imp__malloc              1005212c     MSVCRT:MSVCR71.dll
 0002:00000130       __imp__sprintf             10052130     MSVCRT:MSVCR71.dll
 0002:00000134       __imp__atoi                10052134     MSVCRT:MSVCR71.dll
 0002:00000138       __imp__isalnum             10052138     MSVCRT:MSVCR71.dll
 0002:0000013c       __imp__memmove             1005213c     MSVCRT:MSVCR71.dll
 0002:00000140       __imp__isspace             10052140     MSVCRT:MSVCR71.dll
 0002:00000144       __imp__strtod              10052144     MSVCRT:MSVCR71.dll
 0002:00000148       __imp___purecall           10052148     MSVCRT:MSVCR71.dll
 0002:0000014c       __imp__time                1005214c     MSVCRT:MSVCR71.dll
 0002:00000150       __imp__localtime           10052150     MSVCRT:MSVCR71.dll
 0002:00000154       __imp_??_V@YAXPAX@Z        10052154     MSVCRT:MSVCR71.dll
 0002:00000158       __imp__tolower             10052158     MSVCRT:MSVCR71.dll
 0002:0000015c       __imp___atoi64             1005215c     MSVCRT:MSVCR71.dll
 0002:00000160       __imp__free                10052160     MSVCRT:MSVCR71.dll
 0002:00000164       __imp__strchr              10052164     MSVCRT:MSVCR71.dll
 0002:00000168       __imp__memset              10052168     MSVCRT:MSVCR71.dll
 0002:0000016c       __imp__strcmp              1005216c     MSVCRT:MSVCR71.dll
 0002:00000170       __imp__strcpy              10052170     MSVCRT:MSVCR71.dll
 0002:00000174       __imp__memcpy              10052174     MSVCRT:MSVCR71.dll
 0002:00000178       __imp__isdigit             10052178     MSVCRT:MSVCR71.dll
 0002:0000017c       __imp__strlen              1005217c     MSVCRT:MSVCR71.dll
 0002:00000180       __imp__isxdigit            10052180     MSVCRT:MSVCR71.dll
 0002:00000184       __imp__atol                10052184     MSVCRT:MSVCR71.dll
 0002:00000188       __imp__strcat              10052188     MSVCRT:MSVCR71.dll
 0002:0000018c       __imp__isprint             1005218c     MSVCRT:MSVCR71.dll
 0002:00000190       __imp__strerror            10052190     MSVCRT:MSVCR71.dll
 0002:00000194       __imp___errno              10052194     MSVCRT:MSVCR71.dll
 0002:00000198       __imp__rand                10052198     MSVCRT:MSVCR71.dll
 0002:0000019c       __imp___iob                1005219c     MSVCRT:MSVCR71.dll
 0002:000001a0       __imp___ftime              100521a0     MSVCRT:MSVCR71.dll
 0002:000001a4       __imp__strstr              100521a4     MSVCRT:MSVCR71.dll
 0002:000001a8       __imp__labs                100521a8     MSVCRT:MSVCR71.dll
 0002:000001ac       __imp__rename              100521ac     MSVCRT:MSVCR71.dll
 0002:000001b0       __imp___unlink             100521b0     MSVCRT:MSVCR71.dll
 0002:000001b4       __imp__fgets               100521b4     MSVCRT:MSVCR71.dll
 0002:000001b8       __imp__vsprintf            100521b8     MSVCRT:MSVCR71.dll
 0002:000001bc       __imp__strncmp             100521bc     MSVCRT:MSVCR71.dll
 0002:000001c0       __imp__fputs               100521c0     MSVCRT:MSVCR71.dll
 0002:000001c4       __imp___getpid             100521c4     MSVCRT:MSVCR71.dll
 0002:000001c8       __imp__strftime            100521c8     MSVCRT:MSVCR71.dll
 0002:000001cc       __imp__raise               100521cc     MSVCRT:MSVCR71.dll
 0002:000001d0       __imp__memcmp              100521d0     MSVCRT:MSVCR71.dll
 0002:000001d4       __imp___lrotr              100521d4     MSVCRT:MSVCR71.dll
 0002:000001d8       __imp___callnewh           100521d8     MSVCRT:MSVCR71.dll
 0002:000001dc       __imp____security_error_handler 100521dc     MSVCRT:MSVCR71.dll
 0002:000001e0       __imp___except_handler3    100521e0     MSVCRT:MSVCR71.dll
 0002:000001e4       __imp_??1type_info@@UAE@XZ 100521e4     MSVCRT:MSVCR71.dll
 0002:000001e8       __imp____dllonexit         100521e8     MSVCRT:MSVCR71.dll
 0002:000001ec       __imp___onexit             100521ec     MSVCRT:MSVCR71.dll
 0002:000001f0       __imp___initterm           100521f0     MSVCRT:MSVCR71.dll
 0002:000001f4       __imp___adjust_fdiv        100521f4     MSVCRT:MSVCR71.dll
 0002:000001f8       __imp____CppXcptFilter     100521f8     MSVCRT:MSVCR71.dll
 0002:000001fc       __imp___CRT_RTC_INIT       100521fc     MSVCRT:MSVCR71.dll
 0002:00000200       __imp_?terminate@@YAXXZ    10052200     MSVCRT:MSVCR71.dll
 0002:00000204       __imp__fclose              10052204     MSVCRT:MSVCR71.dll
 0002:00000208       __imp_??3@YAXPAX@Z         10052208     MSVCRT:MSVCR71.dll
 0002:0000020c       __imp____CxxFrameHandler   1005220c     MSVCRT:MSVCR71.dll
 0002:00000210       __imp_??0exception@@QAE@XZ 10052210     MSVCRT:MSVCR71.dll
 0002:00000214       __imp_??1exception@@UAE@XZ 10052214     MSVCRT:MSVCR71.dll
 0002:00000218       __imp___strdup             10052218     MSVCRT:MSVCR71.dll
 0002:00000218       __imp__strdup              10052218     MSVCRT:MSVCR71.dll
 0002:0000021c       __imp__fprintf             1005221c     MSVCRT:MSVCR71.dll
 0002:00000220       \177MSVCR71_NULL_THUNK_DATA 10052220     MSVCRT:MSVCR71.dll
 0002:00000224       __imp__gethostname@8       10052224     wsock32:WSOCK32.dll
 0002:00000228       __imp____WSAFDIsSet@8      10052228     wsock32:WSOCK32.dll
 0002:0000022c       __imp__socket@12           1005222c     wsock32:WSOCK32.dll
 0002:00000230       __imp__bind@12             10052230     wsock32:WSOCK32.dll
 0002:00000234       __imp__closesocket@4       10052234     wsock32:WSOCK32.dll
 0002:00000238       __imp__recvfrom@24         10052238     wsock32:WSOCK32.dll
 0002:0000023c       __imp__sendto@24           1005223c     wsock32:WSOCK32.dll
 0002:00000240       __imp__select@20           10052240     wsock32:WSOCK32.dll
 0002:00000244       __imp__ntohs@4             10052244     wsock32:WSOCK32.dll
 0002:00000248       __imp__htons@4             10052248     wsock32:WSOCK32.dll
 0002:0000024c       __imp__ntohl@4             1005224c     wsock32:WSOCK32.dll
 0002:00000250       __imp__inet_addr@4         10052250     wsock32:WSOCK32.dll
 0002:00000254       __imp__gethostbyname@4     10052254     wsock32:WSOCK32.dll
 0002:00000258       __imp__inet_ntoa@4         10052258     wsock32:WSOCK32.dll
 0002:0000025c       __imp__WSAGetLastError@0   1005225c     wsock32:WSOCK32.dll
 0002:00000260       __imp__htonl@4             10052260     wsock32:WSOCK32.dll
 0002:00000264       __imp__WSAStartup@8        10052264     wsock32:WSOCK32.dll
 0002:00000268       __imp__WSACleanup@0        10052268     wsock32:WSOCK32.dll
 0002:0000026c       __imp__setsockopt@20       1005226c     wsock32:WSOCK32.dll
 0002:00000270       \177WSOCK32_NULL_THUNK_DATA 10052270     wsock32:WSOCK32.dll
 0002:00000274       __imp_?LoadResource@@YAPAXV?$basic_string@DU?$char_traits@D@std@@V?$allocator@D@2@@std@@0@Z 10052274     svapi:svapi.dll
 0002:00000278       __imp_?GetResourceNode@@YAPAXPAX@Z 10052278     svapi:svapi.dll
 0002:0000027c       __imp_?CloseResource@@YA_NAAPAX@Z 1005227c     svapi:svapi.dll
 0002:00000280       __imp_?FindNodeValue@@YA_NPAXV?$basic_string@DU?$char_traits@D@std@@V?$allocator@D@2@@std@@AAV12@@Z 10052280     svapi:svapi.dll
 0002:00000284       __imp_?GetMasterAddress@@YA?AV?$basic_string@DU?$char_traits@D@std@@V?$allocator@D@2@@std@@XZ 10052284     svapi:svapi.dll
 0002:00000288       __imp_?GetSiteViewRootPath@@YA?AV?$basic_string@DU?$char_traits@D@std@@V?$allocator@D@2@@std@@XZ 10052288     svapi:svapi.dll
 0002:0000028c       \177svapi_NULL_THUNK_DATA  1005228c     svapi:svapi.dll
 0002:00000324       ??_7logic_error@std@@6B@   10052324     CommonMonitor.obj
 0002:0000032c       ??_7length_error@std@@6B@  1005232c     CommonMonitor.obj
 0002:00000334       ??_7out_of_range@std@@6B@  10052334     CommonMonitor.obj
 0002:0000033c       ??_C@_01EEMJAFIK@?6?$AA@   1005233c     CommonMonitor.obj
 0002:00000340       ??_C@_03OFAPEBGM@?$CFs?6?$AA@ 10052340     CommonMonitor.obj
 0002:00000344       ??_C@_0CE@GOHMACJE@CommonNetworkDeviceMonitordebug?4@ 10052344     CommonMonitor.obj
 0002:00000368       ??_C@_02DPNLHKJD@a?$CL?$AA@ 10052368     CommonMonitor.obj
 0002:0000036c       ??_C@_0BB@MOGOBHAF@list?$DMT?$DO?5too?5long?$AA@ 1005236c     CommonMonitor.obj
 0002:00000380       ??_C@_0BM@PAPJHAGI@invalid?5map?1set?$DMT?$DO?5iterator?$AA@ 10052380     CommonMonitor.obj
 0002:0000039c       ??_C@_0N@LOBFJML@Return?$CFd?$DN?$CFs$?$AA@ 1005239c     CommonMonitor.obj
 0002:000003ac       ??_C@_01IDAFKMJL@_?$AA@    100523ac     CommonMonitor.obj
 0002:000003ae       ??_C@_00CNPNBAHC@?$AA@     100523ae     CommonMonitor.obj
 0002:000003b0       ??_C@_07LDDBNKHK@smi?4ini?$AA@ 100523b0     CommonMonitor.obj
 0002:000003b8       ??_C@_08NIOFPIDH@error?$DN?$CFs?$AA@ 100523b8     CommonMonitor.obj
 0002:000003c4       ??_C@_0P@HEGPDGKP@SV_NETWORK_SET?$AA@ 100523c4     CommonMonitor.obj
 0002:000003d4       ??_C@_0BM@ELGHMDPL@NETWORK_SET_IP_ADDRESS_NULL?$AA@ 100523d4     CommonMonitor.obj
 0002:000003f0       ??_C@_04KLLHCENN@_OID?$AA@ 100523f0     CommonMonitor.obj
 0002:000003f8       ??_C@_0N@COFGJAJP@ReadByTelnet?$AA@ 100523f8     CommonMonitor.obj
 0002:00000408       ??_C@_0CE@IPJOHHHO@error?$DNError?5ocured?3Load?5DLL?5Fail@ 10052408     CommonMonitor.obj
 0002:0000042c       ??_C@_0P@HFOOHGLD@ReadTelnet?4dll?$AA@ 1005242c     CommonMonitor.obj
 0002:0000043c       ??_C@_07IIEOPGHH@_Action?$AA@ 1005243c     CommonMonitor.obj
 0002:00000444       ??_C@_09NFNNPINF@_PassWord?$AA@ 10052444     CommonMonitor.obj
 0002:00000450       ??_C@_0N@GLGCGFKF@_UserAccount?$AA@ 10052450     CommonMonitor.obj
 0002:00000460       ??_C@_0N@EMEEJLAO@_MachineName?$AA@ 10052460     CommonMonitor.obj
 0002:00000470       ??_C@_02KNHHEEKP@?5?5?$AA@ 10052470     CommonMonitor.obj
 0002:00000474       ??_C@_08IPOAPEPC@_GETMODE?$AA@ 10052474     CommonMonitor.obj
 0002:00000480       ??_C@_0BO@IDOAPPLE@error?$DNsome?5parameter?5is?5wrong?$AA@ 10052480     CommonMonitor.obj
 0002:000004a0       ??_C@_0BI@EKNOBCEJ@IDS_MONITOR_PARAM_ERROR?$AA@ 100524a0     CommonMonitor.obj
 0002:000004b8       ??_C@_05NNFHCGPF@?$CFs?4?$CFs?$AA@ 100524b8     CommonMonitor.obj
 0002:000004c0       ??_C@_0M@KNDLGKJO@match_value?$AA@ 100524c0     CommonMonitor.obj
 0002:000004cc       ??_C@_09JKAGCIMI@match_oid?$AA@ 100524cc     CommonMonitor.obj
 0002:000004d8       ??_C@_0L@JNAKNGNP@index_type?$AA@ 100524d8     CommonMonitor.obj
 0002:000004e4       ??_C@_05KKCIMGE@error?$AA@ 100524e4     CommonMonitor.obj
 0002:000004ec       ??_C@_09FAOJEBOJ@index_oid?$AA@ 100524ec     CommonMonitor.obj
 0002:000004f8       ??_C@_0L@HLAJIMCE@monitor?9?$CFd?$AA@ 100524f8     CommonMonitor.obj
 0002:00000504       ??_C@_0O@NGKGBAMO@showoid_oid?$CFd?$AA@ 10052504     CommonMonitor.obj
 0002:00000514       ??_C@_0BD@HDOJCCGL@showoid_fixlable?$CFd?$AA@ 10052514     CommonMonitor.obj
 0002:00000528       ??_C@_0BC@NAEGJFOL@showoid_subsize?$CFd?$AA@ 10052528     CommonMonitor.obj
 0002:0000053c       ??_C@_0BE@JMPNNLFC@showoid_substring?$CFd?$AA@ 1005253c     CommonMonitor.obj
 0002:00000550       ??_C@_0L@GGHIGBBJ@index_sure?$AA@ 10052550     CommonMonitor.obj
 0002:0000055c       ??_C@_0BD@FILKMJCF@IDS_InitSNMPFailed?$AA@ 1005255c     CommonMonitor.obj
 0002:00000570       ??_C@_0BF@GIOPCCAG@error?$DN?$CFs?$CItplmib?9?$CFd?$CJ$?$AA@ 10052570     CommonMonitor.obj
 0002:00000588       ??_C@_0BA@JMFGAKJH@SV_SNMP_MONITOR?$AA@ 10052588     CommonMonitor.obj
 0002:00000598       ??_C@_0BG@JGNAEJBP@SNMP_LIST_PARAM_ERROR?$AA@ 10052598     CommonMonitor.obj
 0002:000005b0       ??_C@_07JHNJIMGO@showoid?$AA@ 100525b0     CommonMonitor.obj
 0002:000005b8       ??_C@_0N@PIBIMFFL@?$DM?$DO?$DN?$CK?1?$CF?$CL?9?$FO?$CG?$HM?2?$AA@ 100525b8     expression.obj
 0002:000005c8       ??_C@_02EHCHHCKH@?$DM?$DN?$AA@ 100525c8     expression.obj
 0002:000005cc       ??_C@_02EEKDKGMJ@?$DO?$DN?$AA@ 100525cc     expression.obj
 0002:000005d0       ??_C@_01PPODPGHN@?$DO?$AA@ 100525d0     expression.obj
 0002:000005d4       ??_C@_01MNNFJEPP@?$DM?$AA@ 100525d4     expression.obj
 0002:000005d8       ??_C@_02GPIOPFAK@?$DO?$DO?$AA@ 100525d8     expression.obj
 0002:000005dc       ??_C@_02FODMEDOG@?$DM?$DM?$AA@ 100525dc     expression.obj
 0002:000005e0       ??_C@_02FDNJECIE@?$CB?$DN?$AA@ 100525e0     expression.obj
 0002:000005e4       ??_C@_02EGOFBIJA@?$DN?$DN?$AA@ 100525e4     expression.obj
 0002:000005e8       ??_C@_02PKOPIJBO@?$CB?$CG?$AA@ 100525e8     expression.obj
 0002:000005ec       ??_C@_02LKLLDMMA@?$CB?$HM?$AA@ 100525ec     expression.obj
 0002:000005f0       ??_C@_02NONPIBCD@?$HM?$HM?$AA@ 100525f0     expression.obj
 0002:000005f4       ??_C@_02PPKAJPJL@?$CG?$CG?$AA@ 100525f4     expression.obj
 0002:000005f8       ??_C@_01DNKMNLPK@?$HM?$AA@ 100525f8     expression.obj
 0002:000005fc       ??_C@_01HNPIGOCE@?$CG?$AA@ 100525fc     expression.obj
 0002:00000600       ??_C@_01JKBOJNNK@?$FO?$AA@ 10052600     expression.obj
 0002:00000604       ??_C@_01JOAMLHOP@?9?$AA@   10052604     expression.obj
 0002:00000608       ??_C@_01MIFGBAGJ@?$CL?$AA@ 10052608     expression.obj
 0002:0000060c       ??_C@_01FGNFDNOH@?$CF?$AA@ 1005260c     expression.obj
 0002:00000610       ??_C@_01KICIPPFI@?2?$AA@   10052610     expression.obj
 0002:00000614       ??_C@_01KMDKNFGN@?1?$AA@   10052614     expression.obj
 0002:00000618       ??_C@_01NBENCBCI@?$CK?$AA@ 10052618     expression.obj
 0002:0000061c       ??_C@_0BC@KBDMBKEH@deque?$DMT?$DO?5too?5long?$AA@ 1005261c     expression.obj
 0002:00000630       ??_C@_0BE@JONHPENG@map?1set?$DMT?$DO?5too?5long?$AA@ 10052630     expression.obj
 0002:00000644       ??_C@_05MFEJDJP@value?$AA@ 10052644     expression.obj
 0002:0000064c       ??_C@_01LFCBOECM@?4?$AA@   1005264c     expression.obj
 0002:00000650       ??_C@_01GBGANLPD@0?$AA@    10052650     expression.obj
 0002:00000654       ??_C@_01ODHLEDKK@?$CI?$AA@ 10052654     expression.obj
 0002:00000658       ??_C@_01CLKCMJKC@?5?$AA@   10052658     expression.obj
 0002:00000660       __real@0000000000000000    10052660     expression.obj
 0002:00000668       ??_7SnmpSyntax@@6B@        10052668     snmplib.obj
 0002:00000688       ??_7GenAddress@@6B@        10052688     snmplib.obj
 0002:000006c8       ??_7SnmpTarget@@6B@        100526c8     snmplib.obj
 0002:000006d8       ??_7CTarget@@6B@           100526d8     snmplib.obj
 0002:000006e8       ??_7UTarget@@6B@           100526e8     snmplib.obj
 0002:000006fc       ??_C@_06EOMAMIIF@public?$AA@ 100526fc     snmplib.obj
 0002:00000704       ??_C@_05KGLLLGOB@1?43?46?$AA@ 10052704     snmplib.obj
 0002:0000070c       ??_C@_0CI@MLPPEMMD@SiteView?5ECC?5SNMP?5Library?5did?5no@ 1005270c     snmplib.obj
 0002:00000734       ??_C@_0BN@BDGHJOCP@Invalid?5Address?5or?5Host?5Name?$AA@ 10052734     snmplib.obj
 0002:00000754       ??_C@_0BC@HBBOLBFA@Invalid?5OID?5Index?$AA@ 10052754     snmplib.obj
 0002:00000788       ??_C@_0BF@PHHNBFHJ@snmpmonitor?9bulk?4log?$AA@ 10052788     snmplib.obj
 0002:000007a0       ??_C@_0CL@IFLCJCDD@Error?5Number?5is?5?$CF08X?5?9?9?$CKGetBulkR@ 100527a0     snmplib.obj
 0002:000007cc       ??_C@_0BD@BHEJHFCG@End?5of?5MIB?5Reached?$AA@ 100527cc     snmplib.obj
 0002:000007e0       ??_C@_0CH@FJOJLNFG@Error?5Number?5is?5?$CF08X?5?9?9?$CKGetReque@ 100527e0     snmplib.obj
 0002:00000808       ??_C@_0BE@EFDALFMH@snmpmonitor?9request?$AA@ 10052808     snmplib.obj
 0002:0000081c       ??_C@_0BM@DAFDJKHJ@?$CFd?9?$CF02d?9?$CF02d?5?$CF02d?3?$CF02d?3?$CF02d?$AA@ 1005281c     SnmpOperate.obj
 0002:00000838       ??_C@_0BO@GMDPNLFL@?6?9?9?9?9?9?9?9?9?9?9?9?9?9?9?9?9?9?9?9?9?9?9?9?9?9?9?9?6?$AA@ 10052838     SnmpOperate.obj
 0002:00000858       ??_C@_02DKCKIIND@?$CFs?$AA@ 10052858     SnmpOperate.obj
 0002:0000085c       ??_C@_0BG@GIFFHMEJ@?$CFs?2data?2tmpIniFile?2?$CFs?$AA@ 1005285c     SnmpOperate.obj
 0002:00000874       ??_C@_0BD@NEMGKLPI@InitSNMP?$CI?$CJ?5failure?$AA@ 10052874     SnmpOperate.obj
 0002:00000888       ??_C@_0P@MCMMADAK@oid_ifStatus?$CFd?$AA@ 10052888     SnmpOperate.obj
 0002:00000898       ??_C@_0N@NMJCCDFE@oid_iftype?$CFd?$AA@ 10052898     SnmpOperate.obj
 0002:000008a8       ??_C@_0O@JPNIDJBO@oid_ifdescr?$CFd?$AA@ 100528a8     SnmpOperate.obj
 0002:000008b8       ??_C@_0O@PIPEFPNC@oid_ifindex?$CFd?$AA@ 100528b8     SnmpOperate.obj
 0002:000008c8       ??_C@_0BC@OKPEGHMC@snmp_If_?$CFs_?$CFs?4ini?$AA@ 100528c8     SnmpOperate.obj
 0002:000008dc       ??_C@_0BE@HABMAKHP@1?43?46?41?42?41?42?42?41?48?$AA@ 100528dc     SnmpOperate.obj
 0002:000008f0       ??_C@_0BE@JDOINDLE@1?43?46?41?42?41?42?42?41?43?$AA@ 100528f0     SnmpOperate.obj
 0002:00000904       ??_C@_0BE@IKPDOCPF@1?43?46?41?42?41?42?42?41?42?$AA@ 10052904     SnmpOperate.obj
 0002:00000918       ??_C@_0BE@KBNOLBDG@1?43?46?41?42?41?42?42?41?41?$AA@ 10052918     SnmpOperate.obj
 0002:0000092c       ??_C@_06FLEKMPD@oidnum?$AA@ 1005292c     SnmpOperate.obj
 0002:00000934       ??_C@_0N@NOMLABDG@interfaceoid?$AA@ 10052934     SnmpOperate.obj
 0002:00000944       ??_C@_0BE@PHNHPJPE@error?$DN?$CFs?$CITPLMIB_?$CFd?$CJ?$AA@ 10052944     SnmpOperate.obj
 0002:00000958       ??_C@_0BE@MLEBMFPK@SNMP_SMI_LOST_PARAM?$AA@ 10052958     SnmpOperate.obj
 0002:0000096c       ??_C@_0BB@EFCDBFAA@returnnum_name?$CFd?$AA@ 1005296c     SnmpOperate.obj
 0002:00000980       ??_C@_0BC@OPHKFMMF@returnnum_value?$CFd?$AA@ 10052980     SnmpOperate.obj
 0002:00000994       ??_C@_06HBCINDOD@ifTime?$AA@ 10052994     SnmpOperate.obj
 0002:0000099c       ??_C@_0N@GLAGDJKH@HistoryValue?$AA@ 1005299c     SnmpOperate.obj
 0002:000009ac       ??_C@_0BD@OCFKGCEC@InterFace_?$CFd_?$CFs_?$CFd?$AA@ 100529ac     SnmpOperate.obj
 0002:000009c0       ??_C@_0N@OGDDHLPK@oidnum_max?$CFd?$AA@ 100529c0     SnmpOperate.obj
 0002:000009d0       ??_C@_0O@EIFEFGLJ@returnunit_?$CFd?$AA@ 100529d0     SnmpOperate.obj
 0002:000009e0       ??_C@_0BA@IOBDNOKH@oidnum_hashis?$CFd?$AA@ 100529e0     SnmpOperate.obj
 0002:000009f0       ??_C@_0O@JLOACLDK@oidnum_type?$CFd?$AA@ 100529f0     SnmpOperate.obj
 0002:00000a00       ??_C@_0N@IBEEHJBH@oidnum_oid?$CFd?$AA@ 10052a00     SnmpOperate.obj
 0002:00000a10       ??_C@_0BC@OKAGJOIL@snmp_?$CFs_?$CFs_?$CFs?4ini?$AA@ 10052a10     SnmpOperate.obj
 0002:00000a24       ??_C@_09FHAPDMKG@returnnum?$AA@ 10052a24     SnmpOperate.obj
 0002:00000a30       ??_7CSnmpOperate@@6B@      10052a30     SnmpOperate.obj
 0002:00000a34       ??_C@_0BF@JPDOBBHA@SNMP_NO_HISTORY_DATA?$AA@ 10052a34     SnmpOperate.obj
 0002:00000a4c       ??_C@_0BE@LIADAJII@snmpmonitor?9exp?4log?$AA@ 10052a4c     SnmpOperate.obj
 0002:00000a60       ??_C@_0CH@CALLHJLG@Error?5Number?5is?5?$CF08X?5?9?9?$CKGet?5Resu@ 10052a60     SnmpOperate.obj
 0002:00000a88       ??_C@_07LICPNLFL@?$CFs?$DN0?40f?$AA@ 10052a88     SnmpOperate.obj
 0002:00000a90       ??_C@_06DGKPJAFK@?$CFs?$DN0?40?$AA@ 10052a90     SnmpOperate.obj
 0002:00000a98       ??_C@_07BDKLBHMH@?$CFs?$DN?$CF?42f?$AA@ 10052a98     SnmpOperate.obj
 0002:00000aa0       ??_C@_0BA@OFNGCOEH@?$LL?q?H?$KB?J?$PN?$LO?$NN?J?$KH?$LA?$NM?$KD?$KB?6?$AA@ 10052aa0     SnmpOperate.obj
 0002:00000ab0       ??_C@_0L@PGDFKFEI@indexcount?$AA@ 10052ab0     SnmpOperate.obj
 0002:00000abc       ??_C@_05KBOMEDGA@total?$AA@ 10052abc     SnmpOperate.obj
 0002:00000ac4       ??_C@_03KLIPLJLL@min?$AA@  10052ac4     SnmpOperate.obj
 0002:00000ac8       ??_C@_03LJAEFNNE@max?$AA@  10052ac8     SnmpOperate.obj
 0002:00000acc       ??_C@_03CHOBFJAH@avg?$AA@  10052acc     SnmpOperate.obj
 0002:00000ad0       ??_C@_04CLCEDBPF@time?$AA@ 10052ad0     SnmpOperate.obj
 0002:00000ad8       ??_C@_05KIOOLMBD@oid?$CFd?$AA@ 10052ad8     SnmpOperate.obj
 0002:00000ae0       ??_C@_05LOHOPFFC@hours?$AA@ 10052ae0     SnmpOperate.obj
 0002:00000ae8       ??_C@_06JGJIJFNK@minute?$AA@ 10052ae8     SnmpOperate.obj
 0002:00000af0       ??_C@_06BJCFNGJP@second?$AA@ 10052af0     SnmpOperate.obj
 0002:00000af8       ??_C@_03PLGJJJLK@oid?$AA@  10052af8     SnmpOperate.obj
 0002:00000afc       ??_C@_0L@CGFFAKPK@?3hisvalue?$DN?$AA@ 10052afc     SnmpOperate.obj
 0002:00000b08       ??_C@_0M@BJNLDNED@?0?5curvalue?$DN?$AA@ 10052b08     SnmpOperate.obj
 0002:00000b14       ??_C@_01JLIPDDHJ@?3?$AA@   10052b14     SnmpOperate.obj
 0002:00000b18       ??_C@_0M@ECMOINIA@?0?5subvalue?$DN?$AA@ 10052b18     SnmpOperate.obj
 0002:00000b24       ??_C@_07BCJAFKFD@?0?5time?$DN?$AA@ 10052b24     SnmpOperate.obj
 0002:00000b2c       ??_C@_0L@EECDIHAE@?0?5curtime?$DN?$AA@ 10052b2c     SnmpOperate.obj
 0002:00000b38       ??_C@_02PCIJFNDE@?$AN?6?$AA@ 10052b38     SnmpOperate.obj
 0002:00000b3c       ??_C@_0N@EFJOFJEC@snmptest?4log?$AA@ 10052b3c     SnmpOperate.obj
 0002:00000b4c       ??_C@_03JALODAI@?$CFld?$AA@ 10052b4c     SnmpOperate.obj
 0002:00000b50       ??_C@_0BA@HDJBLNHG@?$MA?z?J?$LH?J?$PN?$LO?$NN?S?P?N?s?$KD?$KB?6?$AA@ 10052b50     SnmpOperate.obj
 0002:00000b60       ??_C@_0BI@KHDIFHJA@1?43?46?41?42?41?431?41?41?41?410?$AA@ 10052b60     SnmpOperate.obj
 0002:00000b78       ??_C@_0BH@DGOJFHIP@1?43?46?41?42?41?431?41?41?41?46?$AA@ 10052b78     SnmpOperate.obj
 0002:00000b90       ??_C@_01IHBHIGKO@?0?$AA@   10052b90     SnmpOperate.obj
 0002:00000b94       ??_C@_0M@NMCOOGPP@firstValue?$DN?$AA@ 10052b94     SnmpOperate.obj
 0002:00000ba0       ??_C@_09FFPNNGBC@value?$DN?$CFs?$AA?$AA@ 10052ba0     SnmpOperate.obj
 0002:00000bac       ??_C@_05JPPLNOIE@?$CFs?$DN?$CFs?$AA@ 10052bac     SnmpOperate.obj
 0002:00000bb4       ??_C@_0CB@FOEAMCGO@?6nOneLen?$DN?$CFd?5?5nLen?$DN?$CFd?5?5?5nSize?$DN?$CFd?6@ 10052bb4     SnmpOperate.obj
 0002:00000bd8       ??_C@_02DPKJAMEF@?$CFd?$AA@ 10052bd8     SnmpOperate.obj
 0002:00000bdc       ??_C@_0BH@HJKIMBEI@1?43?46?41?42?41?431?41?41?41?41?$AA@ 10052bdc     SnmpOperate.obj
 0002:00000bf4       ??_C@_07MEHGEGBN@testing?$AA@ 10052bf4     SnmpOperate.obj
 0002:00000bfc       ??_C@_04JMOKAGMG@down?$AA@ 10052bfc     SnmpOperate.obj
 0002:00000c04       ??_C@_02HNLLPFKA@up?$AA@   10052c04     SnmpOperate.obj
 0002:00000c08       ??_C@_07CIFAGBMG@unknown?$AA@ 10052c08     SnmpOperate.obj
 0002:00000c10       ??_C@_0M@JBEDJLJA@frame?9relay?$AA@ 10052c10     SnmpOperate.obj
 0002:00000c1c       ??_C@_03MPAIKGMI@sip?$AA@  10052c1c     SnmpOperate.obj
 0002:00000c20       ??_C@_03MICDPDIO@ds3?$AA@  10052c20     SnmpOperate.obj
 0002:00000c24       ??_C@_05IGNOIJHB@ultra?$AA@ 10052c24     SnmpOperate.obj
 0002:00000c2c       ??_C@_04JOGGFDBP@slip?$AA@ 10052c2c     SnmpOperate.obj
 0002:00000c34       ??_C@_04OGMEHOF@nsip?$AA@  10052c34     SnmpOperate.obj
 0002:00000c3c       ??_C@_0P@IEEGPAH@ethernet?93Mbit?$AA@ 10052c3c     SnmpOperate.obj
 0002:00000c4c       ??_C@_03GKLGONOG@eon?$AA@  10052c4c     SnmpOperate.obj
 0002:00000c50       ??_C@_0BB@CLCDKCGN@softwareLoopback?$AA@ 10052c50     SnmpOperate.obj
 0002:00000c64       ??_C@_03MOEKJBNJ@ppp?$AA@  10052c64     SnmpOperate.obj
 0002:00000c68       ??_C@_0BH@BAJLBACP@propPointToPointSerial?$AA@ 10052c68     SnmpOperate.obj
 0002:00000c80       ??_C@_0M@FIFJPKNC@primaryISDN?$AA@ 10052c80     SnmpOperate.obj
 0002:00000c8c       ??_C@_09KFNMOJHB@basicISDN?$AA@ 10052c8c     SnmpOperate.obj
 0002:00000c98       ??_C@_02IIPPCIJE@e1?$AA@   10052c98     SnmpOperate.obj
 0002:00000c9c       ??_C@_03PKBFJBAM@ds1?$AA@  10052c9c     SnmpOperate.obj
 0002:00000ca0       ??_C@_04DMPGPIIJ@sdlc?$AA@ 10052ca0     SnmpOperate.obj
 0002:00000ca8       ??_C@_04OFLPGDLN@lapb?$AA@ 10052ca8     SnmpOperate.obj
 0002:00000cb0       ??_C@_04GAAKFJEJ@fddi?$AA@ 10052cb0     SnmpOperate.obj
 0002:00000cb8       ??_C@_0N@FFBLGAOG@hyperchannel?$AA@ 10052cb8     SnmpOperate.obj
 0002:00000cc8       ??_C@_0P@HOOMKPDP@proteon?980Mbit?$AA@ 10052cc8     SnmpOperate.obj
 0002:00000cd8       ??_C@_0P@OLHEOKOM@proteon?910Mbit?$AA@ 10052cd8     SnmpOperate.obj
 0002:00000ce8       ??_C@_07IDDGCNDG@starLan?$AA@ 10052ce8     SnmpOperate.obj
 0002:00000cf0       ??_C@_0N@CNLMNINE@iso88026?9man?$AA@ 10052cf0     SnmpOperate.obj
 0002:00000d00       ??_C@_0BD@PMGENBBE@iso88025?9tokenRing?$AA@ 10052d00     SnmpOperate.obj
 0002:00000d14       ??_C@_0BC@HFEICCPH@iso88024?9tokenBus?$AA@ 10052d14     SnmpOperate.obj
 0002:00000d28       ??_C@_0BA@NKDKIBJP@iso88023?9csmacd?$AA@ 10052d28     SnmpOperate.obj
 0002:00000d38       ??_C@_0BA@NMNFPKMO@ethernet?9csmacd?$AA@ 10052d38     SnmpOperate.obj
 0002:00000d48       ??_C@_0L@LLLGBIPI@rfc877?9x25?$AA@ 10052d48     SnmpOperate.obj
 0002:00000d54       ??_C@_07JBHPBIIF@ddn?9x25?$AA@ 10052d54     SnmpOperate.obj
 0002:00000d5c       ??_C@_07GBMMFKKO@hdh1822?$AA@ 10052d5c     SnmpOperate.obj
 0002:00000d64       ??_C@_0M@GLPJPPIK@regular1822?$AA@ 10052d64     SnmpOperate.obj
 0002:00000d70       ??_C@_05BGEKGIIP@other?$AA@ 10052d70     SnmpOperate.obj
 0002:00000d78       ??_C@_09IPAEKDAI@localhost?$AA@ 10052d78     SVDefines.obj
 0002:00000d84       ??_C@_07DLHCIBDH@default?$AA@ 10052d84     SVDefines.obj
 0002:00000d8c       ??_7Address@@6B@           10052d8c     Snmp_pp:address.obj
 0002:00000dc8       ??_7IpAddress@@6B@         10052dc8     Snmp_pp:address.obj
 0002:00000e18       ??_C@_0EI@FDOAGDIF@?$CF02x?$CF02x?3?$CF02x?$CF02x?3?$CF02x?$CF02x?3?$CF02x?$CF@ 10052e18     Snmp_pp:address.obj
 0002:00000e60       ??_C@_0EM@JNNABFAC@?$CF02x?$CF02x?3?$CF02x?$CF02x?3?$CF02x?$CF02x?3?$CF02x?$CF@ 10052e60     Snmp_pp:address.obj
 0002:00000eac       ??_C@_0M@PCENNPGA@?$CFd?4?$CFd?4?$CFd?4?$CFd?$AA@ 10052eac     Snmp_pp:address.obj
 0002:00000eb8       ??_7UdpAddress@@6B@        10052eb8     Snmp_pp:address.obj
 0002:00000f04       ??_C@_08CKFCFLGG@?$FL?$CFs?$FN?$CFc?$CFd?$AA@ 10052f04     Snmp_pp:address.obj
 0002:00000f10       ??_C@_06GNAFJLOE@?$CFs?$CFc?$CFd?$AA@ 10052f10     Snmp_pp:address.obj
 0002:00000f18       ??_7Oid@@6B@               10052f18     Snmp_pp:oid.obj
 0002:00000f4c       ??_C@_03FKNCMABI@?$CFlu?$AA@ 10052f4c     Snmp_pp:oid.obj
 0002:00000f50       ??_7TimeTicks@@6B@         10052f50     Snmp_pp:vb.obj
 0002:00000f70       ??_7SnmpUInt32@@6B@        10052f70     Snmp_pp:vb.obj
 0002:00000f90       ??_7Counter32@@6B@         10052f90     Snmp_pp:vb.obj
 0002:00000fb0       ??_7Gauge32@@6B@           10052fb0     Snmp_pp:vb.obj
 0002:00000fd0       ??_7OpaqueStr@@6B@         10052fd0     Snmp_pp:vb.obj
 0002:00000ff0       ??_C@_07GLCKIJBG@initial?$AA@ 10052ff0     Snmp_pp:target.obj
 0002:00000ff8       ??_7OctetStr@@6B@          10052ff8     Snmp_pp:octet.obj
 0002:00001018       ??_C@_07OBIFHPFC@?5?5?5?$CFs?$CFs?$AA@ 10053018     Snmp_pp:octet.obj
 0002:00001020       ??_C@_06GFFMGKPJ@?$CF2?42X?5?$AA@ 10053020     Snmp_pp:octet.obj
 0002:00001028       ??_C@_0BO@ICMDLHCB@SNMP?$CL?$CL?3?5Blocked?5Mode?5Shutdown?$AA@ 10053028     Snmp_pp:uxsnmp.obj
 0002:00001048       ??_C@_0CA@NIPKBMHJ@SNMP?$CL?$CL?3?5Transport?5access?5denied?$AA@ 10053048     Snmp_pp:uxsnmp.obj
 0002:00001068       ??_C@_0CD@KPCBFEOA@SNMP?$CL?$CL?3?5Transport?5operation?5fail@ 10053068     Snmp_pp:uxsnmp.obj
 0002:0000108c       ??_C@_0BM@FHNDJPCD@SNMP?$CL?$CL?3?5Transport?5is?5in?5use?$AA@ 1005308c     Snmp_pp:uxsnmp.obj
 0002:000010a8       ??_C@_0CD@DJLNELBM@SNMP?$CL?$CL?3?5Transport?5is?5not?5support@ 100530a8     Snmp_pp:uxsnmp.obj
 0002:000010cc       ??_C@_0CO@MIMELOLK@SNMP?$CL?$CL?3?5Agent?5indicates?5error?5in@ 100530cc     Snmp_pp:uxsnmp.obj
 0002:000010fc       ??_C@_0BI@MMMJPHHD@SNMP?$CL?$CL?3?5Invalid?5Address?$AA@ 100530fc     Snmp_pp:uxsnmp.obj
 0002:00001114       ??_C@_0CC@JMBIEIDF@SNMP?$CL?$CL?3?5Invalid?5Object?5Identifie@ 10053114     Snmp_pp:uxsnmp.obj
 0002:00001138       ??_C@_0DJ@PEJNNBEF@SNMP?$CL?$CL?3?5SNMP?5Operation?5not?5suppo@ 10053138     Snmp_pp:uxsnmp.obj
 0002:00001174       ??_C@_0CA@JMGLDDMO@SNMP?$CL?$CL?3?5Invalid?5Notification?5Id?$AA@ 10053174     Snmp_pp:uxsnmp.obj
 0002:00001194       ??_C@_0BL@LHHOHHLK@SNMP?$CL?$CL?3?5Invalid?5Request?5Id?$AA@ 10053194     Snmp_pp:uxsnmp.obj
 0002:000011b0       ??_C@_0CJ@OJJJNGGJ@SNMP?$CL?$CL?3?5Invalid?5?$CInull?$CJ?5Callback?5@ 100531b0     Snmp_pp:uxsnmp.obj
 0002:000011dc       ??_C@_0BH@KOIBLHKA@SNMP?$CL?$CL?3?5Invalid?5Target?$AA@ 100531dc     Snmp_pp:uxsnmp.obj
 0002:000011f4       ??_C@_0BE@IDMBOJEN@SNMP?$CL?$CL?3?5Invalid?5Pdu?$AA@ 100531f4     Snmp_pp:uxsnmp.obj
 0002:00001208       ??_C@_0BI@PPFFNPAA@SNMP?$CL?$CL?3?5Class?5not?5valid?$AA@ 10053208     Snmp_pp:uxsnmp.obj
 0002:00001220       ??_C@_0BD@IDDEPIHN@Unknown?5error?5code?$AA@ 10053220     Snmp_pp:uxsnmp.obj
 0002:00001234       ??_C@_0DC@EJHFOEAF@SNMP?$CL?$CL?3?5Closing?5session?5with?5out@ 10053234     Snmp_pp:uxsnmp.obj
 0002:00001268       ??_C@_0DE@GPHHKHEB@SNMP?$CL?$CL?3?5Received?5SNMP?5Notificati@ 10053268     Snmp_pp:uxsnmp.obj
 0002:0000129c       ??_C@_0BP@GNNAMNLD@SNMP?$CL?$CL?3?5Received?5SNMP?5Response?$AA@ 1005329c     Snmp_pp:uxsnmp.obj
 0002:000012bc       ??_C@_0BP@NAKMICOE@SNMP?$CL?$CL?3?5SNMP?5request?5timed?5out?$AA@ 100532bc     Snmp_pp:uxsnmp.obj
 0002:000012dc       ??_C@_0BN@CDAIDFIH@SNMP?$CL?$CL?3?5Unsupported?5function?$AA@ 100532dc     Snmp_pp:uxsnmp.obj
 0002:000012fc       ??_C@_0BH@FIJOGMBO@SNMP?$CL?$CL?3?5Internal?5error?$AA@ 100532fc     Snmp_pp:uxsnmp.obj
 0002:00001314       ??_C@_0BN@NJLAMKAM@SNMP?$CL?$CL?3?5Resource?5unavailable?$AA@ 10053314     Snmp_pp:uxsnmp.obj
 0002:00001334       ??_C@_0BJ@KANBNMFL@SNMP?$CL?$CL?3?5Operation?5failed?$AA@ 10053334     Snmp_pp:uxsnmp.obj
 0002:00001350       ??_C@_0BA@HAPMHMBF@SNMP?$CL?$CL?3?5Success?$AA@ 10053350     Snmp_pp:uxsnmp.obj
 0002:00001360       ??_C@_0BP@JLFNJOCA@SNMPv3?3?5USM?3?5unknown?5errorcode?$AA@ 10053360     Snmp_pp:uxsnmp.obj
 0002:00001380       ??_C@_0CG@LAHEJGLN@SNMPv3?3?5USM?3?5Could?5not?5read?5from@ 10053380     Snmp_pp:uxsnmp.obj
 0002:000013a8       ??_C@_0CH@GDGPDGHH@SNMPv3?3?5USM?3?5Could?5not?5write?5int@ 100533a8     Snmp_pp:uxsnmp.obj
 0002:000013d0       ??_C@_0CD@HPCLFCMP@SNMPv3?3?5USM?3?5Could?5not?5delete?5fi@ 100533d0     Snmp_pp:uxsnmp.obj
 0002:000013f4       ??_C@_0CD@KGODLBOC@SNMPv3?3?5USM?3?5Could?5not?5rename?5fi@ 100533f4     Snmp_pp:uxsnmp.obj
 0002:00001418       ??_C@_0CB@ILHEFPPJ@SNMPv3?3?5USM?3?5Could?5not?5open?5file@ 10053418     Snmp_pp:uxsnmp.obj
 0002:0000143c       ??_C@_0CD@CNIHBAMO@SNMPv3?3?5USM?3?5Could?5not?5create?5fi@ 1005343c     Snmp_pp:uxsnmp.obj
 0002:00001460       ??_C@_0BL@HECIEAHG@SNMPv3?3?5USM?3?5Address?5error?$AA@ 10053460     Snmp_pp:uxsnmp.obj
 0002:0000147c       ??_C@_0CG@NANGLNIN@SNMPv3?3?5USM?3?5Unsupported?5PrivPro@ 1005347c     Snmp_pp:uxsnmp.obj
 0002:000014a4       ??_C@_0CG@JBNKBDMK@SNMPv3?3?5USM?3?5Unsupported?5AuthPro@ 100534a4     Snmp_pp:uxsnmp.obj
 0002:000014cc       ??_C@_0CH@NKGJEOAO@SNMPv3?3?5USM?3?5Message?5not?5in?5Time@ 100534cc     Snmp_pp:uxsnmp.obj
 0002:000014f4       ??_C@_0BO@EJECPKPB@SNMPv3?3?5USM?3?5Unknown?5EngineID?$AA@ 100534f4     Snmp_pp:uxsnmp.obj
 0002:00001514       ??_C@_0BJ@MBMAHMIH@SNMPv3?3?5USM?3?5Parse?5error?$AA@ 10053514     Snmp_pp:uxsnmp.obj
 0002:00001530       ??_C@_0CE@IOJMLBGB@SNMPv3?3?5USM?3?5Authentication?5fail@ 10053530     Snmp_pp:uxsnmp.obj
 0002:00001554       ??_C@_0CC@IJEOFDDP@SNMPv3?3?5USM?3?5Authentication?5erro@ 10053554     Snmp_pp:uxsnmp.obj
 0002:00001578       ??_C@_0BO@HCJPPPCK@SNMPv3?3?5USM?3?5Decryption?5error?$AA@ 10053578     Snmp_pp:uxsnmp.obj
 0002:00001598       ??_C@_0BO@KPOCBPNE@SNMPv3?3?5USM?3?5Encryption?5error?$AA@ 10053598     Snmp_pp:uxsnmp.obj
 0002:000015b8       ??_C@_0CC@PDCKFJIO@SNMPv3?3?5USM?3?5Unknown?5SecurityNam@ 100535b8     Snmp_pp:uxsnmp.obj
 0002:000015dc       ??_C@_0CH@JFNCOEOM@SNMPv3?3?5USM?3?5Unsupported?5Securit@ 100535dc     Snmp_pp:uxsnmp.obj
 0002:00001604       ??_C@_0CE@JEBGCGAP@SNMPv3?3?5USM?3?5Configfile?5write?5er@ 10053604     Snmp_pp:uxsnmp.obj
 0002:00001628       ??_C@_0BA@JPFHKEOG@SNMPv3?3?5USM?3?5ok?$AA@ 10053628     Snmp_pp:uxsnmp.obj
 0002:00001638       ??_C@_0BK@JPLPDDGM@SNMPv3?3?5Unknown?5errorcode?$AA@ 10053638     Snmp_pp:uxsnmp.obj
 0002:00001654       ??_C@_0BE@FHFMKKJ@SNMPv3?3?5Report?5sent?$AA@ 10053654     Snmp_pp:uxsnmp.obj
 0002:00001668       ??_C@_0BI@LDKJPJKF@SNMPv3?3?5Unknown?5Context?$AA@ 10053668     Snmp_pp:uxsnmp.obj
 0002:00001680       ??_C@_0BM@OFDBJMND@SNMPv3?3?5Unavailable?5Context?$AA@ 10053680     Snmp_pp:uxsnmp.obj
 0002:0000169c       ??_C@_0BN@GNMMNKOA@SNMPv3?3?5Unknown?5pdu?5handlers?$AA@ 1005369c     Snmp_pp:uxsnmp.obj
 0002:000016bc       ??_C@_0BD@MBNEDINM@SNMPv3?3?5USM?3?5error?$AA@ 100536bc     Snmp_pp:uxsnmp.obj
 0002:000016d0       ??_C@_0BE@NAEAJAIJ@SNMPv3?3?5Build?5error?$AA@ 100536d0     Snmp_pp:uxsnmp.obj
 0002:000016e4       ??_C@_0BJ@BGOCFHPL@SNMPv3?3?5Unknown?5UserName?$AA@ 100536e4     Snmp_pp:uxsnmp.obj
 0002:00001700       ??_C@_0BP@OLNOABBJ@SNMPv3?3?5Community?5format?5error?$AA@ 10053700     Snmp_pp:uxsnmp.obj
 0002:00001720       ??_C@_0CN@LEAGMMKC@SNMPv3?3?5Message?5does?5not?5match?5k@ 10053720     Snmp_pp:uxsnmp.obj
 0002:00001750       ??_C@_0CM@NFNBGMCC@SNMPv3?3?5Received?5Message?5with?5un@ 10053750     Snmp_pp:uxsnmp.obj
 0002:0000177c       ??_C@_0BE@EJHNKGLE@SNMPv3?3?5Parse?5Error?$AA@ 1005377c     Snmp_pp:uxsnmp.obj
 0002:00001790       ??_C@_0BN@DDAGPKBI@SNMPv3?3?5v3MP?5not?5initialized?$AA@ 10053790     Snmp_pp:uxsnmp.obj
 0002:000017b0       ??_C@_0BJ@IIJHDDLM@SNMPv3?3?5Invalid?5EngineID?$AA@ 100537b0     Snmp_pp:uxsnmp.obj
 0002:000017cc       ??_C@_0BI@OPPLPACG@SNMPv3?3?5Invalid?5Message?$AA@ 100537cc     Snmp_pp:uxsnmp.obj
 0002:000017e4       ??_C@_0CE@HKHOBJDM@SNMPv3?3?5received?5same?5Message?5tw@ 100537e4     Snmp_pp:uxsnmp.obj
 0002:00001808       ??_C@_0CD@PBPNBBOC@SNMPv3?3?5Message?5not?5in?5Time?5Wind@ 10053808     Snmp_pp:uxsnmp.obj
 0002:0000182c       ??_C@_0CD@KHLMPBAD@SNMPv3?3?5Unsupported?5Security?5Mod@ 1005382c     Snmp_pp:uxsnmp.obj
 0002:00001850       ??_C@_0BA@LAJKOCFK@SNMPv3?3?5v3MP?5ok?$AA@ 10053850     Snmp_pp:uxsnmp.obj
 0002:00001860       ??_C@_0BD@EOGGGJAJ@SNMPv3?3?5v3MP?5error?$AA@ 10053860     Snmp_pp:uxsnmp.obj
 0002:00001874       ??_C@_0BL@GBAGCPCE@SNMP?3?5Unknown?5Error?5Status?$AA@ 10053874     Snmp_pp:uxsnmp.obj
 0002:00001890       ??_C@_0DA@INBCBABJ@SNMP?3?5Cannot?5create?5variable?0?5In@ 10053890     Snmp_pp:uxsnmp.obj
 0002:000018c0       ??_C@_0CP@BGLHCNBP@SNMP?3?5Cannot?5create?1set?5variable@ 100538c0     Snmp_pp:uxsnmp.obj
 0002:000018f0       ??_C@_0DE@DGMFPADF@SNMP?3?5Cannot?5perform?5operation?0?5@ 100538f0     Snmp_pp:uxsnmp.obj
 0002:00001924       ??_C@_0CO@MNNNJIMC@SNMP?3?5Cannot?5create?1set?5variable@ 10053924     Snmp_pp:uxsnmp.obj
 0002:00001954       ??_C@_0DA@MMMGHAAI@SNMP?3?5Cannot?5create?1set?5variable@ 10053954     Snmp_pp:uxsnmp.obj
 0002:00001984       ??_C@_0DH@GLHCEGPJ@SNMP?3?5Cannot?5create?1set?5variable@ 10053984     Snmp_pp:uxsnmp.obj
 0002:000019bc       ??_C@_0DF@BLEEJOKL@SNMP?3?5Cannot?5create?1set?5variable@ 100539bc     Snmp_pp:uxsnmp.obj
 0002:000019f4       ??_C@_0DD@PJIAFMJD@SNMP?3?5Cannot?5create?5variable?0?5Cr@ 100539f4     Snmp_pp:uxsnmp.obj
 0002:00001a28       ??_C@_0CO@INJNODCL@SNMP?3?5Cannot?5create?1set?5variable@ 10053a28     Snmp_pp:uxsnmp.obj
 0002:00001a58       ??_C@_0DB@MECGFBCF@SNMP?3?5Cannot?5create?1set?5variable@ 10053a58     Snmp_pp:uxsnmp.obj
 0002:00001a8c       ??_C@_0CP@MEBOABKJ@SNMP?3?5Cannot?5create?1set?5variable@ 10053a8c     Snmp_pp:uxsnmp.obj
 0002:00001abc       ??_C@_0DA@GFHPDBHH@SNMP?3?5Cannot?5create?1modify?5varia@ 10053abc     Snmp_pp:uxsnmp.obj
 0002:00001aec       ??_C@_0CI@GOJFIAMM@SNMP?3?5Cannot?5access?5variable?0?5No@ 10053aec     Snmp_pp:uxsnmp.obj
 0002:00001b14       ??_C@_0CO@FLAMGNNF@SNMP?3?5Cannot?5perform?5operation?0?5@ 10053b14     Snmp_pp:uxsnmp.obj
 0002:00001b44       ??_C@_0CG@DMKGKBJF@SNMP?3?5Cannot?5modify?5object?0?5Read@ 10053b44     Snmp_pp:uxsnmp.obj
 0002:00001b6c       ??_C@_0CI@DAFJEBHE@SNMP?3?5Cannot?5modify?5variable?3?5Ba@ 10053b6c     Snmp_pp:uxsnmp.obj
 0002:00001b94       ??_C@_0BO@DGPFCLDF@SNMP?3?5Variable?5does?5not?5exist?$AA@ 10053b94     Snmp_pp:uxsnmp.obj
 0002:00001bb4       ??_C@_0BL@PACBDBCA@SNMP?3?5Response?5PDU?5Too?5Big?$AA@ 10053bb4     Snmp_pp:uxsnmp.obj
 0002:00001bd0       ??_C@_07PBILKAFL@Success?$AA@ 10053bd0     Snmp_pp:uxsnmp.obj
 0002:00001bd8       ??_C@_0CC@NOILLNAE@v3CallBack?3?5calling?5user?5callbac@ 10053bd8     Snmp_pp:uxsnmp.obj
 0002:00001bfc       ??_C@_0CI@KKICCAL@v3CallBack?3?5snmp_engine?5called?0?5@ 10053bfc     Snmp_pp:uxsnmp.obj
 0002:00001c24       ??_C@_0BH@MJKBJGHE@1?43?46?41?46?43?415?41?41?42?40?$AA@ 10053c24     Snmp_pp:uxsnmp.obj
 0002:00001c3c       ??_C@_0BH@OMMKMJKI@1?43?46?41?46?43?415?41?41?44?40?$AA@ 10053c3c     Snmp_pp:uxsnmp.obj
 0002:00001c54       ??_C@_0CK@IFGKHPAD@v3CallBack?3?5error_msg?5?$CI?$CFs?$CJ?0?5pdu_@ 10053c54     Snmp_pp:uxsnmp.obj
 0002:00001c80       ??_C@_0CM@JPFCMELC@v3CallBack?3?5received?5oid?3?5?$CFs?5wit@ 10053c80     Snmp_pp:uxsnmp.obj
 0002:00001cac       ??_C@_0BJ@CBMFBLJD@Error?5sending?5packet?3?5?$CFs?$AA@ 10053cac     Snmp_pp:uxsnmp.obj
 0002:00001cc8       ??_C@_0CO@OJFBFMHN@User?5error?3?5Enable?5IPv6?5and?5reco@ 10053cc8     Snmp_pp:uxsnmp.obj
 0002:00001cf8       ??_C@_0BK@MEGBEPKK@?$CL?$CL?5SNMP?$CL?$CL?3?5sending?5to?5?$CFs?3?$AA@ 10053cf8     Snmp_pp:uxsnmp.obj
 0002:00001d14       ??_C@_0DK@JPFBPEKF@receive_snmp_response?5requestID?5@ 10053d14     Snmp_pp:uxsnmp.obj
 0002:00001d50       ??_C@_0BK@KLDJOEE@?5addtoengineidtable?3?5?$CI?$CFs?$CJ?$AA@ 10053d50     Snmp_pp:uxsnmp.obj
 0002:00001d70       ??_C@_0GE@GOJFDHLO@receive_snmp_response?3?5engine_id@ 10053d70     Snmp_pp:uxsnmp.obj
 0002:00001dd4       ??_C@_0CC@IGEJNMEA@?$CL?$CL?5SNMP?$CL?$CL?3?5data?5received?5from?5?$CFs@ 10053dd4     Snmp_pp:uxsnmp.obj
 0002:00001df8       ??_C@_0CE@CLDMMDGP@Unknown?5socket?5address?5family?5?$CI?$CF@ 10053df8     Snmp_pp:uxsnmp.obj
 0002:00001e1c       ??_C@_0CO@HGFKHNCI@Received?5message?5is?5ignored?5?$CIpac@ 10053e1c     Snmp_pp:uxsnmp.obj
 0002:00001e4c       ??_C@_0CO@NHKDPLLI@Length?5received?5?$CFi?5from?5socket?5?$CF@ 10053e4c     Snmp_pp:uxsnmp.obj
 0002:00001e7c       ??_C@_0CB@IFCOEDMA@?$CL?$CL?5SNMP?$CL?$CL?3?5something?5received?4?4?4@ 10053e7c     Snmp_pp:uxsnmp.obj
 0002:00001ea0       ??_C@_0GI@FGHGDJPB@receive_snmp_notification?3?5engin@ 10053ea0     Snmp_pp:uxsnmp.obj
 0002:00001f08       ??_C@_07OHKHACFK@0?40?40?40?$AA@ 10053f08     Snmp_pp:uxsnmp.obj
 0002:00001f10       ??_C@_02MOLJINC@?3?3?$AA@  10053f10     Snmp_pp:uxsnmp.obj
 0002:00001f18       ??_7Snmp@@6B@              10053f18     Snmp_pp:uxsnmp.obj
 0002:00001f7c       ??_C@_0BN@JBBACNFP@WSACleanup?3?5ReturnValue?5?$CI?$CFi?$CJ?$AA@ 10053f7c     Snmp_pp:uxsnmp.obj
 0002:00001f9c       ??_C@_0BN@KEAPDBKE@Call?5to?5bind?5throws?5error?5?$CFd?$AA@ 10053f9c     Snmp_pp:uxsnmp.obj
 0002:00001fbc       ??_C@_0BP@MOFDOHGE@Call?5to?5socket?5throws?5error?5?$CFd?$AA@ 10053fbc     Snmp_pp:uxsnmp.obj
 0002:00001fdc       ??_C@_0BO@JFKKJJJB@Initialized?5request_id?5to?5?$CFi?4?$AA@ 10053fdc     Snmp_pp:uxsnmp.obj
 0002:00001ffc       ??_C@_0BF@LKDNMEFJ@1?43?46?41?46?43?412?41?45?40?$AA@ 10053ffc     Snmp_pp:uxsnmp.obj
 0002:00002014       ??_C@_0BF@CIBKDDM@1?43?46?41?46?43?412?41?44?40?$AA@ 10054014     Snmp_pp:uxsnmp.obj
 0002:0000202c       ??_C@_0BH@PGHJFGII@1?43?46?41?46?43?411?42?41?43?40?$AA@ 1005402c     Snmp_pp:uxsnmp.obj
 0002:00002044       ??_C@_0BH@EOMFDBON@1?43?46?41?46?43?411?42?41?42?40?$AA@ 10054044     Snmp_pp:uxsnmp.obj
 0002:0000205c       ??_C@_0BH@FMHAJOAD@1?43?46?41?46?43?411?42?41?41?40?$AA@ 1005405c     Snmp_pp:uxsnmp.obj
 0002:00002074       ??_C@_0BH@EGMDABCD@1?43?46?41?46?43?415?41?41?46?40?$AA@ 10054074     Snmp_pp:uxsnmp.obj
 0002:0000208c       ??_C@_0BH@FEHGKOMN@1?43?46?41?46?43?415?41?41?45?40?$AA@ 1005408c     Snmp_pp:uxsnmp.obj
 0002:000020a4       ??_C@_0BH@HBBNPBBB@1?43?46?41?46?43?415?41?41?43?40?$AA@ 100540a4     Snmp_pp:uxsnmp.obj
 0002:000020bc       ??_C@_0BH@NLBEDJJK@1?43?46?41?46?43?415?41?41?41?40?$AA@ 100540bc     Snmp_pp:uxsnmp.obj
 0002:000020d4       ??_C@_0DH@JDIJFGMA@Snmp?3?5Invalid?5Operation?3?5Inform?5@ 100540d4     Snmp_pp:uxsnmp.obj
 0002:0000210c       ??_C@_0BJ@ILFAHBMA@snmp?5message?5load?5error?$CB?$AA@ 1005410c     Snmp_pp:uxsnmp.obj
 0002:00002128       ??_C@_0BA@EOMJGGDH@?5Addr?1Port?5?$CI?$CFs?$CJ?$AA@ 10054128     Snmp_pp:uxsnmp.obj
 0002:00002138       ??_C@_0EK@DLLDADCN@?5engineID?5?$CI?$CFs?$CJ?0?5securityName?5?$CI?$CFs@ 10054138     Snmp_pp:uxsnmp.obj
 0002:00002184       ??_C@_0M@OAKKCPNJ@Snmp?3?3trap?3?$AA@ 10054184     Snmp_pp:uxsnmp.obj
 0002:00002190       ??_C@_0CH@KAEDPNMI@Setting?5contextEngineID?5of?5Pdu?5t@ 10054190     Snmp_pp:uxsnmp.obj
 0002:000021b8       ??_C@_0DL@DNOCMNF@?9?9?5SNMP?$CL?$CL?0?5dont?5know?5how?5to?5hand@ 100541b8     Snmp_pp:uxsnmp.obj
 0002:000021f4       ??_C@_0BP@GKMPNMMD@?9?9?5SNMP?$CL?$CL?0?5copy?5address?5failed?$AA@ 100541f4     Snmp_pp:uxsnmp.obj
 0002:00002214       ??_C@_0BM@OBBNEBOK@?9?9?5SNMP?$CL?$CL?0?5Bad?5address?5type?$AA@ 10054214     Snmp_pp:uxsnmp.obj
 0002:00002230       ??_C@_0BH@CMDFKHHP@?9?9?5SNMP?$CL?$CL?0?5Bad?5address?$AA@ 10054230     Snmp_pp:uxsnmp.obj
 0002:00002248       ??_C@_0BI@BDIDPCEO@?9?9?5SNMP?$CL?$CL?0?5Resolve?5Fail?$AA@ 10054248     Snmp_pp:uxsnmp.obj
 0002:00002260       ??_C@_0EG@IOGKAJ@?9?9?5SNMP?$CL?$CL?0?5Target?5contains?5inval@ 10054260     Snmp_pp:uxsnmp.obj
 0002:000022a8       ??_C@_0CC@NLDBPFAD@?9?9?5SNMP?$CL?$CL?0?5Resolve?5Fail?5?$CIUTarget@ 100542a8     Snmp_pp:uxsnmp.obj
 0002:000022cc       ??_C@_0BJ@BCFNBAGF@trap?5called?5with?5UTarget?$AA@ 100542cc     Snmp_pp:uxsnmp.obj
 0002:000022e8       ??_C@_0CC@NOJLPELC@?9?9?5SNMP?$CL?$CL?0?5use?5UTarget?5for?5SNMPv@ 100542e8     Snmp_pp:uxsnmp.obj
 0002:0000230c       ??_C@_0CC@EOLMOPI@?9?9?5SNMP?$CL?$CL?0?5Resolve?5Fail?5?$CICTarget@ 1005430c     Snmp_pp:uxsnmp.obj
 0002:00002330       ??_C@_0BP@HHDIDJFM@snmp?3?3trap?5called?5with?5CTarget?$AA@ 10054330     Snmp_pp:uxsnmp.obj
 0002:00002350       ??_C@_0CG@LANCEEBK@?9?9?5SNMP?$CL?$CL?0?5type?5of?5target?5is?5unk@ 10054350     Snmp_pp:uxsnmp.obj
 0002:00002378       ??_C@_0DM@LHLIDFBE@?9?9?5SNMP?$CL?$CL?0?5do?5not?5use?5SnmpTarget@ 10054378     Snmp_pp:uxsnmp.obj
 0002:000023b4       ??_C@_0CB@IOHHAIDG@?9?9?5SNMP?$CL?$CL?0?5Target?5Object?5Invalid@ 100543b4     Snmp_pp:uxsnmp.obj
 0002:000023d8       ??_C@_0BO@LDKDPD@?9?9?5SNMP?$CL?$CL?0?5PDU?5Object?5Invalid?$AA@ 100543d8     Snmp_pp:uxsnmp.obj
 0002:000023f8       ??_C@_0BH@JEDAKLKH@?$CL?$CL?5SNMP?$CL?$CL?0?5Send?5a?5Trap?$AA@ 100543f8     Snmp_pp:uxsnmp.obj
 0002:00002410       ??_C@_0CA@IIMOPGNI@received?5oid?3?5?$CFs?5with?5value?3?5?$CFs?$AA@ 10054410     Snmp_pp:uxsnmp.obj
 0002:00002430       ??_C@_0FK@DPLHHMND@Snmp?3?3snmp_engine?3?5engineID?5?$CI?$CFs?$CJ@ 10054430     Snmp_pp:uxsnmp.obj
 0002:0000248c       ??_C@_0DA@KLMJFCJM@?9?9?5SNMP?$CL?$CL?0?5need?5UTarget?5to?5send?5@ 1005448c     Snmp_pp:uxsnmp.obj
 0002:000024bc       ??_C@_0CL@NNKBPGPP@?9?9?5SNMP?$CL?$CL?0?5Target?5contains?5inval@ 100544bc     Snmp_pp:uxsnmp.obj
 0002:000024e8       ??_C@_0EF@DLCFJAPO@Snmp?3?5Target?5does?5not?5match?5SNMP@ 100544e8     Snmp_pp:uxsnmp.obj
 0002:00002530       ??_C@_0CA@EJOCDBMH@snmp_engine?5called?5with?5UTarget?$AA@ 10054530     Snmp_pp:uxsnmp.obj
 0002:00002550       ??_C@_0CA@PDDGAJGL@snmp_engine?5called?5with?5CTarget?$AA@ 10054550     Snmp_pp:uxsnmp.obj
 0002:00002570       ??_C@_0DL@HFFIEBAI@?9?9?5SNMP?$CL?$CL?0?5do?5not?5use?5SnmpTarget@ 10054570     Snmp_pp:uxsnmp.obj
 0002:000025ac       ??_7Pdu@@6B@               100545ac     Snmp_pp:uxsnmp.obj
 0002:000025b0       ??_C@_0CE@KPIHKOOF@Error?5receiving?5discovery?5respon@ 100545b0     Snmp_pp:uxsnmp.obj
 0002:000025d4       ??_C@_0CD@IEFFIHPI@Response?5received?5from?5?$CI?$CFs?$CJ?5id?5?$CF@ 100545d4     Snmp_pp:uxsnmp.obj
 0002:000025f8       ??_C@_0BH@KHGMECG@Error?5sending?5message?4?$AA@ 100545f8     Snmp_pp:uxsnmp.obj
 0002:00002610       ??_C@_0CE@DNMHLMK@Error?5receiving?5broadcast?5respon@ 10054610     Snmp_pp:uxsnmp.obj
 0002:00002634       ??_C@_0BI@PACLOAJF@Error?5sending?5broadast?4?$AA@ 10054634     Snmp_pp:uxsnmp.obj
 0002:0000264c       ??_C@_0CD@CLAJJOKF@Error?5encoding?5broadcast?5pdu?5?$CI?$CFi@ 1005464c     Snmp_pp:uxsnmp.obj
 0002:00002670       ??_C@_0BC@HDFNHELG@1?43?46?41?42?41?41?41?40?$AA@ 10054670     Snmp_pp:uxsnmp.obj
 0002:00002684       ??_C@_02PEDAEKLF@?41?$AA@  10054684     Snmp_pp:uxsnmp.obj
 0002:00002688       ??_C@_0BC@EFOECHPE@1?43?46?41?46?43?41?41?45?$AA@ 10054688     Snmp_pp:uxsnmp.obj
 0002:0000269c       ??_C@_02NPBNBJHG@?42?$AA@  1005469c     Snmp_pp:uxsnmp.obj
 0002:000026a0       ??_C@_02MGAGCIDH@?43?$AA@  100546a0     Snmp_pp:uxsnmp.obj
 0002:000026a4       ??_7linkUpOid@@6B@         100546a4     Snmp_pp:uxsnmp.obj
 0002:000026a4       ??_7warmStartOid@@6B@      100546a4     Snmp_pp:uxsnmp.obj
 0002:000026a4       ??_7linkDownOid@@6B@       100546a4     Snmp_pp:uxsnmp.obj
 0002:000026a4       ??_7authenticationFailureOid@@6B@ 100546a4     Snmp_pp:uxsnmp.obj
 0002:000026a4       ??_7coldStartOid@@6B@      100546a4     Snmp_pp:uxsnmp.obj
 0002:000026a4       ??_7egpNeighborLossOid@@6B@ 100546a4     Snmp_pp:uxsnmp.obj
 0002:000026d8       ??_C@_02IJEHLOPA@?44?$AA@  100546d8     Snmp_pp:uxsnmp.obj
 0002:000026dc       ??_C@_02JAFMIPLB@?45?$AA@  100546dc     Snmp_pp:uxsnmp.obj
 0002:000026e0       ??_C@_02LLHBNMHC@?46?$AA@  100546e0     Snmp_pp:uxsnmp.obj
 0002:000026e4       ??_7snmpTrapsOid@@6B@      100546e4     Snmp_pp:uxsnmp.obj
 0002:000026e4       ??_7snmpTrapEnterpriseOid@@6B@ 100546e4     Snmp_pp:uxsnmp.obj
 0002:00002718       ??_C@_0BG@LCAEBKPE@1?43?46?41?46?43?41?41?44?43?40?$AA@ 10054718     Snmp_pp:uxsnmp.obj
 0002:00002730       ??_C@_0DB@HEGKBAKE@v3MP?3?3EngineIdTable?3?5Error?5creat@ 10054730     Snmp_pp:mp_v3.obj
 0002:00002768       ??_C@_0FF@ENBPKOEF@v3MP?3?3EngineIdTable?3?5replace?5ent@ 10054768     Snmp_pp:mp_v3.obj
 0002:000027c0       ??_C@_0DJ@MIEEKNLB@v3MP?3?3EngineIdTable?3?5adding?5new?5@ 100547c0     Snmp_pp:mp_v3.obj
 0002:000027fc       ??_C@_0DL@ELIIONMN@v3MP?3?3EngineIdTable?3?5Dont?5know?5e@ 100547fc     Snmp_pp:mp_v3.obj
 0002:00002838       ??_C@_0CL@HIAEHGGG@v3MP?3?3Cache?3?5could?5not?5create?5em@ 10054838     Snmp_pp:mp_v3.obj
 0002:00002864       ??_C@_0DG@NFPCNADO@v3MP?3?3Cache?3?5Dont?5add?5doubled?5en@ 10054864     Snmp_pp:mp_v3.obj
 0002:0000289c       ??_C@_06IMIHEKN@remote?$AA@ 1005489c     Snmp_pp:mp_v3.obj
 0002:000028a4       ??_C@_05IDKHKMLA@local?$AA@ 100548a4     Snmp_pp:mp_v3.obj
 0002:000028ac       ??_C@_0DL@FDNNNLED@v3MP?3?3Cache?3?5adding?5new?5entry?5?$CIn@ 100548ac     Snmp_pp:mp_v3.obj
 0002:000028e8       ??_C@_0CN@NMKDEIOG@v3MP?3?3Cache?3?5Entry?5not?5found?5?$CIms@ 100548e8     Snmp_pp:mp_v3.obj
 0002:00002918       ??_C@_0CG@KJJDCPJP@v3MP?3?3Cache?3?5Moving?5entry?5?$CIfrom?$CJ@ 10054918     Snmp_pp:mp_v3.obj
 0002:00002940       ??_C@_0CN@EFNIGPLD@v3MP?3?3Cache?3?5Found?5entry?5?$CIn?$CJ?5?$CIms@ 10054940     Snmp_pp:mp_v3.obj
 0002:00002970       ??_C@_0DH@MMCHNPMF@v3MP?3?3Cache?3?5Entry?5to?5delete?5not@ 10054970     Snmp_pp:mp_v3.obj
 0002:000029a8       ??_C@_0DK@OAKLMKBL@v3MP?3?3Cache?3?5Delete?5unprocessed?5@ 100549a8     Snmp_pp:mp_v3.obj
 0002:000029e4       ??_C@_0DE@CBHCIO@v3MP?3?5You?5must?5not?5create?5two?5ob@ 100549e4     Snmp_pp:mp_v3.obj
 0002:00002a18       ??_C@_0CA@JNCCBBMD@v3MP?3?3send_report?3?5Report?5sent?4?$AA@ 10054a18     Snmp_pp:mp_v3.obj
 0002:00002a38       ??_C@_0CO@FCMLBCKL@v3MP?3?3send_report?3?5error?5sending@ 10054a38     Snmp_pp:mp_v3.obj
 0002:00002a68       ??_C@_0BL@PJAMHNHI@Received?5a?5snmpInform?5pdu?4?$AA@ 10054a68     Snmp_pp:mp_v3.obj
 0002:00002a88       ??_C@_0EI@EFBFGCPM@v3MP?3?3send_report?3?5error?5seriali@ 10054a88     Snmp_pp:mp_v3.obj
 0002:00002ad0       ??_C@_0BP@KBIMBKJD@ErrorCode?5was?5?$CFi?5in?5snmp_parse?$AA@ 10054ad0     Snmp_pp:mp_v3.obj
 0002:00002af0       ??_C@_0BJ@BAHAPECO@Report?3?5SecurityName?3?5?$CFs?$AA@ 10054af0     Snmp_pp:mp_v3.obj
 0002:00002b0c       ??_C@_0BD@OFNNDKIA@pdu?9?$DOreqid?5?$DN?50x?$CFlx?$AA@ 10054b0c     Snmp_pp:mp_v3.obj
 0002:00002b20       ??_C@_0CF@MEFCOCPA@mp?3?5Error?5while?5trying?5to?5parse?5@ 10054b20     Snmp_pp:mp_v3.obj
 0002:00002b48       ??_C@_0CM@POJONGKM@mp?3?5Error?5while?5trying?5to?5parse?5@ 10054b48     Snmp_pp:mp_v3.obj
 0002:00002b74       ??_C@_0CL@PMAHMIEE@v3MP?3?3send_report?3?5Sending?5repor@ 10054b74     Snmp_pp:mp_v3.obj
 0002:00002ba0       ??_C@_0CM@BMNAIEJA@mp?5error?3?5This?5line?5should?5not?5b@ 10054ba0     Snmp_pp:mp_v3.obj
 0002:00002bcc       ??_C@_0BL@IGGANPBG@mp?3?5parsing?5finished?5?$CIok?$CJ?4?$AA@ 10054bcc     Snmp_pp:mp_v3.obj
 0002:00002be8       ??_C@_0CB@IBHEGMIG@?$CK?$CK?$CK?5received?5doubled?5message?5?$CK?$CK?$CK@ 10054be8     Snmp_pp:mp_v3.obj
 0002:00002c0c       ??_C@_0DK@GLOJJGFE@snmp_parse?3?5securityEngineID?5doe@ 10054c0c     Snmp_pp:mp_v3.obj
 0002:00002c48       ??_C@_0CE@MEIHPCOL@Received?5Message?5with?5engineID?5?$DN@ 10054c48     Snmp_pp:mp_v3.obj
 0002:00002c6c       ??_C@_0DG@LOCKHAI@Received?5response?5message?5doesn?8@ 10054c6c     Snmp_pp:mp_v3.obj
 0002:00002ca4       ??_C@_0BB@HLPHLAH@mp?5finished?5?$CIOK?$CJ?$AA@ 10054ca4     Snmp_pp:mp_v3.obj
 0002:00002cb8       ??_C@_0DE@MOEHOIPD@Received?5report?5message?5doesn?8t?5@ 10054cb8     Snmp_pp:mp_v3.obj
 0002:00002cec       ??_C@_0BO@PLINLPKL@?$CK?$CK?$CK?5Receiving?5a?5ReportPDU?5?$CK?$CK?$CK?$AA@ 10054cec     Snmp_pp:mp_v3.obj
 0002:00002d10       ??_C@_0EG@CLNEPIFA@Received?5rspMsg?5without?5outstand@ 10054d10     Snmp_pp:mp_v3.obj
 0002:00002d58       ??_C@_0FF@CMMAAHKF@mp?3?5received?5request?5message?5wit@ 10054d58     Snmp_pp:mp_v3.obj
 0002:00002db0       ??_C@_0BF@EMPHEMHO@mp?3?5Error?5parsing?5Vb?$AA@ 10054db0     Snmp_pp:mp_v3.obj
 0002:00002dc8       ??_C@_0BH@CCCHOJMO@mp?3?5Error?5parsing?5PDU?$CB?$AA@ 10054dc8     Snmp_pp:mp_v3.obj
 0002:00002de0       ??_C@_0BN@DOIEDGAL@mp?3?5Error?5Parsing?5scopedPDU?$CB?$AA@ 10054de0     Snmp_pp:mp_v3.obj
 0002:00002e00       ??_C@_0BA@IBDHMLDN@ErrorCode?5is?5?$CFi?$AA@ 10054e00     Snmp_pp:mp_v3.obj
 0002:00002e10       ??_C@_0L@BGJKJINC@scoped?5PDU?$AA@ 10054e10     Snmp_pp:mp_v3.obj
 0002:00002e1c       ??_C@_0DC@LMLEEMNM@SecurityModel?5of?5incomming?5Messa@ 10054e1c     Snmp_pp:mp_v3.obj
 0002:00002e50       ??_C@_0CL@DLCIAGPD@mp?3?5error?5while?5executing?5USM?3?3p@ 10054e50     Snmp_pp:mp_v3.obj
 0002:00002e80       ??_C@_0EA@JDJIHBFJ@Parsed?5msgdata?5length?$CI0x?$CFx?$CJ?0?5msg@ 10054e80     Snmp_pp:mp_v3.obj
 0002:00002ec0       ??_C@_0CP@BJKAIKBJ@snmp_parse?3?5bad?5parse?5of?5msgSecu@ 10054ec0     Snmp_pp:mp_v3.obj
 0002:00002ef0       ??_C@_0CE@EADFDHJC@snmp_parse?3?5bad?5parse?5of?5msgMaxS@ 10054ef0     Snmp_pp:mp_v3.obj
 0002:00002f14       ??_C@_0CH@LECCEOBO@snmp_parse?3?5bad?5parse?5of?5msgHead@ 10054f14     Snmp_pp:mp_v3.obj
 0002:00002f3c       ??_C@_0CC@EJPDKHIE@Parsed?5length?$CI?$CFx?$CJ?0?5version?$CI0x?$CFlx@ 10054f3c     Snmp_pp:mp_v3.obj
 0002:00002f60       ??_C@_0CB@DKPIMJGC@snmp_parse?3?5bad?5parse?5of?5version@ 10054f60     Snmp_pp:mp_v3.obj
 0002:00002f84       ??_C@_0CM@CIKKCMBI@snmp_parse?3?5wrong?5length?5of?5rece@ 10054f84     Snmp_pp:mp_v3.obj
 0002:00002fb0       ??_C@_0CD@DBMMIJEA@snmp_parse?3?5wrong?5auth?5header?5ty@ 10054fb0     Snmp_pp:mp_v3.obj
 0002:00002fd4       ??_C@_0BH@FPMJJNGD@snmp_parse?3?5bad?5header?$AA@ 10054fd4     Snmp_pp:mp_v3.obj
 0002:00002fec       ??_C@_0CA@MJHIOEFF@mp?5is?5parsing?5incoming?5message?3?$AA@ 10054fec     Snmp_pp:mp_v3.obj
 0002:0000300c       ??_C@_0CN@DJHIFABL@Testing?5for?5v3?5message?3?5Bad?5pars@ 1005500c     Snmp_pp:mp_v3.obj
 0002:0000303c       ??_C@_0CP@EGOCGDJP@Testing?5for?5v3?5message?3?5Wrong?5au@ 1005503c     Snmp_pp:mp_v3.obj
 0002:0000306c       ??_C@_0CD@JGLCDONI@Testing?5for?5v3?5message?3?5Bad?5head@ 1005506c     Snmp_pp:mp_v3.obj
 0002:00003090       ??_C@_0DK@GJHJMAH@v3MP?3?5Should?5build?5message?5with?5@ 10055090     Snmp_pp:mp_v3.obj
 0002:000030cc       ??_C@_0CL@NMMIBONO@v3MP?3?5Returning?5error?5for?5buildi@ 100550cc     Snmp_pp:mp_v3.obj
 0002:000030f8       ??_C@_0BH@LNOLCDCF@v3MP?3?5Message?5built?5OK?$AA@ 100550f8     Snmp_pp:mp_v3.obj
 0002:00003110       ??_C@_0CB@HMHBAJAB@v3MP?3?5Error?5building?5header?5data@ 10055110     Snmp_pp:mp_v3.obj
 0002:00003134       ??_C@_0DK@GLHAMBMI@v3MP?3?5Unknown?5security?5level?5req@ 10055134     Snmp_pp:mp_v3.obj
 0002:00003170       ??_C@_0CM@HMCFIAFJ@v3MP?3?5Error?5encoding?5scoped?5pdu?5@ 10055170     Snmp_pp:mp_v3.obj
 0002:0000319c       ??_C@_0CK@GGLFFCHL@v3MP?3?5Error?5encoding?5data?5pdu?5in@ 1005519c     Snmp_pp:mp_v3.obj
 0002:000031c8       ??_C@_0CF@CBNBHGPA@v3MP?3?5Error?5encoding?5vbs?5into?5bu@ 100551c8     Snmp_pp:mp_v3.obj
 0002:000031f0       ??_C@_0GO@BDGCEDKG@v3MP?3?5Building?5message?5with?5?$CISec@ 100551f0     Snmp_pp:mp_v3.obj
 0002:00003260       ??_C@_0BH@HEPDCKMK@mp?3?5Cache?5lookup?5error?$AA@ 10055260     Snmp_pp:mp_v3.obj
 0002:00003278       ??_C@_0BB@GGDHGECD@Looking?5up?5cache?$AA@ 10055278     Snmp_pp:mp_v3.obj
 0002:0000328c       ??_C@_0DC@IODIMKHO@Could?5not?5generate?5localized?5pri@ 1005528c     Snmp_pp:usm_v3.obj
 0002:000032c0       ??_C@_0DM@CDOIINCL@Could?5not?5generate?5localized?5key@ 100552c0     Snmp_pp:usm_v3.obj
 0002:000032fc       ??_C@_0DC@KIKFBIDL@Could?5not?5generate?5localized?5aut@ 100552fc     Snmp_pp:usm_v3.obj
 0002:00003330       ??_C@_0DM@MLBBFFLG@Could?5not?5generate?5localized?5key@ 10055330     Snmp_pp:usm_v3.obj
 0002:00003370       ??_C@_0EA@KIIJCNFD@Get?5of?5just?5added?5localized?5entr@ 10055370     Snmp_pp:usm_v3.obj
 0002:000033b0       ??_C@_0CL@PKEOBLJI@Informing?5agent?$CL?$CL?5about?5newly?5cr@ 100553b0     Snmp_pp:usm_v3.obj
 0002:000033dc       ??_C@_0BM@HPDLHMGN@Cannot?5add?5User?3?5error?5code?$AA@ 100553dc     Snmp_pp:usm_v3.obj
 0002:000033f8       ??_C@_0BM@FAKJLELB@USM?3?3get_user?3?5User?5unknown?$AA@ 100553f8     Snmp_pp:usm_v3.obj
 0002:00003414       ??_C@_0CI@IGEPMKFN@USM?3?3get_user?3?5user?5?$CI?$CFs?$CJ?5engine_@ 10055414     Snmp_pp:usm_v3.obj
 0002:0000343c       ??_C@_0CF@DDDBLEKA@USM?3?3get_security_name?3?5User?5unk@ 1005543c     Snmp_pp:usm_v3.obj
 0002:00003464       ??_C@_0CH@NDFJBDMI@USM?3?3get_security_name?3?5get?5?5use@ 10055464     Snmp_pp:usm_v3.obj
 0002:0000348c       ??_C@_0CA@IECNABPH@usmGetUsmUserName?3?5User?5unknown?$AA@ 1005548c     Snmp_pp:usm_v3.obj
 0002:000034ac       ??_C@_0BE@NNJJOGNI@Complete?5Whole?5Msg?3?$AA@ 100554ac     Snmp_pp:usm_v3.obj
 0002:000034c0       ??_C@_0EB@EKJMHGKB@usm?3?5Authentication?5error?5for?5ou@ 100554c0     Snmp_pp:usm_v3.obj
 0002:00003504       ??_C@_0CB@GCIGEAHJ@usm?3?5could?5not?5generate?5wholeMsg@ 10055504     Snmp_pp:usm_v3.obj
 0002:00003528       ??_C@_0BD@FGANECJB@buf?5after?5privacy?3?$AA@ 10055528     Snmp_pp:usm_v3.obj
 0002:0000353c       ??_C@_0BE@JPEAENGC@usm?3?5Encoding?5Error?$AA@ 1005553c     Snmp_pp:usm_v3.obj
 0002:00003550       ??_C@_0CD@IKLCDBBM@usm?3?5Encryption?5error?5?$CIresult?5?$CFi@ 10055550     Snmp_pp:usm_v3.obj
 0002:00003574       ??_C@_0DA@MNELGBHN@usm?3?5Privacy?5requested?0?5but?5no?5U@ 10055574     Snmp_pp:usm_v3.obj
 0002:000035a4       ??_C@_0BH@HHGAHMAH@usm?3?5usmGetTime?5error?4?$AA@ 100555a4     Snmp_pp:usm_v3.obj
 0002:000035bc       ??_C@_0BL@OONPPBNB@user?5name?5too?5long?5?$CFi?5?$DO?5?$CFi?$AA@ 100555bc     Snmp_pp:usm_v3.obj
 0002:000035d8       ??_C@_0BL@BJCJCDFG@engine_id?5too?5long?5?$CFi?5?$DO?5?$CFi?$AA@ 100555d8     Snmp_pp:usm_v3.obj
 0002:000035f4       ??_C@_0BD@ODDLBFLD@USM?3?5User?5unknown?$CB?$AA@ 100555f4     Snmp_pp:usm_v3.obj
 0002:00003608       ??_C@_0BK@FCIAEJFL@Decryption?5error?5detected?$AA@ 10055608     Snmp_pp:usm_v3.obj
 0002:00003624       ??_C@_0O@ILOEHLNP@scopedPDU?$CI1?$CJ?3?$AA@ 10055624     Snmp_pp:usm_v3.obj
 0002:00003634       ??_C@_0CN@BONDOEIO@usmProcessMsg?3?5Decryption?5error?5@ 10055634     Snmp_pp:usm_v3.obj
 0002:00003664       ??_C@_0CH@EAMBCMCA@usmProcessMsg?3?5unknown?5PrivacyPr@ 10055664     Snmp_pp:usm_v3.obj
 0002:0000368c       ??_C@_0CK@FEFNOKCG@usmProcessMsg?3?5bad?5header?5of?5enc@ 1005568c     Snmp_pp:usm_v3.obj
 0002:000036b8       ??_C@_0BO@POEGAONE@?$CK?$CK?$CKEngineID?5not?5in?5timeTable?$CB?$AA@ 100556b8     Snmp_pp:usm_v3.obj
 0002:000036d8       ??_C@_0BO@EOMMPLHK@?$CK?$CK?$CKMessage?5not?5in?5TimeWindow?$CB?$AA@ 100556d8     Snmp_pp:usm_v3.obj
 0002:000036f8       ??_C@_0DK@HACMJHJB@usmProcessMsg?3?5error?5authenticat@ 100556f8     Snmp_pp:usm_v3.obj
 0002:00003734       ??_C@_0CE@JFDEND@usmProcessMsg?3?5unknown?5AuthProto@ 10055734     Snmp_pp:usm_v3.obj
 0002:00003758       ??_C@_0CH@EAPFMDEP@usmProcessMsg?3?5Authentication?5fa@ 10055758     Snmp_pp:usm_v3.obj
 0002:00003780       ??_C@_0CJ@GFLIOIFM@usmProcessMsg?3?5unsupported?5Secur@ 10055780     Snmp_pp:usm_v3.obj
 0002:000037ac       ??_C@_0N@OHBPFNDO@Memory?5error?$AA@ 100557ac     Snmp_pp:usm_v3.obj
 0002:000037bc       ??_C@_0BM@DOLADKMB@usmProcessMsg?3?5unknown?5user?$AA@ 100557bc     Snmp_pp:usm_v3.obj
 0002:000037d8       ??_C@_0CK@IICIMHBD@Accepting?5zero?5length?5user?1secur@ 100557d8     Snmp_pp:usm_v3.obj
 0002:00003804       ??_C@_0CB@LMHIELNO@usmProcessMsg?3?5unknown?5user?5?$CI?$CFs?$CJ@ 10055804     Snmp_pp:usm_v3.obj
 0002:00003828       ??_C@_0BG@CIJCADDH@USM?3?5EngineID?5unknown?$AA@ 10055828     Snmp_pp:usm_v3.obj
 0002:00003840       ??_C@_0BN@KNIDLDNL@user?5name?5too?5long?3?5?$CFi?5?$DO?5?$CFi?4?$AA@ 10055840     Snmp_pp:usm_v3.obj
 0002:00003860       ??_C@_0GL@MPINNOGL@Parsed?5usmUserName?5length?$CI0x?$CFx?$CJ?5@ 10055860     Snmp_pp:usm_v3.obj
 0002:000038cc       ??_C@_0CD@BCKIJMAF@Error?5Parsing?5msgPrivacyParamete@ 100558cc     Snmp_pp:usm_v3.obj
 0002:000038f0       ??_C@_0CC@BJANNJGN@bad?5parse?5of?5msgPrivacyParameter@ 100558f0     Snmp_pp:usm_v3.obj
 0002:00003914       ??_C@_0CJ@PAHADAJE@bad?5parse?5of?5msgAuthenticationPa@ 10055914     Snmp_pp:usm_v3.obj
 0002:00003940       ??_C@_0BJ@BBJNHCEL@bad?5parse?5of?5usmUserName?$AA@ 10055940     Snmp_pp:usm_v3.obj
 0002:0000395c       ??_C@_0CN@PJKIJHPI@Parsed?5engineBoots?$CI0x?$CFlx?$CJ?0?5engin@ 1005595c     Snmp_pp:usm_v3.obj
 0002:0000398c       ??_C@_0BI@COOFEDHC@bad?5parse?5of?5engineTime?$AA@ 1005598c     Snmp_pp:usm_v3.obj
 0002:000039a4       ??_C@_0BJ@FHBFMKIM@bad?5parse?5of?5engineBoots?$AA@ 100559a4     Snmp_pp:usm_v3.obj
 0002:000039c0       ??_C@_0BO@OIMGCHIB@bad?5parse?5of?5securityEngineID?$AA@ 100559c0     Snmp_pp:usm_v3.obj
 0002:000039e0       ??_C@_0CH@GPCCNLJP@Parsed?5securityEngineID?0?5length?5@ 100559e0     Snmp_pp:usm_v3.obj
 0002:00003a08       ??_C@_0CL@OMBMKGDD@wrong?5type?5in?5header?5of?5security@ 10055a08     Snmp_pp:usm_v3.obj
 0002:00003a34       ??_C@_0CH@HFFPGHEJ@Parsed?5securityParametersLength?5@ 10055a34     Snmp_pp:usm_v3.obj
 0002:00003a5c       ??_C@_0CB@DBMGDBLP@bad?5header?5of?5securityParameters@ 10055a5c     Snmp_pp:usm_v3.obj
 0002:00003a80       ??_C@_0BB@CHNBMHDN@bufSecurityData?3?$AA@ 10055a80     Snmp_pp:usm_v3.obj
 0002:00003a94       ??_C@_0DI@OHKFPKOC@usm?3?5usmBuildSecurityParameters?5@ 10055a94     Snmp_pp:usm_v3.obj
 0002:00003acc       ??_C@_0DH@PPBPBAK@usm?3?5usmBuildSecurityParameters?5@ 10055acc     Snmp_pp:usm_v3.obj
 0002:00003b04       ??_C@_0CN@EJDNHOFG@Coding?5sequence?5?$CIsecurityPar?$CJ?0?5l@ 10055b04     Snmp_pp:usm_v3.obj
 0002:00003b34       ??_C@_0DD@PCAIGCLC@usmBuildSecurityParameters?5error@ 10055b34     Snmp_pp:usm_v3.obj
 0002:00003b68       ??_C@_0DA@LLEDNIHO@Coding?5octstr?5sp?4msgPr?4?4Para?4?4?5?0@ 10055b68     Snmp_pp:usm_v3.obj
 0002:00003b98       ??_C@_0DD@ELBCOEPP@usmBuildSecurityParameters?5error@ 10055b98     Snmp_pp:usm_v3.obj
 0002:00003bcc       ??_C@_0DA@HDHMLCDF@Coding?5octstr?5sp?4msgAu?4?4Para?4?4?5?0@ 10055bcc     Snmp_pp:usm_v3.obj
 0002:00003bfc       ??_C@_0DE@ONJEPPGH@usmBuildSecurityParameters?5error@ 10055bfc     Snmp_pp:usm_v3.obj
 0002:00003c30       ??_C@_0CN@BBCNHCHK@Coding?5octstr?5sp?4msgUserName?0?5le@ 10055c30     Snmp_pp:usm_v3.obj
 0002:00003c60       ??_C@_0DD@IHHOFOFF@usmBuildSecurityParameters?5error@ 10055c60     Snmp_pp:usm_v3.obj
 0002:00003c94       ??_C@_0DB@MNJKOBKE@Coding?5int?5sp?4msgAuthoritativeEn@ 10055c94     Snmp_pp:usm_v3.obj
 0002:00003cc8       ??_C@_0DE@PCLGOEPK@usmBuildSecurityParameters?5error@ 10055cc8     Snmp_pp:usm_v3.obj
 0002:00003cfc       ??_C@_0DC@NKDBJMEE@Coding?5int?5sp?4msgAuthoritativeEn@ 10055cfc     Snmp_pp:usm_v3.obj
 0002:00003d30       ??_C@_0DB@LDJFFCKO@usmBuildSecurityParameters?5error@ 10055d30     Snmp_pp:usm_v3.obj
 0002:00003d64       ??_C@_0DK@KJOOIDLK@Coding?5octstr?5sp?4msgAuthoritativ@ 10055d64     Snmp_pp:usm_v3.obj
 0002:00003da0       ??_C@_0N@IKODFIED@bufWholeMsg?3?$AA@ 10055da0     Snmp_pp:usm_v3.obj
 0002:00003db0       ??_C@_0BM@OHDEMEKC@usm?3?5usmBuildWholeMsg?5error?$AA@ 10055db0     Snmp_pp:usm_v3.obj
 0002:00003dcc       ??_C@_0CK@DONLGPKD@Coding?5sequence?5?$CIwholeMsg?$CJ?0?5leng@ 10055dcc     Snmp_pp:usm_v3.obj
 0002:00003df8       ??_C@_0BN@BAJOKIHA@maxLength?5?$DN?5?$CFi?0?5encoded?5?$DN?5?$CFi?$AA@ 10055df8     Snmp_pp:usm_v3.obj
 0002:00003e18       ??_C@_0CL@BDMBMAFI@usmBuildWholeMsg?5error?3?5msgDataL@ 10055e18     Snmp_pp:usm_v3.obj
 0002:00003e44       ??_C@_0BI@CLKEBDPL@usmBuildWholeMsg?5error2?$AA@ 10055e44     Snmp_pp:usm_v3.obj
 0002:00003e5c       ??_C@_0DA@CEPIHOIJ@Coding?5octstr?5securityParameter?0@ 10055e5c     Snmp_pp:usm_v3.obj
 0002:00003e8c       ??_C@_0BH@NIJODIDK@usmBuildWholeMsg?5error?$AA@ 10055e8c     Snmp_pp:usm_v3.obj
 0002:00003ea4       ??_C@_0BP@EDEONLIP@Coding?5int?5snmpVersion?5?$DN?50x?$CFlx?$AA@ 10055ea4     Snmp_pp:usm_v3.obj
 0002:00003ec4       ??_C@_0CI@ENCIJAJJ@USMTimeTable?3?5error?5constructing@ 10055ec4     Snmp_pp:usm_v3.obj
 0002:00003eec       ??_7USMTimeTable@@6B@      10055eec     Snmp_pp:usm_v3.obj
 0002:00003ef0       ??_C@_0DF@FAPEIDLP@USMTimeTable?3?5Adding?5entry?5?$CIengi@ 10055ef0     Snmp_pp:usm_v3.obj
 0002:00003f28       ??_C@_0CN@NLMKCDPH@USMTimeTable?3?5No?5entry?5found?5for@ 10055f28     Snmp_pp:usm_v3.obj
 0002:00003f58       ??_C@_0DH@HJPNHGPC@USMTimeTable?3?5Returning?5time?5?$CIen@ 10055f58     Snmp_pp:usm_v3.obj
 0002:00003f90       ??_C@_0CO@BIKCFNME@USMTimeTable?3?5Check?5time?0?5engine@ 10055f90     Snmp_pp:usm_v3.obj
 0002:00003fc0       ??_C@_0DN@POJGPBM@USMTimeTable?3?5Check?5time?5ok?0?5not@ 10055fc0     Snmp_pp:usm_v3.obj
 0002:00004000       ??_C@_0DI@LPBHJNOM@USMTimeTable?3?5Check?5time?5failed?0@ 10056000     Snmp_pp:usm_v3.obj
 0002:00004038       ??_C@_0DA@IANKKFKH@USMTimeTable?3?5Check?5time?5ok?0?5aut@ 10056038     Snmp_pp:usm_v3.obj
 0002:00004068       ??_C@_0EC@DFKHMLLI@USMTimeTable?3?5Check?5time?5failed?0@ 10056068     Snmp_pp:usm_v3.obj
 0002:000040ac       ??_C@_0CH@DHDFJMCC@USMTimeTable?3?5Check?5id?0?5not?5foun@ 100560ac     Snmp_pp:usm_v3.obj
 0002:000040d4       ??_7USMUserNameTable@@6B@  100560d4     Snmp_pp:usm_v3.obj
 0002:000040d8       ??_C@_0DE@OMKAJNHF@USMUserNameTable?3?5No?5entry?5for?5?$CI@ 100560d8     Snmp_pp:usm_v3.obj
 0002:0000410c       ??_C@_0DM@LMECNHFC@USMUserNameTable?3?5Translated?5?$CIus@ 1005610c     Snmp_pp:usm_v3.obj
 0002:00004148       ??_C@_0DJ@FGKDJFJL@USMUserNameTable?3?5No?5entry?5for?5?$CI@ 10056148     Snmp_pp:usm_v3.obj
 0002:00004184       ??_C@_0DM@EDIIGBME@USMUserNameTable?3?5Translated?5?$CIse@ 10056184     Snmp_pp:usm_v3.obj
 0002:000041c0       ??_C@_0DP@JLOHEKCA@USMUserNameTable?3?5Buffer?5for?5use@ 100561c0     Snmp_pp:usm_v3.obj
 0002:00004200       ??_C@_01NOFIACDB@w?$AA@    10056200     Snmp_pp:usm_v3.obj
 0002:00004204       ??_C@_06IHDMMOPO@?$CFs?4tmp?$AA@ 10056204     Snmp_pp:usm_v3.obj
 0002:0000420c       ??_C@_01KDCPPGHE@r?$AA@    1005620c     Snmp_pp:usm_v3.obj
 0002:00004210       ??_7USMUserTable@@6B@      10056210     Snmp_pp:usm_v3.obj
 0002:00004214       ??_C@_0DF@OINKIIKG@USMUserTable?3?5No?5entry?5for?5?$CIsecu@ 10056214     Snmp_pp:usm_v3.obj
 0002:0000424c       ??_C@_0DI@LJIOLCDN@USMUserTable?3?5Translated?5?$CIsecuri@ 1005624c     Snmp_pp:usm_v3.obj
 0002:00004284       ??_C@_0DL@GCIEDBGM@USMUserTable?3?5Buffer?5for?5user?5na@ 10056284     Snmp_pp:usm_v3.obj
 0002:000042c0       ??_C@_0DA@HLLNCNKF@USMUserTable?3?5No?5entry?5for?5?$CIuser@ 100562c0     Snmp_pp:usm_v3.obj
 0002:000042f0       ??_C@_0DI@EGEEAEKL@USMUserTable?3?5Translated?5?$CIuser?5n@ 100562f0     Snmp_pp:usm_v3.obj
 0002:00004328       ??_C@_0EA@EBIMFELN@USMUserTable?3?5Adding?5user?5?$CIuser?5@ 10056328     Snmp_pp:usm_v3.obj
 0002:00004368       ??_C@_05BFHEBJNP@?$CF02X?5?$AA@ 10056368     Snmp_pp:v3.obj
 0002:00004370       ??_C@_0BC@IJIJGJGJ@?$CFs?5?$CIlength?5?$CFi?$CJ?3?5?6?$AA@ 10056370     Snmp_pp:v3.obj
 0002:00004384       ??_C@_0DC@JJIDONGF@getBootCounter?3?5No?5entry?5found?5?$CI@ 10056384     Snmp_pp:v3.obj
 0002:000043b8       ??_C@_0DO@PHFBAPNN@getBootCounter?3?5found?5entry?5?$CIfil@ 100563b8     Snmp_pp:v3.obj
 0002:000043f8       ??_C@_0CM@OFKACPNC@getBootCounter?3?5Illegal?5line?3?5?$CIf@ 100563f8     Snmp_pp:v3.obj
 0002:00004428       ??_C@_0EE@CFNDJCOH@getBootCounter?3?5engine?5id?5too?5lo@ 10056428     Snmp_pp:v3.obj
 0002:0000446c       ??_C@_0CG@DDOKOKHD@getBootCounter?3?5Could?5not?5open?5?$CI@ 1005646c     Snmp_pp:v3.obj
 0002:00004494       ??_C@_0DN@FJOBOONO@saveBootCounter?3?5Failed?5to?5open?5@ 10056494     Snmp_pp:v3.obj
 0002:000044d4       ??_C@_0DJ@KPPLCKPE@saveBootCounter?3?5Saved?5counter?5?$CI@ 100564d4     Snmp_pp:v3.obj
 0002:00004510       ??_C@_0ED@GHDHMACF@saveBootCounter?3?5Failed?5to?5renam@ 10056510     Snmp_pp:v3.obj
 0002:00004554       ??_C@_05INCLBHOP@?$CFs?$CFi?6?$AA@ 10056554     Snmp_pp:v3.obj
 0002:0000455c       ??_C@_0DG@IJDAGLNG@saveBootCounter?3?5Removing?5double@ 1005655c     Snmp_pp:v3.obj
 0002:00004594       ??_C@_0CI@HILHMDFB@?$CD?5?$DMencoded?5snmpEngineId?$DO?5?$DMbootCo@ 10056594     Snmp_pp:v3.obj
 0002:000045bc       ??_C@_0CO@IMCLGNDC@?$CD?5The?5snmpEngineBoots?5counters?5a@ 100565bc     Snmp_pp:v3.obj
 0002:000045ec       ??_C@_0CJ@HFBDAOKF@?$CD?5Lines?5starting?5with?5?8?$CD?8?5are?5co@ 100565ec     Snmp_pp:v3.obj
 0002:00004618       ??_C@_0DF@EECGPCIN@?$CD?5it?5is?5used?5to?5store?5the?5snmpEn@ 10056618     Snmp_pp:v3.obj
 0002:00004650       ??_C@_0DF@FCOHMKJM@?$CD?5This?5file?5was?5created?5by?5an?5SN@ 10056650     Snmp_pp:v3.obj
 0002:00004688       ??_C@_03KOJOIOFJ@?$CD?5?6?$AA@ 10056688     Snmp_pp:v3.obj
 0002:0000468c       ??_C@_0CJ@DOFCKK@saveBootCounter?3?5created?5new?5fil@ 1005668c     Snmp_pp:v3.obj
 0002:000046b8       ??_C@_0DC@HFEMICIN@saveBootCounter?3?5could?5not?5creat@ 100566b8     Snmp_pp:v3.obj
 0002:000046f0       ??_C@_0EF@CEIHAKEP@saveBootCounter?3?5engine?5id?5too?5l@ 100566f0     Snmp_pp:v3.obj
 0002:00004738       ??_7SnmpInt32@@6B@         10056738     Snmp_pp:pdu.obj
 0002:00004758       ??_C@_0BP@BFMGCJPF@Unknown?5request?5pdu?5type?5?$CI?$CFd?$CJ?4?$AA@ 10056758     Snmp_pp:pdu.obj
 0002:00004778       ??_C@_0CA@LOFGBCDI@Unknown?5response?5pdu?5type?5?$CI?$CFd?$CJ?4?$AA@ 10056778     Snmp_pp:pdu.obj
 0002:00004798       ??_7SnmpSynchronized@@6B@  10056798     Snmp_pp:reentrant.obj
 0002:0000479c       ??_7Counter64@@6B@         1005679c     Snmp_pp:ctr64.obj
 0002:000047bc       ??_C@_0L@PGOEAMPO@0x?$CFlX?$CF08lX?$AA@ 100567bc     Snmp_pp:ctr64.obj
 0002:000047c8       ??_C@_0CE@LLFIKDPC@I?5don?8t?5support?5such?5large?5integ@ 100567c8     Snmp_pp:ctr64.obj
 0002:000047ec       ??_C@_0BE@HHPGFOOE@overflow?5of?5message?$AA@ 100567ec     Snmp_pp:ctr64.obj
 0002:00004800       ??_C@_0L@DABMCDJH@bad?5length?$AA@ 10056800     Snmp_pp:ctr64.obj
 0002:0000480c       ??_C@_0BG@JNNFDEKL@ASN?5parse?5error?5?$CI?$CFs?$CJ?6?$AA@ 1005680c     Snmp_pp:ctr64.obj
 0002:00004824       ??_C@_0BO@EJGJBCBM@Wrong?5Type?4?5Not?5an?5integer?564?$AA@ 10056824     Snmp_pp:ctr64.obj
 0002:00004844       ??_C@_0CA@PGKIEBAF@?$CFlu?5days?0?5?$CFlu?3?$CF02lu?3?$CF02lu?4?$CF02lu?$AA@ 10056844     Snmp_pp:timetick.obj
 0002:00004864       ??_C@_0BM@PFIILHLD@1?5day?5?$CFlu?3?$CF02lu?3?$CF02lu?4?$CF02lu?$AA@ 10056864     Snmp_pp:timetick.obj
 0002:00004880       ??_C@_0BG@HENCICOJ@?$CFlu?3?$CF02lu?3?$CF02lu?4?$CF02lu?$AA@ 10056880     Snmp_pp:timetick.obj
 0002:00004898       ??_7CSNMPMessage@@6B@      10056898     Snmp_pp:msgqueue.obj
 0002:0000489c       ??_C@_0BG@BIANNCHP@1?43?46?41?46?43?41?41?44?41?40?$AA@ 1005689c     Snmp_pp:msgqueue.obj
 0002:000048b4       ??_C@_0BC@NJFELMDN@1?43?46?41?42?41?41?43?40?$AA@ 100568b4     Snmp_pp:msgqueue.obj
 0002:000048c8       ??_C@_0CC@LMHGOINF@MsgQueue?3?5ignoring?5the?5second?5pd@ 100568c8     Snmp_pp:msgqueue.obj
 0002:000048f0       ??_C@_0EL@NPILGIJA@MsgQueue?3?5Message?5is?5already?5mar@ 100568f0     Snmp_pp:msgqueue.obj
 0002:00004940       ??_C@_0FB@KDMKKIBI@MsgQueue?3?5Response?5pdu?5type?5does@ 10056940     Snmp_pp:msgqueue.obj
 0002:00004994       ??_7CSNMPMessageQueue@@6B@ 10056994     Snmp_pp:msgqueue.obj
 0002:000049b0       ??_7CEvents@@6B@           100569b0     Snmp_pp:msgqueue.obj
 0002:000049cc       ??_C@_0DJ@IKDCKPNH@MsgQueue?3?5WARNING?3?5Adding?5messag@ 100569cc     Snmp_pp:msgqueue.obj
 0002:00004a08       ??_C@_0DA@ENGLOMNB@MsgQueue?3?5Adding?5engine?5id?5to?5ta@ 10056a08     Snmp_pp:msgqueue.obj
 0002:00004a38       ??_C@_0DO@FDLEIOHO@MsgQueue?3?5Message?5timed?5out?0?5rem@ 10056a38     Snmp_pp:msgqueue.obj
 0002:00004a78       ??_C@_0CM@LPOHNICM@SNMPMessage?3?5return?5value?5for?5bu@ 10056a78     Snmp_pp:snmpmsg.obj
 0002:00004aa8       ??_C@_0ED@IJOLJHOP@SNMPMessage?3?5?$CKBUG?$CK?3?5Serialized?5r@ 10056aa8     Snmp_pp:snmpmsg.obj
 0002:00004aec       ??_C@_0DN@EDAAINHN@SNMPMessage?3?5Need?5security?5name?5@ 10056aec     Snmp_pp:snmpmsg.obj
 0002:00004b2c       ??_C@_0CF@EBIFACCH@SNMPMessage?3?5Setting?5v1?5trap?5add@ 10056b2c     Snmp_pp:snmpmsg.obj
 0002:00004b54       ??_C@_0CO@BCDHBIEN@SNMPMessage?3?5Copied?5v1?5trap?5addr@ 10056b54     Snmp_pp:snmpmsg.obj
 0002:00004b84       ??_C@_0CN@FHBIIOJM@SNMPMessage?3?5Bad?5v1?5trap?5address@ 10056b84     Snmp_pp:snmpmsg.obj
 0002:00004bb4       ??_C@_0DC@OGIGAMJO@SNMPMessage?3?5Received?5trap?5with?5@ 10056bb4     Snmp_pp:snmpmsg.obj
 0002:00004be8       ??_C@_0CO@OOIBNAEG@SNMPMessage?3?5Trap?5address?5of?5rec@ 10056be8     Snmp_pp:snmpmsg.obj
 0002:00004c18       ??_7CEventList@@6B@        10056c18     Snmp_pp:eventlistholder.obj
 0002:00004c1c       ??_C@_09HIHFCMJ@USER?5?5?5?3?5?$AA@ 10056c1c     Snmp_pp:log.obj
 0002:00004c28       ??_C@_09FKHDCPAD@EVENT?5?5?3?5?$AA@ 10056c28     Snmp_pp:log.obj
 0002:00004c34       ??_C@_09BMPKOJE@ERROR?5?5?3?5?$AA@ 10056c34     Snmp_pp:log.obj
 0002:00004c40       ??_C@_09PIEMHOIP@WARNING?3?5?$AA@ 10056c40     Snmp_pp:log.obj
 0002:00004c4c       ??_C@_09OPBMGMGE@INFO?5?5?5?3?5?$AA@ 10056c4c     Snmp_pp:log.obj
 0002:00004c58       ??_C@_09MKKCILJB@DEBUG?5?5?3?5?$AA@ 10056c58     Snmp_pp:log.obj
 0002:00004c64       ??_C@_04HJGJNDMI@?$CI?$CFX?$CJ?$AA@ 10056c64     Snmp_pp:log.obj
 0002:00004c6c       ??_C@_02LMMGGCAJ@?3?5?$AA@ 10056c6c     Snmp_pp:log.obj
 0002:00004c70       ??_C@_01PKGAHCOL@?$CJ?$AA@ 10056c70     Snmp_pp:log.obj
 0002:00004c74       ??_C@_02KEGNLNML@?0?5?$AA@ 10056c74     Snmp_pp:log.obj
 0002:00004c78       ??_7LogEntryImpl@@6B@      10056c78     Snmp_pp:log.obj
 0002:00004c98       ??_7LogEntry@@6B@          10056c98     Snmp_pp:log.obj
 0002:00004cb8       ??_C@_03KHICJKCI@?4?4?4?$AA@ 10056cb8     Snmp_pp:log.obj
 0002:00004cbc       ??_7AgentLog@@6B@          10056cbc     Snmp_pp:log.obj
 0002:00004ce0       ??_C@_0BA@EOFDEJLE@?$CFY?$CFm?$CFd?4?$CFH?3?$CFM?3?$CFS?$AA@ 10056ce0     Snmp_pp:log.obj
 0002:00004cf0       ??_7AgentLogImpl@@6B@      10056cf0     Snmp_pp:log.obj
 0002:00004d14       ??_7CNotifyEventQueue@@6B@ 10056d14     Snmp_pp:notifyqueue.obj
 0002:00004d30       ??_C@_0CF@OGGEMMGM@Bind?5to?5?$CFs?5for?5notifications?0?5fd@ 10056d30     Snmp_pp:notifyqueue.obj
 0002:00004d58       ??_C@_0BM@MKBNGCND@Fatal?3?5could?5not?5bind?5to?5?$CFs?$AA@ 10056d58     Snmp_pp:notifyqueue.obj
 0002:00004d74       ??_C@_0DJ@HGHKFLAB@WARNING?3?5Adding?5notification?5eve@ 10056d74     Snmp_pp:notifyqueue.obj
 0002:00004db0       ??_C@_0CG@EDKPLPEM@Closing?5notifications?5port?5?$CFs?0?5f@ 10056db0     Snmp_pp:notifyqueue.obj
 0002:00004dd8       ??_C@_0BL@GPKODLEJ@Wrong?5Type?4?5Not?5an?5integer?$AA@ 10056dd8     Snmp_pp:asn1.obj
 0002:00004df4       ??_C@_08MMGFJECN@not?5long?$AA@ 10056df4     Snmp_pp:asn1.obj
 0002:00004e00       ??_C@_0CE@PLBHDFPI@Wrong?5Type?4?5Not?5an?5unsigned?5inte@ 10056e00     Snmp_pp:asn1.obj
 0002:00004e28       ??_C@_0EL@OFJABBKH@asn?5parse?5string?3?5String?5to?5pars@ 10056e28     Snmp_pp:asn1.obj
 0002:00004e74       ??_C@_0CG@DAMEPPEE@asn?5parse?5string?3?5overflow?5of?5me@ 10056e74     Snmp_pp:asn1.obj
 0002:00004e9c       ??_C@_0CL@PHPBAKGN@asn?5parse?5string?3?5Wrong?5Type?4?5No@ 10056e9c     Snmp_pp:asn1.obj
 0002:00004ec8       ??_C@_0BE@GBCKHCJM@asn?5length?5too?5long?$AA@ 10056ec8     Snmp_pp:asn1.obj
 0002:00004edc       ??_C@_0BH@LCPMEFNI@can?8t?5process?5ID?5?$DO?$DN?530?$AA@ 10056edc     Snmp_pp:asn1.obj
 0002:00004ef4       ??_C@_0P@DIJBJILG@build_sequence?$AA@ 10056ef4     Snmp_pp:asn1.obj
 0002:00004f04       ??_C@_0CK@LEGIOIOD@SNMP?5does?5not?5support?5data?5lengt@ 10056f04     Snmp_pp:asn1.obj
 0002:00004f30       ??_C@_0CI@DOKMFEJB@we?5can?8t?5support?5data?5lengths?5th@ 10056f30     Snmp_pp:asn1.obj
 0002:00004f58       ??_C@_0CE@POCJDGLC@We?5don?8t?5support?5indefinite?5leng@ 10056f58     Snmp_pp:asn1.obj
 0002:00004f7c       ??_C@_0N@CFAGMCMA@build_length?$AA@ 10056f7c     Snmp_pp:asn1.obj
 0002:00004f8c       ??_C@_0BH@KMCNKNMN@subidentifier?5too?5long?$AA@ 10056f8c     Snmp_pp:asn1.obj
 0002:00004fa4       ??_C@_0BH@DAFCPIPP@Wrong?5Type?4?5Not?5an?5oid?$AA@ 10056fa4     Snmp_pp:asn1.obj
 0002:00004fbc       ??_C@_0BL@NBAMDLCC@Building?5invalid?5bitstring?$AA@ 10056fbc     Snmp_pp:asn1.obj
 0002:00004fd8       ??_C@_0P@CJNPGFKM@not?5right?5size?$AA@ 10056fd8     Snmp_pp:asn1.obj
 0002:00004fe8       ??_C@_0N@HPNODNFD@build_var_op?$AA@ 10056fe8     Snmp_pp:asn1.obj
 0002:00004ff8       ??_C@_0CB@KHDKOPMN@build_var_op?3?5value?5build?5failed@ 10056ff8     Snmp_pp:asn1.obj
 0002:0000501c       ??_C@_0BJ@JPHDKKDH@build_var_op?3?5wrong?5type?$AA@ 1005701c     Snmp_pp:asn1.obj
 0002:00005038       ??_C@_0CB@PCIOJLOE@build_var_op?3?5build_objid?5failed@ 10057038     Snmp_pp:asn1.obj
 0002:0000505c       ??_C@_0M@OMMIFDPA@buildstring?$AA@ 1005705c     Snmp_pp:asn1.obj
 0002:00005068       ??_C@_08MNENCIEM@buildint?$AA@ 10057068     Snmp_pp:asn1.obj
 0002:00005074       ??_C@_0M@KPFBHGIA@buildheader?$AA@ 10057074     Snmp_pp:asn1.obj
 0002:00005080       ??_C@_0BL@LPLNENBO@Error?5snmp_parse_var_op?3?54?$AA@ 10057080     Snmp_pp:asn1.obj
 0002:0000509c       ??_C@_0BL@PAPMNLNJ@Error?5snmp_parse_var_op?3?53?$AA@ 1005709c     Snmp_pp:asn1.obj
 0002:000050b8       ??_C@_0BL@OJOHOKJI@Error?5snmp_parse_var_op?3?52?$AA@ 100570b8     Snmp_pp:asn1.obj
 0002:000050d4       ??_C@_0BL@MCMKLJFL@Error?5snmp_parse_var_op?3?51?$AA@ 100570d4     Snmp_pp:asn1.obj
 0002:000050f0       ??_C@_0BD@KFEMBAPA@bad?5type?5returned?5?$AA@ 100570f0     Snmp_pp:asn1.obj
 0002:00005104       ??_C@_0O@OKHGECHK@Wrong?5version?$AA@ 10057104     Snmp_pp:asn1.obj
 0002:00005114       ??_C@_0BH@DFKMDODG@bad?5parse?5of?5community?$AA@ 10057114     Snmp_pp:asn1.obj
 0002:0000512c       ??_C@_0BF@EEKFABLB@bad?5parse?5of?5version?$AA@ 1005712c     Snmp_pp:asn1.obj
 0002:00005144       ??_C@_0BH@OGGCLED@wrong?5auth?5header?5type?$AA@ 10057144     Snmp_pp:asn1.obj
 0002:0000515c       ??_C@_0L@PJHPAMCH@bad?5header?$AA@ 1005715c     Snmp_pp:asn1.obj
 0002:00005168       ??_C@_0HK@FNHBNBMG@Parsed?5HeaderData?3?5globalDataLen@ 10057168     Snmp_pp:asn1.obj
 0002:000051e4       ??_C@_0DC@NGLAIICM@Parse?5error?3?5wrong?5length?5in?5hea@ 100571e4     Snmp_pp:asn1.obj
 0002:00005218       ??_C@_0CA@DECOINEK@Parse?5error?3?5msg_security_model?$AA@ 10057218     Snmp_pp:asn1.obj
 0002:00005238       ??_C@_0BH@NLPDOHEJ@Parse?5error?3?5msg_flags?$AA@ 10057238     Snmp_pp:asn1.obj
 0002:00005250       ??_C@_0BK@EODNGNCF@Parse?5error?3?5msg_max_size?$AA@ 10057250     Snmp_pp:asn1.obj
 0002:0000526c       ??_C@_0BE@FJFHOBFI@Parse?5error?3?5msg_id?$AA@ 1005726c     Snmp_pp:asn1.obj
 0002:00005280       ??_C@_0CG@GPFHEBDP@wrong?5type?5in?5header?5of?5msgHeade@ 10057280     Snmp_pp:asn1.obj
 0002:000052a8       ??_C@_0CB@CIJPDLJI@Parse?5error?5in?5header?5HeaderData@ 100572a8     Snmp_pp:asn1.obj
 0002:000052cc       ??_C@_0P@HBIOKFKM@bufHeaderData?3?$AA@ 100572cc     Snmp_pp:asn1.obj
 0002:000052dc       ??_C@_0CE@KPNDAHMJ@asn_build_header_data?3?5Length?5er@ 100572dc     Snmp_pp:asn1.obj
 0002:00005300       ??_C@_0DD@EMGGPANM@asn_build_header_data?3?5Error?5cod@ 10057300     Snmp_pp:asn1.obj
 0002:00005334       ??_C@_0CM@FKONOIDE@Coding?5sequence?5?$CIheaderdata?$CJ?0?5le@ 10057334     Snmp_pp:asn1.obj
 0002:00005360       ??_C@_0DC@MOOIBFHD@asn_build_header_data?3?5Error?5cod@ 10057360     Snmp_pp:asn1.obj
 0002:00005394       ??_C@_0CN@EHLMCNJC@asn_build_header_data?3?5Error?5cod@ 10057394     Snmp_pp:asn1.obj
 0002:000053c4       ??_C@_0DD@NHEKMALF@asn_build_header_data?3?5Error?5cod@ 100573c4     Snmp_pp:asn1.obj
 0002:000053f8       ??_C@_0CK@KNLABNN@asn_build_header_data?3?5Error?5cod@ 100573f8     Snmp_pp:asn1.obj
 0002:00005428       ??_C@_0FB@BIEMOGPL@Coding?5msgID?$CI0x?$CFlx?$CJ?0?5maxMessageS@ 10057428     Snmp_pp:asn1.obj
 0002:00005480       ??_C@_0EN@HPDPOEEM@Parsed?5scoped_pdu?3?5context_engin@ 10057480     Snmp_pp:asn1.obj
 0002:000054d0       ??_C@_0CM@NFPOLHLA@mpParseScopedPDU?3?5bad?5parse?5of?5c@ 100574d0     Snmp_pp:asn1.obj
 0002:000054fc       ??_C@_0BP@EPNBBEHL@Parse?5error?3?5context_engine_id?$AA@ 100574fc     Snmp_pp:asn1.obj
 0002:0000551c       ??_C@_0CO@HBMECANN@Parse?5error?3?5Wrong?5header?5type?5i@ 1005751c     Snmp_pp:asn1.obj
 0002:0000554c       ??_C@_0CJ@MGIMHHP@Parse?5error?3?5Wrong?5header?5in?5sco@ 1005754c     Snmp_pp:asn1.obj
 0002:00005578       ??_C@_0CI@PGALHPEK@ASN1?3?5Error?5encoding?5scopedPDU?5s@ 10057578     Snmp_pp:asn1.obj
 0002:000055a0       ??_C@_0CJ@GHCLIECB@ASN1?3?5Encoding?5scoped?5PDU?5sequen@ 100575a0     Snmp_pp:asn1.obj
 0002:000055cc       ??_C@_0CB@PJLFCBJL@ASN1?3?5Error?5encoding?5contextName@ 100575cc     Snmp_pp:asn1.obj
 0002:000055f0       ??_C@_0CF@EHHOLLCA@ASN1?3?5Error?5encoding?5contextEngi@ 100575f0     Snmp_pp:asn1.obj
 0002:00005618       ??_C@_0DA@HCOBOFFI@ASN1?3?5coding?5?$CIcontext?5engine?5id?$CJ@ 10057618     Snmp_pp:asn1.obj
 0002:00005648       ??_C@_0FM@GINIJENI@AuthPriv?3?5?$CKBUG?$CK?5sizeof?$CIpp_uint64@ 10057648     Snmp_pp:auth_priv.obj
 0002:000056a4       ??_C@_0CO@KGHINAOF@AuthPriv?3?5Error?5allocating?5array@ 100576a4     Snmp_pp:auth_priv.obj
 0002:000056d4       ??_C@_0DF@HEEDBPLH@AuthPriv?3?5Error?5allocating?5array@ 100576d4     Snmp_pp:auth_priv.obj
 0002:0000570c       ??_C@_0CD@NPLOAHKD@AuthPriv?3?5Added?5auth?5protocol?5?$CIi@ 1005770c     Snmp_pp:auth_priv.obj
 0002:00005730       ??_C@_0DO@EKCPNNMK@AuthPriv?3?5deleting?5old?5auth?5obje@ 10057730     Snmp_pp:auth_priv.obj
 0002:00005770       ??_C@_0CN@EOAKENAB@AuthPriv?3?5Could?5not?5allocate?5new@ 10057770     Snmp_pp:auth_priv.obj
 0002:000057a0       ??_C@_0CD@DJHKEEMP@AuthPriv?3?5Added?5priv?5protocol?5?$CIi@ 100577a0     Snmp_pp:auth_priv.obj
 0002:000057c4       ??_C@_0DO@CJFABALE@AuthPriv?3?5deleting?5old?5priv?5obje@ 100577c4     Snmp_pp:auth_priv.obj
 0002:00005804       ??_C@_0CN@EGNOGKKK@AuthPriv?3?5Could?5not?5allocate?5new@ 10057804     Snmp_pp:auth_priv.obj
 0002:00005834       ??_C@_0DK@PLKDIAEC@AuthPriv?3?5Password?5to?5key?5auth?5n@ 10057834     Snmp_pp:auth_priv.obj
 0002:00005870       ??_C@_0DK@DJLKECD@AuthPriv?3?5Password?5to?5key?5priv?5n@ 10057870     Snmp_pp:auth_priv.obj
 0002:000058ac       ??_C@_0DB@MJGPAECJ@AuthPriv?3?5Added?5default?5Auth?5and@ 100578ac     Snmp_pp:auth_priv.obj
 0002:000058e0       ??_C@_0DC@KNLPNNIM@AuthPriv?3?5Could?5not?5add?5default?5@ 100578e0     Snmp_pp:auth_priv.obj
 0002:00005914       ??_C@_0DC@NKOCKOME@AuthPriv?3?5Could?5not?5add?5default?5@ 10057914     Snmp_pp:auth_priv.obj
 0002:00005948       ??_C@_0DC@BMBMPIBD@AuthPriv?3?5Could?5not?5add?5default?5@ 10057948     Snmp_pp:auth_priv.obj
 0002:0000597c       ??_7AuthSHA@@6B@           1005797c     Snmp_pp:auth_priv.obj
 0002:000059a4       ??_C@_08NCJGHCLI@HMAC?9SHA?$AA@ 100579a4     Snmp_pp:auth_priv.obj
 0002:000059b0       ??_7AuthMD5@@6B@           100579b0     Snmp_pp:auth_priv.obj
 0002:000059d8       ??_C@_08CABJBHIC@HMAC?9MD5?$AA@ 100579d8     Snmp_pp:auth_priv.obj
 0002:000059e4       ??_7PrivDES@@6B@           100579e4     Snmp_pp:auth_priv.obj
 0002:00005a0c       ??_C@_03CNAKKODF@DES?$AA@  10057a0c     Snmp_pp:auth_priv.obj
 0002:00005a10       ??_7Auth@@6B@              10057a10     Snmp_pp:auth_priv.obj
 0002:00005a38       ??_7Priv@@6B@              10057a38     Snmp_pp:auth_priv.obj
 0002:00005a60       ??_C@_0BH@GHBFHLNG@SHA?5authentication?5OK?4?$AA@ 10057a60     Snmp_pp:auth_priv.obj
 0002:00005a78       ??_C@_0BL@FMGLDJOL@SHA?5authentication?5FAILED?4?$AA@ 10057a78     Snmp_pp:auth_priv.obj
 0002:00005a94       ??_C@_0BP@HBKHFJKH@SHA?5authentication?5FAILED?5?$CI1?$CJ?4?$AA@ 10057a94     Snmp_pp:auth_priv.obj
 0002:00005ab4       ??_C@_0DH@BKIKAKIE@SHA?5illegal?5digest?5length?5?$CI?$CFd?$CJ?0?5@ 10057ab4     Snmp_pp:auth_priv.obj
 0002:00005aec       ??_C@_0BH@FEMCAHLI@MD5?5authentication?5OK?4?$AA@ 10057aec     Snmp_pp:auth_priv.obj
 0002:00005b04       ??_C@_0BL@KLNABKCB@MD5?5authentication?5FAILED?4?$AA@ 10057b04     Snmp_pp:auth_priv.obj
 0002:00005b20       ??_C@_0BP@HGLELPLA@MD5?5authentication?5FAILED?5?$CI1?$CJ?4?$AA@ 10057b20     Snmp_pp:auth_priv.obj
 0002:00005b40       ??_C@_0DH@EMOAHGCF@MD5?5illegal?5digest?5length?5?$CI?$CFd?$CJ?0?5@ 10057b40     Snmp_pp:auth_priv.obj
 0002:00005b78       ??_C@_0CA@DILBHKE@Starting?5DES?5encryption?5failed?4?$AA@ 10057b78     Snmp_pp:auth_priv.obj
 0002:00005b98       ??_C@_0CI@HPNBPIPF@Buffer?5too?5small?3?5should?5be?58?0?5i@ 10057b98     Snmp_pp:auth_priv.obj
 0002:00005bc0       ??_C@_0CA@CJLOOEJC@Starting?5DES?5decryption?5failed?4?$AA@ 10057bc0     Snmp_pp:auth_priv.obj
 0002:00005be0       ??_C@_0CB@CCHNIIDI@ENDIAN?9ness?5is?5SCREWED?$CB?5?$CI?$CF0?$CDlx?$CJ?6@ 10057be0     Snmp_pp:sha.obj
 0002:00006508       ??_C@_0CF@NKCJGJOE@DES?5part?5of?5SSLeay?50?46?46?514?9Jan?9@ 10058508     Snmp_pp:ecb_enc.obj
 0002:00006530       ??_C@_0CC@KEIEMEHC@libdes?5v?54?401?5?9?513?9Jan?91997?5?9?5ea@ 10058530     Snmp_pp:ecb_enc.obj
 0002:00006558       _des_SPtrans               10058558     Snmp_pp:ecb_enc.obj
 0002:00006d68       ??_7type_info@@6B@         10058d68     MSVCRT:ti_inst.obj
 0002:00006d90       ??_C@_0BO@GNIAFIKK@Unknown?5Runtime?5Check?5Error?6?$AN?$AA@ 10058d90     MSVCRT:error.obj
 0002:00006db0       ??_C@_0DG@HKJMLLLP@A?5local?5variable?5was?5used?5before@ 10058db0     MSVCRT:error.obj
 0002:00006de8       ??_C@_0BN@FFOINMNJ@Stack?5memory?5was?5corrupted?6?$AN?$AA@ 10058de8     MSVCRT:error.obj
 0002:00006e08       ??_C@_0BBN@GPMLNJCF@A?5cast?5to?5a?5smaller?5data?5type?5ha@ 10058e08     MSVCRT:error.obj
 0002:00006f28       ??_C@_0NN@NGPKDKPD@The?5value?5of?5ESP?5was?5not?5properl@ 10058f28     MSVCRT:error.obj
 0002:00007024       ??_C@_0BC@KNBMEBEO@IsDebuggerPresent?$AA@ 10059024     MSVCRT:error.obj
 0002:00007038       ??_C@_0N@HAOHNMDE@Kernel32?4dll?$AA@ 10059038     MSVCRT:error.obj
 0002:00007048       ??_C@_0CA@IODNCDPG@Run?9Time?5Check?5Failure?5?$CD?$CFd?5?9?5?$CFs?$AA@ 10059048     MSVCRT:error.obj
 0002:00007068       ??_C@_0BB@JEGFEAAM@?8?5was?5corrupted?4?$AA@ 10059068     MSVCRT:error.obj
 0002:0000707c       ??_C@_0BM@FGFAMDLF@Stack?5around?5the?5variable?5?8?$AA@ 1005907c     MSVCRT:error.obj
 0002:00007098       ??_C@_0DA@BEGFPCGG@A?5variable?5is?5being?5used?5without@ 10059098     MSVCRT:error.obj
 0002:000070c8       ??_C@_0CH@LOIIHGKM@?8?5is?5being?5used?5without?5being?5de@ 100590c8     MSVCRT:error.obj
 0002:000070f0       ??_C@_0P@HLKMHJCG@The?5variable?5?8?$AA@ 100590f0     MSVCRT:error.obj
 0002:0000714c       ??_C@_0CK@CNLNOEPB@Local?5variable?5used?5before?5initi@ 1005914c     MSVCRT:userapi.obj
 0002:00007178       ??_C@_0BI@CIGMDCBH@Stack?5memory?5corruption?$AA@ 10059178     MSVCRT:userapi.obj
 0002:00007190       ??_C@_0CK@FEGOIOPB@Cast?5to?5smaller?5type?5causing?5los@ 10059190     MSVCRT:userapi.obj
 0002:000071bc       ??_C@_0BJ@HEGAHDFO@Stack?5pointer?5corruption?$AA@ 100591bc     MSVCRT:userapi.obj
 0002:000071d8       ??_C@_0M@HHEBEAAO@MSPDB71?4DLL?$AA@ 100591d8     MSVCRT:pdblkup.obj
 0002:000071e4       ??_C@_0N@KIGOLBLC@Module32Next?$AA@ 100591e4     MSVCRT:pdblkup.obj
 0002:000071f4       ??_C@_0O@CNMFJJGO@Module32First?$AA@ 100591f4     MSVCRT:pdblkup.obj
 0002:00007204       ??_C@_0BF@OCLFCNKN@GetModuleInformation?$AA@ 10059204     MSVCRT:pdblkup.obj
 0002:0000721c       ??_C@_0BD@FIEJBLME@EnumProcessModules?$AA@ 1005921c     MSVCRT:pdblkup.obj
 0002:00007230       ??_C@_09EPMADGLA@PSAPI?4DLL?$AA@ 10059230     MSVCRT:pdblkup.obj
 0002:0000723c       ??_C@_0BJ@JEFKDHMD@CreateToolhelp32Snapshot?$AA@ 1005923c     MSVCRT:pdblkup.obj
 0002:00007258       ??_C@_0O@CHDGJGFP@ImageNtHeader?$AA@ 10059258     MSVCRT:pdblkup.obj
 0002:00007268       ??_C@_0N@KBGMOMJO@IMAGEHLP?4DLL?$AA@ 10059268     MSVCRT:pdblkup.obj
 0002:00007278       ??_C@_0N@NHGLKGEC@KERNEL32?4DLL?$AA@ 10059278     MSVCRT:pdblkup.obj
 0002:00007288       ??_C@_0BF@BMIHBHCA@EnvironmentDirectory?$AA@ 10059288     MSVCRT:pdblkup.obj
 0002:000072a0       ??_C@_0CN@KGLAKABH@SOFTWARE?2Microsoft?2VisualStudio?2@ 100592a0     MSVCRT:pdblkup.obj
 0002:000072d0       ??_C@_0M@HLOHPNFA@RegCloseKey?$AA@ 100592d0     MSVCRT:pdblkup.obj
 0002:000072dc       ??_C@_0BB@HHEIPGME@RegQueryValueExA?$AA@ 100592dc     MSVCRT:pdblkup.obj
 0002:000072f0       ??_C@_0O@DCOGKJGG@RegOpenKeyExA?$AA@ 100592f0     MSVCRT:pdblkup.obj
 0002:00007300       ??_C@_0N@JJPEKNFO@ADVAPI32?4DLL?$AA@ 10059300     MSVCRT:pdblkup.obj
 0002:00007310       ??_C@_08ONJBEOFA@PDBClose?$AA@ 10059310     MSVCRT:pdblkup.obj
 0002:0000731c       ??_C@_08NINFAAFA@DBIClose?$AA@ 1005931c     MSVCRT:pdblkup.obj
 0002:00007328       ??_C@_08LIGPJJNA@ModClose?$AA@ 10059328     MSVCRT:pdblkup.obj
 0002:00007334       ??_C@_0O@IPLOKOKN@ModQueryLines?$AA@ 10059334     MSVCRT:pdblkup.obj
 0002:00007344       ??_C@_0BE@GDNPNLGH@DBIQueryModFromAddr?$AA@ 10059344     MSVCRT:pdblkup.obj
 0002:00007358       ??_C@_0L@KPMOCKEL@PDBOpenDBI?$AA@ 10059358     MSVCRT:pdblkup.obj
 0002:00007364       ??_C@_0BB@PENKIMFE@PDBOpenValidate3?$AA@ 10059364     MSVCRT:pdblkup.obj
 0002:00007408       ??_R1A@?0A@A@type_info@@8  10059408     MSVCRT:ti_inst.obj
 0002:00007420       ??_R2type_info@@8          10059420     MSVCRT:ti_inst.obj
 0002:00007428       ??_R3type_info@@8          10059428     MSVCRT:ti_inst.obj
 0002:00007438       ??_R4type_info@@6B@        10059438     MSVCRT:ti_inst.obj
 0002:0000744c       ___rtc_iaa                 1005944c     MSVCRT:initsect.obj
 0002:00007454       ___rtc_izz                 10059454     MSVCRT:initsect.obj
 0002:00007458       ___rtc_taa                 10059458     MSVCRT:initsect.obj
 0002:00007460       ___rtc_tzz                 10059460     MSVCRT:initsect.obj
 0002:000074d0       __CT??_R0?AVexception@@@8??0exception@@QAE@ABV0@@Z12 100594d0     CommonMonitor.obj
 0002:000075c8       __CT??_R0?AVlogic_error@std@@@8??0logic_error@std@@QAE@ABV01@@Z40 100595c8     CommonMonitor.obj
 0002:000075e4       __CT??_R0?AVlength_error@std@@@8??0length_error@std@@QAE@ABV01@@Z40 100595e4     CommonMonitor.obj
 0002:00007600       __CTA3?AVlength_error@std@@ 10059600     CommonMonitor.obj
 0002:00007610       __TI3?AVlength_error@std@@ 10059610     CommonMonitor.obj
 0002:000076fc       __CT??_R0?AVout_of_range@std@@@8??0out_of_range@std@@QAE@ABV01@@Z40 100596fc     CommonMonitor.obj
 0002:00007718       __CTA3?AVout_of_range@std@@ 10059718     CommonMonitor.obj
 0002:00007728       __TI3?AVout_of_range@std@@ 10059728     CommonMonitor.obj
 0002:00009da0       __IMPORT_DESCRIPTOR_svapi  1005bda0     svapi:svapi.dll
 0002:00009db4       __IMPORT_DESCRIPTOR_MSVCP71 1005bdb4     msvcprt:MSVCP71.dll
 0002:00009dc8       __IMPORT_DESCRIPTOR_WSOCK32 1005bdc8     wsock32:WSOCK32.dll
 0002:00009ddc       __IMPORT_DESCRIPTOR_MSVCR71 1005bddc     MSVCRT:MSVCR71.dll
 0002:00009df0       __IMPORT_DESCRIPTOR_KERNEL32 1005bdf0     kernel32:KERNEL32.dll
 0002:00009e04       __NULL_IMPORT_DESCRIPTOR   1005be04     svapi:svapi.dll
 0003:00000000       ___xc_a                    1005e000     MSVCRT:cinitexe.obj
 0003:0000004c       ___xc_z                    1005e04c     MSVCRT:cinitexe.obj
 0003:00000050       ___xi_a                    1005e050     MSVCRT:cinitexe.obj
 0003:00000054       ___xi_z                    1005e054     MSVCRT:cinitexe.obj
 0003:00000060       ??_R0?AVexception@@@8      1005e060     CommonMonitor.obj
 0003:00000078       ??_R0?AVlogic_error@std@@@8 1005e078     CommonMonitor.obj
 0003:00000098       ??_R0?AVlength_error@std@@@8 1005e098     CommonMonitor.obj
 0003:000000b8       ??_R0?AVout_of_range@std@@@8 1005e0b8     CommonMonitor.obj
 0003:000000d8       ?operator_mul@@3PBDB       1005e0d8     expression.obj
 0003:000000dc       ?operator_div@@3PBDB       1005e0dc     expression.obj
 0003:000000e0       ?operator_idiv@@3PBDB      1005e0e0     expression.obj
 0003:000000e4       ?operator_mod@@3PBDB       1005e0e4     expression.obj
 0003:000000e8       ?operator_add@@3PBDB       1005e0e8     expression.obj
 0003:000000ec       ?operator_sub@@3PBDB       1005e0ec     expression.obj
 0003:000000f0       ?operator_xor@@3PBDB       1005e0f0     expression.obj
 0003:000000f4       ?operator_band@@3PBDB      1005e0f4     expression.obj
 0003:000000f8       ?operator_bor@@3PBDB       1005e0f8     expression.obj
 0003:000000fc       ?operator_land@@3PBDB      1005e0fc     expression.obj
 0003:00000100       ?operator_lor@@3PBDB       1005e100     expression.obj
 0003:00000104       ?operator_nor@@3PBDB       1005e104     expression.obj
 0003:00000108       ?operator_nand@@3PBDB      1005e108     expression.obj
 0003:0000010c       ?operator_iseq@@3PBDB      1005e10c     expression.obj
 0003:00000110       ?operator_ne@@3PBDB        1005e110     expression.obj
 0003:00000114       ?operator_shl@@3PBDB       1005e114     expression.obj
 0003:00000118       ?operator_shr@@3PBDB       1005e118     expression.obj
 0003:0000011c       ?operator_lt@@3PBDB        1005e11c     expression.obj
 0003:00000120       ?operator_gt@@3PBDB        1005e120     expression.obj
 0003:00000124       ?operator_gte@@3PBDB       1005e124     expression.obj
 0003:00000128       ?operator_lte@@3PBDB       1005e128     expression.obj
 0003:000001e0       ?address_cpp_version@@3PADA 1005e1e0     Snmp_pp:address.obj
 0003:00000220       ?oid_cpp_version@@3PADA    1005e220     Snmp_pp:oid.obj
 0003:0000025c       ?vb_cpp_version@@3PADA     1005e25c     Snmp_pp:vb.obj
 0003:00000294       ?target_cpp_version@@3PADA 1005e294     Snmp_pp:target.obj
 0003:000002d0       ?default_timeout@SnmpTarget@@1KA 1005e2d0     Snmp_pp:target.obj
 0003:000002d4       ?default_retries@SnmpTarget@@1HA 1005e2d4     Snmp_pp:target.obj
 0003:000002d8       ?octet_cpp_version@@3PADA  1005e2d8     Snmp_pp:octet.obj
 0003:00000313       ?nonprintable_char@OctetStr@@1DA 1005e313     Snmp_pp:octet.obj
 0003:00000314       ?linefeed_chars@OctetStr@@1PADA 1005e314     Snmp_pp:octet.obj
 0003:00000318       ?snmp_cpp_version@@3PADA   1005e318     Snmp_pp:uxsnmp.obj
 0003:000004b8       ?mp_v3_cpp_version@@3PADA  1005e4b8     Snmp_pp:mp_v3.obj
 0003:000004f4       ?usm_v3_cpp_version@@3PADA 1005e4f4     Snmp_pp:usm_v3.obj
 0003:00000530       ?v3_cpp_version@@3PADA     1005e530     Snmp_pp:v3.obj
 0003:00000568       ?debug_level@@3HA          1005e568     Snmp_pp:v3.obj
 0003:0000056c       ?pdu_cpp_version@@3PADA    1005e56c     Snmp_pp:pdu.obj
 0003:000005a8       ?reentrant_cpp_version@@3PADA 1005e5a8     Snmp_pp:reentrant.obj
 0003:000005e8       ?counter64_cpp_version@@3PADA 1005e5e8     Snmp_pp:ctr64.obj
 0003:00000624       ?integer_cpp_version@@3PADA 1005e624     Snmp_pp:integer.obj
 0003:00000664       ?timetick_cpp_version@@3PADA 1005e664     Snmp_pp:timetick.obj
 0003:000006a4       ?counter_cpp_version@@3PADA 1005e6a4     Snmp_pp:counter.obj
 0003:000006e4       ?gauge_cpp_version@@3PADA  1005e6e4     Snmp_pp:gauge.obj
 0003:00000720       ?msgqueue_version@@3PADA   1005e720     Snmp_pp:msgqueue.obj
 0003:00000760       ?snmpmsg_cpp_version@@3PADA 1005e760     Snmp_pp:snmpmsg.obj
 0003:000007a0       ?event_list_holder_version@@3PADA 1005e7a0     Snmp_pp:eventlistholder.obj
 0003:000007e8       ?event_list_version@@3PADA 1005e7e8     Snmp_pp:eventlist.obj
 0003:00000830       ?notifyqueue_version@@3PADA 1005e830     Snmp_pp:notifyqueue.obj
 0003:00000874       ?msec_cpp_version@@3PADA   1005e874     Snmp_pp:msec.obj
 0003:000008b0       ?asn1_cpp_version@@3PADA   1005e8b0     Snmp_pp:asn1.obj
 0003:000008ec       ?auth_priv_version@@3PADA  1005e8ec     Snmp_pp:auth_priv.obj
 0003:00000930       ?sha_cpp_version@@3PADA    1005e930     Snmp_pp:sha.obj
 0003:000009b0       ?md5c_cpp_version@@3PADA   1005e9b0     Snmp_pp:md5c.obj
 0003:00000af0       _libdes_version            1005eaf0     Snmp_pp:ecb_enc.obj
 0003:00000af4       _DES_version               1005eaf4     Snmp_pp:ecb_enc.obj
 0003:00000b00       ___security_cookie         1005eb00     MSVCRT:seccook.obj
 0003:00000b04       ??_R0?AVtype_info@@@8      1005eb04     MSVCRT:ti_inst.obj
 0003:00000b20       ?_RTC_ErrorLevels@@3PAHA   1005eb20     MSVCRT:error.obj
 0003:00000b9c       ?syscall_mutex@Address@@1VSnmpSynchronized@@A 1005eb9c     Snmp_pp:address.obj
 0003:00000bbc       ?hex_output_type@OctetStr@@1W4OutputType@1@A 1005ebbc     Snmp_pp:octet.obj
 0003:00000c84       ?I@v3MP@@2PAV1@A           1005ec84     Snmp_pp:mp_v3.obj
 0003:00000c88       ?logfilename@@3PBDB        1005ec88     Snmp_pp:v3.obj
 0003:00000d50       ?instance@DefaultLog@@1PAVAgentLog@@A 1005ed50     Snmp_pp:log.obj
 0003:00000d54       ?entry@DefaultLog@@1PAVLogEntry@@A 1005ed54     Snmp_pp:log.obj
 0003:00000d5c       _des_check_key             1005ed5c     Snmp_pp:set_key.obj
 0003:00000de4       __adjust_fdiv              1005ede4     <common>
 0003:00000de8       __pRawDllMain              1005ede8     <common>
 0003:00000dec       ___onexitend               1005edec     <common>
 0003:00000df0       ___onexitbegin             1005edf0     <common>

 entry point at        0001:0004c9d8

 Static symbols

 0001:00000a01       $L82788                    10001a01 f i CommonMonitor.obj
 0001:00000d3f       $L84116                    10001d3f f i CommonMonitor.obj
 0001:00000ebe       $L84354                    10001ebe f i CommonMonitor.obj
 0001:00001408       $L85877                    10002408 f i CommonMonitor.obj
 0001:00001f21       $L88864                    10002f21 f i CommonMonitor.obj
 0001:000076ed       $L24087                    100086ed f i expression.obj
 0001:00008608       $L27830                    10009608 f i expression.obj
 0001:000099c1       $L29931                    1000a9c1 f i expression.obj
 0001:00009c7e       $L30817                    1000ac7e f i expression.obj
 0001:0000b866       $L77902                    1000c866 f i snmplib.obj
 0001:0000c90e       $L79891                    1000d90e f   snmplib.obj
 0001:0000cd2b       $L80131                    1000dd2b f   snmplib.obj
 0001:0000e1b7       $L86455                    1000f1b7 f i SnmpOperate.obj
 0001:0001075a       $L94308                    1001175a f   SnmpOperate.obj
 0001:00011b3f       $L78312                    10012b3f f   SVDefines.obj
 0001:0003cc50       ?yield_pump@@YAHXZ         1003dc50 f   Snmp_pp:eventlistholder.obj
 0001:00044120       ?snmp_auth_build@@YAPAEPAEPAHJPBEHH@Z 10045120 f   Snmp_pp:asn1.obj
 0001:00044ca0       ?snmp_auth_parse@@YAPAEPAEPAH01PAJ@Z 10045ca0 f   Snmp_pp:asn1.obj
 0001:000490b0       ?SHATransform@@YAXPAUSHA_CTX@@PBE@Z 1004a0b0 f   Snmp_pp:sha.obj
 0001:00049a00       _MD5Transform              1004aa00 f   Snmp_pp:md5c.obj
 0001:0004a8a0       _Encode                    1004b8a0 f   Snmp_pp:md5c.obj
 0001:0004a960       _Decode                    1004b960 f   Snmp_pp:md5c.obj
 0001:0004a9f0       _MD5_memcpy                1004b9f0 f   Snmp_pp:md5c.obj
 0001:0004aa40       _MD5_memset                1004ba40 f   Snmp_pp:md5c.obj
 0001:0004bbe0       _check_parity              1004cbe0 f   Snmp_pp:set_key.obj
 0001:0004c586       _report_failure            1004d586 f   MSVCRT:secchk.obj
 0001:0004cb90       ?DebuggerProbe@@YAHK@Z     1004db90 f   MSVCRT:error.obj
 0001:0004cbdd       ?DebuggerRuntime@@YAHKHPAXPB_W@Z 1004dbdd f   MSVCRT:error.obj
 0001:0004cc3c       ?Win95IsDebuggerPresent@@YGHXZ 1004dc3c f   MSVCRT:error.obj
 0001:0004cc4d       ?Initialize@@YAHXZ         1004dc4d f   MSVCRT:error.obj
 0001:0004ccb5       ?failwithmessage@@YAXPAXHHPBD@Z 1004dcb5 f   MSVCRT:error.obj
 0001:0004d29e       ?GetImageInfo@@YAPAUImageInfo@@K@Z 1004e29e f   MSVCRT:pdblkup.obj
 0001:0004d5ef       ?GetPdbDll@@YAPAUHINSTANCE__@@XZ 1004e5ef f   MSVCRT:pdblkup.obj
 0001:0004da80       $L80603                    1004ea80 f   CommonMonitor.obj
 0001:0004da89       __ehhandler$?MakeCharByString@@YA_NPADAAHV?$basic_string@DU?$char_traits@D@std@@V?$allocator@D@2@@std@@@Z 1004ea89 f   CommonMonitor.obj
 0001:0004daa0       $L81068                    1004eaa0 f   CommonMonitor.obj
 0001:0004daa0       $L81079                    1004eaa0 f   CommonMonitor.obj
 0001:0004daa9       __ehhandler$??0?$pair@$$CBV?$basic_string@DU?$char_traits@D@std@@V?$allocator@D@2@@std@@V12@@std@@QAE@ABU01@@Z 1004eaa9 f   CommonMonitor.obj
 0001:0004daa9       __ehhandler$??1?$pair@$$CBV?$basic_string@DU?$char_traits@D@std@@V?$allocator@D@2@@std@@V12@@std@@QAE@XZ 1004eaa9 f   CommonMonitor.obj
 0001:0004dac0       $L81145                    1004eac0 f   CommonMonitor.obj
 0001:0004dac0       $L81201                    1004eac0 f   CommonMonitor.obj
 0001:0004dac0       $L81187                    1004eac0 f   CommonMonitor.obj
 0001:0004dac9       $L81146                    1004eac9 f   CommonMonitor.obj
 0001:0004dac9       $L81188                    1004eac9 f   CommonMonitor.obj
 0001:0004dac9       $L81202                    1004eac9 f   CommonMonitor.obj
 0001:0004dae3       __ehhandler$??$?HDU?$char_traits@D@std@@V?$allocator@D@1@@std@@YA?AV?$basic_string@DU?$char_traits@D@std@@V?$allocator@D@2@@0@ABV10@0@Z 1004eae3 f   CommonMonitor.obj
 0001:0004dae3       __ehhandler$??$?HDU?$char_traits@D@std@@V?$allocator@D@1@@std@@YA?AV?$basic_string@DU?$char_traits@D@std@@V?$allocator@D@2@@0@ABV10@D@Z 1004eae3 f   CommonMonitor.obj
 0001:0004dae3       __ehhandler$??$?HDU?$char_traits@D@std@@V?$allocator@D@1@@std@@YA?AV?$basic_string@DU?$char_traits@D@std@@V?$allocator@D@2@@0@ABV10@PBD@Z 1004eae3 f   CommonMonitor.obj
 0001:0004daf0       $L81382                    1004eaf0 f   CommonMonitor.obj
 0001:0004daf9       $L81383                    1004eaf9 f   CommonMonitor.obj
 0001:0004db05       __ehhandler$??1SNMP_Monitor_Result@@QAE@XZ 1004eb05 f   CommonMonitor.obj
 0001:0004db10       $L81817                    1004eb10 f   CommonMonitor.obj
 0001:0004db10       $L81760                    1004eb10 f   CommonMonitor.obj
 0001:0004db18       __ehhandler$??1sentry@?$basic_ostream@DU?$char_traits@D@std@@@std@@QAE@XZ 1004eb18 f   CommonMonitor.obj
 0001:0004db18       __ehhandler$??0sentry@?$basic_ostream@DU?$char_traits@D@std@@@std@@QAE@AAV12@@Z 1004eb18 f   CommonMonitor.obj
 0001:0004db30       $L82789                    1004eb30 f   CommonMonitor.obj
 0001:0004db38       $L82917                    1004eb38 f   CommonMonitor.obj
 0001:0004db40       __ehhandler$??$?6DU?$char_traits@D@std@@V?$allocator@D@1@@std@@YAAAV?$basic_ostream@DU?$char_traits@D@std@@@0@AAV10@ABV?$basic_string@DU?$char_traits@D@std@@V?$allocator@D@2@@0@@Z 1004eb40 f   CommonMonitor.obj
 0001:0004db50       $L84150                    1004eb50 f   CommonMonitor.obj
 0001:0004db50       $L84038                    1004eb50 f   CommonMonitor.obj
 0001:0004db59       $L84058                    1004eb59 f   CommonMonitor.obj
 0001:0004db59       $L84170                    1004eb59 f   CommonMonitor.obj
 0001:0004db62       __ehhandler$?_Incsize@?$list@V?$basic_string@DU?$char_traits@D@std@@V?$allocator@D@2@@std@@V?$allocator@V?$basic_string@DU?$char_traits@D@std@@V?$allocator@D@2@@std@@@2@@std@@IAEXI@Z 1004eb62 f   CommonMonitor.obj
 0001:0004db62       __ehhandler$?_Incsize@?$list@PADV?$allocator@PAD@std@@@std@@IAEXI@Z 1004eb62 f   CommonMonitor.obj
 0001:0004db70       $L80478                    1004eb70 f   CommonMonitor.obj
 0001:0004db70       $L84077                    1004eb70 f   CommonMonitor.obj
 0001:0004db79       __ehhandler$??1logic_error@std@@UAE@XZ 1004eb79 f   CommonMonitor.obj
 0001:0004db79       __ehhandler$??0logic_error@std@@QAE@ABV01@@Z 1004eb79 f   CommonMonitor.obj
 0001:0004db90       $L84117                    1004eb90 f   CommonMonitor.obj
 0001:0004dba1       __ehhandler$?_Buynode@?$list@V?$basic_string@DU?$char_traits@D@std@@V?$allocator@D@2@@std@@V?$allocator@V?$basic_string@DU?$char_traits@D@std@@V?$allocator@D@2@@std@@@2@@std@@IAEPAU_Node@?$_List_nod@V?$basic_string@DU?$char_traits@D@std@@V?$allocator@D@2@@std@@V?$allocator@V?$basic_string@DU?$char_traits@D@std@@V?$allocator@D@2@@std@@@2@@2@PAU342@0ABV?$basic_string@DU?$char_traits@D@std@@V?$allocator@D@2@@2@@Z 1004eba1 f   CommonMonitor.obj
 0001:0004dbb0       $L84355                    1004ebb0 f   CommonMonitor.obj
 0001:0004dbc1       __ehhandler$?_Buynode@?$_Tree@V?$_Tmap_traits@V?$basic_string@DU?$char_traits@D@std@@V?$allocator@D@2@@std@@V12@U?$less@V?$basic_string@DU?$char_traits@D@std@@V?$allocator@D@2@@std@@@2@V?$allocator@U?$pair@$$CBV?$basic_string@DU?$char_traits@D@std@@V?$allocator@D@2@@std@@V12@@std@@@2@$0A@@std@@@std@@IAEPAU_Node@?$_Tree_nod@V?$_Tmap_traits@V?$basic_string@DU?$char_traits@D@std@@V?$allocator@D@2@@std@@V12@U?$less@V?$basic_string@DU?$char_traits@D@std@@V?$allocator@D@2@@std@@@2@V?$allocator@U?$pair@$$CBV?$basic_string@DU?$char_traits@D@std@@V?$allocator@D@2@@std@@V12@@std@@@2@$0A@@std@@@2@PAU342@00ABU?$pair@$$CBV?$basic_string@DU?$char_traits@D@std@@V?$allocator@D@2@@std@@V12@@2@D@Z 1004ebc1 f   CommonMonitor.obj
 0001:0004dbd0       $L84845                    1004ebd0 f   CommonMonitor.obj
 0001:0004dbd9       $L84855                    1004ebd9 f   CommonMonitor.obj
 0001:0004dbe2       $L85226                    1004ebe2 f   CommonMonitor.obj
 0001:0004dbeb       __ehhandler$?erase@?$_Tree@V?$_Tmap_traits@V?$basic_string@DU?$char_traits@D@std@@V?$allocator@D@2@@std@@V12@U?$less@V?$basic_string@DU?$char_traits@D@std@@V?$allocator@D@2@@std@@@2@V?$allocator@U?$pair@$$CBV?$basic_string@DU?$char_traits@D@std@@V?$allocator@D@2@@std@@V12@@std@@@2@$0A@@std@@@std@@QAE?AViterator@12@V312@@Z 1004ebeb f   CommonMonitor.obj
 0001:0004dc00       __ehhandler$?_Copy@?$_Tree@V?$_Tmap_traits@V?$basic_string@DU?$char_traits@D@std@@V?$allocator@D@2@@std@@V12@U?$less@V?$basic_string@DU?$char_traits@D@std@@V?$allocator@D@2@@std@@@2@V?$allocator@U?$pair@$$CBV?$basic_string@DU?$char_traits@D@std@@V?$allocator@D@2@@std@@V12@@std@@@2@$0A@@std@@@std@@IAEPAU_Node@?$_Tree_nod@V?$_Tmap_traits@V?$basic_string@DU?$char_traits@D@std@@V?$allocator@D@2@@std@@V12@U?$less@V?$basic_string@DU?$char_traits@D@std@@V?$allocator@D@2@@std@@@2@V?$allocator@U?$pair@$$CBV?$basic_string@DU?$char_traits@D@std@@V?$allocator@D@2@@std@@V12@@std@@@2@$0A@@std@@@2@PAU342@0@Z 1004ec00 f   CommonMonitor.obj
 0001:0004dc10       $L86368                    1004ec10 f   CommonMonitor.obj
 0001:0004dc1c       $L86369                    1004ec1c f   CommonMonitor.obj
 0001:0004dc27       $L86370                    1004ec27 f   CommonMonitor.obj
 0001:0004dc33       $L86371                    1004ec33 f   CommonMonitor.obj
 0001:0004dc3f       __ehhandler$?MakeChar@@YAHPADAAH@Z 1004ec3f f   CommonMonitor.obj
 0001:0004dc50       $L86677                    1004ec50 f   CommonMonitor.obj
 0001:0004dc5c       $L86678                    1004ec5c f   CommonMonitor.obj
 0001:0004dc67       $L86679                    1004ec67 f   CommonMonitor.obj
 0001:0004dc73       $L86680                    1004ec73 f   CommonMonitor.obj
 0001:0004dc7f       $L86681                    1004ec7f f   CommonMonitor.obj
 0001:0004dc8b       __ehhandler$?MakeCharByParam@@YAHPADAAH0H@Z 1004ec8b f   CommonMonitor.obj
 0001:0004dca0       $L87334                    1004eca0 f   CommonMonitor.obj
 0001:0004dca9       __ehhandler$?MakeLabel@@YAXAAV?$list@V?$basic_string@DU?$char_traits@D@std@@V?$allocator@D@2@@std@@V?$allocator@V?$basic_string@DU?$char_traits@D@std@@V?$allocator@D@2@@std@@@2@@std@@0PADHH@Z 1004eca9 f   CommonMonitor.obj
 0001:0004dcc0       $L88273                    1004ecc0 f   CommonMonitor.obj
 0001:0004dcc9       $L88283                    1004ecc9 f   CommonMonitor.obj
 0001:0004dcd2       $L88656                    1004ecd2 f   CommonMonitor.obj
 0001:0004dcdb       $L88657                    1004ecdb f   CommonMonitor.obj
 0001:0004dce7       __ehhandler$?erase@?$_Tree@V?$_Tmap_traits@HUSNMP_Monitor_Result@@U?$less@H@std@@V?$allocator@U?$pair@$$CBHUSNMP_Monitor_Result@@@std@@@3@$0A@@std@@@std@@QAE?AViterator@12@V312@@Z 1004ece7 f   CommonMonitor.obj
 0001:0004dd00       __ehhandler$??0?$_Tree@V?$_Tmap_traits@V?$basic_string@DU?$char_traits@D@std@@V?$allocator@D@2@@std@@V12@U?$less@V?$basic_string@DU?$char_traits@D@std@@V?$allocator@D@2@@std@@@2@V?$allocator@U?$pair@$$CBV?$basic_string@DU?$char_traits@D@std@@V?$allocator@D@2@@std@@V12@@std@@@2@$0A@@std@@@std@@QAE@ABV01@@Z 1004ed00 f   CommonMonitor.obj
 0001:0004dd10       $L89604                    1004ed10 f   CommonMonitor.obj
 0001:0004dd18       $L89605                    1004ed18 f   CommonMonitor.obj
 0001:0004dd24       $L89606                    1004ed24 f   CommonMonitor.obj
 0001:0004dd30       $L89607                    1004ed30 f   CommonMonitor.obj
 0001:0004dd3c       $L89608                    1004ed3c f   CommonMonitor.obj
 0001:0004dd48       $L89609                    1004ed48 f   CommonMonitor.obj
 0001:0004dd54       $L89610                    1004ed54 f   CommonMonitor.obj
 0001:0004dd60       $L89611                    1004ed60 f   CommonMonitor.obj
 0001:0004dd6c       $L89612                    1004ed6c f   CommonMonitor.obj
 0001:0004dd78       $L89613                    1004ed78 f   CommonMonitor.obj
 0001:0004dd84       $L89614                    1004ed84 f   CommonMonitor.obj
 0001:0004dd90       $L89615                    1004ed90 f   CommonMonitor.obj
 0001:0004dd9c       $L89616                    1004ed9c f   CommonMonitor.obj
 0001:0004dda8       $L89617                    1004eda8 f   CommonMonitor.obj
 0001:0004ddb4       $L89618                    1004edb4 f   CommonMonitor.obj
 0001:0004ddc0       $L89619                    1004edc0 f   CommonMonitor.obj
 0001:0004ddcc       $L89620                    1004edcc f   CommonMonitor.obj
 0001:0004ddd8       $L89621                    1004edd8 f   CommonMonitor.obj
 0001:0004dde4       $L89622                    1004ede4 f   CommonMonitor.obj
 0001:0004ddf0       $L89623                    1004edf0 f   CommonMonitor.obj
 0001:0004ddfc       $L89625                    1004edfc f   CommonMonitor.obj
 0001:0004de07       __ehhandler$?GetDataBySNMP@@YA_NV?$map@V?$basic_string@DU?$char_traits@D@std@@V?$allocator@D@2@@std@@V12@U?$less@V?$basic_string@DU?$char_traits@D@std@@V?$allocator@D@2@@std@@@2@V?$allocator@U?$pair@$$CBV?$basic_string@DU?$char_traits@D@std@@V?$allocator@D@2@@std@@V12@@std@@@2@@std@@PADAAH@Z 1004ee07 f   CommonMonitor.obj
 0001:0004de20       $L92167                    1004ee20 f   CommonMonitor.obj
 0001:0004de28       $L92168                    1004ee28 f   CommonMonitor.obj
 0001:0004de34       $L92169                    1004ee34 f   CommonMonitor.obj
 0001:0004de40       $L92170                    1004ee40 f   CommonMonitor.obj
 0001:0004de4c       $L92171                    1004ee4c f   CommonMonitor.obj
 0001:0004de58       $L92172                    1004ee58 f   CommonMonitor.obj
 0001:0004de64       $L92173                    1004ee64 f   CommonMonitor.obj
 0001:0004de70       $L92174                    1004ee70 f   CommonMonitor.obj
 0001:0004de7c       $L92175                    1004ee7c f   CommonMonitor.obj
 0001:0004de88       $L92176                    1004ee88 f   CommonMonitor.obj
 0001:0004de94       $L92177                    1004ee94 f   CommonMonitor.obj
 0001:0004dea0       $L92178                    1004eea0 f   CommonMonitor.obj
 0001:0004deac       $L92179                    1004eeac f   CommonMonitor.obj
 0001:0004deb8       $L92180                    1004eeb8 f   CommonMonitor.obj
 0001:0004dec4       $L92181                    1004eec4 f   CommonMonitor.obj
 0001:0004ded0       $L92182                    1004eed0 f   CommonMonitor.obj
 0001:0004dedc       $L92183                    1004eedc f   CommonMonitor.obj
 0001:0004dee8       $L92184                    1004eee8 f   CommonMonitor.obj
 0001:0004def4       $L92185                    1004eef4 f   CommonMonitor.obj
 0001:0004df00       $L92186                    1004ef00 f   CommonMonitor.obj
 0001:0004df0c       $L92188                    1004ef0c f   CommonMonitor.obj
 0001:0004df17       __ehhandler$?GetIfBySNMP@@YA_NV?$map@V?$basic_string@DU?$char_traits@D@std@@V?$allocator@D@2@@std@@V12@U?$less@V?$basic_string@DU?$char_traits@D@std@@V?$allocator@D@2@@std@@@2@V?$allocator@U?$pair@$$CBV?$basic_string@DU?$char_traits@D@std@@V?$allocator@D@2@@std@@V12@@std@@@2@@std@@PADAAH@Z 1004ef17 f   CommonMonitor.obj
 0001:0004df30       $L94708                    1004ef30 f   CommonMonitor.obj
 0001:0004df38       $L94709                    1004ef38 f   CommonMonitor.obj
 0001:0004df41       $L94710                    1004ef41 f   CommonMonitor.obj
 0001:0004df4a       $L94711                    1004ef4a f   CommonMonitor.obj
 0001:0004df53       $L94712                    1004ef53 f   CommonMonitor.obj
 0001:0004df5c       $L94713                    1004ef5c f   CommonMonitor.obj
 0001:0004df68       $L94714                    1004ef68 f   CommonMonitor.obj
 0001:0004df74       $L94715                    1004ef74 f   CommonMonitor.obj
 0001:0004df80       $L94716                    1004ef80 f   CommonMonitor.obj
 0001:0004df8c       __ehhandler$?GetDataByCLI@@YA_NV?$map@V?$basic_string@DU?$char_traits@D@std@@V?$allocator@D@2@@std@@V12@U?$less@V?$basic_string@DU?$char_traits@D@std@@V?$allocator@D@2@@std@@@2@V?$allocator@U?$pair@$$CBV?$basic_string@DU?$char_traits@D@std@@V?$allocator@D@2@@std@@V12@@std@@@2@@std@@PADAAH@Z 1004ef8c f   CommonMonitor.obj
 0001:0004dfa0       $L96242                    1004efa0 f   CommonMonitor.obj
 0001:0004dfa8       $L96243                    1004efa8 f   CommonMonitor.obj
 0001:0004dfb1       $L96244                    1004efb1 f   CommonMonitor.obj
 0001:0004dfba       $L96245                    1004efba f   CommonMonitor.obj
 0001:0004dfc3       $L96246                    1004efc3 f   CommonMonitor.obj
 0001:0004dfcc       __ehhandler$?PrintDebug@@YAXV?$map@V?$basic_string@DU?$char_traits@D@std@@V?$allocator@D@2@@std@@V12@U?$less@V?$basic_string@DU?$char_traits@D@std@@V?$allocator@D@2@@std@@@2@V?$allocator@U?$pair@$$CBV?$basic_string@DU?$char_traits@D@std@@V?$allocator@D@2@@std@@V12@@std@@@2@@std@@@Z 1004efcc f   CommonMonitor.obj
 0001:0004dfe0       $L97308                    1004efe0 f   CommonMonitor.obj
 0001:0004dfeb       $L97309                    1004efeb f   CommonMonitor.obj
 0001:0004dff7       $L97310                    1004eff7 f   CommonMonitor.obj
 0001:0004e002       $L97311                    1004f002 f   CommonMonitor.obj
 0001:0004e00e       $L97312                    1004f00e f   CommonMonitor.obj
 0001:0004e01a       __ehhandler$?CheckOIDIndex@@YAHAAV?$list@V?$basic_string@DU?$char_traits@D@std@@V?$allocator@D@2@@std@@V?$allocator@V?$basic_string@DU?$char_traits@D@std@@V?$allocator@D@2@@std@@@2@@std@@PADAAVCSVSnmpOID@@H@Z 1004f01a f   CommonMonitor.obj
 0001:0004e030       $L20384                    1004f030 f   expression.obj
 0001:0004e039       $L20385                    1004f039 f   expression.obj
 0001:0004e042       __ehhandler$?isOperator@CSVExpression@@AAEHABV?$basic_string@DU?$char_traits@D@std@@V?$allocator@D@2@@std@@@Z 1004f042 f   expression.obj
 0001:0004e050       $L21646                    1004f050 f   expression.obj
 0001:0004e061       __ehhandler$??$_Construct@V?$basic_string@DU?$char_traits@D@std@@V?$allocator@D@2@@std@@V12@@std@@YAXPAV?$basic_string@DU?$char_traits@D@std@@V?$allocator@D@2@@0@ABV10@@Z 1004f061 f   expression.obj
 0001:0004e070       $L24088                    1004f070 f   expression.obj
 0001:0004e081       __ehhandler$?_Buynode@?$_Tree@V?$_Tmap_traits@V?$basic_string@DU?$char_traits@D@std@@V?$allocator@D@2@@std@@_KU?$less@V?$basic_string@DU?$char_traits@D@std@@V?$allocator@D@2@@std@@@2@V?$allocator@U?$pair@$$CBV?$basic_string@DU?$char_traits@D@std@@V?$allocator@D@2@@std@@_K@std@@@2@$0A@@std@@@std@@IAEPAU_Node@?$_Tree_nod@V?$_Tmap_traits@V?$basic_string@DU?$char_traits@D@std@@V?$allocator@D@2@@std@@_KU?$less@V?$basic_string@DU?$char_traits@D@std@@V?$allocator@D@2@@std@@@2@V?$allocator@U?$pair@$$CBV?$basic_string@DU?$char_traits@D@std@@V?$allocator@D@2@@std@@_K@std@@@2@$0A@@std@@@2@PAU342@00ABU?$pair@$$CBV?$basic_string@DU?$char_traits@D@std@@V?$allocator@D@2@@std@@_K@2@D@Z 1004f081 f   expression.obj
 0001:0004e090       $L25763                    1004f090 f   expression.obj
 0001:0004e099       $L25764                    1004f099 f   expression.obj
 0001:0004e0a2       $L25765                    1004f0a2 f   expression.obj
 0001:0004e0ab       $L25766                    1004f0ab f   expression.obj
 0001:0004e0b4       __ehhandler$?GetOidValue@CSVExpression@@AAE_KABV?$basic_string@DU?$char_traits@D@std@@V?$allocator@D@2@@std@@@Z 1004f0b4 f   expression.obj
 0001:0004e0c0       __ehhandler$?_Copy@?$_Tree@V?$_Tmap_traits@V?$basic_string@DU?$char_traits@D@std@@V?$allocator@D@2@@std@@_KU?$less@V?$basic_string@DU?$char_traits@D@std@@V?$allocator@D@2@@std@@@2@V?$allocator@U?$pair@$$CBV?$basic_string@DU?$char_traits@D@std@@V?$allocator@D@2@@std@@_K@std@@@2@$0A@@std@@@std@@IAEPAU_Node@?$_Tree_nod@V?$_Tmap_traits@V?$basic_string@DU?$char_traits@D@std@@V?$allocator@D@2@@std@@_KU?$less@V?$basic_string@DU?$char_traits@D@std@@V?$allocator@D@2@@std@@@2@V?$allocator@U?$pair@$$CBV?$basic_string@DU?$char_traits@D@std@@V?$allocator@D@2@@std@@_K@std@@@2@$0A@@std@@@2@PAU342@0@Z 1004f0c0 f   expression.obj
 0001:0004e0d0       $L27883                    1004f0d0 f   expression.obj
 0001:0004e0db       $L27884                    1004f0db f   expression.obj
 0001:0004e0e4       $L27885                    1004f0e4 f   expression.obj
 0001:0004e0ed       $L27886                    1004f0ed f   expression.obj
 0001:0004e0f6       $L27887                    1004f0f6 f   expression.obj
 0001:0004e0ff       $L27888                    1004f0ff f   expression.obj
 0001:0004e10b       $L27889                    1004f10b f   expression.obj
 0001:0004e117       $L27890                    1004f117 f   expression.obj
 0001:0004e123       $L27892                    1004f123 f   expression.obj
 0001:0004e12f       $L27893                    1004f12f f   expression.obj
 0001:0004e13b       $L27894                    1004f13b f   expression.obj
 0001:0004e147       $L27895                    1004f147 f   expression.obj
 0001:0004e153       $L27896                    1004f153 f   expression.obj
 0001:0004e15f       $L27897                    1004f15f f   expression.obj
 0001:0004e16b       $L27898                    1004f16b f   expression.obj
 0001:0004e177       __ehhandler$?toRPN@CSVExpression@@AAEHABV?$basic_string@DU?$char_traits@D@std@@V?$allocator@D@2@@std@@AAV23@@Z 1004f177 f   expression.obj
 0001:0004e190       $L28701                    1004f190 f   expression.obj
 0001:0004e19b       $L28702                    1004f19b f   expression.obj
 0001:0004e1a4       $L28703                    1004f1a4 f   expression.obj
 0001:0004e1b0       $L28705                    1004f1b0 f   expression.obj
 0001:0004e1b9       $L28706                    1004f1b9 f   expression.obj
 0001:0004e1c2       __ehhandler$?evaluateRPN@CSVExpression@@AAEHABV?$basic_string@DU?$char_traits@D@std@@V?$allocator@D@2@@std@@AAN@Z 1004f1c2 f   expression.obj
 0001:0004e1d0       $L29299                    1004f1d0 f   expression.obj
 0001:0004e1d8       __ehhandler$??A?$map@V?$basic_string@DU?$char_traits@D@std@@V?$allocator@D@2@@std@@_KU?$less@V?$basic_string@DU?$char_traits@D@std@@V?$allocator@D@2@@std@@@2@V?$allocator@U?$pair@$$CBV?$basic_string@DU?$char_traits@D@std@@V?$allocator@D@2@@std@@_K@std@@@2@@std@@QAEAA_KABV?$basic_string@DU?$char_traits@D@std@@V?$allocator@D@2@@1@@Z 1004f1d8 f   expression.obj
 0001:0004e1f0       __ehhandler$??0?$_Tree@V?$_Tmap_traits@V?$basic_string@DU?$char_traits@D@std@@V?$allocator@D@2@@std@@_KU?$less@V?$basic_string@DU?$char_traits@D@std@@V?$allocator@D@2@@std@@@2@V?$allocator@U?$pair@$$CBV?$basic_string@DU?$char_traits@D@std@@V?$allocator@D@2@@std@@_K@std@@@2@$0A@@std@@@std@@QAE@ABV01@@Z 1004f1f0 f   expression.obj
 0001:0004e200       $L30067                    1004f200 f   expression.obj
 0001:0004e209       __ehhandler$?calculateDouble@CSVExpression@@QAEHABV?$basic_string@DU?$char_traits@D@std@@V?$allocator@D@2@@std@@AAN@Z 1004f209 f   expression.obj
 0001:0004e220       $L30597                    1004f220 f   expression.obj
 0001:0004e229       __ehhandler$??1?$pair@$$CBV?$basic_string@DU?$char_traits@D@std@@V?$allocator@D@2@@std@@V?$map@V?$basic_string@DU?$char_traits@D@std@@V?$allocator@D@2@@std@@_KU?$less@V?$basic_string@DU?$char_traits@D@std@@V?$allocator@D@2@@std@@@2@V?$allocator@U?$pair@$$CBV?$basic_string@DU?$char_traits@D@std@@V?$allocator@D@2@@std@@_K@std@@@2@@2@@std@@QAE@XZ 1004f229 f   expression.obj
 0001:0004e240       $L30768                    1004f240 f   expression.obj
 0001:0004e240       $L30784                    1004f240 f   expression.obj
 0001:0004e249       __ehhandler$??0?$pair@$$CBV?$basic_string@DU?$char_traits@D@std@@V?$allocator@D@2@@std@@V?$map@V?$basic_string@DU?$char_traits@D@std@@V?$allocator@D@2@@std@@_KU?$less@V?$basic_string@DU?$char_traits@D@std@@V?$allocator@D@2@@std@@@2@V?$allocator@U?$pair@$$CBV?$basic_string@DU?$char_traits@D@std@@V?$allocator@D@2@@std@@_K@std@@@2@@2@@std@@QAE@ABV?$basic_string@DU?$char_traits@D@std@@V?$allocator@D@2@@1@ABV?$map@V?$basic_string@DU?$char_traits@D@std@@V?$allocator@D@2@@std@@_KU?$less@V?$basic_string@DU?$char_traits@D@std@@V?$allocator@D@2@@std@@@2@V?$allocator@U?$pair@$$CBV?$basic_string@DU?$char_traits@D@std@@V?$allocator@D@2@@std@@_K@std@@@2@@1@@Z 1004f249 f   expression.obj
 0001:0004e249       __ehhandler$??0?$pair@$$CBV?$basic_string@DU?$char_traits@D@std@@V?$allocator@D@2@@std@@V?$map@V?$basic_string@DU?$char_traits@D@std@@V?$allocator@D@2@@std@@_KU?$less@V?$basic_string@DU?$char_traits@D@std@@V?$allocator@D@2@@std@@@2@V?$allocator@U?$pair@$$CBV?$basic_string@DU?$char_traits@D@std@@V?$allocator@D@2@@std@@_K@std@@@2@@2@@std@@QAE@ABU01@@Z 1004f249 f   expression.obj
 0001:0004e260       $L30818                    1004f260 f   expression.obj
 0001:0004e271       __ehhandler$?_Buynode@?$_Tree@V?$_Tmap_traits@V?$basic_string@DU?$char_traits@D@std@@V?$allocator@D@2@@std@@V?$map@V?$basic_string@DU?$char_traits@D@std@@V?$allocator@D@2@@std@@_KU?$less@V?$basic_string@DU?$char_traits@D@std@@V?$allocator@D@2@@std@@@2@V?$allocator@U?$pair@$$CBV?$basic_string@DU?$char_traits@D@std@@V?$allocator@D@2@@std@@_K@std@@@2@@2@U?$less@V?$basic_string@DU?$char_traits@D@std@@V?$allocator@D@2@@std@@@2@V?$allocator@U?$pair@$$CBV?$basic_string@DU?$char_traits@D@std@@V?$allocator@D@2@@std@@V?$map@V?$basic_string@DU?$char_traits@D@std@@V?$allocator@D@2@@std@@_KU?$less@V?$basic_string@DU?$char_traits@D@std@@V?$allocator@D@2@@std@@@2@V?$allocator@U?$pair@$$CBV?$basic_string@DU?$char_traits@D@std@@V?$allocator@D@2@@std@@_K@std@@@2@@2@@std@@@2@$0A@@std@@@std@@IAEPAU_Node@?$_Tree_nod@V?$_Tmap_traits@V?$basic_string@DU?$char_traits@D@std@@V?$allocator@D@2@@std@@V?$map@V?$basic_string@DU?$char_traits@D@std@@V?$allocator@D@2@@std@@_KU?$less@V?$basic_string@DU?$char_traits@D@std@@V?$allocator@D@2@@std@@@2@V?$allocator@U?$pair@$$CBV?$basic_string@DU?$char_traits@D@std@@V?$allocator@D@2@@std@@_K@std@@@2@@2@U?$less@V?$basic_string@DU?$char_traits@D@std@@V?$allocator@D@2@@std@@@2@V?$allocator@U?$pair@$$CBV?$basic_string@DU?$char_traits@D@std@@V?$allocator@D@2@@std@@V?$map@V?$basic_string@DU?$char_traits@D@std@@V?$allocator@D@2@@std@@_KU?$less@V?$basic_string@DU?$char_traits@D@std@@V?$allocator@D@2@@std@@@2@V?$allocator@U?$pair@$$CBV?$basic_string@DU?$char_traits@D@std@@V?$allocator@D@2@@std@@_K@std@@@2@@2@@std@@@2@$0A@@std@@@2@PAU342@00ABU?$pair@$$CBV?$basic_string@DU?$char_traits@D@std@@V?$allocator@D@2@@std@@V?$map@V?$basic_string@DU?$char_traits@D@std@@V?$allocator@D@2@@std@@_KU?$less@V?$basic_string@DU?$char_traits@D@std@@V?$allocator@D@2@@std@@@2@V?$allocator@U?$pair@$$CBV?$basic_string@DU?$char_traits@D@std@@V?$allocator@D@2@@std@@_K@std@@@2@@2@@2@D@Z 1004f271 f   expression.obj
 0001:0004e280       $L21075                    1004f280 f   expression.obj
 0001:0004e280       $L26703                    1004f280 f   expression.obj
 0001:0004e280       $L31292                    1004f280 f   expression.obj
 0001:0004e280       $L21115                    1004f280 f   expression.obj
 0001:0004e280       $L24832                    1004f280 f   expression.obj
 0001:0004e280       $L30858                    1004f280 f   expression.obj
 0001:0004e289       $L21119                    1004f289 f   expression.obj
 0001:0004e289       $L30878                    1004f289 f   expression.obj
 0001:0004e289       $L21079                    1004f289 f   expression.obj
 0001:0004e289       $L24852                    1004f289 f   expression.obj
 0001:0004e289       $L26713                    1004f289 f   expression.obj
 0001:0004e289       $L31302                    1004f289 f   expression.obj
 0001:0004e292       __ehhandler$?_Insert@?$_Tree@V?$_Tmap_traits@V?$basic_string@DU?$char_traits@D@std@@V?$allocator@D@2@@std@@_KU?$less@V?$basic_string@DU?$char_traits@D@std@@V?$allocator@D@2@@std@@@2@V?$allocator@U?$pair@$$CBV?$basic_string@DU?$char_traits@D@std@@V?$allocator@D@2@@std@@_K@std@@@2@$0A@@std@@@std@@IAE?AViterator@12@_NPAU_Node@?$_Tree_nod@V?$_Tmap_traits@V?$basic_string@DU?$char_traits@D@std@@V?$allocator@D@2@@std@@_KU?$less@V?$basic_string@DU?$char_traits@D@std@@V?$allocator@D@2@@std@@@2@V?$allocator@U?$pair@$$CBV?$basic_string@DU?$char_traits@D@std@@V?$allocator@D@2@@std@@_K@std@@@2@$0A@@std@@@2@ABU?$pair@$$CBV?$basic_string@DU?$char_traits@D@std@@V?$allocator@D@2@@std@@_K@2@@Z 1004f292 f   expression.obj
 0001:0004e292       __ehhandler$?_Xlen@?$deque@NV?$allocator@N@std@@@std@@IBEXXZ 1004f292 f   expression.obj
 0001:0004e292       __ehhandler$?_Xlen@?$deque@V?$basic_string@DU?$char_traits@D@std@@V?$allocator@D@2@@std@@V?$allocator@V?$basic_string@DU?$char_traits@D@std@@V?$allocator@D@2@@std@@@2@@std@@IBEXXZ 1004f292 f   expression.obj
 0001:0004e292       __ehhandler$?erase@?$_Tree@V?$_Tmap_traits@V?$basic_string@DU?$char_traits@D@std@@V?$allocator@D@2@@std@@V?$map@V?$basic_string@DU?$char_traits@D@std@@V?$allocator@D@2@@std@@_KU?$less@V?$basic_string@DU?$char_traits@D@std@@V?$allocator@D@2@@std@@@2@V?$allocator@U?$pair@$$CBV?$basic_string@DU?$char_traits@D@std@@V?$allocator@D@2@@std@@_K@std@@@2@@2@U?$less@V?$basic_string@DU?$char_traits@D@std@@V?$allocator@D@2@@std@@@2@V?$allocator@U?$pair@$$CBV?$basic_string@DU?$char_traits@D@std@@V?$allocator@D@2@@std@@V?$map@V?$basic_string@DU?$char_traits@D@std@@V?$allocator@D@2@@std@@_KU?$less@V?$basic_string@DU?$char_traits@D@std@@V?$allocator@D@2@@std@@@2@V?$allocator@U?$pair@$$CBV?$basic_string@DU?$char_traits@D@std@@V?$allocator@D@2@@std@@_K@std@@@2@@2@@std@@@2@$0A@@std@@@std@@QAE?AViterator@12@V312@@Z 1004f292 f   expression.obj
 0001:0004e292       __ehhandler$?erase@?$_Tree@V?$_Tmap_traits@V?$basic_string@DU?$char_traits@D@std@@V?$allocator@D@2@@std@@_KU?$less@V?$basic_string@DU?$char_traits@D@std@@V?$allocator@D@2@@std@@@2@V?$allocator@U?$pair@$$CBV?$basic_string@DU?$char_traits@D@std@@V?$allocator@D@2@@std@@_K@std@@@2@$0A@@std@@@std@@QAE?AViterator@12@V312@@Z 1004f292 f   expression.obj
 0001:0004e292       __ehhandler$?_Insert@?$_Tree@V?$_Tmap_traits@V?$basic_string@DU?$char_traits@D@std@@V?$allocator@D@2@@std@@V?$map@V?$basic_string@DU?$char_traits@D@std@@V?$allocator@D@2@@std@@_KU?$less@V?$basic_string@DU?$char_traits@D@std@@V?$allocator@D@2@@std@@@2@V?$allocator@U?$pair@$$CBV?$basic_string@DU?$char_traits@D@std@@V?$allocator@D@2@@std@@_K@std@@@2@@2@U?$less@V?$basic_string@DU?$char_traits@D@std@@V?$allocator@D@2@@std@@@2@V?$allocator@U?$pair@$$CBV?$basic_string@DU?$char_traits@D@std@@V?$allocator@D@2@@std@@V?$map@V?$basic_string@DU?$char_traits@D@std@@V?$allocator@D@2@@std@@_KU?$less@V?$basic_string@DU?$char_traits@D@std@@V?$allocator@D@2@@std@@@2@V?$allocator@U?$pair@$$CBV?$basic_string@DU?$char_traits@D@std@@V?$allocator@D@2@@std@@_K@std@@@2@@2@@std@@@2@$0A@@std@@@std@@IAE?AViterator@12@_NPAU_Node@?$_Tree_nod@V?$_Tmap_traits@V?$basic_string@DU?$char_traits@D@std@@V?$allocator@D@2@@std@@V?$map@V?$basic_string@DU?$char_traits@D@std@@V?$allocator@D@2@@std@@_KU?$less@V?$basic_string@DU?$char_traits@D@std@@V?$allocator@D@2@@std@@@2@V?$allocator@U?$pair@$$CBV?$basic_string@DU?$char_traits@D@std@@V?$allocator@D@2@@std@@_K@std@@@2@@2@U?$less@V?$basic_string@DU?$char_traits@D@std@@V?$allocator@D@2@@std@@@2@V?$allocator@U?$pair@$$CBV?$basic_string@DU?$char_traits@D@std@@V?$allocator@D@2@@std@@V?$map@V?$basic_string@DU?$char_traits@D@std@@V?$allocator@D@2@@std@@_KU?$less@V?$basic_string@DU?$char_traits@D@std@@V?$allocator@D@2@@std@@@2@V?$allocator@U?$pair@$$CBV?$basic_string@DU?$char_traits@D@std@@V?$allocator@D@2@@std@@_K@std@@@2@@2@@std@@@2@$0A@@std@@@2@ABU?$pair@$$CBV?$basic_string@DU?$char_traits@D@std@@V?$allocator@D@2@@std@@V?$map@V?$basic_string@DU?$char_traits@D@std@@V?$allocator@D@2@@std@@_KU?$less@V?$basic_string@DU?$char_traits@D@std@@V?$allocator@D@2@@std@@@2@V?$allocator@U?$pair@$$CBV?$basic_string@DU?$char_traits@D@std@@V?$allocator@D@2@@std@@_K@std@@@2@@2@@2@@Z 1004f292 f   expression.obj
 0001:0004e2a0       $L32338                    1004f2a0 f   expression.obj
 0001:0004e2a8       $L32339                    1004f2a8 f   expression.obj
 0001:0004e2b0       __ehhandler$??A?$map@V?$basic_string@DU?$char_traits@D@std@@V?$allocator@D@2@@std@@V?$map@V?$basic_string@DU?$char_traits@D@std@@V?$allocator@D@2@@std@@_KU?$less@V?$basic_string@DU?$char_traits@D@std@@V?$allocator@D@2@@std@@@2@V?$allocator@U?$pair@$$CBV?$basic_string@DU?$char_traits@D@std@@V?$allocator@D@2@@std@@_K@std@@@2@@2@U?$less@V?$basic_string@DU?$char_traits@D@std@@V?$allocator@D@2@@std@@@2@V?$allocator@U?$pair@$$CBV?$basic_string@DU?$char_traits@D@std@@V?$allocator@D@2@@std@@V?$map@V?$basic_string@DU?$char_traits@D@std@@V?$allocator@D@2@@std@@_KU?$less@V?$basic_string@DU?$char_traits@D@std@@V?$allocator@D@2@@std@@@2@V?$allocator@U?$pair@$$CBV?$basic_string@DU?$char_traits@D@std@@V?$allocator@D@2@@std@@_K@std@@@2@@2@@std@@@2@@std@@QAEAAV?$map@V?$basic_string@DU?$char_traits@D@std@@V?$allocator@D@2@@std@@_KU?$less@V?$basic_string@DU?$char_traits@D@std@@V?$allocator@D@2@@std@@@2@V?$allocator@U?$pair@$$CBV?$basic_string@DU?$char_traits@D@std@@V?$allocator@D@2@@std@@_K@std@@@2@@1@ABV?$basic_string@DU?$char_traits@D@std@@V?$allocator@D@2@@1@@Z 1004f2b0 f   expression.obj
 0001:0004e2c0       $L33135                    1004f2c0 f   expression.obj
 0001:0004e2c8       __ehhandler$?AddFields@CSVExpression@@QAEXABV?$basic_string@DU?$char_traits@D@std@@V?$allocator@D@2@@std@@0_K@Z 1004f2c8 f   expression.obj
 0001:0004e2e0       $L75060                    1004f2e0 f   snmplib.obj
 0001:0004e2e8       __ehhandler$??1GenAddress@@UAE@XZ 1004f2e8 f   snmplib.obj
 0001:0004e300       $L75150                    1004f300 f   snmplib.obj
 0001:0004e308       __ehhandler$??1Vb@@QAE@XZ  1004f308 f   snmplib.obj
 0001:0004e320       $L75224                    1004f320 f   snmplib.obj
 0001:0004e320       $L75187                    1004f320 f   snmplib.obj
 0001:0004e328       $L75225                    1004f328 f   snmplib.obj
 0001:0004e328       $L75188                    1004f328 f   snmplib.obj
 0001:0004e333       __ehhandler$??1UTarget@@UAE@XZ 1004f333 f   snmplib.obj
 0001:0004e333       __ehhandler$??1CTarget@@UAE@XZ 1004f333 f   snmplib.obj
 0001:0004e340       $L75207                    1004f340 f   snmplib.obj
 0001:0004e340       $L75099                    1004f340 f   snmplib.obj
 0001:0004e340       $L75244                    1004f340 f   snmplib.obj
 0001:0004e34b       __ehhandler$?clone@CTarget@@UBEPAVSnmpTarget@@XZ 1004f34b f   snmplib.obj
 0001:0004e34b       __ehhandler$?clone@GenAddress@@UBEPAVSnmpSyntax@@XZ 1004f34b f   snmplib.obj
 0001:0004e34b       __ehhandler$?clone@UTarget@@UBEPAVSnmpTarget@@XZ 1004f34b f   snmplib.obj
 0001:0004e360       $L75292                    1004f360 f   snmplib.obj
 0001:0004e360       $L75304                    1004f360 f   snmplib.obj
 0001:0004e369       $L75293                    1004f369 f   snmplib.obj
 0001:0004e369       $L75305                    1004f369 f   snmplib.obj
 0001:0004e375       __ehhandler$??0SNMP_Monitor_Result@@QAE@ABU0@@Z 1004f375 f   snmplib.obj
 0001:0004e375       __ehhandler$??0SNMP_Monitor_Result@@QAE@XZ 1004f375 f   snmplib.obj
 0001:0004e380       $L75319                    1004f380 f   snmplib.obj
 0001:0004e38b       $L75320                    1004f38b f   snmplib.obj
 0001:0004e399       $L75321                    1004f399 f   snmplib.obj
 0001:0004e3a7       $L75322                    1004f3a7 f   snmplib.obj
 0001:0004e3b5       $L75323                    1004f3b5 f   snmplib.obj
 0001:0004e3c3       $L75324                    1004f3c3 f   snmplib.obj
 0001:0004e3d1       $L75325                    1004f3d1 f   snmplib.obj
 0001:0004e3df       $L75326                    1004f3df f   snmplib.obj
 0001:0004e3ed       $L75327                    1004f3ed f   snmplib.obj
 0001:0004e3fb       $L75328                    1004f3fb f   snmplib.obj
 0001:0004e409       $L75329                    1004f409 f   snmplib.obj
 0001:0004e418       __ehhandler$??0CSVBaseSNMP@@QAE@XZ 1004f418 f   snmplib.obj
 0001:0004e430       $L75344                    1004f430 f   snmplib.obj
 0001:0004e43b       $L75345                    1004f43b f   snmplib.obj
 0001:0004e449       $L75346                    1004f449 f   snmplib.obj
 0001:0004e457       $L75347                    1004f457 f   snmplib.obj
 0001:0004e465       $L75348                    1004f465 f   snmplib.obj
 0001:0004e473       $L75349                    1004f473 f   snmplib.obj
 0001:0004e481       $L75350                    1004f481 f   snmplib.obj
 0001:0004e48f       $L75351                    1004f48f f   snmplib.obj
 0001:0004e49d       $L75352                    1004f49d f   snmplib.obj
 0001:0004e4ab       $L75353                    1004f4ab f   snmplib.obj
 0001:0004e4b9       $L75354                    1004f4b9 f   snmplib.obj
 0001:0004e4c8       $L75355                    1004f4c8 f   snmplib.obj
 0001:0004e4d7       __ehhandler$??1CSVBaseSNMP@@QAE@XZ 1004f4d7 f   snmplib.obj
 0001:0004e4f0       $L75428                    1004f4f0 f   snmplib.obj
 0001:0004e4fb       $L75429                    1004f4fb f   snmplib.obj
 0001:0004e506       __ehhandler$?InitUTarget@CSVBaseSNMP@@AAEHXZ 1004f506 f   snmplib.obj
 0001:0004e510       $L75517                    1004f510 f   snmplib.obj
 0001:0004e510       $L75504                    1004f510 f   snmplib.obj
 0001:0004e518       $L75518                    1004f518 f   snmplib.obj
 0001:0004e518       $L75505                    1004f518 f   snmplib.obj
 0001:0004e527       $L75519                    1004f527 f   snmplib.obj
 0001:0004e527       $L75506                    1004f527 f   snmplib.obj
 0001:0004e536       __ehhandler$??0CSVSnmpOID@@QAE@XZ 1004f536 f   snmplib.obj
 0001:0004e536       __ehhandler$??1CSVSnmpOID@@QAE@XZ 1004f536 f   snmplib.obj
 0001:0004e540       $L76126                    1004f540 f   snmplib.obj
 0001:0004e548       $L76127                    1004f548 f   snmplib.obj
 0001:0004e550       $L76128                    1004f550 f   snmplib.obj
 0001:0004e55b       $L76130                    1004f55b f   snmplib.obj
 0001:0004e574       __ehhandler$?InitSNMPV3@CSVBaseSNMP@@AAEHXZ 1004f574 f   snmplib.obj
 0001:0004e580       $L77761                    1004f580 f   snmplib.obj
 0001:0004e58e       $L77762                    1004f58e f   snmplib.obj
 0001:0004e599       __ehhandler$?InitSNMP@CSVBaseSNMP@@QAEHXZ 1004f599 f   snmplib.obj
 0001:0004e5b0       $L77903                    1004f5b0 f   snmplib.obj
 0001:0004e5c1       __ehhandler$?_Buynode@?$_Tree@V?$_Tmap_traits@HUSNMP_Monitor_Result@@U?$less@H@std@@V?$allocator@U?$pair@$$CBHUSNMP_Monitor_Result@@@std@@@3@$0A@@std@@@std@@IAEPAU_Node@?$_Tree_nod@V?$_Tmap_traits@HUSNMP_Monitor_Result@@U?$less@H@std@@V?$allocator@U?$pair@$$CBHUSNMP_Monitor_Result@@@std@@@3@$0A@@std@@@2@PAU342@00ABU?$pair@$$CBHUSNMP_Monitor_Result@@@2@D@Z 1004f5c1 f   snmplib.obj
 0001:0004e5d0       $L77958                    1004f5d0 f   snmplib.obj
 0001:0004e5d9       $L77978                    1004f5d9 f   snmplib.obj
 0001:0004e5e2       __ehhandler$?_Insert@?$_Tree@V?$_Tmap_traits@HUSNMP_Monitor_Result@@U?$less@H@std@@V?$allocator@U?$pair@$$CBHUSNMP_Monitor_Result@@@std@@@3@$0A@@std@@@std@@IAE?AViterator@12@_NPAU_Node@?$_Tree_nod@V?$_Tmap_traits@HUSNMP_Monitor_Result@@U?$less@H@std@@V?$allocator@U?$pair@$$CBHUSNMP_Monitor_Result@@@std@@@3@$0A@@std@@@2@ABU?$pair@$$CBHUSNMP_Monitor_Result@@@2@@Z 1004f5e2 f   snmplib.obj
 0001:0004e5f0       $L79707                    1004f5f0 f   snmplib.obj
 0001:0004e5f8       $L79708                    1004f5f8 f   snmplib.obj
 0001:0004e603       __ehhandler$??A?$map@HUSNMP_Monitor_Result@@U?$less@H@std@@V?$allocator@U?$pair@$$CBHUSNMP_Monitor_Result@@@std@@@3@@std@@QAEAAUSNMP_Monitor_Result@@ABH@Z 1004f603 f   snmplib.obj
 0001:0004e610       $L79892                    1004f610 f   snmplib.obj
 0001:0004e61b       $L79893                    1004f61b f   snmplib.obj
 0001:0004e626       $L79894                    1004f626 f   snmplib.obj
 0001:0004e62e       $L79938                    1004f62e f   snmplib.obj
 0001:0004e639       $L79895                    1004f639 f   snmplib.obj
 0001:0004e642       $L79896                    1004f642 f   snmplib.obj
 0001:0004e64d       $L79897                    1004f64d f   snmplib.obj
 0001:0004e659       $L79898                    1004f659 f   snmplib.obj
 0001:0004e665       $L79990                    1004f665 f   snmplib.obj
 0001:0004e671       $L79991                    1004f671 f   snmplib.obj
 0001:0004e67a       $L79996                    1004f67a f   snmplib.obj
 0001:0004e685       $L80000                    1004f685 f   snmplib.obj
 0001:0004e690       __ehhandler$?GetBulkRequest@CSVBaseSNMP@@QAEHAAV?$map@HUSNMP_Monitor_Result@@U?$less@H@std@@V?$allocator@U?$pair@$$CBHUSNMP_Monitor_Result@@@std@@@3@@std@@@Z 1004f690 f   snmplib.obj
 0001:0004e6a0       $L80132                    1004f6a0 f   snmplib.obj
 0001:0004e6ab       $L80133                    1004f6ab f   snmplib.obj
 0001:0004e6b6       $L80134                    1004f6b6 f   snmplib.obj
 0001:0004e6c1       $L80177                    1004f6c1 f   snmplib.obj
 0001:0004e6cc       $L80135                    1004f6cc f   snmplib.obj
 0001:0004e6d4       $L80136                    1004f6d4 f   snmplib.obj
 0001:0004e6e0       $L80137                    1004f6e0 f   snmplib.obj
 0001:0004e6ec       $L80197                    1004f6ec f   snmplib.obj
 0001:0004e6f7       __ehhandler$?GetRequest@CSVBaseSNMP@@QAEHAAV?$map@HUSNMP_Monitor_Result@@U?$less@H@std@@V?$allocator@U?$pair@$$CBHUSNMP_Monitor_Result@@@std@@@3@@std@@@Z 1004f6f7 f   snmplib.obj
 0001:0004e710       $L82245                    1004f710 f   SnmpOperate.obj
 0001:0004e719       $L82246                    1004f719 f   SnmpOperate.obj
 0001:0004e722       $L82247                    1004f722 f   SnmpOperate.obj
 0001:0004e72b       __ehhandler$?OXTOD@@YA_KV?$basic_string@DU?$char_traits@D@std@@V?$allocator@D@2@@std@@@Z 1004f72b f   SnmpOperate.obj
 0001:0004e740       $L82323                    1004f740 f   SnmpOperate.obj
 0001:0004e749       $L82324                    1004f749 f   SnmpOperate.obj
 0001:0004e763       __ehhandler$?FuncGetInstallPath@@YA?AV?$basic_string@DU?$char_traits@D@std@@V?$allocator@D@2@@std@@XZ 1004f763 f   SnmpOperate.obj
 0001:0004e770       $L82381                    1004f770 f   SnmpOperate.obj
 0001:0004e770       $L82355                    1004f770 f   SnmpOperate.obj
 0001:0004e77c       __ehhandler$?GetPrivateProfileInt1@@YAHPAD0H0@Z 1004f77c f   SnmpOperate.obj
 0001:0004e77c       __ehhandler$?GetPrivateProfileString1@@YAHPAD000H0@Z 1004f77c f   SnmpOperate.obj
 0001:0004e790       $L82408                    1004f790 f   SnmpOperate.obj
 0001:0004e79c       $L82409                    1004f79c f   SnmpOperate.obj
 0001:0004e7a8       __ehhandler$?WritePrivateProfileString1@@YAHPAD000@Z 1004f7a8 f   SnmpOperate.obj
 0001:0004e7c0       $L82602                    1004f7c0 f   SnmpOperate.obj
 0001:0004e7c9       __ehhandler$??0?$pair@$$CBV?$basic_string@DU?$char_traits@D@std@@V?$allocator@D@2@@std@@V12@@std@@QAE@ABV?$basic_string@DU?$char_traits@D@std@@V?$allocator@D@2@@1@0@Z 1004f7c9 f   SnmpOperate.obj
 0001:0004e7e0       $L83563                    1004f7e0 f   SnmpOperate.obj
 0001:0004e7ec       $L83564                    1004f7ec f   SnmpOperate.obj
 0001:0004e80c       __ehhandler$?FuncGetProfileStringBy@@YA?AV?$basic_string@DU?$char_traits@D@std@@V?$allocator@D@2@@std@@PAD00@Z 1004f80c f   SnmpOperate.obj
 0001:0004e820       $L83600                    1004f820 f   SnmpOperate.obj
 0001:0004e82c       $L83601                    1004f82c f   SnmpOperate.obj
 0001:0004e83a       $L83602                    1004f83a f   SnmpOperate.obj
 0001:0004e848       $L83603                    1004f848 f   SnmpOperate.obj
 0001:0004e854       $L83604                    1004f854 f   SnmpOperate.obj
 0001:0004e860       $L83605                    1004f860 f   SnmpOperate.obj
 0001:0004e86c       $L83606                    1004f86c f   SnmpOperate.obj
 0001:0004e878       __ehhandler$?ReadInterfaceOID@CSnmpOperate@@AAE_NXZ 1004f878 f   SnmpOperate.obj
 0001:0004e890       $L86456                    1004f890 f   SnmpOperate.obj
 0001:0004e8a1       __ehhandler$?_Buynode@?$_Tree@V?$_Tmap_traits@HV?$basic_string@DU?$char_traits@D@std@@V?$allocator@D@2@@std@@U?$less@H@2@V?$allocator@U?$pair@$$CBHV?$basic_string@DU?$char_traits@D@std@@V?$allocator@D@2@@std@@@std@@@2@$0A@@std@@@std@@IAEPAU_Node@?$_Tree_nod@V?$_Tmap_traits@HV?$basic_string@DU?$char_traits@D@std@@V?$allocator@D@2@@std@@U?$less@H@2@V?$allocator@U?$pair@$$CBHV?$basic_string@DU?$char_traits@D@std@@V?$allocator@D@2@@std@@@std@@@2@$0A@@std@@@2@PAU342@00ABU?$pair@$$CBHV?$basic_string@DU?$char_traits@D@std@@V?$allocator@D@2@@std@@@2@D@Z 1004f8a1 f   SnmpOperate.obj
 0001:0004e8b0       $L88693                    1004f8b0 f   SnmpOperate.obj
 0001:0004e8b0       $L86857                    1004f8b0 f   SnmpOperate.obj
 0001:0004e8b0       $L87229                    1004f8b0 f   SnmpOperate.obj
 0001:0004e8b9       $L86877                    1004f8b9 f   SnmpOperate.obj
 0001:0004e8b9       $L88703                    1004f8b9 f   SnmpOperate.obj
 0001:0004e8b9       $L87249                    1004f8b9 f   SnmpOperate.obj
 0001:0004e8c2       __ehhandler$?_Insert@?$_Tree@V?$_Tmap_traits@V?$basic_string@DU?$char_traits@D@std@@V?$allocator@D@2@@std@@V12@U?$less@V?$basic_string@DU?$char_traits@D@std@@V?$allocator@D@2@@std@@@2@V?$allocator@U?$pair@$$CBV?$basic_string@DU?$char_traits@D@std@@V?$allocator@D@2@@std@@V12@@std@@@2@$0A@@std@@@std@@IAE?AViterator@12@_NPAU_Node@?$_Tree_nod@V?$_Tmap_traits@V?$basic_string@DU?$char_traits@D@std@@V?$allocator@D@2@@std@@V12@U?$less@V?$basic_string@DU?$char_traits@D@std@@V?$allocator@D@2@@std@@@2@V?$allocator@U?$pair@$$CBV?$basic_string@DU?$char_traits@D@std@@V?$allocator@D@2@@std@@V12@@std@@@2@$0A@@std@@@2@ABU?$pair@$$CBV?$basic_string@DU?$char_traits@D@std@@V?$allocator@D@2@@std@@V12@@2@@Z 1004f8c2 f   SnmpOperate.obj
 0001:0004e8c2       __ehhandler$?erase@?$_Tree@V?$_Tmap_traits@HV?$basic_string@DU?$char_traits@D@std@@V?$allocator@D@2@@std@@U?$less@H@2@V?$allocator@U?$pair@$$CBHV?$basic_string@DU?$char_traits@D@std@@V?$allocator@D@2@@std@@@std@@@2@$0A@@std@@@std@@QAE?AViterator@12@V312@@Z 1004f8c2 f   SnmpOperate.obj
 0001:0004e8c2       __ehhandler$?_Insert@?$_Tree@V?$_Tmap_traits@HV?$basic_string@DU?$char_traits@D@std@@V?$allocator@D@2@@std@@U?$less@H@2@V?$allocator@U?$pair@$$CBHV?$basic_string@DU?$char_traits@D@std@@V?$allocator@D@2@@std@@@std@@@2@$0A@@std@@@std@@IAE?AViterator@12@_NPAU_Node@?$_Tree_nod@V?$_Tmap_traits@HV?$basic_string@DU?$char_traits@D@std@@V?$allocator@D@2@@std@@U?$less@H@2@V?$allocator@U?$pair@$$CBHV?$basic_string@DU?$char_traits@D@std@@V?$allocator@D@2@@std@@@std@@@2@$0A@@std@@@2@ABU?$pair@$$CBHV?$basic_string@DU?$char_traits@D@std@@V?$allocator@D@2@@std@@@2@@Z 1004f8c2 f   SnmpOperate.obj
 0001:0004e8d0       $L90854                    1004f8d0 f   SnmpOperate.obj
 0001:0004e8d9       $L90855                    1004f8d9 f   SnmpOperate.obj
 0001:0004e8e1       __ehhandler$??A?$map@V?$basic_string@DU?$char_traits@D@std@@V?$allocator@D@2@@std@@V12@U?$less@V?$basic_string@DU?$char_traits@D@std@@V?$allocator@D@2@@std@@@2@V?$allocator@U?$pair@$$CBV?$basic_string@DU?$char_traits@D@std@@V?$allocator@D@2@@std@@V12@@std@@@2@@std@@QAEAAV?$basic_string@DU?$char_traits@D@std@@V?$allocator@D@2@@1@ABV21@@Z 1004f8e1 f   SnmpOperate.obj
 0001:0004e8f0       $L90940                    1004f8f0 f   SnmpOperate.obj
 0001:0004e8f9       $L90941                    1004f8f9 f   SnmpOperate.obj
 0001:0004e901       __ehhandler$??A?$map@HV?$basic_string@DU?$char_traits@D@std@@V?$allocator@D@2@@std@@U?$less@H@2@V?$allocator@U?$pair@$$CBHV?$basic_string@DU?$char_traits@D@std@@V?$allocator@D@2@@std@@@std@@@2@@std@@QAEAAV?$basic_string@DU?$char_traits@D@std@@V?$allocator@D@2@@1@ABH@Z 1004f901 f   SnmpOperate.obj
 0001:0004e910       $L91855                    1004f910 f   SnmpOperate.obj
 0001:0004e91c       $L91857                    1004f91c f   SnmpOperate.obj
 0001:0004e92a       $L91858                    1004f92a f   SnmpOperate.obj
 0001:0004e936       $L91859                    1004f936 f   SnmpOperate.obj
 0001:0004e942       $L91860                    1004f942 f   SnmpOperate.obj
 0001:0004e94e       $L91861                    1004f94e f   SnmpOperate.obj
 0001:0004e95a       __ehhandler$?ReadConfig@CSnmpOperate@@AAE_NXZ 1004f95a f   SnmpOperate.obj
 0001:0004e970       $L94309                    1004f970 f   SnmpOperate.obj
 0001:0004e97b       $L94310                    1004f97b f   SnmpOperate.obj
 0001:0004e986       $L94311                    1004f986 f   SnmpOperate.obj
 0001:0004e991       $L94312                    1004f991 f   SnmpOperate.obj
 0001:0004e99d       $L94313                    1004f99d f   SnmpOperate.obj
 0001:0004e9a6       $L94314                    1004f9a6 f   SnmpOperate.obj
 0001:0004e9af       $L94317                    1004f9af f   SnmpOperate.obj
 0001:0004e9bb       $L94318                    1004f9bb f   SnmpOperate.obj
 0001:0004e9c7       $L94320                    1004f9c7 f   SnmpOperate.obj
 0001:0004e9d0       $L94321                    1004f9d0 f   SnmpOperate.obj
 0001:0004e9dc       $L94322                    1004f9dc f   SnmpOperate.obj
 0001:0004e9e8       $L94323                    1004f9e8 f   SnmpOperate.obj
 0001:0004e9f4       $L94324                    1004f9f4 f   SnmpOperate.obj
 0001:0004ea00       $L94325                    1004fa00 f   SnmpOperate.obj
 0001:0004ea0c       $L94326                    1004fa0c f   SnmpOperate.obj
 0001:0004ea18       $L94327                    1004fa18 f   SnmpOperate.obj
 0001:0004ea24       $L94328                    1004fa24 f   SnmpOperate.obj
 0001:0004ea30       __ehhandler$?GetResult@CSnmpOperate@@QAE_NPADAAH@Z 1004fa30 f   SnmpOperate.obj
 0001:0004ea40       $L95527                    1004fa40 f   SnmpOperate.obj
 0001:0004ea49       $L95528                    1004fa49 f   SnmpOperate.obj
 0001:0004ea54       $L95529                    1004fa54 f   SnmpOperate.obj
 0001:0004ea5f       $L95530                    1004fa5f f   SnmpOperate.obj
 0001:0004ea6a       __ehhandler$?GetResultByOID@CSnmpOperate@@QAE_NPADV?$basic_string@DU?$char_traits@D@std@@V?$allocator@D@2@@std@@AAH@Z 1004fa6a f   SnmpOperate.obj
 0001:0004ea80       $L96426                    1004fa80 f   SnmpOperate.obj
 0001:0004ea89       $L96427                    1004fa89 f   SnmpOperate.obj
 0001:0004ea94       $L96429                    1004fa94 f   SnmpOperate.obj
 0001:0004ea9f       $L96430                    1004fa9f f   SnmpOperate.obj
 0001:0004eaaa       $L97523                    1004faaa f   SnmpOperate.obj
 0001:0004eab6       $L97524                    1004fab6 f   SnmpOperate.obj
 0001:0004eac5       $L98095                    1004fac5 f   SnmpOperate.obj
 0001:0004ead1       $L98096                    1004fad1 f   SnmpOperate.obj
 0001:0004eae0       $L98667                    1004fae0 f   SnmpOperate.obj
 0001:0004eaec       $L98668                    1004faec f   SnmpOperate.obj
 0001:0004eafb       __ehhandler$?GetInterfaceInfo@CSnmpOperate@@QAE_NPADV?$basic_string@DU?$char_traits@D@std@@V?$allocator@D@2@@std@@AAH@Z 1004fafb f   SnmpOperate.obj
 0001:0004eb10       $L78313                    1004fb10 f   SVDefines.obj
 0001:0004eb19       $L78314                    1004fb19 f   SVDefines.obj
 0001:0004eb22       $L78315                    1004fb22 f   SVDefines.obj
 0001:0004eb3c       __ehhandler$?GetSEIP@@YA?AV?$basic_string@DU?$char_traits@D@std@@V?$allocator@D@2@@std@@XZ 1004fb3c f   SVDefines.obj
 0001:0004eb50       $L78334                    1004fb50 f   SVDefines.obj
 0001:0004eb59       $L78335                    1004fb59 f   SVDefines.obj
 0001:0004eb62       $L78336                    1004fb62 f   SVDefines.obj
 0001:0004eb6b       $L78338                    1004fb6b f   SVDefines.obj
 0001:0004eb85       __ehhandler$?GetResourceValue@@YA?AV?$basic_string@DU?$char_traits@D@std@@V?$allocator@D@2@@std@@V12@@Z 1004fb85 f   SVDefines.obj
 0001:0004eb90       $L85831                    1004fb90 f   SVDefines.obj
 0001:0004eb99       __ehhandler$?splitparam@@YA_NPBDAAV?$map@V?$basic_string@DU?$char_traits@D@std@@V?$allocator@D@2@@std@@V12@U?$less@V?$basic_string@DU?$char_traits@D@std@@V?$allocator@D@2@@std@@@2@V?$allocator@U?$pair@$$CBV?$basic_string@DU?$char_traits@D@std@@V?$allocator@D@2@@std@@V12@@std@@@2@@std@@@Z 1004fb99 f   SVDefines.obj
 0001:0004ebb0       __unwindfunclet$?clone@UdpAddress@@UBEPAVSnmpSyntax@@XZ$0 1004fbb0 f   Snmp_pp:address.obj
 0001:0004ebb0       __unwindfunclet$?clone@IpAddress@@UBEPAVSnmpSyntax@@XZ$0 1004fbb0 f   Snmp_pp:address.obj
 0001:0004ebbe       __ehhandler$?clone@UdpAddress@@UBEPAVSnmpSyntax@@XZ 1004fbbe f   Snmp_pp:address.obj
 0001:0004ebbe       __ehhandler$?clone@IpAddress@@UBEPAVSnmpSyntax@@XZ 1004fbbe f   Snmp_pp:address.obj
 0001:0004ebd0       __unwindfunclet$??0UdpAddress@@QAE@PBD@Z$0 1004fbd0 f   Snmp_pp:address.obj
 0001:0004ebd0       __unwindfunclet$??0GenAddress@@QAE@ABVAddress@@@Z$0 1004fbd0 f   Snmp_pp:address.obj
 0001:0004ebd0       __unwindfunclet$??0UdpAddress@@QAE@ABV0@@Z$0 1004fbd0 f   Snmp_pp:address.obj
 0001:0004ebd0       __unwindfunclet$??0UdpAddress@@QAE@ABVIpAddress@@@Z$0 1004fbd0 f   Snmp_pp:address.obj
 0001:0004ebd0       __unwindfunclet$??0GenAddress@@QAE@ABV0@@Z$0 1004fbd0 f   Snmp_pp:address.obj
 0001:0004ebd0       __unwindfunclet$??0IpAddress@@QAE@PBD@Z$0 1004fbd0 f   Snmp_pp:address.obj
 0001:0004ebd0       __unwindfunclet$??0UdpAddress@@QAE@ABVGenAddress@@@Z$0 1004fbd0 f   Snmp_pp:address.obj
 0001:0004ebd0       __unwindfunclet$??0IpAddress@@QAE@ABVGenAddress@@@Z$0 1004fbd0 f   Snmp_pp:address.obj
 0001:0004ebd0       __unwindfunclet$??0UdpAddress@@QAE@XZ$0 1004fbd0 f   Snmp_pp:address.obj
 0001:0004ebd8       __ehhandler$??0IpAddress@@QAE@PBD@Z 1004fbd8 f   Snmp_pp:address.obj
 0001:0004ebd8       __ehhandler$??0IpAddress@@QAE@ABVGenAddress@@@Z 1004fbd8 f   Snmp_pp:address.obj
 0001:0004ebd8       __ehhandler$??0GenAddress@@QAE@ABV0@@Z 1004fbd8 f   Snmp_pp:address.obj
 0001:0004ebd8       __ehhandler$??0GenAddress@@QAE@ABVAddress@@@Z 1004fbd8 f   Snmp_pp:address.obj
 0001:0004ebd8       __ehhandler$??0UdpAddress@@QAE@XZ 1004fbd8 f   Snmp_pp:address.obj
 0001:0004ebd8       __ehhandler$??0UdpAddress@@QAE@PBD@Z 1004fbd8 f   Snmp_pp:address.obj
 0001:0004ebd8       __ehhandler$??0UdpAddress@@QAE@ABVIpAddress@@@Z 1004fbd8 f   Snmp_pp:address.obj
 0001:0004ebd8       __ehhandler$??0UdpAddress@@QAE@ABVGenAddress@@@Z 1004fbd8 f   Snmp_pp:address.obj
 0001:0004ebd8       __ehhandler$??0UdpAddress@@QAE@ABV0@@Z 1004fbd8 f   Snmp_pp:address.obj
 0001:0004ebf0       __unwindfunclet$??4UdpAddress@@UAEAAVSnmpSyntax@@ABV1@@Z$0 1004fbf0 f   Snmp_pp:address.obj
 0001:0004ebfb       __ehhandler$??4UdpAddress@@UAEAAVSnmpSyntax@@ABV1@@Z 1004fbfb f   Snmp_pp:address.obj
 0001:0004ec10       __unwindfunclet$??4GenAddress@@UAEAAVSnmpSyntax@@ABV1@@Z$0 1004fc10 f   Snmp_pp:address.obj
 0001:0004ec1e       __unwindfunclet$??4GenAddress@@UAEAAVSnmpSyntax@@ABV1@@Z$1 1004fc1e f   Snmp_pp:address.obj
 0001:0004ec2c       __unwindfunclet$??4GenAddress@@UAEAAVSnmpSyntax@@ABV1@@Z$2 1004fc2c f   Snmp_pp:address.obj
 0001:0004ec3a       __ehhandler$??4GenAddress@@UAEAAVSnmpSyntax@@ABV1@@Z 1004fc3a f   Snmp_pp:address.obj
 0001:0004ec50       __unwindfunclet$?parse_address@GenAddress@@MAE_NPBDW4addr_type@Address@@@Z$0 1004fc50 f   Snmp_pp:address.obj
 0001:0004ec5e       __unwindfunclet$?parse_address@GenAddress@@MAE_NPBDW4addr_type@Address@@@Z$1 1004fc5e f   Snmp_pp:address.obj
 0001:0004ec6c       __ehhandler$?parse_address@GenAddress@@MAE_NPBDW4addr_type@Address@@@Z 1004fc6c f   Snmp_pp:address.obj
 0001:0004ec80       __unwindfunclet$?clone@Oid@@UBEPAVSnmpSyntax@@XZ$0 1004fc80 f   Snmp_pp:oid.obj
 0001:0004ec8e       __ehhandler$?clone@Oid@@UBEPAVSnmpSyntax@@XZ 1004fc8e f   Snmp_pp:oid.obj
 0001:0004eca0       __unwindfunclet$??1Oid@@UAE@XZ$0 1004fca0 f   Snmp_pp:oid.obj
 0001:0004eca0       __unwindfunclet$??0Oid@@QAE@PBD_N@Z$0 1004fca0 f   Snmp_pp:oid.obj
 0001:0004eca0       __unwindfunclet$??0Oid@@QAE@ABV0@@Z$0 1004fca0 f   Snmp_pp:oid.obj
 0001:0004eca0       __unwindfunclet$??0Oid@@QAE@PBKH@Z$0 1004fca0 f   Snmp_pp:oid.obj
 0001:0004eca8       __ehhandler$??0Oid@@QAE@ABV0@@Z 1004fca8 f   Snmp_pp:oid.obj
 0001:0004eca8       __ehhandler$??0Oid@@QAE@PBKH@Z 1004fca8 f   Snmp_pp:oid.obj
 0001:0004eca8       __ehhandler$??0Oid@@QAE@PBD_N@Z 1004fca8 f   Snmp_pp:oid.obj
 0001:0004eca8       __ehhandler$??1Oid@@UAE@XZ 1004fca8 f   Snmp_pp:oid.obj
 0001:0004ecc0       __unwindfunclet$??9@YAHABVOid@@PBD@Z$0 1004fcc0 f   Snmp_pp:oid.obj
 0001:0004ecc0       __unwindfunclet$??8@YAHABVOid@@PBD@Z$0 1004fcc0 f   Snmp_pp:oid.obj
 0001:0004ecc8       __ehhandler$??9@YAHABVOid@@PBD@Z 1004fcc8 f   Snmp_pp:oid.obj
 0001:0004ecc8       __ehhandler$??8@YAHABVOid@@PBD@Z 1004fcc8 f   Snmp_pp:oid.obj
 0001:0004ece0       __unwindfunclet$??YOid@@QAEAAV0@K@Z$0 1004fce0 f   Snmp_pp:oid.obj
 0001:0004ece8       __ehhandler$??YOid@@QAEAAV0@K@Z 1004fce8 f   Snmp_pp:oid.obj
 0001:0004ed00       __unwindfunclet$?clone@TimeTicks@@UBEPAVSnmpSyntax@@XZ$0 1004fd00 f   Snmp_pp:vb.obj
 0001:0004ed00       __unwindfunclet$?clone@OpaqueStr@@UBEPAVSnmpSyntax@@XZ$0 1004fd00 f   Snmp_pp:vb.obj
 0001:0004ed00       __unwindfunclet$?clone@SnmpUInt32@@UBEPAVSnmpSyntax@@XZ$0 1004fd00 f   Snmp_pp:vb.obj
 0001:0004ed00       __unwindfunclet$?clone@Gauge32@@UBEPAVSnmpSyntax@@XZ$0 1004fd00 f   Snmp_pp:vb.obj
 0001:0004ed00       __unwindfunclet$?clone@Counter32@@UBEPAVSnmpSyntax@@XZ$0 1004fd00 f   Snmp_pp:vb.obj
 0001:0004ed0e       __ehhandler$?clone@Counter32@@UBEPAVSnmpSyntax@@XZ 1004fd0e f   Snmp_pp:vb.obj
 0001:0004ed0e       __ehhandler$?clone@TimeTicks@@UBEPAVSnmpSyntax@@XZ 1004fd0e f   Snmp_pp:vb.obj
 0001:0004ed0e       __ehhandler$?clone@OpaqueStr@@UBEPAVSnmpSyntax@@XZ 1004fd0e f   Snmp_pp:vb.obj
 0001:0004ed0e       __ehhandler$?clone@Gauge32@@UBEPAVSnmpSyntax@@XZ 1004fd0e f   Snmp_pp:vb.obj
 0001:0004ed0e       __ehhandler$?clone@SnmpUInt32@@UBEPAVSnmpSyntax@@XZ 1004fd0e f   Snmp_pp:vb.obj
 0001:0004ed20       __unwindfunclet$?clone@SnmpTarget@@UBEPAV1@XZ$0 1004fd20 f   Snmp_pp:target.obj
 0001:0004ed28       __unwindfunclet$?clone@SnmpTarget@@UBEPAV1@XZ$1 1004fd28 f   Snmp_pp:target.obj
 0001:0004ed36       __ehhandler$?clone@SnmpTarget@@UBEPAV1@XZ 1004fd36 f   Snmp_pp:target.obj
 0001:0004ed40       __unwindfunclet$??0CTarget@@QAE@XZ$0 1004fd40 f   Snmp_pp:target.obj
 0001:0004ed40       __unwindfunclet$??0UTarget@@QAE@XZ$0 1004fd40 f   Snmp_pp:target.obj
 0001:0004ed40       __unwindfunclet$??0CTarget@@QAE@ABVAddress@@@Z$0 1004fd40 f   Snmp_pp:target.obj
 0001:0004ed40       __unwindfunclet$??0UTarget@@QAE@ABVAddress@@@Z$0 1004fd40 f   Snmp_pp:target.obj
 0001:0004ed48       __unwindfunclet$??0UTarget@@QAE@XZ$1 1004fd48 f   Snmp_pp:target.obj
 0001:0004ed48       __unwindfunclet$??0CTarget@@QAE@ABVAddress@@@Z$1 1004fd48 f   Snmp_pp:target.obj
 0001:0004ed48       __unwindfunclet$??0CTarget@@QAE@XZ$1 1004fd48 f   Snmp_pp:target.obj
 0001:0004ed48       __unwindfunclet$??0UTarget@@QAE@ABVAddress@@@Z$1 1004fd48 f   Snmp_pp:target.obj
 0001:0004ed53       __ehhandler$??0UTarget@@QAE@ABVAddress@@@Z 1004fd53 f   Snmp_pp:target.obj
 0001:0004ed53       __ehhandler$??0CTarget@@QAE@XZ 1004fd53 f   Snmp_pp:target.obj
 0001:0004ed53       __ehhandler$??0UTarget@@QAE@XZ 1004fd53 f   Snmp_pp:target.obj
 0001:0004ed53       __ehhandler$??0CTarget@@QAE@ABVAddress@@@Z 1004fd53 f   Snmp_pp:target.obj
 0001:0004ed60       __unwindfunclet$??0SnmpTarget@@QAE@ABVAddress@@@Z$0 1004fd60 f   Snmp_pp:target.obj
 0001:0004ed6b       __ehhandler$??0SnmpTarget@@QAE@ABVAddress@@@Z 1004fd6b f   Snmp_pp:target.obj
 0001:0004ed80       __unwindfunclet$??0CTarget@@QAE@ABV0@@Z$0 1004fd80 f   Snmp_pp:target.obj
 0001:0004ed88       __unwindfunclet$??0CTarget@@QAE@ABV0@@Z$1 1004fd88 f   Snmp_pp:target.obj
 0001:0004ed93       __unwindfunclet$??0CTarget@@QAE@ABV0@@Z$2 1004fd93 f   Snmp_pp:target.obj
 0001:0004eda1       __ehhandler$??0CTarget@@QAE@ABV0@@Z 1004fda1 f   Snmp_pp:target.obj
 0001:0004edb0       __unwindfunclet$??0UTarget@@QAE@ABV0@@Z$0 1004fdb0 f   Snmp_pp:target.obj
 0001:0004edb8       __unwindfunclet$??0UTarget@@QAE@ABV0@@Z$1 1004fdb8 f   Snmp_pp:target.obj
 0001:0004edc3       __unwindfunclet$??0UTarget@@QAE@ABV0@@Z$2 1004fdc3 f   Snmp_pp:target.obj
 0001:0004edd1       __ehhandler$??0UTarget@@QAE@ABV0@@Z 1004fdd1 f   Snmp_pp:target.obj
 0001:0004ede0       __unwindfunclet$?clone@OctetStr@@UBEPAVSnmpSyntax@@XZ$0 1004fde0 f   Snmp_pp:octet.obj
 0001:0004edee       __ehhandler$?clone@OctetStr@@UBEPAVSnmpSyntax@@XZ 1004fdee f   Snmp_pp:octet.obj
 0001:0004ee00       __unwindfunclet$??0OctetStr@@QAE@PBEK@Z$0 1004fe00 f   Snmp_pp:octet.obj
 0001:0004ee00       __unwindfunclet$??0OctetStr@@QAE@ABV0@@Z$0 1004fe00 f   Snmp_pp:octet.obj
 0001:0004ee00       __unwindfunclet$??1OctetStr@@UAE@XZ$0 1004fe00 f   Snmp_pp:octet.obj
 0001:0004ee00       __unwindfunclet$??0OctetStr@@QAE@PBD@Z$0 1004fe00 f   Snmp_pp:octet.obj
 0001:0004ee08       __ehhandler$??0OctetStr@@QAE@PBEK@Z 1004fe08 f   Snmp_pp:octet.obj
 0001:0004ee08       __ehhandler$??1OctetStr@@UAE@XZ 1004fe08 f   Snmp_pp:octet.obj
 0001:0004ee08       __ehhandler$??0OctetStr@@QAE@ABV0@@Z 1004fe08 f   Snmp_pp:octet.obj
 0001:0004ee08       __ehhandler$??0OctetStr@@QAE@PBD@Z 1004fe08 f   Snmp_pp:octet.obj
 0001:0004ee20       __unwindfunclet$?v3CallBack@@YAXHPAVSnmp@@AAVPdu@@AAVSnmpTarget@@PAX@Z$0 1004fe20 f   Snmp_pp:uxsnmp.obj
 0001:0004ee28       __ehhandler$?v3CallBack@@YAXHPAVSnmp@@AAVPdu@@AAVSnmpTarget@@PAX@Z 1004fe28 f   Snmp_pp:uxsnmp.obj
 0001:0004ee40       __unwindfunclet$?receive_snmp_response@@YAHIAAVSnmp@@AAVPdu@@AAVUdpAddress@@AAVOctetStr@@_N@Z$0 1004fe40 f   Snmp_pp:uxsnmp.obj
 0001:0004ee4b       __unwindfunclet$?receive_snmp_response@@YAHIAAVSnmp@@AAVPdu@@AAVUdpAddress@@AAVOctetStr@@_N@Z$1 1004fe4b f   Snmp_pp:uxsnmp.obj
 0001:0004ee56       __ehhandler$?receive_snmp_response@@YAHIAAVSnmp@@AAVPdu@@AAVUdpAddress@@AAVOctetStr@@_N@Z 1004fe56 f   Snmp_pp:uxsnmp.obj
 0001:0004ee60       __unwindfunclet$?receive_snmp_notification@@YAHIAAVSnmp@@AAVPdu@@PAPAVSnmpTarget@@@Z$0 1004fe60 f   Snmp_pp:uxsnmp.obj
 0001:0004ee6b       __unwindfunclet$?receive_snmp_notification@@YAHIAAVSnmp@@AAVPdu@@PAPAVSnmpTarget@@@Z$1 1004fe6b f   Snmp_pp:uxsnmp.obj
 0001:0004ee76       __unwindfunclet$?receive_snmp_notification@@YAHIAAVSnmp@@AAVPdu@@PAPAVSnmpTarget@@@Z$2 1004fe76 f   Snmp_pp:uxsnmp.obj
 0001:0004ee81       __unwindfunclet$?receive_snmp_notification@@YAHIAAVSnmp@@AAVPdu@@PAPAVSnmpTarget@@@Z$3 1004fe81 f   Snmp_pp:uxsnmp.obj
 0001:0004ee8c       __unwindfunclet$?receive_snmp_notification@@YAHIAAVSnmp@@AAVPdu@@PAPAVSnmpTarget@@@Z$4 1004fe8c f   Snmp_pp:uxsnmp.obj
 0001:0004ee9a       __unwindfunclet$?receive_snmp_notification@@YAHIAAVSnmp@@AAVPdu@@PAPAVSnmpTarget@@@Z$5 1004fe9a f   Snmp_pp:uxsnmp.obj
 0001:0004eea5       __unwindfunclet$?receive_snmp_notification@@YAHIAAVSnmp@@AAVPdu@@PAPAVSnmpTarget@@@Z$6 1004fea5 f   Snmp_pp:uxsnmp.obj
 0001:0004eeb3       __ehhandler$?receive_snmp_notification@@YAHIAAVSnmp@@AAVPdu@@PAPAVSnmpTarget@@@Z 1004feb3 f   Snmp_pp:uxsnmp.obj
 0001:0004eec0       __unwindfunclet$??1Snmp@@UAE@XZ$0 1004fec0 f   Snmp_pp:uxsnmp.obj
 0001:0004eec0       __unwindfunclet$??0Snmp@@QAE@AAHG_N@Z$0 1004fec0 f   Snmp_pp:uxsnmp.obj
 0001:0004eec8       __unwindfunclet$??1Snmp@@UAE@XZ$1 1004fec8 f   Snmp_pp:uxsnmp.obj
 0001:0004eec8       __unwindfunclet$??0Snmp@@QAE@AAHG_N@Z$1 1004fec8 f   Snmp_pp:uxsnmp.obj
 0001:0004eed3       __ehhandler$??0Snmp@@QAE@AAHG_N@Z 1004fed3 f   Snmp_pp:uxsnmp.obj
 0001:0004eed3       __ehhandler$??1Snmp@@UAE@XZ 1004fed3 f   Snmp_pp:uxsnmp.obj
 0001:0004eee0       __unwindfunclet$?get_notify_filter@Snmp@@UAEHAAV?$SnmpCollection@VOid@@@@AAV?$SnmpCollection@VSnmpTarget@@@@@Z$0 1004fee0 f   Snmp_pp:uxsnmp.obj
 0001:0004eee0       __unwindfunclet$?notify_register@Snmp@@UAEHABV?$SnmpCollection@VOid@@@@ABV?$SnmpCollection@VSnmpTarget@@@@Q6AXHPAV1@AAVPdu@@AAVSnmpTarget@@PAX@ZPBX@Z$0 1004fee0 f   Snmp_pp:uxsnmp.obj
 0001:0004eeeb       __ehhandler$?notify_register@Snmp@@UAEHABV?$SnmpCollection@VOid@@@@ABV?$SnmpCollection@VSnmpTarget@@@@Q6AXHPAV1@AAVPdu@@AAVSnmpTarget@@PAX@ZPBX@Z 1004feeb f   Snmp_pp:uxsnmp.obj
 0001:0004eeeb       __ehhandler$?get_notify_filter@Snmp@@UAEHAAV?$SnmpCollection@VOid@@@@AAV?$SnmpCollection@VSnmpTarget@@@@@Z 1004feeb f   Snmp_pp:uxsnmp.obj
 0001:0004ef00       __unwindfunclet$?init@Snmp@@IAEXAAHQAPAVIpAddress@@GG@Z$0 1004ff00 f   Snmp_pp:uxsnmp.obj
 0001:0004ef0e       __ehhandler$?init@Snmp@@IAEXAAHQAPAVIpAddress@@GG@Z 1004ff0e f   Snmp_pp:uxsnmp.obj
 0001:0004ef20       __unwindfunclet$??1EventListHolder@@QAE@XZ$0 1004ff20 f   Snmp_pp:uxsnmp.obj
 0001:0004ef2b       __ehhandler$??1EventListHolder@@QAE@XZ 1004ff2b f   Snmp_pp:uxsnmp.obj
 0001:0004ef40       __unwindfunclet$?send_raw_data@Snmp@@UAEHPAEIAAVUdpAddress@@I@Z$0 1004ff40 f   Snmp_pp:uxsnmp.obj
 0001:0004ef48       __ehhandler$?send_raw_data@Snmp@@UAEHPAEIAAVUdpAddress@@I@Z 1004ff48 f   Snmp_pp:uxsnmp.obj
 0001:0004ef60       __unwindfunclet$?log@DefaultLog@@SAPAVAgentLog@@XZ$0 1004ff60 f   Snmp_pp:uxsnmp.obj
 0001:0004ef6e       __ehhandler$?log@DefaultLog@@SAPAVAgentLog@@XZ 1004ff6e f   Snmp_pp:uxsnmp.obj
 0001:0004ef80       __unwindfunclet$?trap@Snmp@@UAEHAAVPdu@@ABVSnmpTarget@@@Z$0 1004ff80 f   Snmp_pp:uxsnmp.obj
 0001:0004ef88       __unwindfunclet$?trap@Snmp@@UAEHAAVPdu@@ABVSnmpTarget@@@Z$1 1004ff88 f   Snmp_pp:uxsnmp.obj
 0001:0004ef90       __unwindfunclet$?trap@Snmp@@UAEHAAVPdu@@ABVSnmpTarget@@@Z$2 1004ff90 f   Snmp_pp:uxsnmp.obj
 0001:0004ef9b       __unwindfunclet$?trap@Snmp@@UAEHAAVPdu@@ABVSnmpTarget@@@Z$3 1004ff9b f   Snmp_pp:uxsnmp.obj
 0001:0004efa6       __unwindfunclet$?trap@Snmp@@UAEHAAVPdu@@ABVSnmpTarget@@@Z$4 1004ffa6 f   Snmp_pp:uxsnmp.obj
 0001:0004efb1       __unwindfunclet$?trap@Snmp@@UAEHAAVPdu@@ABVSnmpTarget@@@Z$5 1004ffb1 f   Snmp_pp:uxsnmp.obj
 0001:0004efbc       __ehhandler$?trap@Snmp@@UAEHAAVPdu@@ABVSnmpTarget@@@Z 1004ffbc f   Snmp_pp:uxsnmp.obj
 0001:0004efd0       __unwindfunclet$?loadv3@SnmpMessage@@QAEHABVPdu@@ABVOctetStr@@1HW4snmp_version@@@Z$0 1004ffd0 f   Snmp_pp:uxsnmp.obj
 0001:0004efdb       __ehhandler$?loadv3@SnmpMessage@@QAEHABVPdu@@ABVOctetStr@@1HW4snmp_version@@@Z 1004ffdb f   Snmp_pp:uxsnmp.obj
 0001:0004eff0       __unwindfunclet$?check_notify_timestamp@Snmp@@IAEXAAVPdu@@@Z$0 1004fff0 f   Snmp_pp:uxsnmp.obj
 0001:0004eff8       __ehhandler$?check_notify_timestamp@Snmp@@IAEXAAVPdu@@@Z 1004fff8 f   Snmp_pp:uxsnmp.obj
 0001:0004f010       __unwindfunclet$?snmp_engine@Snmp@@IAEHAAVPdu@@JJABVSnmpTarget@@Q6AXHPAV1@0AAV3@PAX@ZPBXIH@Z$0 10050010 f   Snmp_pp:uxsnmp.obj
 0001:0004f01b       __unwindfunclet$?snmp_engine@Snmp@@IAEHAAVPdu@@JJABVSnmpTarget@@Q6AXHPAV1@0AAV3@PAX@ZPBXIH@Z$1 1005001b f   Snmp_pp:uxsnmp.obj
 0001:0004f026       __unwindfunclet$?snmp_engine@Snmp@@IAEHAAVPdu@@JJABVSnmpTarget@@Q6AXHPAV1@0AAV3@PAX@ZPBXIH@Z$2 10050026 f   Snmp_pp:uxsnmp.obj
 0001:0004f031       __unwindfunclet$?snmp_engine@Snmp@@IAEHAAVPdu@@JJABVSnmpTarget@@Q6AXHPAV1@0AAV3@PAX@ZPBXIH@Z$3 10050031 f   Snmp_pp:uxsnmp.obj
 0001:0004f03c       __unwindfunclet$?snmp_engine@Snmp@@IAEHAAVPdu@@JJABVSnmpTarget@@Q6AXHPAV1@0AAV3@PAX@ZPBXIH@Z$4 1005003c f   Snmp_pp:uxsnmp.obj
 0001:0004f047       __unwindfunclet$?snmp_engine@Snmp@@IAEHAAVPdu@@JJABVSnmpTarget@@Q6AXHPAV1@0AAV3@PAX@ZPBXIH@Z$5 10050047 f   Snmp_pp:uxsnmp.obj
 0001:0004f052       __unwindfunclet$?snmp_engine@Snmp@@IAEHAAVPdu@@JJABVSnmpTarget@@Q6AXHPAV1@0AAV3@PAX@ZPBXIH@Z$6 10050052 f   Snmp_pp:uxsnmp.obj
 0001:0004f05d       __unwindfunclet$?snmp_engine@Snmp@@IAEHAAVPdu@@JJABVSnmpTarget@@Q6AXHPAV1@0AAV3@PAX@ZPBXIH@Z$7 1005005d f   Snmp_pp:uxsnmp.obj
 0001:0004f068       __unwindfunclet$?snmp_engine@Snmp@@IAEHAAVPdu@@JJABVSnmpTarget@@Q6AXHPAV1@0AAV3@PAX@ZPBXIH@Z$8 10050068 f   Snmp_pp:uxsnmp.obj
 0001:0004f073       __unwindfunclet$?snmp_engine@Snmp@@IAEHAAVPdu@@JJABVSnmpTarget@@Q6AXHPAV1@0AAV3@PAX@ZPBXIH@Z$9 10050073 f   Snmp_pp:uxsnmp.obj
 0001:0004f081       __unwindfunclet$?snmp_engine@Snmp@@IAEHAAVPdu@@JJABVSnmpTarget@@Q6AXHPAV1@0AAV3@PAX@ZPBXIH@Z$10 10050081 f   Snmp_pp:uxsnmp.obj
 0001:0004f08f       __unwindfunclet$?snmp_engine@Snmp@@IAEHAAVPdu@@JJABVSnmpTarget@@Q6AXHPAV1@0AAV3@PAX@ZPBXIH@Z$11 1005008f f   Snmp_pp:uxsnmp.obj
 0001:0004f09a       __unwindfunclet$?snmp_engine@Snmp@@IAEHAAVPdu@@JJABVSnmpTarget@@Q6AXHPAV1@0AAV3@PAX@ZPBXIH@Z$12 1005009a f   Snmp_pp:uxsnmp.obj
 0001:0004f0a5       __ehhandler$?snmp_engine@Snmp@@IAEHAAVPdu@@JJABVSnmpTarget@@Q6AXHPAV1@0AAV3@PAX@ZPBXIH@Z 100500a5 f   Snmp_pp:uxsnmp.obj
 0001:0004f0b0       __unwindfunclet$??0Pdu@@QAE@ABV0@@Z$0 100500b0 f   Snmp_pp:uxsnmp.obj
 0001:0004f0bb       __unwindfunclet$??0Pdu@@QAE@ABV0@@Z$1 100500bb f   Snmp_pp:uxsnmp.obj
 0001:0004f0c6       __unwindfunclet$??0Pdu@@QAE@ABV0@@Z$2 100500c6 f   Snmp_pp:uxsnmp.obj
 0001:0004f0d4       __unwindfunclet$??0Pdu@@QAE@ABV0@@Z$3 100500d4 f   Snmp_pp:uxsnmp.obj
 0001:0004f0e2       __unwindfunclet$??0Pdu@@QAE@ABV0@@Z$4 100500e2 f   Snmp_pp:uxsnmp.obj
 0001:0004f0f0       __unwindfunclet$??0Pdu@@QAE@ABV0@@Z$5 100500f0 f   Snmp_pp:uxsnmp.obj
 0001:0004f0fe       __ehhandler$??0Pdu@@QAE@ABV0@@Z 100500fe f   Snmp_pp:uxsnmp.obj
 0001:0004f110       __unwindfunclet$?engine_id_discovery@Snmp@@UAEHAAVOctetStr@@HABVUdpAddress@@@Z$0 10050110 f   Snmp_pp:uxsnmp.obj
 0001:0004f11b       __unwindfunclet$?engine_id_discovery@Snmp@@UAEHAAVOctetStr@@HABVUdpAddress@@@Z$1 1005011b f   Snmp_pp:uxsnmp.obj
 0001:0004f126       __unwindfunclet$?engine_id_discovery@Snmp@@UAEHAAVOctetStr@@HABVUdpAddress@@@Z$2 10050126 f   Snmp_pp:uxsnmp.obj
 0001:0004f131       __ehhandler$?engine_id_discovery@Snmp@@UAEHAAVOctetStr@@HABVUdpAddress@@@Z 10050131 f   Snmp_pp:uxsnmp.obj
 0001:0004f140       __unwindfunclet$?broadcast_discovery@Snmp@@UAEHAAV?$SnmpCollection@VUdpAddress@@@@HABVUdpAddress@@W4snmp_version@@PBVOctetStr@@@Z$0 10050140 f   Snmp_pp:uxsnmp.obj
 0001:0004f14b       __unwindfunclet$?broadcast_discovery@Snmp@@UAEHAAV?$SnmpCollection@VUdpAddress@@@@HABVUdpAddress@@W4snmp_version@@PBVOctetStr@@@Z$1 1005014b f   Snmp_pp:uxsnmp.obj
 0001:0004f156       __unwindfunclet$?broadcast_discovery@Snmp@@UAEHAAV?$SnmpCollection@VUdpAddress@@@@HABVUdpAddress@@W4snmp_version@@PBVOctetStr@@@Z$2 10050156 f   Snmp_pp:uxsnmp.obj
 0001:0004f161       __unwindfunclet$?broadcast_discovery@Snmp@@UAEHAAV?$SnmpCollection@VUdpAddress@@@@HABVUdpAddress@@W4snmp_version@@PBVOctetStr@@@Z$3 10050161 f   Snmp_pp:uxsnmp.obj
 0001:0004f16c       __unwindfunclet$?broadcast_discovery@Snmp@@UAEHAAV?$SnmpCollection@VUdpAddress@@@@HABVUdpAddress@@W4snmp_version@@PBVOctetStr@@@Z$4 1005016c f   Snmp_pp:uxsnmp.obj
 0001:0004f177       __unwindfunclet$?broadcast_discovery@Snmp@@UAEHAAV?$SnmpCollection@VUdpAddress@@@@HABVUdpAddress@@W4snmp_version@@PBVOctetStr@@@Z$5 10050177 f   Snmp_pp:uxsnmp.obj
 0001:0004f182       __unwindfunclet$?broadcast_discovery@Snmp@@UAEHAAV?$SnmpCollection@VUdpAddress@@@@HABVUdpAddress@@W4snmp_version@@PBVOctetStr@@@Z$6 10050182 f   Snmp_pp:uxsnmp.obj
 0001:0004f18d       __unwindfunclet$?broadcast_discovery@Snmp@@UAEHAAV?$SnmpCollection@VUdpAddress@@@@HABVUdpAddress@@W4snmp_version@@PBVOctetStr@@@Z$7 1005018d f   Snmp_pp:uxsnmp.obj
 0001:0004f198       __ehhandler$?broadcast_discovery@Snmp@@UAEHAAV?$SnmpCollection@VUdpAddress@@@@HABVUdpAddress@@W4snmp_version@@PBVOctetStr@@@Z 10050198 f   Snmp_pp:uxsnmp.obj
 0001:0004f1b0       __unwindfunclet$??4?$SnmpCollection@VGenAddress@@@@QAEAAV0@ABV0@@Z$0 100501b0 f   Snmp_pp:uxsnmp.obj
 0001:0004f1b0       __unwindfunclet$??4?$SnmpCollection@VSnmpTarget@@@@QAEAAV0@ABV0@@Z$0 100501b0 f   Snmp_pp:uxsnmp.obj
 0001:0004f1b0       __unwindfunclet$??4?$SnmpCollection@VOid@@@@QAEAAV0@ABV0@@Z$0 100501b0 f   Snmp_pp:uxsnmp.obj
 0001:0004f1be       __ehhandler$??4?$SnmpCollection@VGenAddress@@@@QAEAAV0@ABV0@@Z 100501be f   Snmp_pp:uxsnmp.obj
 0001:0004f1be       __ehhandler$??4?$SnmpCollection@VOid@@@@QAEAAV0@ABV0@@Z 100501be f   Snmp_pp:uxsnmp.obj
 0001:0004f1be       __ehhandler$??4?$SnmpCollection@VSnmpTarget@@@@QAEAAV0@ABV0@@Z 100501be f   Snmp_pp:uxsnmp.obj
 0001:0004f1d0       __unwindfunclet$??Y?$SnmpCollection@VUdpAddress@@@@QAEAAV0@ABVUdpAddress@@@Z$0 100501d0 f   Snmp_pp:uxsnmp.obj
 0001:0004f1de       __ehhandler$??Y?$SnmpCollection@VUdpAddress@@@@QAEAAV0@ABVUdpAddress@@@Z 100501de f   Snmp_pp:uxsnmp.obj
 0001:0004f1f0       __unwindfunclet$??0linkUpOid@@QAE@XZ$0 100501f0 f   Snmp_pp:uxsnmp.obj
 0001:0004f1f0       __unwindfunclet$??0linkDownOid@@QAE@XZ$0 100501f0 f   Snmp_pp:uxsnmp.obj
 0001:0004f1f0       __unwindfunclet$??0authenticationFailureOid@@QAE@XZ$0 100501f0 f   Snmp_pp:uxsnmp.obj
 0001:0004f1f0       __unwindfunclet$??0warmStartOid@@QAE@XZ$0 100501f0 f   Snmp_pp:uxsnmp.obj
 0001:0004f1f0       __unwindfunclet$??0egpNeighborLossOid@@QAE@XZ$0 100501f0 f   Snmp_pp:uxsnmp.obj
 0001:0004f1f0       __unwindfunclet$??0coldStartOid@@QAE@XZ$0 100501f0 f   Snmp_pp:uxsnmp.obj
 0001:0004f1f8       __ehhandler$??0warmStartOid@@QAE@XZ 100501f8 f   Snmp_pp:uxsnmp.obj
 0001:0004f1f8       __ehhandler$??0authenticationFailureOid@@QAE@XZ 100501f8 f   Snmp_pp:uxsnmp.obj
 0001:0004f1f8       __ehhandler$??0coldStartOid@@QAE@XZ 100501f8 f   Snmp_pp:uxsnmp.obj
 0001:0004f1f8       __ehhandler$??0linkUpOid@@QAE@XZ 100501f8 f   Snmp_pp:uxsnmp.obj
 0001:0004f1f8       __ehhandler$??0egpNeighborLossOid@@QAE@XZ 100501f8 f   Snmp_pp:uxsnmp.obj
 0001:0004f1f8       __ehhandler$??0linkDownOid@@QAE@XZ 100501f8 f   Snmp_pp:uxsnmp.obj
 0001:0004f210       __unwindfunclet$??0EngineIdTable@v3MP@@QAE@H@Z$0 10050210 f   Snmp_pp:mp_v3.obj
 0001:0004f210       __unwindfunclet$??1EngineIdTable@v3MP@@QAE@XZ$0 10050210 f   Snmp_pp:mp_v3.obj
 0001:0004f21b       __ehhandler$??1EngineIdTable@v3MP@@QAE@XZ 1005021b f   Snmp_pp:mp_v3.obj
 0001:0004f21b       __ehhandler$??0EngineIdTable@v3MP@@QAE@H@Z 1005021b f   Snmp_pp:mp_v3.obj
 0001:0004f230       __unwindfunclet$??1Entry_T@EngineIdTable@v3MP@@QAE@XZ$0 10050230 f   Snmp_pp:mp_v3.obj
 0001:0004f230       __unwindfunclet$??0Entry_T@EngineIdTable@v3MP@@QAE@XZ$0 10050230 f   Snmp_pp:mp_v3.obj
 0001:0004f238       __ehhandler$??1Entry_T@EngineIdTable@v3MP@@QAE@XZ 10050238 f   Snmp_pp:mp_v3.obj
 0001:0004f238       __ehhandler$??0Entry_T@EngineIdTable@v3MP@@QAE@XZ 10050238 f   Snmp_pp:mp_v3.obj
 0001:0004f250       __unwindfunclet$?get_entry@EngineIdTable@v3MP@@QBEHAAVOctetStr@@ABV3@@Z$0 10050250 f   Snmp_pp:mp_v3.obj
 0001:0004f25b       __unwindfunclet$?get_entry@EngineIdTable@v3MP@@QBEHAAVOctetStr@@ABV3@@Z$1 1005025b f   Snmp_pp:mp_v3.obj
 0001:0004f266       __ehhandler$?get_entry@EngineIdTable@v3MP@@QBEHAAVOctetStr@@ABV3@@Z 10050266 f   Snmp_pp:mp_v3.obj
 0001:0004f270       __unwindfunclet$?initialize_table@EngineIdTable@v3MP@@AAEHH@Z$0 10050270 f   Snmp_pp:mp_v3.obj
 0001:0004f27e       __ehhandler$?initialize_table@EngineIdTable@v3MP@@AAEHH@Z 1005027e f   Snmp_pp:mp_v3.obj
 0001:0004f290       __unwindfunclet$??0Cache@v3MP@@QAE@XZ$0 10050290 f   Snmp_pp:mp_v3.obj
 0001:0004f298       __unwindfunclet$??0Cache@v3MP@@QAE@XZ$1 10050298 f   Snmp_pp:mp_v3.obj
 0001:0004f2a6       __ehhandler$??0Cache@v3MP@@QAE@XZ 100502a6 f   Snmp_pp:mp_v3.obj
 0001:0004f2b0       __unwindfunclet$??1Entry_T@Cache@v3MP@@QAE@XZ$0 100502b0 f   Snmp_pp:mp_v3.obj
 0001:0004f2b0       __unwindfunclet$??0Entry_T@Cache@v3MP@@QAE@XZ$0 100502b0 f   Snmp_pp:mp_v3.obj
 0001:0004f2bb       __unwindfunclet$??1Entry_T@Cache@v3MP@@QAE@XZ$1 100502bb f   Snmp_pp:mp_v3.obj
 0001:0004f2bb       __unwindfunclet$??0Entry_T@Cache@v3MP@@QAE@XZ$1 100502bb f   Snmp_pp:mp_v3.obj
 0001:0004f2c6       __unwindfunclet$??0Entry_T@Cache@v3MP@@QAE@XZ$2 100502c6 f   Snmp_pp:mp_v3.obj
 0001:0004f2c6       __unwindfunclet$??1Entry_T@Cache@v3MP@@QAE@XZ$2 100502c6 f   Snmp_pp:mp_v3.obj
 0001:0004f2d1       __ehhandler$??1Entry_T@Cache@v3MP@@QAE@XZ 100502d1 f   Snmp_pp:mp_v3.obj
 0001:0004f2d1       __ehhandler$??0Entry_T@Cache@v3MP@@QAE@XZ 100502d1 f   Snmp_pp:mp_v3.obj
 0001:0004f2e0       __unwindfunclet$??1Cache@v3MP@@QAE@XZ$0 100502e0 f   Snmp_pp:mp_v3.obj
 0001:0004f2e8       __ehhandler$??1Cache@v3MP@@QAE@XZ 100502e8 f   Snmp_pp:mp_v3.obj
 0001:0004f300       __unwindfunclet$?add_entry@Cache@v3MP@@QAEHHKABVOctetStr@@H0H00PAUSecurityStateReference@@H_N@Z$0 10050300 f   Snmp_pp:mp_v3.obj
 0001:0004f300       __unwindfunclet$?add_entry@EngineIdTable@v3MP@@QAEHABVOctetStr@@0H@Z$0 10050300 f   Snmp_pp:mp_v3.obj
 0001:0004f308       __unwindfunclet$?add_entry@Cache@v3MP@@QAEHHKABVOctetStr@@H0H00PAUSecurityStateReference@@H_N@Z$1 10050308 f   Snmp_pp:mp_v3.obj
 0001:0004f308       __unwindfunclet$?add_entry@EngineIdTable@v3MP@@QAEHABVOctetStr@@0H@Z$1 10050308 f   Snmp_pp:mp_v3.obj
 0001:0004f316       __ehhandler$?add_entry@EngineIdTable@v3MP@@QAEHABVOctetStr@@0H@Z 10050316 f   Snmp_pp:mp_v3.obj
 0001:0004f316       __ehhandler$?add_entry@Cache@v3MP@@QAEHHKABVOctetStr@@H0H00PAUSecurityStateReference@@H_N@Z 10050316 f   Snmp_pp:mp_v3.obj
 0001:0004f320       __unwindfunclet$?delete_entry@Cache@v3MP@@QAEXK_N@Z$0 10050320 f   Snmp_pp:mp_v3.obj
 0001:0004f320       __unwindfunclet$?get_entry@Cache@v3MP@@QAEHH_NPAUEntry_T@12@@Z$0 10050320 f   Snmp_pp:mp_v3.obj
 0001:0004f320       __unwindfunclet$?get_entry@EngineIdTable@v3MP@@QBEHAAVOctetStr@@ABV3@H@Z$0 10050320 f   Snmp_pp:mp_v3.obj
 0001:0004f320       __unwindfunclet$?get_entry@Cache@v3MP@@QAEHH_NPAHPAPAUSecurityStateReference@@@Z$0 10050320 f   Snmp_pp:mp_v3.obj
 0001:0004f328       __ehhandler$?get_entry@EngineIdTable@v3MP@@QBEHAAVOctetStr@@ABV3@H@Z 10050328 f   Snmp_pp:mp_v3.obj
 0001:0004f328       __ehhandler$?delete_entry@Cache@v3MP@@QAEXK_N@Z 10050328 f   Snmp_pp:mp_v3.obj
 0001:0004f328       __ehhandler$?get_entry@Cache@v3MP@@QAEHH_NPAUEntry_T@12@@Z 10050328 f   Snmp_pp:mp_v3.obj
 0001:0004f328       __ehhandler$?get_entry@Cache@v3MP@@QAEHH_NPAHPAPAUSecurityStateReference@@@Z 10050328 f   Snmp_pp:mp_v3.obj
 0001:0004f340       __unwindfunclet$??0v3MP@@QAE@ABVOctetStr@@IAAH@Z$0 10050340 f   Snmp_pp:mp_v3.obj
 0001:0004f348       __unwindfunclet$??0v3MP@@QAE@ABVOctetStr@@IAAH@Z$1 10050348 f   Snmp_pp:mp_v3.obj
 0001:0004f353       __unwindfunclet$??0v3MP@@QAE@ABVOctetStr@@IAAH@Z$2 10050353 f   Snmp_pp:mp_v3.obj
 0001:0004f35e       __unwindfunclet$??0v3MP@@QAE@ABVOctetStr@@IAAH@Z$3 1005035e f   Snmp_pp:mp_v3.obj
 0001:0004f36c       __unwindfunclet$??0v3MP@@QAE@ABVOctetStr@@IAAH@Z$4 1005036c f   Snmp_pp:mp_v3.obj
 0001:0004f37a       __ehhandler$??0v3MP@@QAE@ABVOctetStr@@IAAH@Z 1005037a f   Snmp_pp:mp_v3.obj
 0001:0004f390       __unwindfunclet$??1v3MP@@QAE@XZ$0 10050390 f   Snmp_pp:mp_v3.obj
 0001:0004f398       __unwindfunclet$??1v3MP@@QAE@XZ$1 10050398 f   Snmp_pp:mp_v3.obj
 0001:0004f3a3       __unwindfunclet$??1v3MP@@QAE@XZ$2 100503a3 f   Snmp_pp:mp_v3.obj
 0001:0004f3ae       __unwindfunclet$??1v3MP@@QAE@XZ$3 100503ae f   Snmp_pp:mp_v3.obj
 0001:0004f3bc       __ehhandler$??1v3MP@@QAE@XZ 100503bc f   Snmp_pp:mp_v3.obj
 0001:0004f3d0       __unwindfunclet$?send_report@v3MP@@AAEHPAEHPAUsnmp_pdu@@HHHAAVOctetStr@@AAVUdpAddress@@PAVSnmp@@@Z$0 100503d0 f   Snmp_pp:mp_v3.obj
 0001:0004f3db       __unwindfunclet$?send_report@v3MP@@AAEHPAEHPAUsnmp_pdu@@HHHAAVOctetStr@@AAVUdpAddress@@PAVSnmp@@@Z$1 100503db f   Snmp_pp:mp_v3.obj
 0001:0004f3e6       __unwindfunclet$?send_report@v3MP@@AAEHPAEHPAUsnmp_pdu@@HHHAAVOctetStr@@AAVUdpAddress@@PAVSnmp@@@Z$2 100503e6 f   Snmp_pp:mp_v3.obj
 0001:0004f3f1       __unwindfunclet$?send_report@v3MP@@AAEHPAEHPAUsnmp_pdu@@HHHAAVOctetStr@@AAVUdpAddress@@PAVSnmp@@@Z$3 100503f1 f   Snmp_pp:mp_v3.obj
 0001:0004f3fc       __unwindfunclet$?send_report@v3MP@@AAEHPAEHPAUsnmp_pdu@@HHHAAVOctetStr@@AAVUdpAddress@@PAVSnmp@@@Z$4 100503fc f   Snmp_pp:mp_v3.obj
 0001:0004f407       __unwindfunclet$?send_report@v3MP@@AAEHPAEHPAUsnmp_pdu@@HHHAAVOctetStr@@AAVUdpAddress@@PAVSnmp@@@Z$5 10050407 f   Snmp_pp:mp_v3.obj
 0001:0004f412       __unwindfunclet$?send_report@v3MP@@AAEHPAEHPAUsnmp_pdu@@HHHAAVOctetStr@@AAVUdpAddress@@PAVSnmp@@@Z$6 10050412 f   Snmp_pp:mp_v3.obj
 0001:0004f41d       __unwindfunclet$?send_report@v3MP@@AAEHPAEHPAUsnmp_pdu@@HHHAAVOctetStr@@AAVUdpAddress@@PAVSnmp@@@Z$7 1005041d f   Snmp_pp:mp_v3.obj
 0001:0004f428       __unwindfunclet$?send_report@v3MP@@AAEHPAEHPAUsnmp_pdu@@HHHAAVOctetStr@@AAVUdpAddress@@PAVSnmp@@@Z$8 10050428 f   Snmp_pp:mp_v3.obj
 0001:0004f433       __unwindfunclet$?send_report@v3MP@@AAEHPAEHPAUsnmp_pdu@@HHHAAVOctetStr@@AAVUdpAddress@@PAVSnmp@@@Z$9 10050433 f   Snmp_pp:mp_v3.obj
 0001:0004f43e       __unwindfunclet$?send_report@v3MP@@AAEHPAEHPAUsnmp_pdu@@HHHAAVOctetStr@@AAVUdpAddress@@PAVSnmp@@@Z$10 1005043e f   Snmp_pp:mp_v3.obj
 0001:0004f449       __unwindfunclet$?send_report@v3MP@@AAEHPAEHPAUsnmp_pdu@@HHHAAVOctetStr@@AAVUdpAddress@@PAVSnmp@@@Z$11 10050449 f   Snmp_pp:mp_v3.obj
 0001:0004f454       __unwindfunclet$?send_report@v3MP@@AAEHPAEHPAUsnmp_pdu@@HHHAAVOctetStr@@AAVUdpAddress@@PAVSnmp@@@Z$12 10050454 f   Snmp_pp:mp_v3.obj
 0001:0004f45f       __unwindfunclet$?send_report@v3MP@@AAEHPAEHPAUsnmp_pdu@@HHHAAVOctetStr@@AAVUdpAddress@@PAVSnmp@@@Z$13 1005045f f   Snmp_pp:mp_v3.obj
 0001:0004f46a       __unwindfunclet$?send_report@v3MP@@AAEHPAEHPAUsnmp_pdu@@HHHAAVOctetStr@@AAVUdpAddress@@PAVSnmp@@@Z$14 1005046a f   Snmp_pp:mp_v3.obj
 0001:0004f475       __unwindfunclet$?send_report@v3MP@@AAEHPAEHPAUsnmp_pdu@@HHHAAVOctetStr@@AAVUdpAddress@@PAVSnmp@@@Z$15 10050475 f   Snmp_pp:mp_v3.obj
 0001:0004f480       __unwindfunclet$?send_report@v3MP@@AAEHPAEHPAUsnmp_pdu@@HHHAAVOctetStr@@AAVUdpAddress@@PAVSnmp@@@Z$16 10050480 f   Snmp_pp:mp_v3.obj
 0001:0004f48b       __unwindfunclet$?send_report@v3MP@@AAEHPAEHPAUsnmp_pdu@@HHHAAVOctetStr@@AAVUdpAddress@@PAVSnmp@@@Z$17 1005048b f   Snmp_pp:mp_v3.obj
 0001:0004f496       __unwindfunclet$?send_report@v3MP@@AAEHPAEHPAUsnmp_pdu@@HHHAAVOctetStr@@AAVUdpAddress@@PAVSnmp@@@Z$18 10050496 f   Snmp_pp:mp_v3.obj
 0001:0004f4a1       __unwindfunclet$?send_report@v3MP@@AAEHPAEHPAUsnmp_pdu@@HHHAAVOctetStr@@AAVUdpAddress@@PAVSnmp@@@Z$19 100504a1 f   Snmp_pp:mp_v3.obj
 0001:0004f4ac       __unwindfunclet$?send_report@v3MP@@AAEHPAEHPAUsnmp_pdu@@HHHAAVOctetStr@@AAVUdpAddress@@PAVSnmp@@@Z$20 100504ac f   Snmp_pp:mp_v3.obj
 0001:0004f4b7       __unwindfunclet$?send_report@v3MP@@AAEHPAEHPAUsnmp_pdu@@HHHAAVOctetStr@@AAVUdpAddress@@PAVSnmp@@@Z$21 100504b7 f   Snmp_pp:mp_v3.obj
 0001:0004f4c2       __unwindfunclet$?send_report@v3MP@@AAEHPAEHPAUsnmp_pdu@@HHHAAVOctetStr@@AAVUdpAddress@@PAVSnmp@@@Z$22 100504c2 f   Snmp_pp:mp_v3.obj
 0001:0004f4cd       __ehhandler$?send_report@v3MP@@AAEHPAEHPAUsnmp_pdu@@HHHAAVOctetStr@@AAVUdpAddress@@PAVSnmp@@@Z 100504cd f   Snmp_pp:mp_v3.obj
 0001:0004f4e0       __unwindfunclet$?snmp_parse@v3MP@@IAEHPAVSnmp@@PAUsnmp_pdu@@PAEHAAVOctetStr@@333AAJ4AAW4snmp_version@@VUdpAddress@@@Z$0 100504e0 f   Snmp_pp:mp_v3.obj
 0001:0004f4e8       __unwindfunclet$?snmp_parse@v3MP@@IAEHPAVSnmp@@PAUsnmp_pdu@@PAEHAAVOctetStr@@333AAJ4AAW4snmp_version@@VUdpAddress@@@Z$1 100504e8 f   Snmp_pp:mp_v3.obj
 0001:0004f4f0       __unwindfunclet$?snmp_parse@v3MP@@IAEHPAVSnmp@@PAUsnmp_pdu@@PAEHAAVOctetStr@@333AAJ4AAW4snmp_version@@VUdpAddress@@@Z$2 100504f0 f   Snmp_pp:mp_v3.obj
 0001:0004f4fb       __unwindfunclet$?snmp_parse@v3MP@@IAEHPAVSnmp@@PAUsnmp_pdu@@PAEHAAVOctetStr@@333AAJ4AAW4snmp_version@@VUdpAddress@@@Z$3 100504fb f   Snmp_pp:mp_v3.obj
 0001:0004f506       __unwindfunclet$?snmp_parse@v3MP@@IAEHPAVSnmp@@PAUsnmp_pdu@@PAEHAAVOctetStr@@333AAJ4AAW4snmp_version@@VUdpAddress@@@Z$4 10050506 f   Snmp_pp:mp_v3.obj
 0001:0004f511       __unwindfunclet$?snmp_parse@v3MP@@IAEHPAVSnmp@@PAUsnmp_pdu@@PAEHAAVOctetStr@@333AAJ4AAW4snmp_version@@VUdpAddress@@@Z$5 10050511 f   Snmp_pp:mp_v3.obj
 0001:0004f51c       __unwindfunclet$?snmp_parse@v3MP@@IAEHPAVSnmp@@PAUsnmp_pdu@@PAEHAAVOctetStr@@333AAJ4AAW4snmp_version@@VUdpAddress@@@Z$6 1005051c f   Snmp_pp:mp_v3.obj
 0001:0004f527       __unwindfunclet$?snmp_parse@v3MP@@IAEHPAVSnmp@@PAUsnmp_pdu@@PAEHAAVOctetStr@@333AAJ4AAW4snmp_version@@VUdpAddress@@@Z$7 10050527 f   Snmp_pp:mp_v3.obj
 0001:0004f532       __unwindfunclet$?snmp_parse@v3MP@@IAEHPAVSnmp@@PAUsnmp_pdu@@PAEHAAVOctetStr@@333AAJ4AAW4snmp_version@@VUdpAddress@@@Z$8 10050532 f   Snmp_pp:mp_v3.obj
 0001:0004f53d       __ehhandler$?snmp_parse@v3MP@@IAEHPAVSnmp@@PAUsnmp_pdu@@PAEHAAVOctetStr@@333AAJ4AAW4snmp_version@@VUdpAddress@@@Z 1005053d f   Snmp_pp:mp_v3.obj
 0001:0004f550       __unwindfunclet$?snmp_build@v3MP@@IAEHPAUsnmp_pdu@@PAEPAHABVOctetStr@@3HH33@Z$0 10050550 f   Snmp_pp:mp_v3.obj
 0001:0004f558       __unwindfunclet$?snmp_build@v3MP@@IAEHPAUsnmp_pdu@@PAEPAHABVOctetStr@@3HH33@Z$1 10050558 f   Snmp_pp:mp_v3.obj
 0001:0004f563       __ehhandler$?snmp_build@v3MP@@IAEHPAUsnmp_pdu@@PAEPAHABVOctetStr@@3HH33@Z 10050563 f   Snmp_pp:mp_v3.obj
 0001:0004f570       __unwindfunclet$??0USM@@QAE@IABVOctetStr@@PBVv3MP@@PAIAAH@Z$0 10050570 f   Snmp_pp:usm_v3.obj
 0001:0004f578       __unwindfunclet$??0USM@@QAE@IABVOctetStr@@PBVv3MP@@PAIAAH@Z$1 10050578 f   Snmp_pp:usm_v3.obj
 0001:0004f586       __unwindfunclet$??0USM@@QAE@IABVOctetStr@@PBVv3MP@@PAIAAH@Z$2 10050586 f   Snmp_pp:usm_v3.obj
 0001:0004f594       __unwindfunclet$??0USM@@QAE@IABVOctetStr@@PBVv3MP@@PAIAAH@Z$3 10050594 f   Snmp_pp:usm_v3.obj
 0001:0004f5a2       __unwindfunclet$??0USM@@QAE@IABVOctetStr@@PBVv3MP@@PAIAAH@Z$4 100505a2 f   Snmp_pp:usm_v3.obj
 0001:0004f5b0       __ehhandler$??0USM@@QAE@IABVOctetStr@@PBVv3MP@@PAIAAH@Z 100505b0 f   Snmp_pp:usm_v3.obj
 0001:0004f5c0       __unwindfunclet$??1USM@@QAE@XZ$0 100505c0 f   Snmp_pp:usm_v3.obj
 0001:0004f5c0       __unwindfunclet$??1UsmUserNameTableEntry@@QAE@XZ$0 100505c0 f   Snmp_pp:usm_v3.obj
 0001:0004f5c0       __unwindfunclet$??0UsmUserNameTableEntry@@QAE@XZ$0 100505c0 f   Snmp_pp:usm_v3.obj
 0001:0004f5c8       __ehhandler$??0UsmUserNameTableEntry@@QAE@XZ 100505c8 f   Snmp_pp:usm_v3.obj
 0001:0004f5c8       __ehhandler$??1USM@@QAE@XZ 100505c8 f   Snmp_pp:usm_v3.obj
 0001:0004f5c8       __ehhandler$??1UsmUserNameTableEntry@@QAE@XZ 100505c8 f   Snmp_pp:usm_v3.obj
 0001:0004f5e0       __unwindfunclet$?get_user@USM@@QAEPAUUsmUser@@ABVOctetStr@@0@Z$0 100505e0 f   Snmp_pp:usm_v3.obj
 0001:0004f5e8       __unwindfunclet$?get_user@USM@@QAEPAUUsmUser@@ABVOctetStr@@0@Z$1 100505e8 f   Snmp_pp:usm_v3.obj
 0001:0004f5f3       __unwindfunclet$?get_user@USM@@QAEPAUUsmUser@@ABVOctetStr@@0@Z$2 100505f3 f   Snmp_pp:usm_v3.obj
 0001:0004f5fe       __ehhandler$?get_user@USM@@QAEPAUUsmUser@@ABVOctetStr@@0@Z 100505fe f   Snmp_pp:usm_v3.obj
 0001:0004f610       __unwindfunclet$?get_security_name@USM@@QAEHPBEJAAVOctetStr@@@Z$0 10050610 f   Snmp_pp:usm_v3.obj
 0001:0004f61b       __ehhandler$?get_security_name@USM@@QAEHPBEJAAVOctetStr@@@Z 1005061b f   Snmp_pp:usm_v3.obj
 0001:0004f630       __unwindfunclet$?generate_msg@USM@@IAEHPAEHHABVOctetStr@@1H0HPAUSecurityStateReference@@0PAH@Z$0 10050630 f   Snmp_pp:usm_v3.obj
 0001:0004f638       __unwindfunclet$?generate_msg@USM@@IAEHPAEHHABVOctetStr@@1H0HPAUSecurityStateReference@@0PAH@Z$1 10050638 f   Snmp_pp:usm_v3.obj
 0001:0004f640       __ehhandler$?generate_msg@USM@@IAEHPAEHHABVOctetStr@@1H0HPAUSecurityStateReference@@0PAH@Z 10050640 f   Snmp_pp:usm_v3.obj
 0001:0004f650       __unwindfunclet$?process_msg@USM@@IAEHHPAEHHJ0H0HAAVOctetStr@@10PAHPAJPAUSecurityStateReference@@ABVUdpAddress@@@Z$0 10050650 f   Snmp_pp:usm_v3.obj
 0001:0004f65b       __ehhandler$?process_msg@USM@@IAEHHPAEHHJ0H0HAAVOctetStr@@10PAHPAJPAUSecurityStateReference@@ABVUdpAddress@@@Z 1005065b f   Snmp_pp:usm_v3.obj
 0001:0004f670       __unwindfunclet$?build_sec_params@USM@@AAEPAEPAEPAHUUsmSecurityParameters@@1@Z$0 10050670 f   Snmp_pp:usm_v3.obj
 0001:0004f678       __ehhandler$?build_sec_params@USM@@AAEPAEPAEPAHUUsmSecurityParameters@@1@Z 10050678 f   Snmp_pp:usm_v3.obj
 0001:0004f690       __unwindfunclet$?build_whole_msg@USM@@AAEPAEPAEPAH0J1UUsmSecurityParameters@@0J@Z$0 10050690 f   Snmp_pp:usm_v3.obj
 0001:0004f698       __unwindfunclet$?build_whole_msg@USM@@AAEPAEPAEPAH0J1UUsmSecurityParameters@@0J@Z$1 10050698 f   Snmp_pp:usm_v3.obj
 0001:0004f6a0       __ehhandler$?build_whole_msg@USM@@AAEPAEPAEPAH0J1UUsmSecurityParameters@@0J@Z 100506a0 f   Snmp_pp:usm_v3.obj
 0001:0004f6b0       __unwindfunclet$?add_entry@USMUserTable@@QAEHABVOctetStr@@00J0J0@Z$0 100506b0 f   Snmp_pp:usm_v3.obj
 0001:0004f6b0       __unwindfunclet$?delete_entries@USMUserTable@@QAEHABVOctetStr@@@Z$0 100506b0 f   Snmp_pp:usm_v3.obj
 0001:0004f6b0       __unwindfunclet$?check_engine_id@USMTimeTable@@QAEHABVOctetStr@@@Z$0 100506b0 f   Snmp_pp:usm_v3.obj
 0001:0004f6b0       __unwindfunclet$?check_time@USMTimeTable@@QAEHABVOctetStr@@JJ@Z$0 100506b0 f   Snmp_pp:usm_v3.obj
 0001:0004f6b0       __unwindfunclet$?add_entry@USMTimeTable@@QAEHABVOctetStr@@JJ@Z$0 100506b0 f   Snmp_pp:usm_v3.obj
 0001:0004f6b0       __unwindfunclet$?get_time@USMTimeTable@@QAEHABVOctetStr@@AAJ1@Z$0 100506b0 f   Snmp_pp:usm_v3.obj
 0001:0004f6b8       __ehhandler$?get_time@USMTimeTable@@QAEHABVOctetStr@@AAJ1@Z 100506b8 f   Snmp_pp:usm_v3.obj
 0001:0004f6b8       __ehhandler$?add_entry@USMUserTable@@QAEHABVOctetStr@@00J0J0@Z 100506b8 f   Snmp_pp:usm_v3.obj
 0001:0004f6b8       __ehhandler$?check_time@USMTimeTable@@QAEHABVOctetStr@@JJ@Z 100506b8 f   Snmp_pp:usm_v3.obj
 0001:0004f6b8       __ehhandler$?check_engine_id@USMTimeTable@@QAEHABVOctetStr@@@Z 100506b8 f   Snmp_pp:usm_v3.obj
 0001:0004f6b8       __ehhandler$?add_entry@USMTimeTable@@QAEHABVOctetStr@@JJ@Z 100506b8 f   Snmp_pp:usm_v3.obj
 0001:0004f6b8       __ehhandler$?delete_entries@USMUserTable@@QAEHABVOctetStr@@@Z 100506b8 f   Snmp_pp:usm_v3.obj
 0001:0004f6d0       __unwindfunclet$??0USMUserNameTable@@QAE@AAH@Z$0 100506d0 f   Snmp_pp:usm_v3.obj
 0001:0004f6d8       __unwindfunclet$??0USMUserNameTable@@QAE@AAH@Z$1 100506d8 f   Snmp_pp:usm_v3.obj
 0001:0004f6e6       __ehhandler$??0USMUserNameTable@@QAE@AAH@Z 100506e6 f   Snmp_pp:usm_v3.obj
 0001:0004f6f0       __unwindfunclet$?add_entry@USMUserNameTable@@QAEHABVOctetStr@@0JJ00@Z$0 100506f0 f   Snmp_pp:usm_v3.obj
 0001:0004f6f8       __unwindfunclet$?add_entry@USMUserNameTable@@QAEHABVOctetStr@@0JJ00@Z$1 100506f8 f   Snmp_pp:usm_v3.obj
 0001:0004f706       __ehhandler$?add_entry@USMUserNameTable@@QAEHABVOctetStr@@0JJ00@Z 10050706 f   Snmp_pp:usm_v3.obj
 0001:0004f710       __unwindfunclet$?get_cloned_entry@USMUserNameTable@@QAEPAUUsmUserNameTableEntry@@ABVOctetStr@@@Z$0 10050710 f   Snmp_pp:usm_v3.obj
 0001:0004f71e       __ehhandler$?get_cloned_entry@USMUserNameTable@@QAEPAUUsmUserNameTableEntry@@ABVOctetStr@@@Z 1005071e f   Snmp_pp:usm_v3.obj
 0001:0004f730       __unwindfunclet$?get_security_name@USMUserNameTable@@QAEHPBEJAAVOctetStr@@@Z$0 10050730 f   Snmp_pp:usm_v3.obj
 0001:0004f738       __unwindfunclet$?get_security_name@USMUserNameTable@@QAEHPBEJAAVOctetStr@@@Z$1 10050738 f   Snmp_pp:usm_v3.obj
 0001:0004f743       __ehhandler$?get_security_name@USMUserNameTable@@QAEHPBEJAAVOctetStr@@@Z 10050743 f   Snmp_pp:usm_v3.obj
 0001:0004f750       __unwindfunclet$?get_user_name@USMUserNameTable@@QAEHPAEPAJPBEJ@Z$0 10050750 f   Snmp_pp:usm_v3.obj
 0001:0004f758       __unwindfunclet$?get_user_name@USMUserNameTable@@QAEHPAEPAJPBEJ@Z$1 10050758 f   Snmp_pp:usm_v3.obj
 0001:0004f763       __ehhandler$?get_user_name@USMUserNameTable@@QAEHPAEPAJPBEJ@Z 10050763 f   Snmp_pp:usm_v3.obj
 0001:0004f770       __unwindfunclet$??0USMUserTable@@QAE@AAH@Z$0 10050770 f   Snmp_pp:usm_v3.obj
 0001:0004f770       __unwindfunclet$??1USMUserNameTable@@UAE@XZ$0 10050770 f   Snmp_pp:usm_v3.obj
 0001:0004f770       __unwindfunclet$??1USMUserTable@@UAE@XZ$0 10050770 f   Snmp_pp:usm_v3.obj
 0001:0004f770       __unwindfunclet$??1USMTimeTable@@UAE@XZ$0 10050770 f   Snmp_pp:usm_v3.obj
 0001:0004f770       __unwindfunclet$??0USMTimeTable@@QAE@PBVUSM@@IAAH@Z$0 10050770 f   Snmp_pp:usm_v3.obj
 0001:0004f778       __ehhandler$??1USMUserNameTable@@UAE@XZ 10050778 f   Snmp_pp:usm_v3.obj
 0001:0004f778       __ehhandler$??1USMUserTable@@UAE@XZ 10050778 f   Snmp_pp:usm_v3.obj
 0001:0004f778       __ehhandler$??0USMTimeTable@@QAE@PBVUSM@@IAAH@Z 10050778 f   Snmp_pp:usm_v3.obj
 0001:0004f778       __ehhandler$??0USMUserTable@@QAE@AAH@Z 10050778 f   Snmp_pp:usm_v3.obj
 0001:0004f778       __ehhandler$??1USMTimeTable@@UAE@XZ 10050778 f   Snmp_pp:usm_v3.obj
 0001:0004f790       __unwindfunclet$?get_user_name@USMUserTable@@QAEHPAEPAJPBEJ@Z$0 10050790 f   Snmp_pp:usm_v3.obj
 0001:0004f798       __unwindfunclet$?get_user_name@USMUserTable@@QAEHPAEPAJPBEJ@Z$1 10050798 f   Snmp_pp:usm_v3.obj
 0001:0004f7a3       __unwindfunclet$?get_user_name@USMUserTable@@QAEHPAEPAJPBEJ@Z$2 100507a3 f   Snmp_pp:usm_v3.obj
 0001:0004f7ae       __unwindfunclet$?get_user_name@USMUserTable@@QAEHPAEPAJPBEJ@Z$3 100507ae f   Snmp_pp:usm_v3.obj
 0001:0004f7b9       __ehhandler$?get_user_name@USMUserTable@@QAEHPAEPAJPBEJ@Z 100507b9 f   Snmp_pp:usm_v3.obj
 0001:0004f7d0       __unwindfunclet$?get_security_name@USMUserTable@@QAEHPBEJAAVOctetStr@@@Z$0 100507d0 f   Snmp_pp:usm_v3.obj
 0001:0004f7d8       __unwindfunclet$?get_security_name@USMUserTable@@QAEHPBEJAAVOctetStr@@@Z$1 100507d8 f   Snmp_pp:usm_v3.obj
 0001:0004f7e3       __unwindfunclet$?get_security_name@USMUserTable@@QAEHPBEJAAVOctetStr@@@Z$2 100507e3 f   Snmp_pp:usm_v3.obj
 0001:0004f7ee       __ehhandler$?get_security_name@USMUserTable@@QAEHPBEJAAVOctetStr@@@Z 100507ee f   Snmp_pp:usm_v3.obj
 0001:0004f800       __unwindfunclet$??0Pdu@@QAE@XZ$0 10050800 f   Snmp_pp:pdu.obj
 0001:0004f80b       __unwindfunclet$??0Pdu@@QAE@XZ$1 1005080b f   Snmp_pp:pdu.obj
 0001:0004f816       __unwindfunclet$??0Pdu@@QAE@XZ$2 10050816 f   Snmp_pp:pdu.obj
 0001:0004f824       __unwindfunclet$??0Pdu@@QAE@XZ$3 10050824 f   Snmp_pp:pdu.obj
 0001:0004f832       __unwindfunclet$??0Pdu@@QAE@XZ$4 10050832 f   Snmp_pp:pdu.obj
 0001:0004f840       __ehhandler$??0Pdu@@QAE@XZ 10050840 f   Snmp_pp:pdu.obj
 0001:0004f850       __unwindfunclet$??0Vb@@QAE@ABV0@@Z$0 10050850 f   Snmp_pp:pdu.obj
 0001:0004f858       __ehhandler$??0Vb@@QAE@ABV0@@Z 10050858 f   Snmp_pp:pdu.obj
 0001:0004f870       __unwindfunclet$??1Pdu@@UAE@XZ$0 10050870 f   Snmp_pp:pdu.obj
 0001:0004f87b       __unwindfunclet$??1Pdu@@UAE@XZ$1 1005087b f   Snmp_pp:pdu.obj
 0001:0004f886       __unwindfunclet$??1Pdu@@UAE@XZ$2 10050886 f   Snmp_pp:pdu.obj
 0001:0004f894       __unwindfunclet$??1Pdu@@UAE@XZ$3 10050894 f   Snmp_pp:pdu.obj
 0001:0004f8a2       __unwindfunclet$??1Pdu@@UAE@XZ$4 100508a2 f   Snmp_pp:pdu.obj
 0001:0004f8b0       __unwindfunclet$??1Pdu@@UAE@XZ$5 100508b0 f   Snmp_pp:pdu.obj
 0001:0004f8be       __ehhandler$??1Pdu@@UAE@XZ 100508be f   Snmp_pp:pdu.obj
 0001:0004f8d0       __unwindfunclet$??YPdu@@QAEAAV0@ABVVb@@@Z$0 100508d0 f   Snmp_pp:pdu.obj
 0001:0004f8de       __ehhandler$??YPdu@@QAEAAV0@ABVVb@@@Z 100508de f   Snmp_pp:pdu.obj
 0001:0004f8f0       __unwindfunclet$??4Pdu@@QAEAAV0@ABV0@@Z$0 100508f0 f   Snmp_pp:pdu.obj
 0001:0004f8f0       __unwindfunclet$?set_vblist@Pdu@@QAEHPAVVb@@H@Z$0 100508f0 f   Snmp_pp:pdu.obj
 0001:0004f8fe       __ehhandler$??4Pdu@@QAEAAV0@ABV0@@Z 100508fe f   Snmp_pp:pdu.obj
 0001:0004f8fe       __ehhandler$?set_vblist@Pdu@@QAEHPAVVb@@H@Z 100508fe f   Snmp_pp:pdu.obj
 0001:0004f910       __unwindfunclet$?get_asn1_length@Pdu@@QBEHXZ$0 10050910 f   Snmp_pp:pdu.obj
 0001:0004f918       __ehhandler$?get_asn1_length@Pdu@@QBEHXZ 10050918 f   Snmp_pp:pdu.obj
 0001:0004f930       __unwindfunclet$?clone@SnmpInt32@@UBEPAVSnmpSyntax@@XZ$0 10050930 f   Snmp_pp:pdu.obj
 0001:0004f93e       __ehhandler$?clone@SnmpInt32@@UBEPAVSnmpSyntax@@XZ 1005093e f   Snmp_pp:pdu.obj
 0001:0004f950       __unwindfunclet$?clone@Counter64@@UBEPAVSnmpSyntax@@XZ$0 10050950 f   Snmp_pp:ctr64.obj
 0001:0004f95e       __ehhandler$?clone@Counter64@@UBEPAVSnmpSyntax@@XZ 1005095e f   Snmp_pp:ctr64.obj
 0001:0004f970       __unwindfunclet$??0Counter64@@QAE@ABV0@@Z$0 10050970 f   Snmp_pp:ctr64.obj
 0001:0004f978       __ehhandler$??0Counter64@@QAE@ABV0@@Z 10050978 f   Snmp_pp:ctr64.obj
 0001:0004f990       __unwindfunclet$??0CSNMPMessage@@QAE@KPAVSnmp@@IABVSnmpTarget@@AAVPdu@@PAEIABVAddress@@P6AXH02AAV2@PAX@Z6@Z$0 10050990 f   Snmp_pp:msgqueue.obj
 0001:0004f990       __unwindfunclet$??1CSNMPMessage@@UAE@XZ$0 10050990 f   Snmp_pp:msgqueue.obj
 0001:0004f99b       __ehhandler$??0CSNMPMessage@@QAE@KPAVSnmp@@IABVSnmpTarget@@AAVPdu@@PAEIABVAddress@@P6AXH02AAV2@PAX@Z6@Z 1005099b f   Snmp_pp:msgqueue.obj
 0001:0004f99b       __ehhandler$??1CSNMPMessage@@UAE@XZ 1005099b f   Snmp_pp:msgqueue.obj
 0001:0004f9b0       __unwindfunclet$?SetPdu@CSNMPMessage@@QAEHHABVPdu@@ABVUdpAddress@@@Z$0 100509b0 f   Snmp_pp:msgqueue.obj
 0001:0004f9bb       __unwindfunclet$?SetPdu@CSNMPMessage@@QAEHHABVPdu@@ABVUdpAddress@@@Z$1 100509bb f   Snmp_pp:msgqueue.obj
 0001:0004f9c6       __ehhandler$?SetPdu@CSNMPMessage@@QAEHHABVPdu@@ABVUdpAddress@@@Z 100509c6 f   Snmp_pp:msgqueue.obj
 0001:0004f9d0       __unwindfunclet$??1CSNMPMessageQueue@@UAE@XZ$0 100509d0 f   Snmp_pp:msgqueue.obj
 0001:0004f9d0       __unwindfunclet$??0CSNMPMessageQueue@@QAE@PAVEventListHolder@@PAVSnmp@@@Z$0 100509d0 f   Snmp_pp:msgqueue.obj
 0001:0004f9d8       __unwindfunclet$??1CSNMPMessageQueue@@UAE@XZ$1 100509d8 f   Snmp_pp:msgqueue.obj
 0001:0004f9d8       __unwindfunclet$??0CSNMPMessageQueue@@QAE@PAVEventListHolder@@PAVSnmp@@@Z$1 100509d8 f   Snmp_pp:msgqueue.obj
 0001:0004f9e3       __ehhandler$??1CSNMPMessageQueue@@UAE@XZ 100509e3 f   Snmp_pp:msgqueue.obj
 0001:0004f9e3       __ehhandler$??0CSNMPMessageQueue@@QAE@PAVEventListHolder@@PAVSnmp@@@Z 100509e3 f   Snmp_pp:msgqueue.obj
 0001:0004f9f0       __unwindfunclet$?AddEntry@CSNMPMessageQueue@@QAEPAVCSNMPMessage@@KPAVSnmp@@IABVSnmpTarget@@AAVPdu@@PAEIABVAddress@@P6AXH02AAV4@PAX@Z6@Z$0 100509f0 f   Snmp_pp:msgqueue.obj
 0001:0004f9fe       __unwindfunclet$?AddEntry@CSNMPMessageQueue@@QAEPAVCSNMPMessage@@KPAVSnmp@@IABVSnmpTarget@@AAVPdu@@PAEIABVAddress@@P6AXH02AAV4@PAX@Z6@Z$1 100509fe f   Snmp_pp:msgqueue.obj
 0001:0004fa0c       __ehhandler$?AddEntry@CSNMPMessageQueue@@QAEPAVCSNMPMessage@@KPAVSnmp@@IABVSnmpTarget@@AAVPdu@@PAEIABVAddress@@P6AXH02AAV4@PAX@Z6@Z 10050a0c f   Snmp_pp:msgqueue.obj
 0001:0004fa20       __unwindfunclet$?HandleEvents@CSNMPMessageQueue@@UAEHHABUfd_set@@00@Z$0 10050a20 f   Snmp_pp:msgqueue.obj
 0001:0004fa2b       __unwindfunclet$?HandleEvents@CSNMPMessageQueue@@UAEHHABUfd_set@@00@Z$1 10050a2b f   Snmp_pp:msgqueue.obj
 0001:0004fa36       __unwindfunclet$?HandleEvents@CSNMPMessageQueue@@UAEHHABUfd_set@@00@Z$2 10050a36 f   Snmp_pp:msgqueue.obj
 0001:0004fa41       __unwindfunclet$?HandleEvents@CSNMPMessageQueue@@UAEHHABUfd_set@@00@Z$3 10050a41 f   Snmp_pp:msgqueue.obj
 0001:0004fa4c       __unwindfunclet$?HandleEvents@CSNMPMessageQueue@@UAEHHABUfd_set@@00@Z$4 10050a4c f   Snmp_pp:msgqueue.obj
 0001:0004fa57       __ehhandler$?HandleEvents@CSNMPMessageQueue@@UAEHHABUfd_set@@00@Z 10050a57 f   Snmp_pp:msgqueue.obj
 0001:0004fa70       __unwindfunclet$?Done@CSNMPMessageQueue@@QAEHK@Z$0 10050a70 f   Snmp_pp:msgqueue.obj
 0001:0004fa70       __unwindfunclet$?GetFdSets@CSNMPMessageQueue@@UAEXAAHAAUfd_set@@11@Z$0 10050a70 f   Snmp_pp:msgqueue.obj
 0001:0004fa70       __unwindfunclet$?PeekId@CSNMPMessageQueue@@QAEKXZ$0 10050a70 f   Snmp_pp:msgqueue.obj
 0001:0004fa70       __unwindfunclet$?DeleteSocketEntry@CSNMPMessageQueue@@QAEXI@Z$0 10050a70 f   Snmp_pp:msgqueue.obj
 0001:0004fa70       __unwindfunclet$?PushId@CSNMPMessageQueue@@QAEXK@Z$0 10050a70 f   Snmp_pp:msgqueue.obj
 0001:0004fa78       __ehhandler$?DeleteSocketEntry@CSNMPMessageQueue@@QAEXI@Z 10050a78 f   Snmp_pp:msgqueue.obj
 0001:0004fa78       __ehhandler$?GetFdSets@CSNMPMessageQueue@@UAEXAAHAAUfd_set@@11@Z 10050a78 f   Snmp_pp:msgqueue.obj
 0001:0004fa78       __ehhandler$?Done@CSNMPMessageQueue@@QAEHK@Z 10050a78 f   Snmp_pp:msgqueue.obj
 0001:0004fa78       __ehhandler$?PushId@CSNMPMessageQueue@@QAEXK@Z 10050a78 f   Snmp_pp:msgqueue.obj
 0001:0004fa78       __ehhandler$?PeekId@CSNMPMessageQueue@@QAEKXZ 10050a78 f   Snmp_pp:msgqueue.obj
 0001:0004fa90       __unwindfunclet$?convertVbToSmival@@YAHABVVb@@PAUSmiVALUE@@@Z$0 10050a90 f   Snmp_pp:snmpmsg.obj
 0001:0004fa98       __unwindfunclet$?convertVbToSmival@@YAHABVVb@@PAUSmiVALUE@@@Z$1 10050a98 f   Snmp_pp:snmpmsg.obj
 0001:0004faa0       __unwindfunclet$?convertVbToSmival@@YAHABVVb@@PAUSmiVALUE@@@Z$2 10050aa0 f   Snmp_pp:snmpmsg.obj
 0001:0004faab       __ehhandler$?convertVbToSmival@@YAHABVVb@@PAUSmiVALUE@@@Z 10050aab f   Snmp_pp:snmpmsg.obj
 0001:0004fac0       __unwindfunclet$?unloadv3@SnmpMessage@@QAEHAAVPdu@@AAW4snmp_version@@AAVOctetStr@@2AAJAAVUdpAddress@@AAVSnmp@@@Z$0 10050ac0 f   Snmp_pp:snmpmsg.obj
 0001:0004fac8       __ehhandler$?unloadv3@SnmpMessage@@QAEHAAVPdu@@AAW4snmp_version@@AAVOctetStr@@2AAJAAVUdpAddress@@AAVSnmp@@@Z 10050ac8 f   Snmp_pp:snmpmsg.obj
 0001:0004fae0       __unwindfunclet$?load@SnmpMessage@@AAEHABVPdu@@ABVOctetStr@@W4snmp_version@@PBV3@3H@Z$0 10050ae0 f   Snmp_pp:snmpmsg.obj
 0001:0004faeb       __unwindfunclet$?load@SnmpMessage@@AAEHABVPdu@@ABVOctetStr@@W4snmp_version@@PBV3@3H@Z$1 10050aeb f   Snmp_pp:snmpmsg.obj
 0001:0004faf6       __unwindfunclet$?load@SnmpMessage@@AAEHABVPdu@@ABVOctetStr@@W4snmp_version@@PBV3@3H@Z$2 10050af6 f   Snmp_pp:snmpmsg.obj
 0001:0004fb01       __unwindfunclet$?load@SnmpMessage@@AAEHABVPdu@@ABVOctetStr@@W4snmp_version@@PBV3@3H@Z$3 10050b01 f   Snmp_pp:snmpmsg.obj
 0001:0004fb0c       __unwindfunclet$?load@SnmpMessage@@AAEHABVPdu@@ABVOctetStr@@W4snmp_version@@PBV3@3H@Z$4 10050b0c f   Snmp_pp:snmpmsg.obj
 0001:0004fb17       __unwindfunclet$?load@SnmpMessage@@AAEHABVPdu@@ABVOctetStr@@W4snmp_version@@PBV3@3H@Z$5 10050b17 f   Snmp_pp:snmpmsg.obj
 0001:0004fb22       __unwindfunclet$?load@SnmpMessage@@AAEHABVPdu@@ABVOctetStr@@W4snmp_version@@PBV3@3H@Z$6 10050b22 f   Snmp_pp:snmpmsg.obj
 0001:0004fb2d       __unwindfunclet$?load@SnmpMessage@@AAEHABVPdu@@ABVOctetStr@@W4snmp_version@@PBV3@3H@Z$7 10050b2d f   Snmp_pp:snmpmsg.obj
 0001:0004fb38       __unwindfunclet$?load@SnmpMessage@@AAEHABVPdu@@ABVOctetStr@@W4snmp_version@@PBV3@3H@Z$8 10050b38 f   Snmp_pp:snmpmsg.obj
 0001:0004fb43       __unwindfunclet$?load@SnmpMessage@@AAEHABVPdu@@ABVOctetStr@@W4snmp_version@@PBV3@3H@Z$9 10050b43 f   Snmp_pp:snmpmsg.obj
 0001:0004fb4e       __unwindfunclet$?load@SnmpMessage@@AAEHABVPdu@@ABVOctetStr@@W4snmp_version@@PBV3@3H@Z$10 10050b4e f   Snmp_pp:snmpmsg.obj
 0001:0004fb59       __unwindfunclet$?load@SnmpMessage@@AAEHABVPdu@@ABVOctetStr@@W4snmp_version@@PBV3@3H@Z$11 10050b59 f   Snmp_pp:snmpmsg.obj
 0001:0004fb64       __unwindfunclet$?load@SnmpMessage@@AAEHABVPdu@@ABVOctetStr@@W4snmp_version@@PBV3@3H@Z$12 10050b64 f   Snmp_pp:snmpmsg.obj
 0001:0004fb6f       __ehhandler$?load@SnmpMessage@@AAEHABVPdu@@ABVOctetStr@@W4snmp_version@@PBV3@3H@Z 10050b6f f   Snmp_pp:snmpmsg.obj
 0001:0004fb80       __unwindfunclet$?unload@SnmpMessage@@AAEHAAVPdu@@AAVOctetStr@@AAW4snmp_version@@PAV3@3PAJPAVUdpAddress@@PAVSnmp@@@Z$0 10050b80 f   Snmp_pp:snmpmsg.obj
 0001:0004fb88       __unwindfunclet$?unload@SnmpMessage@@AAEHAAVPdu@@AAVOctetStr@@AAW4snmp_version@@PAV3@3PAJPAVUdpAddress@@PAVSnmp@@@Z$1 10050b88 f   Snmp_pp:snmpmsg.obj
 0001:0004fb93       __unwindfunclet$?unload@SnmpMessage@@AAEHAAVPdu@@AAVOctetStr@@AAW4snmp_version@@PAV3@3PAJPAVUdpAddress@@PAVSnmp@@@Z$3 10050b93 f   Snmp_pp:snmpmsg.obj
 0001:0004fb9e       __unwindfunclet$?unload@SnmpMessage@@AAEHAAVPdu@@AAVOctetStr@@AAW4snmp_version@@PAV3@3PAJPAVUdpAddress@@PAVSnmp@@@Z$4 10050b9e f   Snmp_pp:snmpmsg.obj
 0001:0004fba9       __unwindfunclet$?unload@SnmpMessage@@AAEHAAVPdu@@AAVOctetStr@@AAW4snmp_version@@PAV3@3PAJPAVUdpAddress@@PAVSnmp@@@Z$5 10050ba9 f   Snmp_pp:snmpmsg.obj
 0001:0004fbb4       __unwindfunclet$?unload@SnmpMessage@@AAEHAAVPdu@@AAVOctetStr@@AAW4snmp_version@@PAV3@3PAJPAVUdpAddress@@PAVSnmp@@@Z$6 10050bb4 f   Snmp_pp:snmpmsg.obj
 0001:0004fbbf       __unwindfunclet$?unload@SnmpMessage@@AAEHAAVPdu@@AAVOctetStr@@AAW4snmp_version@@PAV3@3PAJPAVUdpAddress@@PAVSnmp@@@Z$7 10050bbf f   Snmp_pp:snmpmsg.obj
 0001:0004fbca       __unwindfunclet$?unload@SnmpMessage@@AAEHAAVPdu@@AAVOctetStr@@AAW4snmp_version@@PAV3@3PAJPAVUdpAddress@@PAVSnmp@@@Z$8 10050bca f   Snmp_pp:snmpmsg.obj
 0001:0004fbd5       __unwindfunclet$?unload@SnmpMessage@@AAEHAAVPdu@@AAVOctetStr@@AAW4snmp_version@@PAV3@3PAJPAVUdpAddress@@PAVSnmp@@@Z$9 10050bd5 f   Snmp_pp:snmpmsg.obj
 0001:0004fbe0       __unwindfunclet$?unload@SnmpMessage@@AAEHAAVPdu@@AAVOctetStr@@AAW4snmp_version@@PAV3@3PAJPAVUdpAddress@@PAVSnmp@@@Z$10 10050be0 f   Snmp_pp:snmpmsg.obj
 0001:0004fbeb       __unwindfunclet$?unload@SnmpMessage@@AAEHAAVPdu@@AAVOctetStr@@AAW4snmp_version@@PAV3@3PAJPAVUdpAddress@@PAVSnmp@@@Z$11 10050beb f   Snmp_pp:snmpmsg.obj
 0001:0004fbf6       __unwindfunclet$?unload@SnmpMessage@@AAEHAAVPdu@@AAVOctetStr@@AAW4snmp_version@@PAV3@3PAJPAVUdpAddress@@PAVSnmp@@@Z$12 10050bf6 f   Snmp_pp:snmpmsg.obj
 0001:0004fc01       __unwindfunclet$?unload@SnmpMessage@@AAEHAAVPdu@@AAVOctetStr@@AAW4snmp_version@@PAV3@3PAJPAVUdpAddress@@PAVSnmp@@@Z$13 10050c01 f   Snmp_pp:snmpmsg.obj
 0001:0004fc0c       __unwindfunclet$?unload@SnmpMessage@@AAEHAAVPdu@@AAVOctetStr@@AAW4snmp_version@@PAV3@3PAJPAVUdpAddress@@PAVSnmp@@@Z$14 10050c0c f   Snmp_pp:snmpmsg.obj
 0001:0004fc17       __unwindfunclet$?unload@SnmpMessage@@AAEHAAVPdu@@AAVOctetStr@@AAW4snmp_version@@PAV3@3PAJPAVUdpAddress@@PAVSnmp@@@Z$15 10050c17 f   Snmp_pp:snmpmsg.obj
 0001:0004fc22       __unwindfunclet$?unload@SnmpMessage@@AAEHAAVPdu@@AAVOctetStr@@AAW4snmp_version@@PAV3@3PAJPAVUdpAddress@@PAVSnmp@@@Z$16 10050c22 f   Snmp_pp:snmpmsg.obj
 0001:0004fc2d       __unwindfunclet$?unload@SnmpMessage@@AAEHAAVPdu@@AAVOctetStr@@AAW4snmp_version@@PAV3@3PAJPAVUdpAddress@@PAVSnmp@@@Z$17 10050c2d f   Snmp_pp:snmpmsg.obj
 0001:0004fc38       __ehhandler$?unload@SnmpMessage@@AAEHAAVPdu@@AAVOctetStr@@AAW4snmp_version@@PAV3@3PAJPAVUdpAddress@@PAVSnmp@@@Z 10050c38 f   Snmp_pp:snmpmsg.obj
 0001:0004fc50       __unwindfunclet$??0EventListHolder@@QAE@PAVSnmp@@@Z$0 10050c50 f   Snmp_pp:eventlistholder.obj
 0001:0004fc5b       __unwindfunclet$??0EventListHolder@@QAE@PAVSnmp@@@Z$1 10050c5b f   Snmp_pp:eventlistholder.obj
 0001:0004fc66       __unwindfunclet$??0EventListHolder@@QAE@PAVSnmp@@@Z$2 10050c66 f   Snmp_pp:eventlistholder.obj
 0001:0004fc74       __unwindfunclet$??0EventListHolder@@QAE@PAVSnmp@@@Z$3 10050c74 f   Snmp_pp:eventlistholder.obj
 0001:0004fc82       __ehhandler$??0EventListHolder@@QAE@PAVSnmp@@@Z 10050c82 f   Snmp_pp:eventlistholder.obj
 0001:0004fc90       __unwindfunclet$??0CEventList@@QAE@XZ$0 10050c90 f   Snmp_pp:eventlistholder.obj
 0001:0004fc98       __ehhandler$??0CEventList@@QAE@XZ 10050c98 f   Snmp_pp:eventlistholder.obj
 0001:0004fcb0       __unwindfunclet$??1CEventList@@UAE@XZ$0 10050cb0 f   Snmp_pp:eventlist.obj
 0001:0004fcb8       __unwindfunclet$??1CEventList@@UAE@XZ$1 10050cb8 f   Snmp_pp:eventlist.obj
 0001:0004fcc3       __ehhandler$??1CEventList@@UAE@XZ 10050cc3 f   Snmp_pp:eventlist.obj
 0001:0004fcd0       __unwindfunclet$?AddEntry@CEventList@@QAEPAVCEvents@@PAV2@@Z$0 10050cd0 f   Snmp_pp:eventlist.obj
 0001:0004fcd8       __unwindfunclet$?AddEntry@CEventList@@QAEPAVCEvents@@PAV2@@Z$1 10050cd8 f   Snmp_pp:eventlist.obj
 0001:0004fce6       __ehhandler$?AddEntry@CEventList@@QAEPAVCEvents@@PAV2@@Z 10050ce6 f   Snmp_pp:eventlist.obj
 0001:0004fcf0       __unwindfunclet$?GetNextTimeout@CEventList@@QAEHAAVmsec@@@Z$0 10050cf0 f   Snmp_pp:eventlist.obj
 0001:0004fcf0       __unwindfunclet$?GetFdSets@CEventList@@QAEXAAHAAUfd_set@@11@Z$0 10050cf0 f   Snmp_pp:eventlist.obj
 0001:0004fcf0       __unwindfunclet$?DoRetries@CEventList@@QAEHABVmsec@@@Z$0 10050cf0 f   Snmp_pp:eventlist.obj
 0001:0004fcf8       __ehhandler$?GetFdSets@CEventList@@QAEXAAHAAUfd_set@@11@Z 10050cf8 f   Snmp_pp:eventlist.obj
 0001:0004fcf8       __ehhandler$?GetNextTimeout@CEventList@@QAEHAAVmsec@@@Z 10050cf8 f   Snmp_pp:eventlist.obj
 0001:0004fcf8       __ehhandler$?DoRetries@CEventList@@QAEHABVmsec@@@Z 10050cf8 f   Snmp_pp:eventlist.obj
 0001:0004fd10       __unwindfunclet$??1LogEntryImpl@@UAE@XZ$0 10050d10 f   Snmp_pp:log.obj
 0001:0004fd10       __unwindfunclet$??0LogEntryImpl@@QAE@E@Z$0 10050d10 f   Snmp_pp:log.obj
 0001:0004fd18       __ehhandler$??1LogEntryImpl@@UAE@XZ 10050d18 f   Snmp_pp:log.obj
 0001:0004fd18       __ehhandler$??0LogEntryImpl@@QAE@E@Z 10050d18 f   Snmp_pp:log.obj
 0001:0004fd30       __unwindfunclet$??0AgentLogImpl@@QAE@PAU_iobuf@@@Z$0 10050d30 f   Snmp_pp:log.obj
 0001:0004fd38       __unwindfunclet$??0AgentLogImpl@@QAE@PAU_iobuf@@@Z$1 10050d38 f   Snmp_pp:log.obj
 0001:0004fd43       __ehhandler$??0AgentLogImpl@@QAE@PAU_iobuf@@@Z 10050d43 f   Snmp_pp:log.obj
 0001:0004fd50       __unwindfunclet$??1AgentLogImpl@@UAE@XZ$0 10050d50 f   Snmp_pp:log.obj
 0001:0004fd58       __ehhandler$??1AgentLogImpl@@UAE@XZ 10050d58 f   Snmp_pp:log.obj
 0001:0004fd70       __unwindfunclet$?create_log_entry@AgentLogImpl@@UBEPAVLogEntry@@E@Z$0 10050d70 f   Snmp_pp:log.obj
 0001:0004fd7e       __ehhandler$?create_log_entry@AgentLogImpl@@UBEPAVLogEntry@@E@Z 10050d7e f   Snmp_pp:log.obj
 0001:0004fd90       __unwindfunclet$??0CNotifyEvent@@QAE@PAVSnmp@@ABV?$SnmpCollection@VOid@@@@ABV?$SnmpCollection@VSnmpTarget@@@@ABV?$SnmpCollection@VGenAddress@@@@@Z$0 10050d90 f   Snmp_pp:notifyqueue.obj
 0001:0004fd9e       __unwindfunclet$??0CNotifyEvent@@QAE@PAVSnmp@@ABV?$SnmpCollection@VOid@@@@ABV?$SnmpCollection@VSnmpTarget@@@@ABV?$SnmpCollection@VGenAddress@@@@@Z$1 10050d9e f   Snmp_pp:notifyqueue.obj
 0001:0004fdac       __unwindfunclet$??0CNotifyEvent@@QAE@PAVSnmp@@ABV?$SnmpCollection@VOid@@@@ABV?$SnmpCollection@VSnmpTarget@@@@ABV?$SnmpCollection@VGenAddress@@@@@Z$2 10050dac f   Snmp_pp:notifyqueue.obj
 0001:0004fdba       __ehhandler$??0CNotifyEvent@@QAE@PAVSnmp@@ABV?$SnmpCollection@VOid@@@@ABV?$SnmpCollection@VSnmpTarget@@@@ABV?$SnmpCollection@VGenAddress@@@@@Z 10050dba f   Snmp_pp:notifyqueue.obj
 0001:0004fdd0       __unwindfunclet$?notify_filter@CNotifyEvent@@QBEHABVOid@@AAVSnmpTarget@@@Z$0 10050dd0 f   Snmp_pp:notifyqueue.obj
 0001:0004fddb       __unwindfunclet$?notify_filter@CNotifyEvent@@QBEHABVOid@@AAVSnmpTarget@@@Z$1 10050ddb f   Snmp_pp:notifyqueue.obj
 0001:0004fde6       __unwindfunclet$?notify_filter@CNotifyEvent@@QBEHABVOid@@AAVSnmpTarget@@@Z$2 10050de6 f   Snmp_pp:notifyqueue.obj
 0001:0004fdf1       __unwindfunclet$?notify_filter@CNotifyEvent@@QBEHABVOid@@AAVSnmpTarget@@@Z$3 10050df1 f   Snmp_pp:notifyqueue.obj
 0001:0004fdfc       __unwindfunclet$?notify_filter@CNotifyEvent@@QBEHABVOid@@AAVSnmpTarget@@@Z$4 10050dfc f   Snmp_pp:notifyqueue.obj
 0001:0004fe1e       __unwindfunclet$?notify_filter@CNotifyEvent@@QBEHABVOid@@AAVSnmpTarget@@@Z$5 10050e1e f   Snmp_pp:notifyqueue.obj
 0001:0004fe40       __unwindfunclet$?notify_filter@CNotifyEvent@@QBEHABVOid@@AAVSnmpTarget@@@Z$6 10050e40 f   Snmp_pp:notifyqueue.obj
 0001:0004fe4b       __ehhandler$?notify_filter@CNotifyEvent@@QBEHABVOid@@AAVSnmpTarget@@@Z 10050e4b f   Snmp_pp:notifyqueue.obj
 0001:0004fe60       __unwindfunclet$?Callback@CNotifyEvent@@QAEHAAVSnmpTarget@@AAVPdu@@IH@Z$0 10050e60 f   Snmp_pp:notifyqueue.obj
 0001:0004fe68       __ehhandler$?Callback@CNotifyEvent@@QAEHAAVSnmpTarget@@AAVPdu@@IH@Z 10050e68 f   Snmp_pp:notifyqueue.obj
 0001:0004fe80       __unwindfunclet$??0CNotifyEventQueue@@QAE@PAVEventListHolder@@PAVSnmp@@@Z$0 10050e80 f   Snmp_pp:notifyqueue.obj
 0001:0004fe88       __unwindfunclet$??0CNotifyEventQueue@@QAE@PAVEventListHolder@@PAVSnmp@@@Z$1 10050e88 f   Snmp_pp:notifyqueue.obj
 0001:0004fe93       __ehhandler$??0CNotifyEventQueue@@QAE@PAVEventListHolder@@PAVSnmp@@@Z 10050e93 f   Snmp_pp:notifyqueue.obj
 0001:0004fea0       __unwindfunclet$??1CNotifyEventQueue@@UAE@XZ$0 10050ea0 f   Snmp_pp:notifyqueue.obj
 0001:0004fea8       __unwindfunclet$??1CNotifyEventQueue@@UAE@XZ$1 10050ea8 f   Snmp_pp:notifyqueue.obj
 0001:0004feb3       __unwindfunclet$??1CNotifyEventQueue@@UAE@XZ$2 10050eb3 f   Snmp_pp:notifyqueue.obj
 0001:0004febe       __ehhandler$??1CNotifyEventQueue@@UAE@XZ 10050ebe f   Snmp_pp:notifyqueue.obj
 0001:0004fed0       __unwindfunclet$?AddEntry@CNotifyEventQueue@@QAEHPAVSnmp@@ABV?$SnmpCollection@VOid@@@@ABV?$SnmpCollection@VSnmpTarget@@@@ABV?$SnmpCollection@VGenAddress@@@@@Z$0 10050ed0 f   Snmp_pp:notifyqueue.obj
 0001:0004fedb       __unwindfunclet$?AddEntry@CNotifyEventQueue@@QAEHPAVSnmp@@ABV?$SnmpCollection@VOid@@@@ABV?$SnmpCollection@VSnmpTarget@@@@ABV?$SnmpCollection@VGenAddress@@@@@Z$1 10050edb f   Snmp_pp:notifyqueue.obj
 0001:0004fee6       __unwindfunclet$?AddEntry@CNotifyEventQueue@@QAEHPAVSnmp@@ABV?$SnmpCollection@VOid@@@@ABV?$SnmpCollection@VSnmpTarget@@@@ABV?$SnmpCollection@VGenAddress@@@@@Z$2 10050ee6 f   Snmp_pp:notifyqueue.obj
 0001:0004fef1       __unwindfunclet$?AddEntry@CNotifyEventQueue@@QAEHPAVSnmp@@ABV?$SnmpCollection@VOid@@@@ABV?$SnmpCollection@VSnmpTarget@@@@ABV?$SnmpCollection@VGenAddress@@@@@Z$3 10050ef1 f   Snmp_pp:notifyqueue.obj
 0001:0004fefc       __unwindfunclet$?AddEntry@CNotifyEventQueue@@QAEHPAVSnmp@@ABV?$SnmpCollection@VOid@@@@ABV?$SnmpCollection@VSnmpTarget@@@@ABV?$SnmpCollection@VGenAddress@@@@@Z$4 10050efc f   Snmp_pp:notifyqueue.obj
 0001:0004ff07       __unwindfunclet$?AddEntry@CNotifyEventQueue@@QAEHPAVSnmp@@ABV?$SnmpCollection@VOid@@@@ABV?$SnmpCollection@VSnmpTarget@@@@ABV?$SnmpCollection@VGenAddress@@@@@Z$5 10050f07 f   Snmp_pp:notifyqueue.obj
 0001:0004ff12       __unwindfunclet$?AddEntry@CNotifyEventQueue@@QAEHPAVSnmp@@ABV?$SnmpCollection@VOid@@@@ABV?$SnmpCollection@VSnmpTarget@@@@ABV?$SnmpCollection@VGenAddress@@@@@Z$6 10050f12 f   Snmp_pp:notifyqueue.obj
 0001:0004ff1d       __unwindfunclet$?AddEntry@CNotifyEventQueue@@QAEHPAVSnmp@@ABV?$SnmpCollection@VOid@@@@ABV?$SnmpCollection@VSnmpTarget@@@@ABV?$SnmpCollection@VGenAddress@@@@@Z$7 10050f1d f   Snmp_pp:notifyqueue.obj
 0001:0004ff28       __unwindfunclet$?AddEntry@CNotifyEventQueue@@QAEHPAVSnmp@@ABV?$SnmpCollection@VOid@@@@ABV?$SnmpCollection@VSnmpTarget@@@@ABV?$SnmpCollection@VGenAddress@@@@@Z$8 10050f28 f   Snmp_pp:notifyqueue.obj
 0001:0004ff36       __unwindfunclet$?AddEntry@CNotifyEventQueue@@QAEHPAVSnmp@@ABV?$SnmpCollection@VOid@@@@ABV?$SnmpCollection@VSnmpTarget@@@@ABV?$SnmpCollection@VGenAddress@@@@@Z$9 10050f36 f   Snmp_pp:notifyqueue.obj
 0001:0004ff44       __ehhandler$?AddEntry@CNotifyEventQueue@@QAEHPAVSnmp@@ABV?$SnmpCollection@VOid@@@@ABV?$SnmpCollection@VSnmpTarget@@@@ABV?$SnmpCollection@VGenAddress@@@@@Z 10050f44 f   Snmp_pp:notifyqueue.obj
 0001:0004ff50       __unwindfunclet$?DeleteEntry@CNotifyEventQueue@@QAEXPAVSnmp@@@Z$0 10050f50 f   Snmp_pp:notifyqueue.obj
 0001:0004ff5b       __ehhandler$?DeleteEntry@CNotifyEventQueue@@QAEXPAVSnmp@@@Z 10050f5b f   Snmp_pp:notifyqueue.obj
 0001:0004ff70       __unwindfunclet$?GetFdSets@CNotifyEventQueue@@UAEXAAHAAUfd_set@@11@Z$0 10050f70 f   Snmp_pp:notifyqueue.obj
 0001:0004ff70       __unwindfunclet$?GetEntry@CNotifyEventQueue@@QAEPAVCNotifyEvent@@PAVSnmp@@@Z$0 10050f70 f   Snmp_pp:notifyqueue.obj
 0001:0004ff78       __ehhandler$?GetEntry@CNotifyEventQueue@@QAEPAVCNotifyEvent@@PAVSnmp@@@Z 10050f78 f   Snmp_pp:notifyqueue.obj
 0001:0004ff78       __ehhandler$?GetFdSets@CNotifyEventQueue@@UAEXAAHAAUfd_set@@11@Z 10050f78 f   Snmp_pp:notifyqueue.obj
 0001:0004ff90       __unwindfunclet$?HandleEvents@CNotifyEventQueue@@UAEHHABUfd_set@@00@Z$0 10050f90 f   Snmp_pp:notifyqueue.obj
 0001:0004ff98       __unwindfunclet$?HandleEvents@CNotifyEventQueue@@UAEHHABUfd_set@@00@Z$1 10050f98 f   Snmp_pp:notifyqueue.obj
 0001:0004ffa3       __unwindfunclet$?HandleEvents@CNotifyEventQueue@@UAEHHABUfd_set@@00@Z$2 10050fa3 f   Snmp_pp:notifyqueue.obj
 0001:0004ffb1       __ehhandler$?HandleEvents@CNotifyEventQueue@@UAEHHABUfd_set@@00@Z 10050fb1 f   Snmp_pp:notifyqueue.obj
 0001:0004ffc0       __unwindfunclet$??0?$SnmpCollection@VSnmpTarget@@@@QAE@ABV0@@Z$0 10050fc0 f   Snmp_pp:notifyqueue.obj
 0001:0004ffc0       __unwindfunclet$??0?$SnmpCollection@VOid@@@@QAE@ABV0@@Z$0 10050fc0 f   Snmp_pp:notifyqueue.obj
 0001:0004ffc0       __unwindfunclet$??0?$SnmpCollection@VGenAddress@@@@QAE@ABV0@@Z$0 10050fc0 f   Snmp_pp:notifyqueue.obj
 0001:0004ffce       __ehhandler$??0?$SnmpCollection@VOid@@@@QAE@ABV0@@Z 10050fce f   Snmp_pp:notifyqueue.obj
 0001:0004ffce       __ehhandler$??0?$SnmpCollection@VGenAddress@@@@QAE@ABV0@@Z 10050fce f   Snmp_pp:notifyqueue.obj
 0001:0004ffce       __ehhandler$??0?$SnmpCollection@VSnmpTarget@@@@QAE@ABV0@@Z 10050fce f   Snmp_pp:notifyqueue.obj
 0001:0004ffe0       __unwindfunclet$??Y?$SnmpCollection@VGenAddress@@@@QAEAAV0@ABVGenAddress@@@Z$0 10050fe0 f   Snmp_pp:notifyqueue.obj
 0001:0004ffee       __ehhandler$??Y?$SnmpCollection@VGenAddress@@@@QAEAAV0@ABVGenAddress@@@Z 10050fee f   Snmp_pp:notifyqueue.obj
 0001:00050000       __unwindfunclet$??A?$SnmpCollection@VGenAddress@@@@QBE?AVGenAddress@@H@Z$0 10051000 f   Snmp_pp:notifyqueue.obj
 0001:0005001f       __unwindfunclet$??A?$SnmpCollection@VGenAddress@@@@QBE?AVGenAddress@@H@Z$1 1005101f f   Snmp_pp:notifyqueue.obj
 0001:0005002a       __ehhandler$??A?$SnmpCollection@VGenAddress@@@@QBE?AVGenAddress@@H@Z 1005102a f   Snmp_pp:notifyqueue.obj
 0001:00050040       __unwindfunclet$?snmp_build_var_op@@YAPAEPAEPAKPAHEH02@Z$0 10051040 f   Snmp_pp:asn1.obj
 0001:00050048       __ehhandler$?snmp_build_var_op@@YAPAEPAEPAKPAHEH02@Z 10051048 f   Snmp_pp:asn1.obj
 0001:00050060       __unwindfunclet$?snmp_build@@YAHPAUsnmp_pdu@@PAEPAHJPBEH@Z$0 10051060 f   Snmp_pp:asn1.obj
 0001:00050060       __unwindfunclet$?build_vb@@YAPAEPAUsnmp_pdu@@PAEPAH@Z$0 10051060 f   Snmp_pp:asn1.obj
 0001:00050060       __unwindfunclet$?build_data_pdu@@YAPAEPAUsnmp_pdu@@PAEPAH1H@Z$0 10051060 f   Snmp_pp:asn1.obj
 0001:00050068       __ehhandler$?build_vb@@YAPAEPAUsnmp_pdu@@PAEPAH@Z 10051068 f   Snmp_pp:asn1.obj
 0001:00050068       __ehhandler$?build_data_pdu@@YAPAEPAUsnmp_pdu@@PAEPAH1H@Z 10051068 f   Snmp_pp:asn1.obj
 0001:00050068       __ehhandler$?snmp_build@@YAHPAUsnmp_pdu@@PAEPAHJPBEH@Z 10051068 f   Snmp_pp:asn1.obj
 0001:00050080       __unwindfunclet$?asn1_build_scoped_pdu@@YAPAEPAEPAH0J0J0J@Z$0 10051080 f   Snmp_pp:asn1.obj
 0001:00050088       __unwindfunclet$?asn1_build_scoped_pdu@@YAPAEPAEPAH0J0J0J@Z$1 10051088 f   Snmp_pp:asn1.obj
 0001:00050093       __unwindfunclet$?asn1_build_scoped_pdu@@YAPAEPAEPAH0J0J0J@Z$2 10051093 f   Snmp_pp:asn1.obj
 0001:0005009e       __ehhandler$?asn1_build_scoped_pdu@@YAPAEPAEPAH0J0J0J@Z 1005109e f   Snmp_pp:asn1.obj
 0001:000500b0       _$E1                       100510b0 f   CommonMonitor.obj
 0001:000500d0       _$E1                       100510d0 f   SnmpOperate.obj
 0001:000500f0       _$E1                       100510f0 f   Snmp_pp:address.obj
 0001:00050140       _$E1                       10051140 f   Snmp_pp:uxsnmp.obj
 0001:00050190       _$E4                       10051190 f   Snmp_pp:uxsnmp.obj
 0001:000501e0       _$E7                       100511e0 f   Snmp_pp:uxsnmp.obj
 0001:00050230       _$E10                      10051230 f   Snmp_pp:uxsnmp.obj
 0001:00050280       _$E13                      10051280 f   Snmp_pp:uxsnmp.obj
 0001:000502d0       _$E16                      100512d0 f   Snmp_pp:uxsnmp.obj
 0001:00050320       _$E19                      10051320 f   Snmp_pp:uxsnmp.obj
 0001:00050370       _$E1                       10051370 f   Snmp_pp:snmpmsg.obj
 0001:000503c0       _$E4                       100513c0 f   Snmp_pp:snmpmsg.obj
 0001:00050410       _$E7                       10051410 f   Snmp_pp:snmpmsg.obj
 0001:00050460       _$E10                      10051460 f   Snmp_pp:snmpmsg.obj
 0001:000504b0       _$E13                      100514b0 f   Snmp_pp:snmpmsg.obj
 0001:00050500       _$E16                      10051500 f   Snmp_pp:snmpmsg.obj
 0001:00050550       _$E19                      10051550 f   Snmp_pp:snmpmsg.obj
 0001:000505a0       _$E2                       100515a0 f   CommonMonitor.obj
 0001:000505b0       _$E2                       100515b0 f   SnmpOperate.obj
 0001:000505c0       _$E2                       100515c0 f   Snmp_pp:address.obj
 0001:00050600       _$E2                       10051600 f   Snmp_pp:uxsnmp.obj
 0001:00050640       _$E5                       10051640 f   Snmp_pp:uxsnmp.obj
 0001:00050680       _$E8                       10051680 f   Snmp_pp:uxsnmp.obj
 0001:000506c0       _$E11                      100516c0 f   Snmp_pp:uxsnmp.obj
 0001:00050700       _$E14                      10051700 f   Snmp_pp:uxsnmp.obj
 0001:00050740       _$E17                      10051740 f   Snmp_pp:uxsnmp.obj
 0001:00050780       _$E20                      10051780 f   Snmp_pp:uxsnmp.obj
 0001:000507c0       _$E2                       100517c0 f   Snmp_pp:snmpmsg.obj
 0001:00050800       _$E5                       10051800 f   Snmp_pp:snmpmsg.obj
 0001:00050840       _$E8                       10051840 f   Snmp_pp:snmpmsg.obj
 0001:00050880       _$E11                      10051880 f   Snmp_pp:snmpmsg.obj
 0001:000508c0       _$E14                      100518c0 f   Snmp_pp:snmpmsg.obj
 0001:00050900       _$E17                      10051900 f   Snmp_pp:snmpmsg.obj
 0001:00050940       _$E20                      10051940 f   Snmp_pp:snmpmsg.obj
