 MonitorSchedule

 Timestamp is 4fffd0a7 (Fri Jul 13 15:39:19 2012)

 Preferred load address is 00400000

 Start         Length     Name                   Class
 0001:00000000 0002447eH .text                   CODE
 0001:00024480 00002e42H .text$x                 CODE
 0001:000272d0 00000295H .text$yc                CODE
 0001:00027570 00000163H .text$yd                CODE
 0002:00000000 00000424H .idata$5                DATA
 0002:00000430 00003d19H .rdata                  DATA
 0002:0000414c 0000007aH .rdata$debug            DATA
 0002:000041c8 00000044H .rdata$r                DATA
 0002:0000420c 00000004H .rtc$IAA                DATA
 0002:00004210 00000004H .rtc$IMZ                DATA
 0002:00004214 00000004H .rtc$IZZ                DATA
 0002:00004218 00000004H .rtc$TAA                DATA
 0002:0000421c 00000004H .rtc$TMZ                DATA
 0002:00004220 00000004H .rtc$TZZ                DATA
 0002:00004224 00003768H .xdata$x                DATA
 0002:0000798c 000000b4H .idata$2                DATA
 0002:00007a40 00000014H .idata$3                DATA
 0002:00007a54 00000424H .idata$4                DATA
 0002:00007e78 00002c34H .idata$6                DATA
 0002:0000aaac 00000000H .edata                  DATA
 0003:00000000 00000004H .CRT$XCA                DATA
 0003:00000004 00000004H .CRT$XCAA               DATA
 0003:00000008 00000054H .CRT$XCU                DATA
 0003:0000005c 00000004H .CRT$XCZ                DATA
 0003:00000060 00000004H .CRT$XIA                DATA
 0003:00000064 00000004H .CRT$XIZ                DATA
 0003:00000070 0000025cH .data                   DATA
 0003:000002d0 00000320H .bss                    DATA

  Address         Publics by Value              Rva+Base     Lib:Object

 0000:00000000       __except_list              00000000     <absolute>
 0000:00000000       ___safe_se_handler_count   00000000     <absolute>
 0000:00000000       ___safe_se_handler_table   00000000     <absolute>
 0000:00009876       __ldused                   00009876     <absolute>
 0000:00009876       __fltused                  00009876     <absolute>
 0001:00000000       ??0CAppendMassRecord@@QAE@XZ 00401000 f   appendmassrecord.obj
 0001:00000020       ??1sentry@?$basic_istream@DU?$char_traits@D@std@@@std@@QAE@XZ 00401020 f i appendmassrecord.obj
 0001:00000020       ??1_Sentry_base@?$basic_ostream@DU?$char_traits@D@std@@@std@@QAE@XZ 00401020 f i appendmassrecord.obj
 0001:00000020       ??1_Sentry_base@?$basic_istream@DU?$char_traits@D@std@@@std@@QAE@XZ 00401020 f i appendmassrecord.obj
 0001:00000040       ??$use_facet@V?$ctype@D@std@@@std@@YAABV?$ctype@D@0@ABVlocale@0@@Z 00401040 f i appendmassrecord.obj
 0001:00000140       ??$?HDU?$char_traits@D@std@@V?$allocator@D@1@@std@@YA?AV?$basic_string@DU?$char_traits@D@std@@V?$allocator@D@2@@0@ABV10@0@Z 00401140 f i appendmassrecord.obj
 0001:000001c0       ??$?HDU?$char_traits@D@std@@V?$allocator@D@1@@std@@YA?AV?$basic_string@DU?$char_traits@D@std@@V?$allocator@D@2@@0@ABV10@PBD@Z 004011c0 f i appendmassrecord.obj
 0001:00000240       ??1_Node@?$_List_nod@V?$basic_string@DU?$char_traits@D@std@@V?$allocator@D@2@@std@@V?$allocator@V?$basic_string@DU?$char_traits@D@std@@V?$allocator@D@2@@std@@@2@@std@@QAE@XZ 00401240 f i LoadConfig.obj
 0001:00000240       ??1_Node@?$_List_nod@VSingelRecord@@V?$allocator@VSingelRecord@@@std@@@std@@QAE@XZ 00401240 f i appendmassrecord.obj
 0001:00000250       ??0sentry@?$basic_istream@DU?$char_traits@D@std@@@std@@QAE@AAV12@_N@Z 00401250 f i appendmassrecord.obj
 0001:000002c0       ??0sentry@?$basic_ostream@DU?$char_traits@D@std@@@std@@QAE@AAV12@@Z 004012c0 f i appendmassrecord.obj
 0001:00000350       ??1sentry@?$basic_ostream@DU?$char_traits@D@std@@@std@@QAE@XZ 00401350 f i appendmassrecord.obj
 0001:000003c0       ??$?5DU?$char_traits@D@std@@V?$allocator@D@1@@std@@YAAAV?$basic_istream@DU?$char_traits@D@std@@@0@AAV10@AAV?$basic_string@DU?$char_traits@D@std@@V?$allocator@D@2@@0@@Z 004013c0 f i appendmassrecord.obj
 0001:00000570       ??$?6DU?$char_traits@D@std@@V?$allocator@D@1@@std@@YAAAV?$basic_ostream@DU?$char_traits@D@std@@@0@AAV10@ABV?$basic_string@DU?$char_traits@D@std@@V?$allocator@D@2@@0@@Z 00401570 f i appendmassrecord.obj
 0001:00000770       ?_Buynode@?$list@VSingelRecord@@V?$allocator@VSingelRecord@@@std@@@std@@IAEPAU_Node@?$_List_nod@VSingelRecord@@V?$allocator@VSingelRecord@@@std@@@2@XZ 00401770 f i appendmassrecord.obj
 0001:00000790       ?clear@?$list@VSingelRecord@@V?$allocator@VSingelRecord@@@std@@@std@@QAEXXZ 00401790 f i appendmassrecord.obj
 0001:00000790       ?clear@?$list@V?$basic_string@DU?$char_traits@D@std@@V?$allocator@D@2@@std@@V?$allocator@V?$basic_string@DU?$char_traits@D@std@@V?$allocator@D@2@@std@@@2@@std@@QAEXXZ 00401790 f i LoadConfig.obj
 0001:000007d0       ??1CAppendMassRecord@@UAE@XZ 004017d0 f   appendmassrecord.obj
 0001:00000860       ?run@CAppendMassRecord@@UAEXXZ 00401860 f   appendmassrecord.obj
 0001:00000a00       ??_GCAppendMassRecord@@UAEPAXI@Z 00401a00 f i appendmassrecord.obj
 0001:00000a00       ??_ECAppendMassRecord@@UAEPAXI@Z 00401a00 f i appendmassrecord.obj
 0001:00000a20       ??0Des@@QAE@XZ             00401a20 f   Des.obj
 0001:00000a30       ??1Des@@UAE@XZ             00401a30 f   Des.obj
 0001:00000a40       ?bitsel@Des@@AAEIPAIPBHH@Z 00401a40 f   Des.obj
 0001:00000aa0       ?des_decipher@Des@@AAEXPAIIIPAUDESContext@@@Z 00401aa0 f   Des.obj
 0001:00001420       ??_GDes@@UAEPAXI@Z         00402420 f i Des.obj
 0001:00001420       ??_EDes@@UAEPAXI@Z         00402420 f i Des.obj
 0001:00001440       ?des_key_setup@Des@@AAEXIIPAUDESContext@@@Z 00402440 f   Des.obj
 0001:000015c0       ?des_cbc_decrypt@Des@@AAEXPAEPBEIPAUDESContext@@@Z 004025c0 f   Des.obj
 0001:000016f0       ?Decrypt@Des@@QAE_NPBDPAD@Z 004026f0 f   Des.obj
 0001:00001910       ??0Entity@@QAE@XZ          00402910 f   Entity.obj
 0001:00001950       ??1Entity@@QAE@XZ          00402950 f   Entity.obj
 0001:00001970       ?InitActiveMonitorsArray@Entity@@QAEHH@Z 00402970 f   Entity.obj
 0001:000019c0       ?SetMonitorTypeCount@Entity@@QAEXH@Z 004029c0 f   Entity.obj
 0001:000019d0       ?AdjustActiveMonitorRef@Entity@@QAEXHH@Z 004029d0 f   Entity.obj
 0001:00001a30       ??1MakeRecord@@QAE@XZ      00402a30 f i MakeRecord.obj
 0001:00001a30       ??3@YAXPAX0@Z              00402a30 f i Groups.obj
 0001:00001a30       ?ReleaseAll@LoadConfig@@QAEXXZ 00402a30 f i LoadConfig.obj
 0001:00001a40       ??1logic_error@std@@UAE@XZ 00402a40 f i Groups.obj
 0001:00001aa0       ?what@logic_error@std@@UBEPBDXZ 00402aa0 f i Groups.obj
 0001:00001ab0       ??_Glogic_error@std@@UAEPAXI@Z 00402ab0 f i Groups.obj
 0001:00001ab0       ??_Elogic_error@std@@UAEPAXI@Z 00402ab0 f i Groups.obj
 0001:00001ad0       ??_Elength_error@std@@UAEPAXI@Z 00402ad0 f i Groups.obj
 0001:00001ad0       ??_Glength_error@std@@UAEPAXI@Z 00402ad0 f i Groups.obj
 0001:00001af0       ??1length_error@std@@UAE@XZ 00402af0 f i Groups.obj
 0001:00001b00       ??0MSException@@QAE@PBD0@Z 00402b00 f i Groups.obj
 0001:00001bc0       ??_GMSException@@UAEPAXI@Z 00402bc0 f i Groups.obj
 0001:00001bc0       ??_EMSException@@UAEPAXI@Z 00402bc0 f i Groups.obj
 0001:00001be0       ??0exception@svutil@@QAE@PBD0@Z 00402be0 f i Groups.obj
 0001:00001ca0       ?GetErrorType@MSException@@UBEPBDXZ 00402ca0 f i Groups.obj
 0001:00001ca0       ?GetErrorType@exception@svutil@@UBEPBDXZ 00402ca0 f i Groups.obj
 0001:00001cb0       ?GetDescription@exception@svutil@@UBEPBDXZ 00402cb0 f i Groups.obj
 0001:00001cb0       ?GetDescription@MSException@@UBEPBDXZ 00402cb0 f i Groups.obj
 0001:00001cc0       ??_Gexception@svutil@@UAEPAXI@Z 00402cc0 f i Groups.obj
 0001:00001cc0       ??_Eexception@svutil@@UAEPAXI@Z 00402cc0 f i Groups.obj
 0001:00001ce0       ??1word@svutil@@UAE@XZ     00402ce0 f i Groups.obj
 0001:00001ce0       ??1?$hashelement@Vword@svutil@@PAVTask@@@svutil@@QAE@XZ 00402ce0 f i MonitorSchedule.obj
 0001:00001d00       ??_Gword@svutil@@UAEPAXI@Z 00402d00 f i Groups.obj
 0001:00001d00       ??_Eword@svutil@@UAEPAXI@Z 00402d00 f i Groups.obj
 0001:00001d30       ?SetEntityID@Entity@@QAEXPBD@Z 00402d30 f i Groups.obj
 0001:00001da0       ??1MSException@@UAE@XZ     00402da0 f i Groups.obj
 0001:00001db0       ?SetSystemType@Entity@@QAEXPBD@Z 00402db0 f i Groups.obj
 0001:00001e20       ?SetDepend@Entity@@QAEXPBD@Z 00402e20 f i Groups.obj
 0001:00001e90       ?SetIPAdress@Entity@@QAEXPBD@Z 00402e90 f i Groups.obj
 0001:00001f00       ??0MSException@@QAE@ABV0@@Z 00402f00 f i Groups.obj
 0001:00001f50       ?SetGroupID@GroupsItem@@QAEXPBD@Z 00402f50 f i Groups.obj
 0001:00001fc0       ?SetParentID@GroupsItem@@QAEXPBD@Z 00402fc0 f i Groups.obj
 0001:00002030       ?SetDepedSon@GroupsItem@@QAEXPBD@Z 00403030 f i Groups.obj
 0001:000020a0       ??0?$hashelement@Vword@svutil@@V12@@svutil@@QAE@ABVword@1@@Z 004030a0 f i Groups.obj
 0001:00002120       ??0?$hashelement@Vword@svutil@@V12@@svutil@@QAE@ABVword@1@0@Z 00403120 f i Groups.obj
 0001:000021b0       ??1?$hashelement@Vword@svutil@@V12@@svutil@@QAE@XZ 004031b0 f i Groups.obj
 0001:000021f0       ??1?$treenode@V?$hashelement@Vword@svutil@@V12@@svutil@@@svutil@@UAE@XZ 004031f0 f i Groups.obj
 0001:00002230       ??_E?$treenode@V?$hashelement@Vword@svutil@@V12@@svutil@@@svutil@@UAEPAXI@Z 00403230 f i Groups.obj
 0001:00002230       ??_G?$treenode@V?$hashelement@Vword@svutil@@V12@@svutil@@@svutil@@UAEPAXI@Z 00403230 f i Groups.obj
 0001:00002250       ?_Xlen@?$vector@PAV?$hashnode@Vword@svutil@@V12@@svutil@@V?$allocator@PAV?$hashnode@Vword@svutil@@V12@@svutil@@@std@@@std@@IBEXXZ 00403250 f i Groups.obj
 0001:000022d0       ??0logic_error@std@@QAE@ABV01@@Z 004032d0 f i Groups.obj
 0001:00002330       ??M?$treenode@V?$hashelement@Vword@svutil@@V12@@svutil@@@svutil@@QAE_NV01@@Z 00403330 f i Groups.obj
 0001:000023b0       ??O?$treenode@V?$hashelement@Vword@svutil@@V12@@svutil@@@svutil@@QAE_NV01@@Z 004033b0 f i Groups.obj
 0001:00002430       ??$fill@PAPAV?$hashnode@Vword@svutil@@PAVTask@@@svutil@@PAV12@@std@@YAXPAPAV?$hashnode@Vword@svutil@@PAVTask@@@svutil@@0ABQAV12@@Z 00403430 f i MonitorSchedule.obj
 0001:00002430       ??$fill@PAPAV?$hashnode@Vword@svutil@@V12@@svutil@@PAV12@@std@@YAXPAPAV?$hashnode@Vword@svutil@@V12@@svutil@@0ABQAV12@@Z 00403430 f i Groups.obj
 0001:00002450       ??0?$treenode@V?$hashelement@Vword@svutil@@V12@@svutil@@@svutil@@QAE@ABV?$hashelement@Vword@svutil@@V12@@1@@Z 00403450 f i Groups.obj
 0001:000024f0       ?DeleteTree@?$sorttree@V?$hashelement@Vword@svutil@@V12@@svutil@@@svutil@@QAEXPAV?$treenode@V?$hashelement@Vword@svutil@@V12@@svutil@@@2@@Z 004034f0 f i Groups.obj
 0001:00002540       ??0length_error@std@@QAE@ABV01@@Z 00403540 f i Groups.obj
 0001:00002560       ?findnode@?$sorttree@V?$hashelement@Vword@svutil@@V12@@svutil@@@svutil@@QAEPAV?$treenode@V?$hashelement@Vword@svutil@@V12@@svutil@@@2@ABV?$hashelement@Vword@svutil@@V12@@2@PAV32@@Z 00403560 f i Groups.obj
 0001:000025d0       ??0?$treenode@V?$hashelement@Vword@svutil@@V12@@svutil@@@svutil@@QAE@ABV01@@Z 004035d0 f i Groups.obj
 0001:00002670       ??$copy_backward@PAPAV?$hashnode@Vword@svutil@@PAVTask@@@svutil@@PAPAV12@@std@@YAPAPAV?$hashnode@Vword@svutil@@PAVTask@@@svutil@@PAPAV12@00@Z 00403670 f i MonitorSchedule.obj
 0001:00002670       ??$copy_backward@PAPAV?$hashnode@Vword@svutil@@V12@@svutil@@PAPAV12@@std@@YAPAPAV?$hashnode@Vword@svutil@@V12@@svutil@@PAPAV12@00@Z 00403670 f i Groups.obj
 0001:000026a0       ??$CreateNode@V?$hashelement@Vword@svutil@@V12@@svutil@@@?$sorttree@V?$hashelement@Vword@svutil@@V12@@svutil@@@svutil@@SAPAV?$treenode@V?$hashelement@Vword@svutil@@V12@@svutil@@@1@ABV?$hashelement@Vword@svutil@@V12@@1@@Z 004036a0 f i Groups.obj
 0001:00002700       ?_Buynode@?$list@PAUtmsg@@V?$allocator@PAUtmsg@@@std@@@std@@IAEPAU_Node@?$_List_nod@PAUtmsg@@V?$allocator@PAUtmsg@@@std@@@2@XZ 00403700 f i MSGQueue.obj
 0001:00002700       ?_Buynode@?$list@PAVEntity@@V?$allocator@PAVEntity@@@std@@@std@@IAEPAU_Node@?$_List_nod@PAVEntity@@V?$allocator@PAVEntity@@@std@@@2@XZ 00403700 f i Groups.obj
 0001:00002700       ?_Buynode@?$list@PAVReturnValue@@V?$allocator@PAVReturnValue@@@std@@@std@@IAEPAU_Node@?$_List_nod@PAVReturnValue@@V?$allocator@PAVReturnValue@@@std@@@2@XZ 00403700 f i MonitorThread.obj
 0001:00002700       ?_Buynode@?$list@PAVReturnData@@V?$allocator@PAVReturnData@@@std@@@std@@IAEPAU_Node@?$_List_nod@PAVReturnData@@V?$allocator@PAVReturnData@@@std@@@2@XZ 00403700 f i Monitor.obj
 0001:00002700       ?_Buynode@?$list@PAVThreadEx@@V?$allocator@PAVThreadEx@@@std@@@std@@IAEPAU_Node@?$_List_nod@PAVThreadEx@@V?$allocator@PAVThreadEx@@@std@@@2@XZ 00403700 f i ScheduleThread.obj
 0001:00002700       ?_Buynode@?$list@PAVSubsequentItem@@V?$allocator@PAVSubsequentItem@@@std@@@std@@IAEPAU_Node@?$_List_nod@PAVSubsequentItem@@V?$allocator@PAVSubsequentItem@@@std@@@2@XZ 00403700 f i Subsequent.obj
 0001:00002700       ?_Buynode@?$list@PAVMonitor@@V?$allocator@PAVMonitor@@@std@@@std@@IAEPAU_Node@?$_List_nod@PAVMonitor@@V?$allocator@PAVMonitor@@@std@@@2@XZ 00403700 f i MonitorSchedule.obj
 0001:00002700       ?_Buynode@?$list@PAVGroupsItem@@V?$allocator@PAVGroupsItem@@@std@@@std@@IAEPAU_Node@?$_List_nod@PAVGroupsItem@@V?$allocator@PAVGroupsItem@@@std@@@2@XZ 00403700 f i Groups.obj
 0001:00002700       ?_Buynode@?$list@PAVStateConditionItem@@V?$allocator@PAVStateConditionItem@@@std@@@std@@IAEPAU_Node@?$_List_nod@PAVStateConditionItem@@V?$allocator@PAVStateConditionItem@@@std@@@2@XZ 00403700 f i StateCondition.obj
 0001:00002720       ??_G?$sorttree@V?$hashelement@Vword@svutil@@V12@@svutil@@@svutil@@UAEPAXI@Z 00403720 f i Groups.obj
 0001:00002720       ??_E?$sorttree@V?$hashelement@Vword@svutil@@V12@@svutil@@@svutil@@UAEPAXI@Z 00403720 f i Groups.obj
 0001:00002780       ?_Incsize@?$list@PAVEntity@@V?$allocator@PAVEntity@@@std@@@std@@IAEXI@Z 00403780 f i Groups.obj
 0001:00002780       ?_Incsize@?$list@PAVGroupsItem@@V?$allocator@PAVGroupsItem@@@std@@@std@@IAEXI@Z 00403780 f i Groups.obj
 0001:00002820       ?find@?$hashnode@Vword@svutil@@V12@@svutil@@QAE_NABVword@2@PAPAV?$hashelement@Vword@svutil@@V12@@2@@Z 00403820 f i Groups.obj
 0001:00002920       ?InsertNode@?$sorttree@V?$hashelement@Vword@svutil@@V12@@svutil@@@svutil@@QAEXPAV?$treenode@V?$hashelement@Vword@svutil@@V12@@svutil@@@2@0@Z 00403920 f i Groups.obj
 0001:000029b0       ??$_Ucopy@PAPAV?$hashnode@Vword@svutil@@V12@@svutil@@@?$vector@PAV?$hashnode@Vword@svutil@@V12@@svutil@@V?$allocator@PAV?$hashnode@Vword@svutil@@V12@@svutil@@@std@@@std@@IAEPAPAV?$hashnode@Vword@svutil@@V12@@svutil@@PAPAV23@00@Z 004039b0 f i Groups.obj
 0001:000029b0       ??$_Ucopy@PAPAV?$hashnode@Vword@svutil@@PAVTask@@@svutil@@@?$vector@PAV?$hashnode@Vword@svutil@@PAVTask@@@svutil@@V?$allocator@PAV?$hashnode@Vword@svutil@@PAVTask@@@svutil@@@std@@@std@@IAEPAPAV?$hashnode@Vword@svutil@@PAVTask@@@svutil@@PAPAV23@00@Z 004039b0 f i MonitorSchedule.obj
 0001:000029e0       ?GetEntityByID@Groups@@QAEPAVEntity@@PBD@Z 004039e0 f   Groups.obj
 0001:00002a40       ?GetSingleGroupByID@Groups@@QAEPAVGroupsItem@@PBD@Z 00403a40 f   Groups.obj
 0001:00002aa0       ?InitAllEntityActiveMonitorArray@Groups@@QAEHH@Z 00403aa0 f   Groups.obj
 0001:00002ae0       ?find@?$hashnode@Vword@svutil@@V12@@svutil@@QAE_NABVword@2@PAPAV32@@Z 00403ae0 f i Groups.obj
 0001:00002b40       ?InsertNodeEx@?$sorttree@V?$hashelement@Vword@svutil@@V12@@svutil@@@svutil@@QAEAAV?$hashelement@Vword@svutil@@V12@@2@ABV32@@Z 00403b40 f i Groups.obj
 0001:00002bd0       ??1exception@svutil@@UAE@XZ 00403bd0 f i Groups.obj
 0001:00002be0       ??0exception@svutil@@QAE@ABV01@@Z 00403be0 f i Groups.obj
 0001:00002c30       ?_Ufill@?$vector@PAV?$hashnode@Vword@svutil@@V12@@svutil@@V?$allocator@PAV?$hashnode@Vword@svutil@@V12@@svutil@@@std@@@std@@IAEPAPAV?$hashnode@Vword@svutil@@V12@@svutil@@PAPAV34@IABQAV34@@Z 00403c30 f i Groups.obj
 0001:00002c30       ?_Ufill@?$vector@PAV?$hashnode@Vword@svutil@@PAVTask@@@svutil@@V?$allocator@PAV?$hashnode@Vword@svutil@@PAVTask@@@svutil@@@std@@@std@@IAEPAPAV?$hashnode@Vword@svutil@@PAVTask@@@svutil@@PAPAV34@IABQAV34@@Z 00403c30 f i MonitorSchedule.obj
 0001:00002c60       ??1Groups@@UAE@XZ          00403c60 f   Groups.obj
 0001:00002dd0       ?push_back@?$list@PAVEntity@@V?$allocator@PAVEntity@@@std@@@std@@QAEXABQAVEntity@@@Z 00403dd0 f i Groups.obj
 0001:00002dd0       ?push_back@?$list@PAVGroupsItem@@V?$allocator@PAVGroupsItem@@@std@@@std@@QAEXABQAVGroupsItem@@@Z 00403dd0 f i Groups.obj
 0001:00002e10       ?find@?$hashtable@Vword@svutil@@V12@@svutil@@QAEPAVword@2@ABV32@@Z 00403e10 f i Groups.obj
 0001:00002e80       ?insert@?$hashnode@Vword@svutil@@V12@@svutil@@QAEAAV?$hashelement@Vword@svutil@@V12@@2@ABVword@2@0@Z 00403e80 f i Groups.obj
 0001:00002f80       ?_Insert_n@?$vector@PAV?$hashnode@Vword@svutil@@V12@@svutil@@V?$allocator@PAV?$hashnode@Vword@svutil@@V12@@svutil@@@std@@@std@@IAEXViterator@12@IABQAV?$hashnode@Vword@svutil@@V12@@svutil@@@Z 00403f80 f i Groups.obj
 0001:00003170       ??0Groups@@QAE@XZ          00404170 f   Groups.obj
 0001:000031f0       ??_EGroups@@UAEPAXI@Z      004041f0 f i Groups.obj
 0001:000031f0       ??_GGroups@@UAEPAXI@Z      004041f0 f i Groups.obj
 0001:00003210       ?FromTextMap@Groups@@QAE_NAAV?$hashtable@Vword@svutil@@V12@@svutil@@@Z 00404210 f   Groups.obj
 0001:00003a50       ?resize@?$vector@PAV?$hashnode@Vword@svutil@@V12@@svutil@@V?$allocator@PAV?$hashnode@Vword@svutil@@V12@@svutil@@@std@@@std@@QAEXIPAV?$hashnode@Vword@svutil@@V12@@svutil@@@Z 00404a50 f i Groups.obj
 0001:00003ae0       ?insert@?$hashtable@Vword@svutil@@V12@@svutil@@QAEAAVword@2@ABV32@0@Z 00404ae0 f i Groups.obj
 0001:00003bd0       ??A?$hashtable@Vword@svutil@@V12@@svutil@@QAEAAVword@1@ABV21@@Z 00404bd0 f i Groups.obj
 0001:00003c60       ?ToTextMap@Groups@@QAE_NAAV?$hashtable@Vword@svutil@@V12@@svutil@@@Z 00404c60 f   Groups.obj
 0001:00004340       ??0GroupsItem@@QAE@XZ      00405340 f   GroupsItem.obj
 0001:00004360       ??_EGroupsItem@@UAEPAXI@Z  00405360 f i GroupsItem.obj
 0001:00004360       ??_GGroupsItem@@UAEPAXI@Z  00405360 f i GroupsItem.obj
 0001:00004380       ??0TString@@QAE@PBD@Z      00405380 f i LoadConfig.obj
 0001:000043a0       ??4TString@@QAEABV0@PBD@Z  004053a0 f i LoadConfig.obj
 0001:000043c0       ??_GTString@@UAEPAXI@Z     004053c0 f i LoadConfig.obj
 0001:000043c0       ??_ETString@@UAEPAXI@Z     004053c0 f i LoadConfig.obj
 0001:000043e0       ?SetProcess@Monitor@@QAEXPBD@Z 004053e0 f i LoadConfig.obj
 0001:00004400       ?SetEntityType@Monitor@@QAEXPBD@Z 00405400 f i LoadConfig.obj
 0001:00004420       ?GetParentID@Monitor@@QBE?AV?$basic_string@DU?$char_traits@D@std@@V?$allocator@D@2@@std@@XZ 00405420 f i LoadConfig.obj
 0001:00004460       ?SetTaskName@Monitor@@QAEXV?$basic_string@DU?$char_traits@D@std@@V?$allocator@D@2@@std@@@Z 00405460 f i LoadConfig.obj
 0001:000044b0       ??0LoadConfig@@QAE@XZ      004054b0 f   LoadConfig.obj
 0001:000044d0       ?LoadAll@LoadConfig@@QAEHXZ 004054d0 f   LoadConfig.obj
 0001:00004760       ?GetMonitorPro@LoadConfig@@AAEHPAVMonitor@@V?$basic_string@DU?$char_traits@D@std@@V?$allocator@D@2@@std@@@Z 00405760 f   LoadConfig.obj
 0001:00004df0       ?LoadCommonEntity@LoadConfig@@AAEHV?$basic_string@DU?$char_traits@D@std@@V?$allocator@D@2@@std@@AAV?$list@V?$basic_string@DU?$char_traits@D@std@@V?$allocator@D@2@@std@@V?$allocator@V?$basic_string@DU?$char_traits@D@std@@V?$allocator@D@2@@std@@@2@@3@@Z 00405df0 f   LoadConfig.obj
 0001:00004f50       ?GetReturnList@LoadConfig@@AAEHPAVMonitor@@H@Z 00405f50 f   LoadConfig.obj
 0001:000050d0       ?LoadSingleEntity@LoadConfig@@AAEXPAVEntity@@V?$basic_string@DU?$char_traits@D@std@@V?$allocator@D@2@@std@@@Z 004060d0 f   LoadConfig.obj
 0001:00005420       ?ClearBuffer@LoadConfig@@QAE_NXZ 00406420 f   LoadConfig.obj
 0001:00005470       ?CreateSingleEntity@LoadConfig@@QAEHPAVEntity@@V?$basic_string@DU?$char_traits@D@std@@V?$allocator@D@2@@std@@@Z 00406470 f   LoadConfig.obj
 0001:00005550       ?CreateSingleGroup@LoadConfig@@QAEHPAVGroupsItem@@V?$basic_string@DU?$char_traits@D@std@@V?$allocator@D@2@@std@@@Z 00406550 f   LoadConfig.obj
 0001:00005770       ?LoadTaskPlan@LoadConfig@@QAE_NAAV?$hashtable@Vword@svutil@@PAVTask@@@svutil@@@Z 00406770 f   LoadConfig.obj
 0001:00005780       ??1LoadConfig@@UAE@XZ      00406780 f   LoadConfig.obj
 0001:00005840       ?GetStateCondition@LoadConfig@@AAEHPAVMonitor@@V?$basic_string@DU?$char_traits@D@std@@V?$allocator@D@2@@std@@@Z 00406840 f   LoadConfig.obj
 0001:00005db0       ?CreateSubsequent@LoadConfig@@QAEHPAVSubsequent@@@Z 00406db0 f   LoadConfig.obj
 0001:00005e00       ??_GLoadConfig@@UAEPAXI@Z  00406e00 f i LoadConfig.obj
 0001:00005e00       ??_ELoadConfig@@UAEPAXI@Z  00406e00 f i LoadConfig.obj
 0001:00005e20       ?_Buynode@?$list@V?$basic_string@DU?$char_traits@D@std@@V?$allocator@D@2@@std@@V?$allocator@V?$basic_string@DU?$char_traits@D@std@@V?$allocator@D@2@@std@@@2@@std@@IAEPAU_Node@?$_List_nod@V?$basic_string@DU?$char_traits@D@std@@V?$allocator@D@2@@std@@V?$allocator@V?$basic_string@DU?$char_traits@D@std@@V?$allocator@D@2@@std@@@2@@2@XZ 00406e20 f i LoadConfig.obj
 0001:00005e40       ?_Buynode@?$list@V?$basic_string@DU?$char_traits@D@std@@V?$allocator@D@2@@std@@V?$allocator@V?$basic_string@DU?$char_traits@D@std@@V?$allocator@D@2@@std@@@2@@std@@IAEPAU_Node@?$_List_nod@V?$basic_string@DU?$char_traits@D@std@@V?$allocator@D@2@@std@@V?$allocator@V?$basic_string@DU?$char_traits@D@std@@V?$allocator@D@2@@std@@@2@@2@PAU342@0ABV?$basic_string@DU?$char_traits@D@std@@V?$allocator@D@2@@2@@Z 00406e40 f i LoadConfig.obj
 0001:00005ed0       ?_Incsize@?$list@V?$basic_string@DU?$char_traits@D@std@@V?$allocator@D@2@@std@@V?$allocator@V?$basic_string@DU?$char_traits@D@std@@V?$allocator@D@2@@std@@@2@@std@@IAEXI@Z 00406ed0 f i LoadConfig.obj
 0001:00005f70       ?_Buynode@?$list@PAVMonitor@@V?$allocator@PAVMonitor@@@std@@@std@@IAEPAU_Node@?$_List_nod@PAVMonitor@@V?$allocator@PAVMonitor@@@std@@@2@PAU342@0ABQAVMonitor@@@Z 00406f70 f i LoadConfig.obj
 0001:00005f70       ?_Buynode@?$list@PAVReturnData@@V?$allocator@PAVReturnData@@@std@@@std@@IAEPAU_Node@?$_List_nod@PAVReturnData@@V?$allocator@PAVReturnData@@@std@@@2@PAU342@0ABQAVReturnData@@@Z 00406f70 f i Monitor.obj
 0001:00005f70       ?_Buynode@?$list@PAVSubsequentItem@@V?$allocator@PAVSubsequentItem@@@std@@@std@@IAEPAU_Node@?$_List_nod@PAVSubsequentItem@@V?$allocator@PAVSubsequentItem@@@std@@@2@PAU342@0ABQAVSubsequentItem@@@Z 00406f70 f i readSVDB.obj
 0001:00005f70       ?_Buynode@?$list@PAVEntity@@V?$allocator@PAVEntity@@@std@@@std@@IAEPAU_Node@?$_List_nod@PAVEntity@@V?$allocator@PAVEntity@@@std@@@2@PAU342@0ABQAVEntity@@@Z 00406f70 f i Groups.obj
 0001:00005f70       ?_Buynode@?$list@PAVThreadEx@@V?$allocator@PAVThreadEx@@@std@@@std@@IAEPAU_Node@?$_List_nod@PAVThreadEx@@V?$allocator@PAVThreadEx@@@std@@@2@PAU342@0ABQAVThreadEx@@@Z 00406f70 f i ThreadContrl.obj
 0001:00005f70       ?_Buynode@?$list@PAVGroupsItem@@V?$allocator@PAVGroupsItem@@@std@@@std@@IAEPAU_Node@?$_List_nod@PAVGroupsItem@@V?$allocator@PAVGroupsItem@@@std@@@2@PAU342@0ABQAVGroupsItem@@@Z 00406f70 f i Groups.obj
 0001:00005f70       ?_Buynode@?$list@PAVStateConditionItem@@V?$allocator@PAVStateConditionItem@@@std@@@std@@IAEPAU_Node@?$_List_nod@PAVStateConditionItem@@V?$allocator@PAVStateConditionItem@@@std@@@2@PAU342@0ABQAVStateConditionItem@@@Z 00406f70 f i Monitor.obj
 0001:00005f70       ?_Buynode@?$list@PAVReturnValue@@V?$allocator@PAVReturnValue@@@std@@@std@@IAEPAU_Node@?$_List_nod@PAVReturnValue@@V?$allocator@PAVReturnValue@@@std@@@2@PAU342@0ABQAVReturnValue@@@Z 00406f70 f i MonitorThread.obj
 0001:00005fa0       ?_Incsize@?$list@PAVMonitor@@V?$allocator@PAVMonitor@@@std@@@std@@IAEXI@Z 00406fa0 f i LoadConfig.obj
 0001:00006040       ??0?$list@V?$basic_string@DU?$char_traits@D@std@@V?$allocator@D@2@@std@@V?$allocator@V?$basic_string@DU?$char_traits@D@std@@V?$allocator@D@2@@std@@@2@@std@@QAE@XZ 00407040 f i LoadConfig.obj
 0001:00006060       ?push_back@?$list@V?$basic_string@DU?$char_traits@D@std@@V?$allocator@D@2@@std@@V?$allocator@V?$basic_string@DU?$char_traits@D@std@@V?$allocator@D@2@@std@@@2@@std@@QAEXABV?$basic_string@DU?$char_traits@D@std@@V?$allocator@D@2@@2@@Z 00407060 f i LoadConfig.obj
 0001:000060a0       ?GetParamList@LoadConfig@@AAEHPAVMonitor@@V?$basic_string@DU?$char_traits@D@std@@V?$allocator@D@2@@std@@1@Z 004070a0 f   LoadConfig.obj
 0001:00006c40       ?CreateSingleMonitor@LoadConfig@@QAEHPAVMonitor@@V?$basic_string@DU?$char_traits@D@std@@V?$allocator@D@2@@std@@@Z 00407c40 f   LoadConfig.obj
 0001:00006d80       ??1?$list@VSingelRecord@@V?$allocator@VSingelRecord@@@std@@@std@@QAE@XZ 00407d80 f i appendmassrecord.obj
 0001:00006d80       ??1?$list@V?$basic_string@DU?$char_traits@D@std@@V?$allocator@D@2@@std@@V?$allocator@V?$basic_string@DU?$char_traits@D@std@@V?$allocator@D@2@@std@@@2@@std@@QAE@XZ 00407d80 f i LoadConfig.obj
 0001:00006da0       ?CreateMonitors@LoadConfig@@QAEHAAV?$list@PAVMonitor@@V?$allocator@PAVMonitor@@@std@@@std@@@Z 00407da0 f   LoadConfig.obj
 0001:00007070       ?LoadEntitys@LoadConfig@@AAEXAAV?$list@PAVEntity@@V?$allocator@PAVEntity@@@std@@@std@@@Z 00408070 f   LoadConfig.obj
 0001:000072c0       ?LoadGroups@LoadConfig@@AAEXAAV?$list@PAVGroupsItem@@V?$allocator@PAVGroupsItem@@@std@@@std@@@Z 004082c0 f   LoadConfig.obj
 0001:00007680       ?CreateGroups@LoadConfig@@QAEHPAVGroups@@@Z 00408680 f   LoadConfig.obj
 0001:000076e0       ?GetCurrentTimeEx@TTime@svutil@@SA?AV12@XZ 004086e0 f i MakeRecord.obj
 0001:00007710       ?buildbuffer@MakeRecord@@AAEPADMPADH@Z 00408710 f   MakeRecord.obj
 0001:00007740       ?buildbuffer@MakeRecord@@AAEPADV?$basic_string@DU?$char_traits@D@std@@V?$allocator@D@2@@std@@PADH@Z 00408740 f   MakeRecord.obj
 0001:000077e0       ??0MakeRecord@@QAE@PADHH@Z 004087e0 f   MakeRecord.obj
 0001:00007820       ?MakeBuf@MakeRecord@@QAE_NPAVReturnValue@@@Z 00408820 f   MakeRecord.obj
 0001:00007970       ?MakeError@MakeRecord@@QAE_NHV?$basic_string@DU?$char_traits@D@std@@V?$allocator@D@2@@std@@@Z 00408970 f   MakeRecord.obj
 0001:00007a30       ??0TTime@svutil@@QAE@HHHHHHH@Z 00408a30 f i Monitor.obj
 0001:00007b00       ?CalculateNextRunTime@Monitor@@QAE_NVTTime@svutil@@@Z 00408b00 f   Monitor.obj
 0001:00007b20       ?CalculateNextRunTime@Monitor@@QAE_NXZ 00408b20 f   Monitor.obj
 0001:00007ba0       ?CalculateErrorFrequency@Monitor@@QAEX_N@Z 00408ba0 f   Monitor.obj
 0001:00007bf0       ?_Incsize@?$list@PAVStateConditionItem@@V?$allocator@PAVStateConditionItem@@@std@@@std@@IAEXI@Z 00408bf0 f i Monitor.obj
 0001:00007bf0       ?_Incsize@?$list@PAVReturnData@@V?$allocator@PAVReturnData@@@std@@@std@@IAEXI@Z 00408bf0 f i Monitor.obj
 0001:00007c90       ?push_back@?$list@PAVReturnData@@V?$allocator@PAVReturnData@@@std@@@std@@QAEXABQAVReturnData@@@Z 00408c90 f i Monitor.obj
 0001:00007c90       ?push_back@?$list@PAVStateConditionItem@@V?$allocator@PAVStateConditionItem@@@std@@@std@@QAEXABQAVStateConditionItem@@@Z 00408c90 f i Monitor.obj
 0001:00007cd0       ?FromTextMap@Monitor@@QAEHAAV?$hashtable@Vword@svutil@@V12@@svutil@@@Z 00408cd0 f   Monitor.obj
 0001:00009640       ??0Monitor@@QAE@XZ         0040a640 f   Monitor.obj
 0001:000097a0       ??1Monitor@@UAE@XZ         0040a7a0 f   Monitor.obj
 0001:00009970       ??_GMonitor@@UAEPAXI@Z     0040a970 f i Monitor.obj
 0001:00009970       ??_EMonitor@@UAEPAXI@Z     0040a970 f i Monitor.obj
 0001:00009990       ?ToTextMap@Monitor@@QAEHAAV?$hashtable@Vword@svutil@@V12@@svutil@@@Z 0040a990 f   Monitor.obj
 0001:0000ae50       ??0TString@@QAE@ABV0@@Z    0040be50 f i MonitorSchedule.obj
 0001:0000aeb0       ?Replace@TString@@QAEHPBD0@Z 0040beb0 f i MonitorSchedule.obj
 0001:0000af50       ?Format@TTime@svutil@@QBE?AV?$basic_string@DU?$char_traits@D@std@@V?$allocator@D@2@@std@@XZ 0040bf50 f i MonitorSchedule.obj
 0001:0000afe0       ?GetMonitorClass@Monitor@@QAE?AVTString@@XZ 0040bfe0 f i MonitorSchedule.obj
 0001:0000b010       ?GetSEID@Monitor@@QBE?AV?$basic_string@DU?$char_traits@D@std@@V?$allocator@D@2@@std@@XZ 0040c010 f i MonitorSchedule.obj
 0001:0000b050       ?Run@@YAXXZ                0040c050 f   MonitorSchedule.obj
 0001:0000b1c0       ?CheckReturnLen@@YAHPBD@Z  0040c1c0 f   MonitorSchedule.obj
 0001:0000b1f0       ?Run_ProcessMonitor@@YAXV?$basic_string@DU?$char_traits@D@std@@V?$allocator@D@2@@std@@@Z 0040c1f0 f   MonitorSchedule.obj
 0001:0000b690       ?_Xlen@?$vector@PAV?$hashnode@Vword@svutil@@PAVTask@@@svutil@@V?$allocator@PAV?$hashnode@Vword@svutil@@PAVTask@@@svutil@@@std@@@std@@IBEXXZ 0040c690 f i MonitorSchedule.obj
 0001:0000b710       ?CountNodes@?$sorttree@V?$hashelement@Vword@svutil@@PAVTask@@@svutil@@@svutil@@AAEXPAV?$treenode@V?$hashelement@Vword@svutil@@PAVTask@@@svutil@@@2@AAK@Z 0040c710 f i MonitorSchedule.obj
 0001:0000b740       ??GTTime@svutil@@QBE?AVTTimeSpan@1@V01@@Z 0040c740 f i MonitorSchedule.obj
 0001:0000b760       ?DeleteTree@?$sorttree@V?$hashelement@Vword@svutil@@PAVTask@@@svutil@@@svutil@@QAEXPAV?$treenode@V?$hashelement@Vword@svutil@@PAVTask@@@svutil@@@2@@Z 0040c760 f i MonitorSchedule.obj
 0001:0000b7b0       ?findnextnode@?$sorttree@V?$hashelement@Vword@svutil@@PAVTask@@@svutil@@@svutil@@ABEPAV?$treenode@V?$hashelement@Vword@svutil@@PAVTask@@@svutil@@@2@AAV?$hashelement@Vword@svutil@@PAVTask@@@2@AA_NPAV32@@Z 0040c7b0 f i MonitorSchedule.obj
 0001:0000b820       ??_E?$sorttree@V?$hashelement@Vword@svutil@@PAVTask@@@svutil@@@svutil@@UAEPAXI@Z 0040c820 f i MonitorSchedule.obj
 0001:0000b820       ??_G?$sorttree@V?$hashelement@Vword@svutil@@PAVTask@@@svutil@@@svutil@@UAEPAXI@Z 0040c820 f i MonitorSchedule.obj
 0001:0000b880       ??1?$hashnode@Vword@svutil@@PAVTask@@@svutil@@QAE@XZ 0040c880 f i MonitorSchedule.obj
 0001:0000b910       ?push_back@?$list@PAVMonitor@@V?$allocator@PAVMonitor@@@std@@@std@@QAEXABQAVMonitor@@@Z 0040c910 f i MonitorSchedule.obj
 0001:0000b950       ?clearnodes@?$hashtable@Vword@svutil@@PAVTask@@@svutil@@IAEXXZ 0040c950 f i MonitorSchedule.obj
 0001:0000b9c0       ??1?$vector@PAV?$hashnode@Vword@svutil@@PAVTask@@@svutil@@V?$allocator@PAV?$hashnode@Vword@svutil@@PAVTask@@@svutil@@@std@@@std@@QAE@XZ 0040c9c0 f i MonitorSchedule.obj
 0001:0000b9c0       ??1?$vector@PAV?$hashnode@Vword@svutil@@V12@@svutil@@V?$allocator@PAV?$hashnode@Vword@svutil@@V12@@svutil@@@std@@@std@@QAE@XZ 0040c9c0 f i MonitorThread.obj
 0001:0000b9c0       ??1TaskWeekDay@@QAE@XZ     0040c9c0 f i Task.obj
 0001:0000b9c0       ??1?$vector@U?$pair@HH@std@@V?$allocator@U?$pair@HH@std@@@2@@std@@QAE@XZ 0040c9c0 f i readSVDB.obj
 0001:0000b9f0       ?findnext@?$hashnode@Vword@svutil@@PAVTask@@@svutil@@QAE_NAAV?$hashelement@Vword@svutil@@PAVTask@@@2@PAPAV32@@Z 0040c9f0 f i MonitorSchedule.obj
 0001:0000baa0       ?_Insert_n@?$vector@PAV?$hashnode@Vword@svutil@@PAVTask@@@svutil@@V?$allocator@PAV?$hashnode@Vword@svutil@@PAVTask@@@svutil@@@std@@@std@@IAEXViterator@12@IABQAV?$hashnode@Vword@svutil@@PAVTask@@@svutil@@@Z 0040caa0 f i MonitorSchedule.obj
 0001:0000bc90       ?GetMonitorListByFile@@YAHAAV?$list@PAVMonitor@@V?$allocator@PAVMonitor@@@std@@@std@@PBD@Z 0040cc90 f   MonitorSchedule.obj
 0001:0000bf80       ?MakeMonitorListByBuf@@YA_NAAV?$list@PAVMonitor@@V?$allocator@PAVMonitor@@@std@@@std@@PBD@Z 0040cf80 f   MonitorSchedule.obj
 0001:0000c140       ?GetMonitorListByPipe@@YA_NAAV?$list@PAVMonitor@@V?$allocator@PAVMonitor@@@std@@@std@@V?$basic_string@DU?$char_traits@D@std@@V?$allocator@D@2@@2@11@Z 0040d140 f   MonitorSchedule.obj
 0001:0000c380       ??1?$hashtable@Vword@svutil@@PAVTask@@@svutil@@QAE@XZ 0040d380 f i MonitorSchedule.obj
 0001:0000c3e0       ?findnext@?$hashtable@Vword@svutil@@PAVTask@@@svutil@@QAE_NAAViterator@12@@Z 0040d3e0 f i MonitorSchedule.obj
 0001:0000c480       ?resize@?$vector@PAV?$hashnode@Vword@svutil@@PAVTask@@@svutil@@V?$allocator@PAV?$hashnode@Vword@svutil@@PAVTask@@@svutil@@@std@@@std@@QAEXIPAV?$hashnode@Vword@svutil@@PAVTask@@@svutil@@@Z 0040d480 f i MonitorSchedule.obj
 0001:0000c510       ??0?$hashtable@Vword@svutil@@PAVTask@@@svutil@@QAE@XZ 0040d510 f i MonitorSchedule.obj
 0001:0000c560       _main                      0040d560 f   MonitorSchedule.obj
 0001:0000d030       ??_Eout_of_range@std@@UAEPAXI@Z 0040e030 f i MonitorSchMain.obj
 0001:0000d030       ??_Gout_of_range@std@@UAEPAXI@Z 0040e030 f i MonitorSchMain.obj
 0001:0000d050       ??1out_of_range@std@@UAE@XZ 0040e050 f i MonitorSchMain.obj
 0001:0000d060       ??1sv_dyn@@QAE@XZ          0040e060 f i MonitorSchMain.obj
 0001:0000d070       ?GetLastState@Monitor@@QAEHXZ 0040e070 f i MonitorSchMain.obj
 0001:0000d140       ?GetNextRunTime@Monitor@@QAE?AVTTime@svutil@@XZ 0040e140 f i MonitorSchMain.obj
 0001:0000d150       ?GetTaskName@Monitor@@QAE?AV?$basic_string@DU?$char_traits@D@std@@V?$allocator@D@2@@std@@XZ 0040e150 f i MonitorSchMain.obj
 0001:0000d180       ?GetParentID@Entity@@QBE?AV?$basic_string@DU?$char_traits@D@std@@V?$allocator@D@2@@std@@XZ 0040e180 f i MonitorSchMain.obj
 0001:0000d1c0       ?CopyTempData@Entity@@QAE_NPBV1@@Z 0040e1c0 f i MonitorSchMain.obj
 0001:0000d2a0       ?Start@ThreadEx@@QAEHXZ    0040e2a0 f i MonitorSchMain.obj
 0001:0000d2c0       ??_GCommunicationThread@@UAEPAXI@Z 0040e2c0 f i MonitorSchMain.obj
 0001:0000d2c0       ??_ECommunicationThread@@UAEPAXI@Z 0040e2c0 f i MonitorSchMain.obj
 0001:0000d2e0       ??_EScheduleThread@@UAEPAXI@Z 0040e2e0 f i MonitorSchMain.obj
 0001:0000d2e0       ??_GScheduleThread@@UAEPAXI@Z 0040e2e0 f i MonitorSchMain.obj
 0001:0000d300       ??0SerialData@@QAE@V?$basic_string@DU?$char_traits@D@std@@V?$allocator@D@2@@std@@@Z 0040e300 f i MonitorSchMain.obj
 0001:0000d370       ?Run@MonitorSchMain@@QAEXXZ 0040e370 f   MonitorSchMain.obj
 0001:0000d380       ?GetMonitorList@MonitorSchMain@@QAEAAV?$list@PAVMonitor@@V?$allocator@PAVMonitor@@@std@@@std@@XZ 0040e380 f   MonitorSchMain.obj
 0001:0000d390       ?ParseOpt@MonitorSchMain@@KA_NV?$basic_string@DU?$char_traits@D@std@@V?$allocator@D@2@@std@@AAV23@1@Z 0040e390 f   MonitorSchMain.obj
 0001:0000d4a0       ?LoadPreLibrary@MonitorSchMain@@QAE_NXZ 0040e4a0 f   MonitorSchMain.obj
 0001:0000d640       ??0?$hashelement@Vword@svutil@@PAVTask@@@svutil@@QAE@ABVword@1@@Z 0040e640 f i MonitorSchMain.obj
 0001:0000d6a0       ?_Max@?$_Tree@V?$_Tmap_traits@V?$basic_string@DU?$char_traits@D@std@@V?$allocator@D@2@@std@@V?$map@V?$basic_string@DU?$char_traits@D@std@@V?$allocator@D@2@@std@@V12@UStlIniCompareStringNoCase@@V?$allocator@U?$pair@$$CBV?$basic_string@DU?$char_traits@D@std@@V?$allocator@D@2@@std@@V12@@std@@@2@@2@UStlIniCompareStringNoCase@@V?$allocator@U?$pair@$$CBV?$basic_string@DU?$char_traits@D@std@@V?$allocator@D@2@@std@@V?$map@V?$basic_string@DU?$char_traits@D@std@@V?$allocator@D@2@@std@@V12@UStlIniCompareStringNoCase@@V?$allocator@U?$pair@$$CBV?$basic_string@DU?$char_traits@D@std@@V?$allocator@D@2@@std@@V12@@std@@@2@@2@@std@@@2@$0A@@std@@@std@@KAPAU_Node@?$_Tree_nod@V?$_Tmap_traits@V?$basic_string@DU?$char_traits@D@std@@V?$allocator@D@2@@std@@V?$map@V?$basic_string@DU?$char_traits@D@std@@V?$allocator@D@2@@std@@V12@UStlIniCompareStringNoCase@@V?$allocator@U?$pair@$$CBV?$basic_string@DU?$char_traits@D@std@@V?$allocator@D@2@@std@@V12@@std@@@2@@2@UStlIniCompareStringNoCase@@V?$allocator@U?$pair@$$CBV?$basic_string@DU?$char_traits@D@std@@V?$allocator@D@2@@std@@V?$map@V?$basic_string@DU?$char_traits@D@std@@V?$allocator@D@2@@std@@V12@UStlIniCompareStringNoCase@@V?$allocator@U?$pair@$$CBV?$basic_string@DU?$char_traits@D@std@@V?$allocator@D@2@@std@@V12@@std@@@2@@2@@std@@@2@$0A@@std@@@2@PAU342@@Z 0040e6a0 f i MonitorSchMain.obj
 0001:0000d6c0       ?_Min@?$_Tree@V?$_Tmap_traits@V?$basic_string@DU?$char_traits@D@std@@V?$allocator@D@2@@std@@V?$map@V?$basic_string@DU?$char_traits@D@std@@V?$allocator@D@2@@std@@V12@UStlIniCompareStringNoCase@@V?$allocator@U?$pair@$$CBV?$basic_string@DU?$char_traits@D@std@@V?$allocator@D@2@@std@@V12@@std@@@2@@2@UStlIniCompareStringNoCase@@V?$allocator@U?$pair@$$CBV?$basic_string@DU?$char_traits@D@std@@V?$allocator@D@2@@std@@V?$map@V?$basic_string@DU?$char_traits@D@std@@V?$allocator@D@2@@std@@V12@UStlIniCompareStringNoCase@@V?$allocator@U?$pair@$$CBV?$basic_string@DU?$char_traits@D@std@@V?$allocator@D@2@@std@@V12@@std@@@2@@2@@std@@@2@$0A@@std@@@std@@KAPAU_Node@?$_Tree_nod@V?$_Tmap_traits@V?$basic_string@DU?$char_traits@D@std@@V?$allocator@D@2@@std@@V?$map@V?$basic_string@DU?$char_traits@D@std@@V?$allocator@D@2@@std@@V12@UStlIniCompareStringNoCase@@V?$allocator@U?$pair@$$CBV?$basic_string@DU?$char_traits@D@std@@V?$allocator@D@2@@std@@V12@@std@@@2@@2@UStlIniCompareStringNoCase@@V?$allocator@U?$pair@$$CBV?$basic_string@DU?$char_traits@D@std@@V?$allocator@D@2@@std@@V?$map@V?$basic_string@DU?$char_traits@D@std@@V?$allocator@D@2@@std@@V12@UStlIniCompareStringNoCase@@V?$allocator@U?$pair@$$CBV?$basic_string@DU?$char_traits@D@std@@V?$allocator@D@2@@std@@V12@@std@@@2@@2@@std@@@2@$0A@@std@@@2@PAU342@@Z 0040e6c0 f i MonitorSchMain.obj
 0001:0000d6e0       ?_Rrotate@?$_Tree@V?$_Tmap_traits@V?$basic_string@DU?$char_traits@D@std@@V?$allocator@D@2@@std@@V?$map@V?$basic_string@DU?$char_traits@D@std@@V?$allocator@D@2@@std@@V12@UStlIniCompareStringNoCase@@V?$allocator@U?$pair@$$CBV?$basic_string@DU?$char_traits@D@std@@V?$allocator@D@2@@std@@V12@@std@@@2@@2@UStlIniCompareStringNoCase@@V?$allocator@U?$pair@$$CBV?$basic_string@DU?$char_traits@D@std@@V?$allocator@D@2@@std@@V?$map@V?$basic_string@DU?$char_traits@D@std@@V?$allocator@D@2@@std@@V12@UStlIniCompareStringNoCase@@V?$allocator@U?$pair@$$CBV?$basic_string@DU?$char_traits@D@std@@V?$allocator@D@2@@std@@V12@@std@@@2@@2@@std@@@2@$0A@@std@@@std@@IAEXPAU_Node@?$_Tree_nod@V?$_Tmap_traits@V?$basic_string@DU?$char_traits@D@std@@V?$allocator@D@2@@std@@V?$map@V?$basic_string@DU?$char_traits@D@std@@V?$allocator@D@2@@std@@V12@UStlIniCompareStringNoCase@@V?$allocator@U?$pair@$$CBV?$basic_string@DU?$char_traits@D@std@@V?$allocator@D@2@@std@@V12@@std@@@2@@2@UStlIniCompareStringNoCase@@V?$allocator@U?$pair@$$CBV?$basic_string@DU?$char_traits@D@std@@V?$allocator@D@2@@std@@V?$map@V?$basic_string@DU?$char_traits@D@std@@V?$allocator@D@2@@std@@V12@UStlIniCompareStringNoCase@@V?$allocator@U?$pair@$$CBV?$basic_string@DU?$char_traits@D@std@@V?$allocator@D@2@@std@@V12@@std@@@2@@2@@std@@@2@$0A@@std@@@2@@Z 0040e6e0 f i MonitorSchMain.obj
 0001:0000d740       ?_Inc@const_iterator@?$_Tree@V?$_Tmap_traits@V?$basic_string@DU?$char_traits@D@std@@V?$allocator@D@2@@std@@V?$map@V?$basic_string@DU?$char_traits@D@std@@V?$allocator@D@2@@std@@V12@UStlIniCompareStringNoCase@@V?$allocator@U?$pair@$$CBV?$basic_string@DU?$char_traits@D@std@@V?$allocator@D@2@@std@@V12@@std@@@2@@2@UStlIniCompareStringNoCase@@V?$allocator@U?$pair@$$CBV?$basic_string@DU?$char_traits@D@std@@V?$allocator@D@2@@std@@V?$map@V?$basic_string@DU?$char_traits@D@std@@V?$allocator@D@2@@std@@V12@UStlIniCompareStringNoCase@@V?$allocator@U?$pair@$$CBV?$basic_string@DU?$char_traits@D@std@@V?$allocator@D@2@@std@@V12@@std@@@2@@2@@std@@@2@$0A@@std@@@std@@QAEXXZ 0040e740 f i MonitorSchMain.obj
 0001:0000d7a0       ?_Max@?$_Tree@V?$_Tmap_traits@V?$basic_string@DU?$char_traits@D@std@@V?$allocator@D@2@@std@@V12@UStlIniCompareStringNoCase@@V?$allocator@U?$pair@$$CBV?$basic_string@DU?$char_traits@D@std@@V?$allocator@D@2@@std@@V12@@std@@@2@$0A@@std@@@std@@KAPAU_Node@?$_Tree_nod@V?$_Tmap_traits@V?$basic_string@DU?$char_traits@D@std@@V?$allocator@D@2@@std@@V12@UStlIniCompareStringNoCase@@V?$allocator@U?$pair@$$CBV?$basic_string@DU?$char_traits@D@std@@V?$allocator@D@2@@std@@V12@@std@@@2@$0A@@std@@@2@PAU342@@Z 0040e7a0 f i MonitorSchMain.obj
 0001:0000d7c0       ?_Min@?$_Tree@V?$_Tmap_traits@V?$basic_string@DU?$char_traits@D@std@@V?$allocator@D@2@@std@@V12@UStlIniCompareStringNoCase@@V?$allocator@U?$pair@$$CBV?$basic_string@DU?$char_traits@D@std@@V?$allocator@D@2@@std@@V12@@std@@@2@$0A@@std@@@std@@KAPAU_Node@?$_Tree_nod@V?$_Tmap_traits@V?$basic_string@DU?$char_traits@D@std@@V?$allocator@D@2@@std@@V12@UStlIniCompareStringNoCase@@V?$allocator@U?$pair@$$CBV?$basic_string@DU?$char_traits@D@std@@V?$allocator@D@2@@std@@V12@@std@@@2@$0A@@std@@@2@PAU342@@Z 0040e7c0 f i MonitorSchMain.obj
 0001:0000d7e0       ?_Rrotate@?$_Tree@V?$_Tmap_traits@V?$basic_string@DU?$char_traits@D@std@@V?$allocator@D@2@@std@@V12@UStlIniCompareStringNoCase@@V?$allocator@U?$pair@$$CBV?$basic_string@DU?$char_traits@D@std@@V?$allocator@D@2@@std@@V12@@std@@@2@$0A@@std@@@std@@IAEXPAU_Node@?$_Tree_nod@V?$_Tmap_traits@V?$basic_string@DU?$char_traits@D@std@@V?$allocator@D@2@@std@@V12@UStlIniCompareStringNoCase@@V?$allocator@U?$pair@$$CBV?$basic_string@DU?$char_traits@D@std@@V?$allocator@D@2@@std@@V12@@std@@@2@$0A@@std@@@2@@Z 0040e7e0 f i MonitorSchMain.obj
 0001:0000d840       ?_Inc@const_iterator@?$_Tree@V?$_Tmap_traits@V?$basic_string@DU?$char_traits@D@std@@V?$allocator@D@2@@std@@V12@UStlIniCompareStringNoCase@@V?$allocator@U?$pair@$$CBV?$basic_string@DU?$char_traits@D@std@@V?$allocator@D@2@@std@@V12@@std@@@2@$0A@@std@@@std@@QAEXXZ 0040e840 f i MonitorSchMain.obj
 0001:0000d8a0       ??1?$pair@$$CBV?$basic_string@DU?$char_traits@D@std@@V?$allocator@D@2@@std@@V12@@std@@QAE@XZ 0040e8a0 f i MonitorSchMain.obj
 0001:0000d8f0       ?SerialMonitorData@MonitorSchMain@@QAE_N_N@Z 0040e8f0 f   MonitorSchMain.obj
 0001:0000da10       ?findnode@?$sorttree@V?$hashelement@Vword@svutil@@PAVTask@@@svutil@@@svutil@@QAEPAV?$treenode@V?$hashelement@Vword@svutil@@PAVTask@@@svutil@@@2@ABV?$hashelement@Vword@svutil@@PAVTask@@@2@PAV32@@Z 0040ea10 f i MonitorSchMain.obj
 0001:0000da80       ?_Lrotate@?$_Tree@V?$_Tmap_traits@V?$basic_string@DU?$char_traits@D@std@@V?$allocator@D@2@@std@@V?$map@V?$basic_string@DU?$char_traits@D@std@@V?$allocator@D@2@@std@@V12@UStlIniCompareStringNoCase@@V?$allocator@U?$pair@$$CBV?$basic_string@DU?$char_traits@D@std@@V?$allocator@D@2@@std@@V12@@std@@@2@@2@UStlIniCompareStringNoCase@@V?$allocator@U?$pair@$$CBV?$basic_string@DU?$char_traits@D@std@@V?$allocator@D@2@@std@@V?$map@V?$basic_string@DU?$char_traits@D@std@@V?$allocator@D@2@@std@@V12@UStlIniCompareStringNoCase@@V?$allocator@U?$pair@$$CBV?$basic_string@DU?$char_traits@D@std@@V?$allocator@D@2@@std@@V12@@std@@@2@@2@@std@@@2@$0A@@std@@@std@@IAEXPAU_Node@?$_Tree_nod@V?$_Tmap_traits@V?$basic_string@DU?$char_traits@D@std@@V?$allocator@D@2@@std@@V?$map@V?$basic_string@DU?$char_traits@D@std@@V?$allocator@D@2@@std@@V12@UStlIniCompareStringNoCase@@V?$allocator@U?$pair@$$CBV?$basic_string@DU?$char_traits@D@std@@V?$allocator@D@2@@std@@V12@@std@@@2@@2@UStlIniCompareStringNoCase@@V?$allocator@U?$pair@$$CBV?$basic_string@DU?$char_traits@D@std@@V?$allocator@D@2@@std@@V?$map@V?$basic_string@DU?$char_traits@D@std@@V?$allocator@D@2@@std@@V12@UStlIniCompareStringNoCase@@V?$allocator@U?$pair@$$CBV?$basic_string@DU?$char_traits@D@std@@V?$allocator@D@2@@std@@V12@@std@@@2@@2@@std@@@2@$0A@@std@@@2@@Z 0040ea80 f i MonitorSchMain.obj
 0001:0000dae0       ?_Lrotate@?$_Tree@V?$_Tmap_traits@V?$basic_string@DU?$char_traits@D@std@@V?$allocator@D@2@@std@@V12@UStlIniCompareStringNoCase@@V?$allocator@U?$pair@$$CBV?$basic_string@DU?$char_traits@D@std@@V?$allocator@D@2@@std@@V12@@std@@@2@$0A@@std@@@std@@IAEXPAU_Node@?$_Tree_nod@V?$_Tmap_traits@V?$basic_string@DU?$char_traits@D@std@@V?$allocator@D@2@@std@@V12@UStlIniCompareStringNoCase@@V?$allocator@U?$pair@$$CBV?$basic_string@DU?$char_traits@D@std@@V?$allocator@D@2@@std@@V12@@std@@@2@$0A@@std@@@2@@Z 0040eae0 f i MonitorSchMain.obj
 0001:0000db40       ??1_Node@?$_Tree_nod@V?$_Tmap_traits@V?$basic_string@DU?$char_traits@D@std@@V?$allocator@D@2@@std@@V12@UStlIniCompareStringNoCase@@V?$allocator@U?$pair@$$CBV?$basic_string@DU?$char_traits@D@std@@V?$allocator@D@2@@std@@V12@@std@@@2@$0A@@std@@@std@@QAE@XZ 0040eb40 f i MonitorSchMain.obj
 0001:0000db50       ?Init@MonitorSchMain@@QAEHXZ 0040eb50 f   MonitorSchMain.obj
 0001:0000e040       ?find@?$hashnode@Vword@svutil@@PAVTask@@@svutil@@QAE_NABVword@2@PAPAV?$hashelement@Vword@svutil@@PAVTask@@@2@@Z 0040f040 f i MonitorSchMain.obj
 0001:0000e110       ?GetMonitorByID@MonitorSchMain@@QAEPAVMonitor@@PBD@Z 0040f110 f   MonitorSchMain.obj
 0001:0000e1a0       ?InitGroupDependByMonitorChangeV70@MonitorSchMain@@IAE_NPAVMonitor@@0_N@Z 0040f1a0 f   MonitorSchMain.obj
 0001:0000e210       ?EntityChangeV70@MonitorSchMain@@IAE_NPAVEntity@@0_N@Z 0040f210 f   MonitorSchMain.obj
 0001:0000e270       ?erase@?$list@PAVEntity@@V?$allocator@PAVEntity@@@std@@@std@@QAE?AViterator@12@V312@@Z 0040f270 f i MonitorSchMain.obj
 0001:0000e270       ?erase@?$list@PAVGroupsItem@@V?$allocator@PAVGroupsItem@@@std@@@std@@QAE?AViterator@12@V312@@Z 0040f270 f i MonitorSchMain.obj
 0001:0000e2b0       ?find@?$hashnode@Vword@svutil@@PAVTask@@@svutil@@QAE_NABVword@2@PAPAPAVTask@@@Z 0040f2b0 f i MonitorSchMain.obj
 0001:0000e310       ?CheckGroupDependState@MonitorSchMain@@QAEHPAVMonitor@@AAVTString@@@Z 0040f310 f   MonitorSchMain.obj
 0001:0000e670       ?DeleteMonitorV70@MonitorSchMain@@QAE_NV?$basic_string@DU?$char_traits@D@std@@V?$allocator@D@2@@std@@@Z 0040f670 f   MonitorSchMain.obj
 0001:0000e770       ?find@?$hashtable@Vword@svutil@@PAVTask@@@svutil@@QAEPAPAVTask@@ABVword@2@@Z 0040f770 f i MonitorSchMain.obj
 0001:0000e7e0       ?CheckTask@MonitorSchMain@@QAE_NPAVMonitor@@VTTime@svutil@@AA_N@Z 0040f7e0 f   MonitorSchMain.obj
 0001:0000eb30       ?AddMonitorV70@MonitorSchMain@@IAE_NV?$basic_string@DU?$char_traits@D@std@@V?$allocator@D@2@@std@@_N@Z 0040fb30 f   MonitorSchMain.obj
 0001:0000eea0       ?erase@?$_Tree@V?$_Tmap_traits@V?$basic_string@DU?$char_traits@D@std@@V?$allocator@D@2@@std@@V12@UStlIniCompareStringNoCase@@V?$allocator@U?$pair@$$CBV?$basic_string@DU?$char_traits@D@std@@V?$allocator@D@2@@std@@V12@@std@@@2@$0A@@std@@@std@@QAE?AViterator@12@V312@@Z 0040fea0 f i MonitorSchMain.obj
 0001:0000f1a0       ??0out_of_range@std@@QAE@ABV01@@Z 004101a0 f i MonitorSchMain.obj
 0001:0000f1c0       ?_Erase@?$_Tree@V?$_Tmap_traits@V?$basic_string@DU?$char_traits@D@std@@V?$allocator@D@2@@std@@V12@UStlIniCompareStringNoCase@@V?$allocator@U?$pair@$$CBV?$basic_string@DU?$char_traits@D@std@@V?$allocator@D@2@@std@@V12@@std@@@2@$0A@@std@@@std@@IAEXPAU_Node@?$_Tree_nod@V?$_Tmap_traits@V?$basic_string@DU?$char_traits@D@std@@V?$allocator@D@2@@std@@V12@UStlIniCompareStringNoCase@@V?$allocator@U?$pair@$$CBV?$basic_string@DU?$char_traits@D@std@@V?$allocator@D@2@@std@@V12@@std@@@2@$0A@@std@@@2@@Z 004101c0 f i MonitorSchMain.obj
 0001:0000f200       ??1MonitorSchMain@@UAE@XZ  00410200 f   MonitorSchMain.obj
 0001:0000f330       ?ReLoadTaskV70@MonitorSchMain@@IAE_NXZ 00410330 f   MonitorSchMain.obj
 0001:0000f400       ??0MonitorSchMain@@QAE@XZ  00410400 f   MonitorSchMain.obj
 0001:0000f4b0       ??_EMonitorSchMain@@UAEPAXI@Z 004104b0 f i MonitorSchMain.obj
 0001:0000f4b0       ??_GMonitorSchMain@@UAEPAXI@Z 004104b0 f i MonitorSchMain.obj
 0001:0000f4d0       ?ReLoadMonitorsV70@MonitorSchMain@@IAE_NV?$basic_string@DU?$char_traits@D@std@@V?$allocator@D@2@@std@@@Z 004104d0 f   MonitorSchMain.obj
 0001:0000f680       ?InitMonitorsGroupDependV70@MonitorSchMain@@IAE_NV?$basic_string@DU?$char_traits@D@std@@V?$allocator@D@2@@std@@@Z 00410680 f   MonitorSchMain.obj
 0001:0000f770       ?AddGroupV70@MonitorSchMain@@IAE_NV?$basic_string@DU?$char_traits@D@std@@V?$allocator@D@2@@std@@_N@Z 00410770 f   MonitorSchMain.obj
 0001:0000f9f0       ?erase@?$_Tree@V?$_Tmap_traits@V?$basic_string@DU?$char_traits@D@std@@V?$allocator@D@2@@std@@V12@UStlIniCompareStringNoCase@@V?$allocator@U?$pair@$$CBV?$basic_string@DU?$char_traits@D@std@@V?$allocator@D@2@@std@@V12@@std@@@2@$0A@@std@@@std@@QAE?AViterator@12@V312@0@Z 004109f0 f i MonitorSchMain.obj
 0001:0000fab0       ?AddEntityV70@MonitorSchMain@@IAE_NV?$basic_string@DU?$char_traits@D@std@@V?$allocator@D@2@@std@@_N@Z 00410ab0 f   MonitorSchMain.obj
 0001:0000fd60       ?ProcessConfigChange@MonitorSchMain@@QAE_NV?$basic_string@DU?$char_traits@D@std@@V?$allocator@D@2@@std@@0@Z 00410d60 f   MonitorSchMain.obj
 0001:000100f0       ?_Tidy@?$_Tree@V?$_Tmap_traits@V?$basic_string@DU?$char_traits@D@std@@V?$allocator@D@2@@std@@V12@UStlIniCompareStringNoCase@@V?$allocator@U?$pair@$$CBV?$basic_string@DU?$char_traits@D@std@@V?$allocator@D@2@@std@@V12@@std@@@2@$0A@@std@@@std@@IAEXXZ 004110f0 f i MonitorSchMain.obj
 0001:000100f0       ??1?$map@V?$basic_string@DU?$char_traits@D@std@@V?$allocator@D@2@@std@@V12@UStlIniCompareStringNoCase@@V?$allocator@U?$pair@$$CBV?$basic_string@DU?$char_traits@D@std@@V?$allocator@D@2@@std@@V12@@std@@@2@@std@@QAE@XZ 004110f0 f i MonitorSchMain.obj
 0001:00010120       ??1?$pair@$$CBV?$basic_string@DU?$char_traits@D@std@@V?$allocator@D@2@@std@@V?$map@V?$basic_string@DU?$char_traits@D@std@@V?$allocator@D@2@@std@@V12@UStlIniCompareStringNoCase@@V?$allocator@U?$pair@$$CBV?$basic_string@DU?$char_traits@D@std@@V?$allocator@D@2@@std@@V12@@std@@@2@@2@@std@@QAE@XZ 00411120 f i MonitorSchMain.obj
 0001:000101a0       ??1_Node@?$_Tree_nod@V?$_Tmap_traits@V?$basic_string@DU?$char_traits@D@std@@V?$allocator@D@2@@std@@V?$map@V?$basic_string@DU?$char_traits@D@std@@V?$allocator@D@2@@std@@V12@UStlIniCompareStringNoCase@@V?$allocator@U?$pair@$$CBV?$basic_string@DU?$char_traits@D@std@@V?$allocator@D@2@@std@@V12@@std@@@2@@2@UStlIniCompareStringNoCase@@V?$allocator@U?$pair@$$CBV?$basic_string@DU?$char_traits@D@std@@V?$allocator@D@2@@std@@V?$map@V?$basic_string@DU?$char_traits@D@std@@V?$allocator@D@2@@std@@V12@UStlIniCompareStringNoCase@@V?$allocator@U?$pair@$$CBV?$basic_string@DU?$char_traits@D@std@@V?$allocator@D@2@@std@@V12@@std@@@2@@2@@std@@@2@$0A@@std@@@std@@QAE@XZ 004111a0 f i MonitorSchMain.obj
 0001:000101b0       ?erase@?$_Tree@V?$_Tmap_traits@V?$basic_string@DU?$char_traits@D@std@@V?$allocator@D@2@@std@@V?$map@V?$basic_string@DU?$char_traits@D@std@@V?$allocator@D@2@@std@@V12@UStlIniCompareStringNoCase@@V?$allocator@U?$pair@$$CBV?$basic_string@DU?$char_traits@D@std@@V?$allocator@D@2@@std@@V12@@std@@@2@@2@UStlIniCompareStringNoCase@@V?$allocator@U?$pair@$$CBV?$basic_string@DU?$char_traits@D@std@@V?$allocator@D@2@@std@@V?$map@V?$basic_string@DU?$char_traits@D@std@@V?$allocator@D@2@@std@@V12@UStlIniCompareStringNoCase@@V?$allocator@U?$pair@$$CBV?$basic_string@DU?$char_traits@D@std@@V?$allocator@D@2@@std@@V12@@std@@@2@@2@@std@@@2@$0A@@std@@@std@@QAE?AViterator@12@V312@@Z 004111b0 f i MonitorSchMain.obj
 0001:00010490       ?_Erase@?$_Tree@V?$_Tmap_traits@V?$basic_string@DU?$char_traits@D@std@@V?$allocator@D@2@@std@@V?$map@V?$basic_string@DU?$char_traits@D@std@@V?$allocator@D@2@@std@@V12@UStlIniCompareStringNoCase@@V?$allocator@U?$pair@$$CBV?$basic_string@DU?$char_traits@D@std@@V?$allocator@D@2@@std@@V12@@std@@@2@@2@UStlIniCompareStringNoCase@@V?$allocator@U?$pair@$$CBV?$basic_string@DU?$char_traits@D@std@@V?$allocator@D@2@@std@@V?$map@V?$basic_string@DU?$char_traits@D@std@@V?$allocator@D@2@@std@@V12@UStlIniCompareStringNoCase@@V?$allocator@U?$pair@$$CBV?$basic_string@DU?$char_traits@D@std@@V?$allocator@D@2@@std@@V12@@std@@@2@@2@@std@@@2@$0A@@std@@@std@@IAEXPAU_Node@?$_Tree_nod@V?$_Tmap_traits@V?$basic_string@DU?$char_traits@D@std@@V?$allocator@D@2@@std@@V?$map@V?$basic_string@DU?$char_traits@D@std@@V?$allocator@D@2@@std@@V12@UStlIniCompareStringNoCase@@V?$allocator@U?$pair@$$CBV?$basic_string@DU?$char_traits@D@std@@V?$allocator@D@2@@std@@V12@@std@@@2@@2@UStlIniCompareStringNoCase@@V?$allocator@U?$pair@$$CBV?$basic_string@DU?$char_traits@D@std@@V?$allocator@D@2@@std@@V?$map@V?$basic_string@DU?$char_traits@D@std@@V?$allocator@D@2@@std@@V12@UStlIniCompareStringNoCase@@V?$allocator@U?$pair@$$CBV?$basic_string@DU?$char_traits@D@std@@V?$allocator@D@2@@std@@V12@@std@@@2@@2@@std@@@2@$0A@@std@@@2@@Z 00411490 f i MonitorSchMain.obj
 0001:000104d0       ?erase@?$_Tree@V?$_Tmap_traits@V?$basic_string@DU?$char_traits@D@std@@V?$allocator@D@2@@std@@V?$map@V?$basic_string@DU?$char_traits@D@std@@V?$allocator@D@2@@std@@V12@UStlIniCompareStringNoCase@@V?$allocator@U?$pair@$$CBV?$basic_string@DU?$char_traits@D@std@@V?$allocator@D@2@@std@@V12@@std@@@2@@2@UStlIniCompareStringNoCase@@V?$allocator@U?$pair@$$CBV?$basic_string@DU?$char_traits@D@std@@V?$allocator@D@2@@std@@V?$map@V?$basic_string@DU?$char_traits@D@std@@V?$allocator@D@2@@std@@V12@UStlIniCompareStringNoCase@@V?$allocator@U?$pair@$$CBV?$basic_string@DU?$char_traits@D@std@@V?$allocator@D@2@@std@@V12@@std@@@2@@2@@std@@@2@$0A@@std@@@std@@QAE?AViterator@12@V312@0@Z 004114d0 f i MonitorSchMain.obj
 0001:00010590       ?_Tidy@?$_Tree@V?$_Tmap_traits@V?$basic_string@DU?$char_traits@D@std@@V?$allocator@D@2@@std@@V?$map@V?$basic_string@DU?$char_traits@D@std@@V?$allocator@D@2@@std@@V12@UStlIniCompareStringNoCase@@V?$allocator@U?$pair@$$CBV?$basic_string@DU?$char_traits@D@std@@V?$allocator@D@2@@std@@V12@@std@@@2@@2@UStlIniCompareStringNoCase@@V?$allocator@U?$pair@$$CBV?$basic_string@DU?$char_traits@D@std@@V?$allocator@D@2@@std@@V?$map@V?$basic_string@DU?$char_traits@D@std@@V?$allocator@D@2@@std@@V12@UStlIniCompareStringNoCase@@V?$allocator@U?$pair@$$CBV?$basic_string@DU?$char_traits@D@std@@V?$allocator@D@2@@std@@V12@@std@@@2@@2@@std@@@2@$0A@@std@@@std@@IAEXXZ 00411590 f i MonitorSchMain.obj
 0001:00010590       ??1?$map@V?$basic_string@DU?$char_traits@D@std@@V?$allocator@D@2@@std@@V?$map@V?$basic_string@DU?$char_traits@D@std@@V?$allocator@D@2@@std@@V12@UStlIniCompareStringNoCase@@V?$allocator@U?$pair@$$CBV?$basic_string@DU?$char_traits@D@std@@V?$allocator@D@2@@std@@V12@@std@@@2@@2@UStlIniCompareStringNoCase@@V?$allocator@U?$pair@$$CBV?$basic_string@DU?$char_traits@D@std@@V?$allocator@D@2@@std@@V?$map@V?$basic_string@DU?$char_traits@D@std@@V?$allocator@D@2@@std@@V12@UStlIniCompareStringNoCase@@V?$allocator@U?$pair@$$CBV?$basic_string@DU?$char_traits@D@std@@V?$allocator@D@2@@std@@V12@@std@@@2@@2@@std@@@2@@std@@QAE@XZ 00411590 f i MonitorSchMain.obj
 0001:000105c0       ??0TString@@QAE@VString@ost@@@Z 004115c0 f i MonitorThread.obj
 0001:00010620       ?Mid@TString@@QAE?AV1@HH@Z 00411620 f i MonitorThread.obj
 0001:00010660       ??4TString@@QAEAAV0@AAV?$basic_string@DU?$char_traits@D@std@@V?$allocator@D@2@@std@@@Z 00411660 f i MonitorThread.obj
 0001:000106a0       ?GetLibrary@Monitor@@QAE?AVTString@@XZ 004116a0 f i MonitorThread.obj
 0001:000106c0       ?GetProcess@Monitor@@QAE?AVTString@@XZ 004116c0 f i MonitorThread.obj
 0001:000106e0       ?Judge@MonitorThread@@AAEHPBD00@Z 004116e0 f   MonitorThread.obj
 0001:00010900       ?ExecuteMonitor@MonitorThread@@QAEXPAVMonitor@@@Z 00411900 f   MonitorThread.obj
 0001:00010940       ?InitSocket@MonitorThread@@IAEHXZ 00411940 f   MonitorThread.obj
 0001:000109a0       ?RunInProcess@MonitorThread@@IAE_NHV?$basic_string@DU?$char_traits@D@std@@V?$allocator@D@2@@std@@0@Z 004119a0 f   MonitorThread.obj
 0001:00011340       ?size@?$vector@V?$basic_string@DU?$char_traits@D@std@@V?$allocator@D@2@@std@@V?$allocator@V?$basic_string@DU?$char_traits@D@std@@V?$allocator@D@2@@std@@@2@@std@@QBEIXZ 00412340 f i MonitorThread.obj
 0001:00011370       ?_Xlen@?$vector@V?$basic_string@DU?$char_traits@D@std@@V?$allocator@D@2@@std@@V?$allocator@V?$basic_string@DU?$char_traits@D@std@@V?$allocator@D@2@@std@@@2@@std@@IBEXXZ 00412370 f i MonitorThread.obj
 0001:000113f0       ?CountNodes@?$sorttree@V?$hashelement@Vword@svutil@@V12@@svutil@@@svutil@@AAEXPAV?$treenode@V?$hashelement@Vword@svutil@@V12@@svutil@@@2@AAK@Z 004123f0 f i MonitorThread.obj
 0001:00011420       ??$fill@PAV?$basic_string@DU?$char_traits@D@std@@V?$allocator@D@2@@std@@V12@@std@@YAXPAV?$basic_string@DU?$char_traits@D@std@@V?$allocator@D@2@@0@0ABV10@@Z 00412420 f i MonitorThread.obj
 0001:00011450       ??$_Copy_backward_opt@PAV?$basic_string@DU?$char_traits@D@std@@V?$allocator@D@2@@std@@PAV12@@std@@YAPAV?$basic_string@DU?$char_traits@D@std@@V?$allocator@D@2@@0@PAV10@00U_Nonscalar_ptr_iterator_tag@0@@Z 00412450 f i MonitorThread.obj
 0001:00011490       ?findnextnode@?$sorttree@V?$hashelement@Vword@svutil@@V12@@svutil@@@svutil@@ABEPAV?$treenode@V?$hashelement@Vword@svutil@@V12@@svutil@@@2@AAV?$hashelement@Vword@svutil@@V12@@2@AA_NPAV32@@Z 00412490 f i MonitorThread.obj
 0001:00011500       ??$_Uninit_copy@PAV?$basic_string@DU?$char_traits@D@std@@V?$allocator@D@2@@std@@PAV12@V?$allocator@V?$basic_string@DU?$char_traits@D@std@@V?$allocator@D@2@@std@@@2@@std@@YAPAV?$basic_string@DU?$char_traits@D@std@@V?$allocator@D@2@@0@PAV10@00AAV?$allocator@V?$basic_string@DU?$char_traits@D@std@@V?$allocator@D@2@@std@@@0@U_Nonscalar_ptr_iterator_tag@0@@Z 00412500 f i MonitorThread.obj
 0001:00011590       ?clear@?$list@PAVReturnValue@@V?$allocator@PAVReturnValue@@@std@@@std@@QAEXXZ 00412590 f i MonitorThread.obj
 0001:00011590       ?clear@?$list@PAVMonitor@@V?$allocator@PAVMonitor@@@std@@@std@@QAEXXZ 00412590 f i MonitorSchedule.obj
 0001:00011590       ?clear@?$list@PAUtmsg@@V?$allocator@PAUtmsg@@@std@@@std@@QAEXXZ 00412590 f i MSGQueue.obj
 0001:00011590       ?clear@?$list@PAVEntity@@V?$allocator@PAVEntity@@@std@@@std@@QAEXXZ 00412590 f i Groups.obj
 0001:00011590       ?clear@?$list@PAVReturnData@@V?$allocator@PAVReturnData@@@std@@@std@@QAEXXZ 00412590 f i Monitor.obj
 0001:00011590       ?clear@?$list@PAVSubsequentItem@@V?$allocator@PAVSubsequentItem@@@std@@@std@@QAEXXZ 00412590 f i Subsequent.obj
 0001:00011590       ?clear@?$list@PAVGroupsItem@@V?$allocator@PAVGroupsItem@@@std@@@std@@QAEXXZ 00412590 f i Groups.obj
 0001:00011590       ?clear@?$list@PAVStateConditionItem@@V?$allocator@PAVStateConditionItem@@@std@@@std@@QAEXXZ 00412590 f i StateCondition.obj
 0001:00011590       ?clear@?$list@PAVThreadEx@@V?$allocator@PAVThreadEx@@@std@@@std@@QAEXXZ 00412590 f i ScheduleThread.obj
 0001:000115d0       ?_Incsize@?$list@PAVReturnValue@@V?$allocator@PAVReturnValue@@@std@@@std@@IAEXI@Z 004125d0 f i MonitorThread.obj
 0001:00011670       ??1?$hashnode@Vword@svutil@@V12@@svutil@@QAE@XZ 00412670 f i MonitorThread.obj
 0001:00011720       ??$_Uninit_fill_n@PAV?$basic_string@DU?$char_traits@D@std@@V?$allocator@D@2@@std@@IV12@V?$allocator@V?$basic_string@DU?$char_traits@D@std@@V?$allocator@D@2@@std@@@2@@std@@YAXPAV?$basic_string@DU?$char_traits@D@std@@V?$allocator@D@2@@0@IABV10@AAV?$allocator@V?$basic_string@DU?$char_traits@D@std@@V?$allocator@D@2@@std@@@0@U_Nonscalar_ptr_iterator_tag@0@@Z 00412720 f i MonitorThread.obj
 0001:000117b0       ?MakeInBuf@MonitorThread@@AAEHXZ 004127b0 f   MonitorThread.obj
 0001:00011860       ?InitData@MonitorThread@@AAEXXZ 00412860 f   MonitorThread.obj
 0001:00011930       ?ClearResult@MonitorThread@@AAEXXZ 00412930 f   MonitorThread.obj
 0001:000119d0       ?ProcessResultV70@MonitorThread@@AAEXXZ 004129d0 f   MonitorThread.obj
 0001:00011f60       ?push_back@?$list@PAVReturnValue@@V?$allocator@PAVReturnValue@@@std@@@std@@QAEXABQAVReturnValue@@@Z 00412f60 f i MonitorThread.obj
 0001:00011fa0       ?size@?$hashtable@Vword@svutil@@V12@@svutil@@QAEIXZ 00412fa0 f i MonitorThread.obj
 0001:00012040       ?clearnodes@?$hashtable@Vword@svutil@@V12@@svutil@@IAEXXZ 00413040 f i MonitorThread.obj
 0001:000120b0       ?_Destroy@?$vector@V?$basic_string@DU?$char_traits@D@std@@V?$allocator@D@2@@std@@V?$allocator@V?$basic_string@DU?$char_traits@D@std@@V?$allocator@D@2@@std@@@2@@std@@IAEXPAV?$basic_string@DU?$char_traits@D@std@@V?$allocator@D@2@@2@0@Z 004130b0 f i MonitorThread.obj
 0001:000120e0       ?_Tidy@?$vector@V?$basic_string@DU?$char_traits@D@std@@V?$allocator@D@2@@std@@V?$allocator@V?$basic_string@DU?$char_traits@D@std@@V?$allocator@D@2@@std@@@2@@std@@IAEXXZ 004130e0 f i MonitorThread.obj
 0001:00012130       ?_Ufill@?$vector@V?$basic_string@DU?$char_traits@D@std@@V?$allocator@D@2@@std@@V?$allocator@V?$basic_string@DU?$char_traits@D@std@@V?$allocator@D@2@@std@@@2@@std@@IAEPAV?$basic_string@DU?$char_traits@D@std@@V?$allocator@D@2@@2@PAV32@IABV32@@Z 00413130 f i MonitorThread.obj
 0001:00012160       ?findnext@?$hashnode@Vword@svutil@@V12@@svutil@@QAE_NAAV?$hashelement@Vword@svutil@@V12@@2@PAPAV32@@Z 00413160 f i MonitorThread.obj
 0001:00012210       ?_Insert_n@?$vector@V?$basic_string@DU?$char_traits@D@std@@V?$allocator@D@2@@std@@V?$allocator@V?$basic_string@DU?$char_traits@D@std@@V?$allocator@D@2@@std@@@2@@std@@IAEXViterator@12@IABV?$basic_string@DU?$char_traits@D@std@@V?$allocator@D@2@@2@@Z 00413210 f i MonitorThread.obj
 0001:00012540       ?ParserExpression@MonitorThread@@AAEHVTString@@AAV?$list@V?$basic_string@DU?$char_traits@D@std@@V?$allocator@D@2@@std@@V?$allocator@V?$basic_string@DU?$char_traits@D@std@@V?$allocator@D@2@@std@@@2@@std@@1@Z 00413540 f   MonitorThread.obj
 0001:00012960       ??1?$hashtable@Vword@svutil@@V12@@svutil@@QAE@XZ 00413960 f i MonitorThread.obj
 0001:000129c0       ?findnext@?$hashtable@Vword@svutil@@V12@@svutil@@QAE_NAAViterator@12@@Z 004139c0 f i MonitorThread.obj
 0001:00012a60       ??1?$vector@V?$basic_string@DU?$char_traits@D@std@@V?$allocator@D@2@@std@@V?$allocator@V?$basic_string@DU?$char_traits@D@std@@V?$allocator@D@2@@std@@@2@@std@@QAE@XZ 00413a60 f i MonitorThread.obj
 0001:00012a70       ?pop_back@?$vector@V?$basic_string@DU?$char_traits@D@std@@V?$allocator@D@2@@std@@V?$allocator@V?$basic_string@DU?$char_traits@D@std@@V?$allocator@D@2@@std@@@2@@std@@QAEXXZ 00413a70 f i MonitorThread.obj
 0001:00012ac0       ?insert@?$vector@V?$basic_string@DU?$char_traits@D@std@@V?$allocator@D@2@@std@@V?$allocator@V?$basic_string@DU?$char_traits@D@std@@V?$allocator@D@2@@std@@@2@@std@@QAE?AViterator@12@V312@ABV?$basic_string@DU?$char_traits@D@std@@V?$allocator@D@2@@2@@Z 00413ac0 f i MonitorThread.obj
 0001:00012b30       ??1MonitorThread@@UAE@XZ   00413b30 f   MonitorThread.obj
 0001:00012bf0       ??0?$hashtable@Vword@svutil@@V12@@svutil@@QAE@XZ 00413bf0 f i MonitorThread.obj
 0001:00012c40       ?push_back@?$vector@V?$basic_string@DU?$char_traits@D@std@@V?$allocator@D@2@@std@@V?$allocator@V?$basic_string@DU?$char_traits@D@std@@V?$allocator@D@2@@std@@@2@@std@@QAEXABV?$basic_string@DU?$char_traits@D@std@@V?$allocator@D@2@@2@@Z 00413c40 f i MonitorThread.obj
 0001:00012cd0       ??_GMonitorThread@@UAEPAXI@Z 00413cd0 f i MonitorThread.obj
 0001:00012cd0       ??_EMonitorThread@@UAEPAXI@Z 00413cd0 f i MonitorThread.obj
 0001:00012cf0       ?String2Array@@YAXAAV?$vector@V?$basic_string@DU?$char_traits@D@std@@V?$allocator@D@2@@std@@V?$allocator@V?$basic_string@DU?$char_traits@D@std@@V?$allocator@D@2@@std@@@2@@std@@V?$basic_string@DU?$char_traits@D@std@@V?$allocator@D@2@@2@1@Z 00413cf0 f   MonitorThread.obj
 0001:00012df0       ??0MonitorThread@@QAE@XZ   00413df0 f   MonitorThread.obj
 0001:00012ee0       ?CheckSingleItemState@MonitorThread@@AAEHPAVStateCondition@@H@Z 00413ee0 f   MonitorThread.obj
 0001:00013410       ?CheckStateByType@MonitorThread@@AAEHH@Z 00414410 f   MonitorThread.obj
 0001:00013970       ?BulidStringMap@MonitorThread@@AAE_NAAV?$hashtable@Vword@svutil@@V12@@svutil@@PBD@Z 00414970 f   MonitorThread.obj
 0001:00013be0       ?PaserResultV70@MonitorThread@@AAEHXZ 00414be0 f   MonitorThread.obj
 0001:000140d0       ?ParserMonitorState@MonitorThread@@AAEXXZ 004150d0 f   MonitorThread.obj
 0001:00014170       ?RunMonitor@MonitorThread@@IAEXXZ 00415170 f   MonitorThread.obj
 0001:00014690       ?run@MonitorThread@@UAEXXZ 00415690 f   MonitorThread.obj
 0001:00014a20       ??0MSGQueue@@QAE@XZ        00415a20 f   MSGQueue.obj
 0001:00014ab0       ??1MSGQueue@@QAE@XZ        00415ab0 f   MSGQueue.obj
 0001:00014b30       ??1CommunicationThread@@UAE@XZ 00415b30 f   ommunicationThread.obj
 0001:00014b40       ?run@CommunicationThread@@UAEXXZ 00415b40 f   ommunicationThread.obj
 0001:00014ee0       ??0Option@@QAE@XZ          00415ee0 f   Option.obj
 0001:00014fa0       ?LoadOption@Option@@QAE_NXZ 00415fa0 f   Option.obj
 0001:000156a0       ??0ProcessMonitorData@@QAE@XZ 004166a0 f   ProcessMonitorData.obj
 0001:00015730       ??1ProcessMonitorData@@QAE@XZ 00416730 f   ProcessMonitorData.obj
 0001:00015780       ?GetRawDataSize@ProcessMonitorData@@QAEHXZ 00416780 f   ProcessMonitorData.obj
 0001:00015790       ?GetRawData@ProcessMonitorData@@QAE_NPADH@Z 00416790 f   ProcessMonitorData.obj
 0001:00015850       ?CreateObjectByRawData@ProcessMonitorData@@QAE_NPBDH@Z 00416850 f   ProcessMonitorData.obj
 0001:00015980       ?Clear@ProcessMonitorData@@QAEXXZ 00416980 f   ProcessMonitorData.obj
 0001:00015990       ??1QueueItem@@UAE@XZ       00416990 f   QueueItem.obj
 0001:00015a10       ?Push@QueueItem@@QAEXPAVMonitor@@H@Z 00416a10 f   QueueItem.obj
 0001:00015b40       ?Pop@QueueItem@@QAEPAVMonitor@@XZ 00416b40 f   QueueItem.obj
 0001:00015bf0       ??_EQueueItem@@UAEPAXI@Z   00416bf0 f i QueueItem.obj
 0001:00015bf0       ??_GQueueItem@@UAEPAXI@Z   00416bf0 f i QueueItem.obj
 0001:00015c10       ?Pop@QueuesManager@@QAEPAVMonitor@@H@Z 00416c10 f   QueuesManager.obj
 0001:00015c30       ??_EQueuesManager@@UAEPAXI@Z 00416c30 f i QueuesManager.obj
 0001:00015c30       ??_GQueuesManager@@UAEPAXI@Z 00416c30 f i QueuesManager.obj
 0001:00015c50       ?ListAllQueueInfo@QueuesManager@@QAEXXZ 00416c50 f   QueuesManager.obj
 0001:00015ca0       ?GetQueueIndexByClass@QueuesManager@@QAEHPBD@Z 00416ca0 f   QueuesManager.obj
 0001:00015d10       ?Pop@QueuesManager@@QAEPAVMonitor@@PBD@Z 00416d10 f   QueuesManager.obj
 0001:00015d40       ?Push@QueuesManager@@QAEHPAVMonitor@@PBDH@Z 00416d40 f   QueuesManager.obj
 0001:00015da0       ?Push@QueuesManager@@QAEHPAVMonitor@@H@Z 00416da0 f   QueuesManager.obj
 0001:00015e60       ??0QueueItem@@QAE@PBD@Z    00416e60 f i QueuesManager.obj
 0001:00015ed0       ?CreateQueueBySubsequent@QueuesManager@@AAEHXZ 00416ed0 f   QueuesManager.obj
 0001:00015fa0       ?CreateMainQueue@QueuesManager@@AAEHXZ 00416fa0 f   QueuesManager.obj
 0001:00016040       ?Init@QueuesManager@@QAEHXZ 00417040 f   QueuesManager.obj
 0001:000160a0       ??1sv_pair@@QAE@XZ         004170a0 f i readSVDB.obj
 0001:000160f0       ??0readSVDB@@QAE@XZ        004170f0 f   readSVDB.obj
 0001:00016160       ??1readSVDB@@QAE@XZ        00417160 f   readSVDB.obj
 0001:000161d0       ?GetSGProValue@readSVDB@@QAE_NV?$basic_string@DU?$char_traits@D@std@@V?$allocator@D@2@@std@@0AAV23@@Z 004171d0 f   readSVDB.obj
 0001:00016350       ??0?$hashelement@Vword@svutil@@PAVTask@@@svutil@@QAE@ABVword@1@ABQAVTask@@@Z 00417350 f i readSVDB.obj
 0001:000163c0       ?_Xlen@?$vector@U?$pair@HH@std@@V?$allocator@U?$pair@HH@std@@@2@@std@@IBEXXZ 004173c0 f i readSVDB.obj
 0001:000163c0       ?_Xlen@?$vector@UPairTime@@V?$allocator@UPairTime@@@std@@@std@@IBEXXZ 004173c0 f i readSVDB.obj
 0001:00016440       ?_Min@?$_Tree@V?$_Tmap_traits@HPAXU?$less@H@std@@V?$allocator@U?$pair@$$CBHPAX@std@@@2@$0A@@std@@@std@@KAPAU_Node@?$_Tree_nod@V?$_Tmap_traits@HPAXU?$less@H@std@@V?$allocator@U?$pair@$$CBHPAX@std@@@2@$0A@@std@@@2@PAU342@@Z 00417440 f i readSVDB.obj
 0001:00016460       ?_Min@?$_Tree@V?$_Tmap_traits@V?$basic_string@DU?$char_traits@D@std@@V?$allocator@D@2@@std@@PAXU?$less@V?$basic_string@DU?$char_traits@D@std@@V?$allocator@D@2@@std@@@2@V?$allocator@U?$pair@$$CBV?$basic_string@DU?$char_traits@D@std@@V?$allocator@D@2@@std@@PAX@std@@@2@$0A@@std@@@std@@KAPAU_Node@?$_Tree_nod@V?$_Tmap_traits@V?$basic_string@DU?$char_traits@D@std@@V?$allocator@D@2@@std@@PAXU?$less@V?$basic_string@DU?$char_traits@D@std@@V?$allocator@D@2@@std@@@2@V?$allocator@U?$pair@$$CBV?$basic_string@DU?$char_traits@D@std@@V?$allocator@D@2@@std@@PAX@std@@@2@$0A@@std@@@2@PAU342@@Z 00417460 f i readSVDB.obj
 0001:00016480       ??1?$treenode@V?$hashelement@Vword@svutil@@PAVTask@@@svutil@@@svutil@@UAE@XZ 00417480 f i readSVDB.obj
 0001:000164a0       ??_E?$treenode@V?$hashelement@Vword@svutil@@PAVTask@@@svutil@@@svutil@@UAEPAXI@Z 004174a0 f i readSVDB.obj
 0001:000164a0       ??_G?$treenode@V?$hashelement@Vword@svutil@@PAVTask@@@svutil@@@svutil@@UAEPAXI@Z 004174a0 f i readSVDB.obj
 0001:000164c0       ?_Max@?$_Tree@V?$_Tmap_traits@HPAXU?$less@H@std@@V?$allocator@U?$pair@$$CBHPAX@std@@@2@$0A@@std@@@std@@KAPAU_Node@?$_Tree_nod@V?$_Tmap_traits@HPAXU?$less@H@std@@V?$allocator@U?$pair@$$CBHPAX@std@@@2@$0A@@std@@@2@PAU342@@Z 004174c0 f i readSVDB.obj
 0001:000164e0       ?_Max@?$_Tree@V?$_Tmap_traits@V?$basic_string@DU?$char_traits@D@std@@V?$allocator@D@2@@std@@PAXU?$less@V?$basic_string@DU?$char_traits@D@std@@V?$allocator@D@2@@std@@@2@V?$allocator@U?$pair@$$CBV?$basic_string@DU?$char_traits@D@std@@V?$allocator@D@2@@std@@PAX@std@@@2@$0A@@std@@@std@@KAPAU_Node@?$_Tree_nod@V?$_Tmap_traits@V?$basic_string@DU?$char_traits@D@std@@V?$allocator@D@2@@std@@PAXU?$less@V?$basic_string@DU?$char_traits@D@std@@V?$allocator@D@2@@std@@@2@V?$allocator@U?$pair@$$CBV?$basic_string@DU?$char_traits@D@std@@V?$allocator@D@2@@std@@PAX@std@@@2@$0A@@std@@@2@PAU342@@Z 004174e0 f i readSVDB.obj
 0001:00016500       ??M?$treenode@V?$hashelement@Vword@svutil@@PAVTask@@@svutil@@@svutil@@QAE_NV01@@Z 00417500 f i readSVDB.obj
 0001:00016570       ??O?$treenode@V?$hashelement@Vword@svutil@@PAVTask@@@svutil@@@svutil@@QAE_NV01@@Z 00417570 f i readSVDB.obj
 0001:000165e0       ??$fill@PAUPairTime@@U1@@std@@YAXPAUPairTime@@0ABU1@@Z 004175e0 f i readSVDB.obj
 0001:00016620       ??$fill@PAU?$pair@HH@std@@U12@@std@@YAXPAU?$pair@HH@0@0ABU10@@Z 00417620 f i readSVDB.obj
 0001:00016650       ??1_Node@?$_Tree_nod@V?$_Tmap_traits@V?$basic_string@DU?$char_traits@D@std@@V?$allocator@D@2@@std@@PAXU?$less@V?$basic_string@DU?$char_traits@D@std@@V?$allocator@D@2@@std@@@2@V?$allocator@U?$pair@$$CBV?$basic_string@DU?$char_traits@D@std@@V?$allocator@D@2@@std@@PAX@std@@@2@$0A@@std@@@std@@QAE@XZ 00417650 f i readSVDB.obj
 0001:00016660       ??1_Node@?$_List_nod@Usv_pair@@V?$allocator@Usv_pair@@@std@@@std@@QAE@XZ 00417660 f i readSVDB.obj
 0001:00016670       ??0?$treenode@V?$hashelement@Vword@svutil@@PAVTask@@@svutil@@@svutil@@QAE@ABV?$hashelement@Vword@svutil@@PAVTask@@@1@@Z 00417670 f i readSVDB.obj
 0001:000166f0       ??$_Copy_backward_opt@PAUPairTime@@PAU1@@std@@YAPAUPairTime@@PAU1@00U_Nonscalar_ptr_iterator_tag@0@@Z 004176f0 f i readSVDB.obj
 0001:00016730       ?_Lrotate@?$_Tree@V?$_Tmap_traits@HPAXU?$less@H@std@@V?$allocator@U?$pair@$$CBHPAX@std@@@2@$0A@@std@@@std@@IAEXPAU_Node@?$_Tree_nod@V?$_Tmap_traits@HPAXU?$less@H@std@@V?$allocator@U?$pair@$$CBHPAX@std@@@2@$0A@@std@@@2@@Z 00417730 f i readSVDB.obj
 0001:00016790       ?_Rrotate@?$_Tree@V?$_Tmap_traits@HPAXU?$less@H@std@@V?$allocator@U?$pair@$$CBHPAX@std@@@2@$0A@@std@@@std@@IAEXPAU_Node@?$_Tree_nod@V?$_Tmap_traits@HPAXU?$less@H@std@@V?$allocator@U?$pair@$$CBHPAX@std@@@2@$0A@@std@@@2@@Z 00417790 f i readSVDB.obj
 0001:000167f0       ?_Lbound@?$_Tree@V?$_Tmap_traits@V?$basic_string@DU?$char_traits@D@std@@V?$allocator@D@2@@std@@PAXU?$less@V?$basic_string@DU?$char_traits@D@std@@V?$allocator@D@2@@std@@@2@V?$allocator@U?$pair@$$CBV?$basic_string@DU?$char_traits@D@std@@V?$allocator@D@2@@std@@PAX@std@@@2@$0A@@std@@@std@@IBEPAU_Node@?$_Tree_nod@V?$_Tmap_traits@V?$basic_string@DU?$char_traits@D@std@@V?$allocator@D@2@@std@@PAXU?$less@V?$basic_string@DU?$char_traits@D@std@@V?$allocator@D@2@@std@@@2@V?$allocator@U?$pair@$$CBV?$basic_string@DU?$char_traits@D@std@@V?$allocator@D@2@@std@@PAX@std@@@2@$0A@@std@@@2@ABV?$basic_string@DU?$char_traits@D@std@@V?$allocator@D@2@@2@@Z 004177f0 f i readSVDB.obj
 0001:00016840       ?_Lrotate@?$_Tree@V?$_Tmap_traits@V?$basic_string@DU?$char_traits@D@std@@V?$allocator@D@2@@std@@PAXU?$less@V?$basic_string@DU?$char_traits@D@std@@V?$allocator@D@2@@std@@@2@V?$allocator@U?$pair@$$CBV?$basic_string@DU?$char_traits@D@std@@V?$allocator@D@2@@std@@PAX@std@@@2@$0A@@std@@@std@@IAEXPAU_Node@?$_Tree_nod@V?$_Tmap_traits@V?$basic_string@DU?$char_traits@D@std@@V?$allocator@D@2@@std@@PAXU?$less@V?$basic_string@DU?$char_traits@D@std@@V?$allocator@D@2@@std@@@2@V?$allocator@U?$pair@$$CBV?$basic_string@DU?$char_traits@D@std@@V?$allocator@D@2@@std@@PAX@std@@@2@$0A@@std@@@2@@Z 00417840 f i readSVDB.obj
 0001:000168a0       ?_Rrotate@?$_Tree@V?$_Tmap_traits@V?$basic_string@DU?$char_traits@D@std@@V?$allocator@D@2@@std@@PAXU?$less@V?$basic_string@DU?$char_traits@D@std@@V?$allocator@D@2@@std@@@2@V?$allocator@U?$pair@$$CBV?$basic_string@DU?$char_traits@D@std@@V?$allocator@D@2@@std@@PAX@std@@@2@$0A@@std@@@std@@IAEXPAU_Node@?$_Tree_nod@V?$_Tmap_traits@V?$basic_string@DU?$char_traits@D@std@@V?$allocator@D@2@@std@@PAXU?$less@V?$basic_string@DU?$char_traits@D@std@@V?$allocator@D@2@@std@@@2@V?$allocator@U?$pair@$$CBV?$basic_string@DU?$char_traits@D@std@@V?$allocator@D@2@@std@@PAX@std@@@2@$0A@@std@@@2@@Z 004178a0 f i readSVDB.obj
 0001:00016900       ?_Inc@const_iterator@?$_Tree@V?$_Tmap_traits@HPAXU?$less@H@std@@V?$allocator@U?$pair@$$CBHPAX@std@@@2@$0A@@std@@@std@@QAEXXZ 00417900 f i readSVDB.obj
 0001:00016960       ?_Inc@const_iterator@?$_Tree@V?$_Tmap_traits@V?$basic_string@DU?$char_traits@D@std@@V?$allocator@D@2@@std@@PAXU?$less@V?$basic_string@DU?$char_traits@D@std@@V?$allocator@D@2@@std@@@2@V?$allocator@U?$pair@$$CBV?$basic_string@DU?$char_traits@D@std@@V?$allocator@D@2@@std@@PAX@std@@@2@$0A@@std@@@std@@QAEXXZ 00417960 f i readSVDB.obj
 0001:000169c0       ?_Dec@const_iterator@?$_Tree@V?$_Tmap_traits@HPAXU?$less@H@std@@V?$allocator@U?$pair@$$CBHPAX@std@@@2@$0A@@std@@@std@@QAEXXZ 004179c0 f i readSVDB.obj
 0001:00016a20       ?_Dec@const_iterator@?$_Tree@V?$_Tmap_traits@V?$basic_string@DU?$char_traits@D@std@@V?$allocator@D@2@@std@@PAXU?$less@V?$basic_string@DU?$char_traits@D@std@@V?$allocator@D@2@@std@@@2@V?$allocator@U?$pair@$$CBV?$basic_string@DU?$char_traits@D@std@@V?$allocator@D@2@@std@@PAX@std@@@2@$0A@@std@@@std@@QAEXXZ 00417a20 f i readSVDB.obj
 0001:00016a80       ??0?$treenode@V?$hashelement@Vword@svutil@@PAVTask@@@svutil@@@svutil@@QAE@ABV01@@Z 00417a80 f i readSVDB.obj
 0001:00016b00       ??$make_pair@V?$basic_string@DU?$char_traits@D@std@@V?$allocator@D@2@@std@@PAX@std@@YA?AU?$pair@V?$basic_string@DU?$char_traits@D@std@@V?$allocator@D@2@@std@@PAX@0@V?$basic_string@DU?$char_traits@D@std@@V?$allocator@D@2@@0@PAX@Z 00417b00 f i readSVDB.obj
 0001:00016b70       ??$copy_backward@PAU?$pair@HH@std@@PAU12@@std@@YAPAU?$pair@HH@0@PAU10@00@Z 00417b70 f i readSVDB.obj
 0001:00016ba0       ??$CreateNode@V?$hashelement@Vword@svutil@@PAVTask@@@svutil@@@?$sorttree@V?$hashelement@Vword@svutil@@PAVTask@@@svutil@@@svutil@@SAPAV?$treenode@V?$hashelement@Vword@svutil@@PAVTask@@@svutil@@@1@ABV?$hashelement@Vword@svutil@@PAVTask@@@1@@Z 00417ba0 f i readSVDB.obj
 0001:00016c00       ??$_Uninit_copy@PAUPairTime@@PAU1@V?$allocator@UPairTime@@@std@@@std@@YAPAUPairTime@@PAU1@00AAV?$allocator@UPairTime@@@0@U_Nonscalar_ptr_iterator_tag@0@@Z 00417c00 f i readSVDB.obj
 0001:00016c40       ??$_Uninit_copy@PAU?$pair@HH@std@@PAU12@V?$allocator@U?$pair@HH@std@@@2@@std@@YAPAU?$pair@HH@0@PAU10@00AAV?$allocator@U?$pair@HH@std@@@0@U_Nonscalar_ptr_iterator_tag@0@@Z 00417c40 f i readSVDB.obj
 0001:00016c70       ?_Erase@?$_Tree@V?$_Tmap_traits@HPAXU?$less@H@std@@V?$allocator@U?$pair@$$CBHPAX@std@@@2@$0A@@std@@@std@@IAEXPAU_Node@?$_Tree_nod@V?$_Tmap_traits@HPAXU?$less@H@std@@V?$allocator@U?$pair@$$CBHPAX@std@@@2@$0A@@std@@@2@@Z 00417c70 f i readSVDB.obj
 0001:00016cb0       ?_Buynode@?$list@Usv_pair@@V?$allocator@Usv_pair@@@std@@@std@@IAEPAU_Node@?$_List_nod@Usv_pair@@V?$allocator@Usv_pair@@@std@@@2@XZ 00417cb0 f i readSVDB.obj
 0001:00016cd0       ?_Incsize@?$list@PAVSubsequentItem@@V?$allocator@PAVSubsequentItem@@@std@@@std@@IAEXI@Z 00417cd0 f i readSVDB.obj
 0001:00016d70       ?_Buynode@?$_Tree@V?$_Tmap_traits@HPAXU?$less@H@std@@V?$allocator@U?$pair@$$CBHPAX@std@@@2@$0A@@std@@@std@@IAEPAU_Node@?$_Tree_nod@V?$_Tmap_traits@HPAXU?$less@H@std@@V?$allocator@U?$pair@$$CBHPAX@std@@@2@$0A@@std@@@2@PAU342@00ABU?$pair@$$CBHPAX@2@D@Z 00417d70 f i readSVDB.obj
 0001:00016db0       ?_Buynode@?$_Tree@V?$_Tmap_traits@V?$basic_string@DU?$char_traits@D@std@@V?$allocator@D@2@@std@@PAXU?$less@V?$basic_string@DU?$char_traits@D@std@@V?$allocator@D@2@@std@@@2@V?$allocator@U?$pair@$$CBV?$basic_string@DU?$char_traits@D@std@@V?$allocator@D@2@@std@@PAX@std@@@2@$0A@@std@@@std@@IAEPAU_Node@?$_Tree_nod@V?$_Tmap_traits@V?$basic_string@DU?$char_traits@D@std@@V?$allocator@D@2@@std@@PAXU?$less@V?$basic_string@DU?$char_traits@D@std@@V?$allocator@D@2@@std@@@2@V?$allocator@U?$pair@$$CBV?$basic_string@DU?$char_traits@D@std@@V?$allocator@D@2@@std@@PAX@std@@@2@$0A@@std@@@2@PAU342@00ABU?$pair@$$CBV?$basic_string@DU?$char_traits@D@std@@V?$allocator@D@2@@std@@PAX@2@D@Z 00417db0 f i readSVDB.obj
 0001:00016e50       ?_Buynode@?$_Tree@V?$_Tmap_traits@HPAXU?$less@H@std@@V?$allocator@U?$pair@$$CBHPAX@std@@@2@$0A@@std@@@std@@IAEPAU_Node@?$_Tree_nod@V?$_Tmap_traits@HPAXU?$less@H@std@@V?$allocator@U?$pair@$$CBHPAX@std@@@2@$0A@@std@@@2@XZ 00417e50 f i readSVDB.obj
 0001:00016e90       ?_Buynode@?$_Tree@V?$_Tmap_traits@V?$basic_string@DU?$char_traits@D@std@@V?$allocator@D@2@@std@@PAXU?$less@V?$basic_string@DU?$char_traits@D@std@@V?$allocator@D@2@@std@@@2@V?$allocator@U?$pair@$$CBV?$basic_string@DU?$char_traits@D@std@@V?$allocator@D@2@@std@@PAX@std@@@2@$0A@@std@@@std@@IAEPAU_Node@?$_Tree_nod@V?$_Tmap_traits@V?$basic_string@DU?$char_traits@D@std@@V?$allocator@D@2@@std@@PAXU?$less@V?$basic_string@DU?$char_traits@D@std@@V?$allocator@D@2@@std@@@2@V?$allocator@U?$pair@$$CBV?$basic_string@DU?$char_traits@D@std@@V?$allocator@D@2@@std@@PAX@std@@@2@$0A@@std@@@2@XZ 00417e90 f i readSVDB.obj
 0001:00016ed0       ?InsertNode@?$sorttree@V?$hashelement@Vword@svutil@@PAVTask@@@svutil@@@svutil@@QAEXPAV?$treenode@V?$hashelement@Vword@svutil@@PAVTask@@@svutil@@@2@0@Z 00417ed0 f i readSVDB.obj
 0001:00016f60       ??$_Uninit_fill_n@PAUPairTime@@IU1@V?$allocator@UPairTime@@@std@@@std@@YAXPAUPairTime@@IABU1@AAV?$allocator@UPairTime@@@0@U_Nonscalar_ptr_iterator_tag@0@@Z 00417f60 f i readSVDB.obj
 0001:00016fa0       ??$_Uninit_fill_n@PAU?$pair@HH@std@@IU12@V?$allocator@U?$pair@HH@std@@@2@@std@@YAXPAU?$pair@HH@0@IABU10@AAV?$allocator@U?$pair@HH@std@@@0@U_Nonscalar_ptr_iterator_tag@0@@Z 00417fa0 f i readSVDB.obj
 0001:00016fd0       ?find@?$_Tree@V?$_Tmap_traits@HPAXU?$less@H@std@@V?$allocator@U?$pair@$$CBHPAX@std@@@2@$0A@@std@@@std@@QAE?AViterator@12@ABH@Z 00417fd0 f i readSVDB.obj
 0001:00017040       ?_Insert@?$_Tree@V?$_Tmap_traits@HPAXU?$less@H@std@@V?$allocator@U?$pair@$$CBHPAX@std@@@2@$0A@@std@@@std@@IAE?AViterator@12@_NPAU_Node@?$_Tree_nod@V?$_Tmap_traits@HPAXU?$less@H@std@@V?$allocator@U?$pair@$$CBHPAX@std@@@2@$0A@@std@@@2@ABU?$pair@$$CBHPAX@2@@Z 00418040 f i readSVDB.obj
 0001:00017200       ?_Insert@?$_Tree@V?$_Tmap_traits@V?$basic_string@DU?$char_traits@D@std@@V?$allocator@D@2@@std@@PAXU?$less@V?$basic_string@DU?$char_traits@D@std@@V?$allocator@D@2@@std@@@2@V?$allocator@U?$pair@$$CBV?$basic_string@DU?$char_traits@D@std@@V?$allocator@D@2@@std@@PAX@std@@@2@$0A@@std@@@std@@IAE?AViterator@12@_NPAU_Node@?$_Tree_nod@V?$_Tmap_traits@V?$basic_string@DU?$char_traits@D@std@@V?$allocator@D@2@@std@@PAXU?$less@V?$basic_string@DU?$char_traits@D@std@@V?$allocator@D@2@@std@@@2@V?$allocator@U?$pair@$$CBV?$basic_string@DU?$char_traits@D@std@@V?$allocator@D@2@@std@@PAX@std@@@2@$0A@@std@@@2@ABU?$pair@$$CBV?$basic_string@DU?$char_traits@D@std@@V?$allocator@D@2@@std@@PAX@2@@Z 00418200 f i readSVDB.obj
 0001:000173c0       ?InsertNodeEx@?$sorttree@V?$hashelement@Vword@svutil@@PAVTask@@@svutil@@@svutil@@QAEAAV?$hashelement@Vword@svutil@@PAVTask@@@2@ABV32@@Z 004183c0 f i readSVDB.obj
 0001:00017450       ?erase@?$_Tree@V?$_Tmap_traits@HPAXU?$less@H@std@@V?$allocator@U?$pair@$$CBHPAX@std@@@2@$0A@@std@@@std@@QAE?AViterator@12@V312@@Z 00418450 f i readSVDB.obj
 0001:00017720       ?erase@?$_Tree@V?$_Tmap_traits@V?$basic_string@DU?$char_traits@D@std@@V?$allocator@D@2@@std@@PAXU?$less@V?$basic_string@DU?$char_traits@D@std@@V?$allocator@D@2@@std@@@2@V?$allocator@U?$pair@$$CBV?$basic_string@DU?$char_traits@D@std@@V?$allocator@D@2@@std@@PAX@std@@@2@$0A@@std@@@std@@QAE?AViterator@12@V312@@Z 00418720 f i readSVDB.obj
 0001:00017a00       ?insert@?$_Tree@V?$_Tmap_traits@HPAXU?$less@H@std@@V?$allocator@U?$pair@$$CBHPAX@std@@@2@$0A@@std@@@std@@QAE?AU?$pair@Viterator@?$_Tree@V?$_Tmap_traits@HPAXU?$less@H@std@@V?$allocator@U?$pair@$$CBHPAX@std@@@2@$0A@@std@@@std@@_N@2@ABU?$pair@$$CBHPAX@2@@Z 00418a00 f i readSVDB.obj
 0001:00017ac0       ?insert@?$_Tree@V?$_Tmap_traits@V?$basic_string@DU?$char_traits@D@std@@V?$allocator@D@2@@std@@PAXU?$less@V?$basic_string@DU?$char_traits@D@std@@V?$allocator@D@2@@std@@@2@V?$allocator@U?$pair@$$CBV?$basic_string@DU?$char_traits@D@std@@V?$allocator@D@2@@std@@PAX@std@@@2@$0A@@std@@@std@@QAE?AU?$pair@Viterator@?$_Tree@V?$_Tmap_traits@V?$basic_string@DU?$char_traits@D@std@@V?$allocator@D@2@@std@@PAXU?$less@V?$basic_string@DU?$char_traits@D@std@@V?$allocator@D@2@@std@@@2@V?$allocator@U?$pair@$$CBV?$basic_string@DU?$char_traits@D@std@@V?$allocator@D@2@@std@@PAX@std@@@2@$0A@@std@@@std@@_N@2@ABU?$pair@$$CBV?$basic_string@DU?$char_traits@D@std@@V?$allocator@D@2@@std@@PAX@2@@Z 00418ac0 f i readSVDB.obj
 0001:00017ba0       ??0?$list@Usv_pair@@V?$allocator@Usv_pair@@@std@@@std@@QAE@XZ 00418ba0 f i readSVDB.obj
 0001:00017bc0       ?_Ufill@?$vector@UPairTime@@V?$allocator@UPairTime@@@std@@@std@@IAEPAUPairTime@@PAU3@IABU3@@Z 00418bc0 f i readSVDB.obj
 0001:00017bf0       ?_Erase@?$_Tree@V?$_Tmap_traits@V?$basic_string@DU?$char_traits@D@std@@V?$allocator@D@2@@std@@PAXU?$less@V?$basic_string@DU?$char_traits@D@std@@V?$allocator@D@2@@std@@@2@V?$allocator@U?$pair@$$CBV?$basic_string@DU?$char_traits@D@std@@V?$allocator@D@2@@std@@PAX@std@@@2@$0A@@std@@@std@@IAEXPAU_Node@?$_Tree_nod@V?$_Tmap_traits@V?$basic_string@DU?$char_traits@D@std@@V?$allocator@D@2@@std@@PAXU?$less@V?$basic_string@DU?$char_traits@D@std@@V?$allocator@D@2@@std@@@2@V?$allocator@U?$pair@$$CBV?$basic_string@DU?$char_traits@D@std@@V?$allocator@D@2@@std@@PAX@std@@@2@$0A@@std@@@2@@Z 00418bf0 f i readSVDB.obj
 0001:00017c30       ?_Ufill@?$vector@U?$pair@HH@std@@V?$allocator@U?$pair@HH@std@@@2@@std@@IAEPAU?$pair@HH@2@PAU32@IABU32@@Z 00418c30 f i readSVDB.obj
 0001:00017c60       ?insert@?$hashnode@Vword@svutil@@PAVTask@@@svutil@@QAEAAV?$hashelement@Vword@svutil@@PAVTask@@@2@ABVword@2@ABQAVTask@@@Z 00418c60 f i readSVDB.obj
 0001:00017d40       ?erase@?$_Tree@V?$_Tmap_traits@HPAXU?$less@H@std@@V?$allocator@U?$pair@$$CBHPAX@std@@@2@$0A@@std@@@std@@QAE?AViterator@12@V312@0@Z 00418d40 f i readSVDB.obj
 0001:00017e00       ?clear@?$list@Usv_pair@@V?$allocator@Usv_pair@@@std@@@std@@QAEXXZ 00418e00 f i readSVDB.obj
 0001:00017e40       ?_Insert_n@?$vector@U?$pair@HH@std@@V?$allocator@U?$pair@HH@std@@@2@@std@@IAEXViterator@12@IABU?$pair@HH@2@@Z 00418e40 f i readSVDB.obj
 0001:00018090       ?FastGetMonitorTPL@readSVDB@@AAEPAXH@Z 00419090 f   readSVDB.obj
 0001:00018170       ?FastGetEntityTPL@readSVDB@@AAEPAXV?$basic_string@DU?$char_traits@D@std@@V?$allocator@D@2@@std@@@Z 00419170 f   readSVDB.obj
 0001:00018310       ?FastGetMonitor@readSVDB@@AAEPAXV?$basic_string@DU?$char_traits@D@std@@V?$allocator@D@2@@std@@@Z 00419310 f   readSVDB.obj
 0001:000184b0       ?FastGetEntity@readSVDB@@AAEPAXV?$basic_string@DU?$char_traits@D@std@@V?$allocator@D@2@@std@@@Z 004194b0 f   readSVDB.obj
 0001:00018650       ?GetMonitorParaValueByName@readSVDB@@QAE_NV?$basic_string@DU?$char_traits@D@std@@V?$allocator@D@2@@std@@0AAV23@@Z 00419650 f   readSVDB.obj
 0001:00018bb0       ?GetSMCommon@readSVDB@@QAE_NPAVMonitor@@V?$basic_string@DU?$char_traits@D@std@@V?$allocator@D@2@@std@@@Z 00419bb0 f   readSVDB.obj
 0001:00018ed0       ?GetEntityConfigValue@readSVDB@@QAE_NV?$basic_string@DU?$char_traits@D@std@@V?$allocator@D@2@@std@@0AAV23@@Z 00419ed0 f   readSVDB.obj
 0001:00019000       ?GetMLValue@readSVDB@@QAE_NV?$basic_string@DU?$char_traits@D@std@@V?$allocator@D@2@@std@@0AAV23@@Z 0041a000 f   readSVDB.obj
 0001:00019130       ?GetMLRunParaNames@readSVDB@@QAE_NV?$basic_string@DU?$char_traits@D@std@@V?$allocator@D@2@@std@@AAV?$list@V?$basic_string@DU?$char_traits@D@std@@V?$allocator@D@2@@std@@V?$allocator@V?$basic_string@DU?$char_traits@D@std@@V?$allocator@D@2@@std@@@2@@3@@Z 0041a130 f   readSVDB.obj
 0001:000193d0       ?GetMLReturnDataList@readSVDB@@QAE_NAAV?$list@PAVReturnData@@V?$allocator@PAVReturnData@@@std@@@std@@H@Z 0041a3d0 f   readSVDB.obj
 0001:00019720       ?GetMonitorBaselineFlag@readSVDB@@QAE_NV?$basic_string@DU?$char_traits@D@std@@V?$allocator@D@2@@std@@@Z 0041a720 f   readSVDB.obj
 0001:00019830       ?_Insert_n@?$vector@UPairTime@@V?$allocator@UPairTime@@@std@@@std@@IAEXViterator@12@IABUPairTime@@@Z 0041a830 f i readSVDB.obj
 0001:00019aa0       ?erase@?$_Tree@V?$_Tmap_traits@V?$basic_string@DU?$char_traits@D@std@@V?$allocator@D@2@@std@@PAXU?$less@V?$basic_string@DU?$char_traits@D@std@@V?$allocator@D@2@@std@@@2@V?$allocator@U?$pair@$$CBV?$basic_string@DU?$char_traits@D@std@@V?$allocator@D@2@@std@@PAX@std@@@2@$0A@@std@@@std@@QAE?AViterator@12@V312@0@Z 0041aaa0 f i readSVDB.obj
 0001:00019b60       ?ReleaseAll@readSVDB@@QAE_NXZ 0041ab60 f   readSVDB.obj
 0001:00019e20       ?SetSvdbAddr@readSVDB@@QAE_NV?$basic_string@DU?$char_traits@D@std@@V?$allocator@D@2@@std@@@Z 0041ae20 f   readSVDB.obj
 0001:00019e80       ?GetConditionString@readSVDB@@QAE_NV?$basic_string@DU?$char_traits@D@std@@V?$allocator@D@2@@std@@IAAV23@@Z 0041ae80 f   readSVDB.obj
 0001:00019fe0       ?GetSMStateConditionItemList@readSVDB@@QAE_NV?$basic_string@DU?$char_traits@D@std@@V?$allocator@D@2@@std@@AAV?$list@PAVStateConditionItem@@V?$allocator@PAVStateConditionItem@@@std@@@3@I@Z 0041afe0 f   readSVDB.obj
 0001:0001a390       ??1?$list@Usv_pair@@V?$allocator@Usv_pair@@@std@@@std@@QAE@XZ 0041b390 f i readSVDB.obj
 0001:0001a3b0       ?insert@?$hashtable@Vword@svutil@@PAVTask@@@svutil@@QAEAAPAVTask@@ABVword@2@ABQAV3@@Z 0041b3b0 f i readSVDB.obj
 0001:0001a4a0       ??1?$map@HPAXU?$less@H@std@@V?$allocator@U?$pair@$$CBHPAX@std@@@2@@std@@QAE@XZ 0041b4a0 f i readSVDB.obj
 0001:0001a4d0       ?GetSubsequentList@readSVDB@@QAEHAAV?$list@PAVSubsequentItem@@V?$allocator@PAVSubsequentItem@@@std@@@std@@@Z 0041b4d0 f   readSVDB.obj
 0001:0001a9b0       ?GetMonitorIDLSTBySE@readSVDB@@QAEJAAV?$list@V?$basic_string@DU?$char_traits@D@std@@V?$allocator@D@2@@std@@V?$allocator@V?$basic_string@DU?$char_traits@D@std@@V?$allocator@D@2@@std@@@2@@std@@H@Z 0041b9b0 f   readSVDB.obj
 0001:0001abc0       ?GetEntityList@readSVDB@@QAE_NV?$basic_string@DU?$char_traits@D@std@@V?$allocator@D@2@@std@@AAV?$list@V?$basic_string@DU?$char_traits@D@std@@V?$allocator@D@2@@std@@V?$allocator@V?$basic_string@DU?$char_traits@D@std@@V?$allocator@D@2@@std@@@2@@3@@Z 0041bbc0 f   readSVDB.obj
 0001:0001b0e0       ?GetEntityIDListBySE@readSVDB@@QAE_NAAV?$list@V?$basic_string@DU?$char_traits@D@std@@V?$allocator@D@2@@std@@V?$allocator@V?$basic_string@DU?$char_traits@D@std@@V?$allocator@D@2@@std@@@2@@std@@H@Z 0041c0e0 f   readSVDB.obj
 0001:0001b2d0       ?GetGroupIDList@readSVDB@@QAE_NAAV?$list@V?$basic_string@DU?$char_traits@D@std@@V?$allocator@D@2@@std@@V?$allocator@V?$basic_string@DU?$char_traits@D@std@@V?$allocator@D@2@@std@@@2@@std@@@Z 0041c2d0 f   readSVDB.obj
 0001:0001b450       ??0?$map@HPAXU?$less@H@std@@V?$allocator@U?$pair@$$CBHPAX@std@@@2@@std@@QAE@XZ 0041c450 f i readSVDB.obj
 0001:0001b480       ??1?$map@V?$basic_string@DU?$char_traits@D@std@@V?$allocator@D@2@@std@@PAXU?$less@V?$basic_string@DU?$char_traits@D@std@@V?$allocator@D@2@@std@@@2@V?$allocator@U?$pair@$$CBV?$basic_string@DU?$char_traits@D@std@@V?$allocator@D@2@@std@@PAX@std@@@2@@std@@QAE@XZ 0041c480 f i readSVDB.obj
 0001:0001b4b0       ?GetTaskMap@readSVDB@@QAE_NAAV?$hashtable@Vword@svutil@@PAVTask@@@svutil@@@Z 0041c4b0 f   readSVDB.obj
 0001:0001bfa0       ??0?$map@V?$basic_string@DU?$char_traits@D@std@@V?$allocator@D@2@@std@@PAXU?$less@V?$basic_string@DU?$char_traits@D@std@@V?$allocator@D@2@@std@@@2@V?$allocator@U?$pair@$$CBV?$basic_string@DU?$char_traits@D@std@@V?$allocator@D@2@@std@@PAX@std@@@2@@std@@QAE@XZ 0041cfa0 f i readSVDB.obj
 0001:0001bfd0       ??0ReturnData@@QAE@XZ      0041cfd0 f   ReturnData.obj
 0001:0001c020       ??1ReturnData@@QAE@XZ      0041d020 f   ReturnData.obj
 0001:0001c070       ??1ReturnValue@@UAE@XZ     0041d070 f   ReturnValue.obj
 0001:0001c080       ?Clear@ReturnValue@@QAEXXZ 0041d080 f   ReturnValue.obj
 0001:0001c0a0       ??0ReturnValue@@QAE@XZ     0041d0a0 f   ReturnValue.obj
 0001:0001c0c0       ??_EReturnValue@@UAEPAXI@Z 0041d0c0 f i ReturnValue.obj
 0001:0001c0c0       ??_GReturnValue@@UAEPAXI@Z 0041d0c0 f i ReturnValue.obj
 0001:0001c0f0       ?GetBeginTDTime@Monitor@@QAE?AVTTime@svutil@@XZ 0041d0f0 f i ScheduleThread.obj
 0001:0001c100       ?GetEndTDTime@Monitor@@QAE?AVTTime@svutil@@XZ 0041d100 f i ScheduleThread.obj
 0001:0001c110       ??1ScheduleThread@@UAE@XZ  0041d110 f   ScheduleThread.obj
 0001:0001c120       ?InitMonitorTime@ScheduleThread@@IAEHXZ 0041d120 f   ScheduleThread.obj
 0001:0001c240       ?run@ScheduleThread@@UAEXXZ 0041d240 f   ScheduleThread.obj
 0001:0001cb90       ??0ThreadContrl@@QAE@PAVMonitorSchMain@@@Z 0041db90 f i ScheduleThread.obj
 0001:0001cc30       ??_GThreadContrl@@UAEPAXI@Z 0041dc30 f i ScheduleThread.obj
 0001:0001cc30       ??_EThreadContrl@@UAEPAXI@Z 0041dc30 f i ScheduleThread.obj
 0001:0001cc50       ?Init@ScheduleThread@@QAEHXZ 0041dc50 f   ScheduleThread.obj
 0001:0001cf40       ??1?$pair@$$CBV?$basic_string@DU?$char_traits@D@std@@V?$allocator@D@2@@std@@PAX@std@@QAE@XZ 0041df40 f   readSVDB.obj
 0001:0001cf40       ??1SingelRecord@@QAE@XZ    0041df40 f   appendmassrecord.obj
 0001:0001cf40       ??1?$pair@V?$basic_string@DU?$char_traits@D@std@@V?$allocator@D@2@@std@@PAX@std@@QAE@XZ 0041df40 f   readSVDB.obj
 0001:0001cf40       ??1SerialData@@QAE@XZ      0041df40 f   SerialData.obj
 0001:0001cf50       ?SerialStringMap@SerialData@@AAE_NAAV?$hashtable@Vword@svutil@@V12@@svutil@@PAU_iobuf@@@Z 0041df50 f   SerialData.obj
 0001:0001cfc0       ??A?$hashtable@Vword@svutil@@PAVTask@@@svutil@@QAEAAPAVTask@@ABVword@1@@Z 0041dfc0 f i SerialData.obj
 0001:0001cff0       ?CovertStringToMap@SerialData@@AAE_NV?$basic_string@DU?$char_traits@D@std@@V?$allocator@D@2@@std@@AAV?$hashtable@Vword@svutil@@V12@@svutil@@@Z 0041dff0 f   SerialData.obj
 0001:0001d1a0       ?Serial@SerialData@@AAEHPAU_iobuf@@AAV?$list@PAVMonitor@@V?$allocator@PAVMonitor@@@std@@@std@@PAVGroups@@PAVSubsequent@@AAV?$hashtable@Vword@svutil@@PAVTask@@@svutil@@_N@Z 0041e1a0 f   SerialData.obj
 0001:0001dc00       ?Serial@SerialData@@QAEHAAV?$list@PAVMonitor@@V?$allocator@PAVMonitor@@@std@@@std@@PAVGroups@@PAVSubsequent@@AAV?$hashtable@Vword@svutil@@PAVTask@@@svutil@@_N@Z 0041ec00 f   SerialData.obj
 0001:0001dca0       ??1StateCondition@@QAE@XZ  0041eca0 f   StateCondition.obj
 0001:0001dd80       ??0StateCondition@@QAE@XZ  0041ed80 f   StateCondition.obj
 0001:0001ddd0       ??0StateConditionItem@@QAE@XZ 0041edd0 f   StateConditionItem.obj
 0001:0001de30       ??1StateConditionItem@@QAE@XZ 0041ee30 f   StateConditionItem.obj
 0001:0001de80       ??RStlIniCompareStringNoCase@@QBE_NABV?$basic_string@DU?$char_traits@D@std@@V?$allocator@D@2@@std@@0@Z 0041ee80 f i stlini.obj
 0001:0001ded0       ??1?$pair@V?$basic_string@DU?$char_traits@D@std@@V?$allocator@D@2@@std@@V12@@std@@QAE@XZ 0041eed0 f i stlini.obj
 0001:0001df20       ??0?$pair@V?$basic_string@DU?$char_traits@D@std@@V?$allocator@D@2@@std@@V12@@std@@QAE@ABV?$basic_string@DU?$char_traits@D@std@@V?$allocator@D@2@@1@0@Z 0041ef20 f i stlini.obj
 0001:0001df80       ?_Dec@const_iterator@?$_Tree@V?$_Tmap_traits@V?$basic_string@DU?$char_traits@D@std@@V?$allocator@D@2@@std@@V?$map@V?$basic_string@DU?$char_traits@D@std@@V?$allocator@D@2@@std@@V12@UStlIniCompareStringNoCase@@V?$allocator@U?$pair@$$CBV?$basic_string@DU?$char_traits@D@std@@V?$allocator@D@2@@std@@V12@@std@@@2@@2@UStlIniCompareStringNoCase@@V?$allocator@U?$pair@$$CBV?$basic_string@DU?$char_traits@D@std@@V?$allocator@D@2@@std@@V?$map@V?$basic_string@DU?$char_traits@D@std@@V?$allocator@D@2@@std@@V12@UStlIniCompareStringNoCase@@V?$allocator@U?$pair@$$CBV?$basic_string@DU?$char_traits@D@std@@V?$allocator@D@2@@std@@V12@@std@@@2@@2@@std@@@2@$0A@@std@@@std@@QAEXXZ 0041ef80 f i stlini.obj
 0001:0001dfe0       ?_Dec@const_iterator@?$_Tree@V?$_Tmap_traits@V?$basic_string@DU?$char_traits@D@std@@V?$allocator@D@2@@std@@V12@UStlIniCompareStringNoCase@@V?$allocator@U?$pair@$$CBV?$basic_string@DU?$char_traits@D@std@@V?$allocator@D@2@@std@@V12@@std@@@2@$0A@@std@@@std@@QAEXXZ 0041efe0 f i stlini.obj
 0001:0001e040       ??0?$pair@$$CBV?$basic_string@DU?$char_traits@D@std@@V?$allocator@D@2@@std@@V12@@std@@QAE@ABU01@@Z 0041f040 f i stlini.obj
 0001:0001e040       ??$?0V?$basic_string@DU?$char_traits@D@std@@V?$allocator@D@2@@std@@V01@@?$pair@$$CBV?$basic_string@DU?$char_traits@D@std@@V?$allocator@D@2@@std@@V12@@std@@QAE@ABU?$pair@V?$basic_string@DU?$char_traits@D@std@@V?$allocator@D@2@@std@@V12@@1@@Z 0041f040 f i stlini.obj
 0001:0001e0a0       ?_Lbound@?$_Tree@V?$_Tmap_traits@V?$basic_string@DU?$char_traits@D@std@@V?$allocator@D@2@@std@@V?$map@V?$basic_string@DU?$char_traits@D@std@@V?$allocator@D@2@@std@@V12@UStlIniCompareStringNoCase@@V?$allocator@U?$pair@$$CBV?$basic_string@DU?$char_traits@D@std@@V?$allocator@D@2@@std@@V12@@std@@@2@@2@UStlIniCompareStringNoCase@@V?$allocator@U?$pair@$$CBV?$basic_string@DU?$char_traits@D@std@@V?$allocator@D@2@@std@@V?$map@V?$basic_string@DU?$char_traits@D@std@@V?$allocator@D@2@@std@@V12@UStlIniCompareStringNoCase@@V?$allocator@U?$pair@$$CBV?$basic_string@DU?$char_traits@D@std@@V?$allocator@D@2@@std@@V12@@std@@@2@@2@@std@@@2@$0A@@std@@@std@@IBEPAU_Node@?$_Tree_nod@V?$_Tmap_traits@V?$basic_string@DU?$char_traits@D@std@@V?$allocator@D@2@@std@@V?$map@V?$basic_string@DU?$char_traits@D@std@@V?$allocator@D@2@@std@@V12@UStlIniCompareStringNoCase@@V?$allocator@U?$pair@$$CBV?$basic_string@DU?$char_traits@D@std@@V?$allocator@D@2@@std@@V12@@std@@@2@@2@UStlIniCompareStringNoCase@@V?$allocator@U?$pair@$$CBV?$basic_string@DU?$char_traits@D@std@@V?$allocator@D@2@@std@@V?$map@V?$basic_string@DU?$char_traits@D@std@@V?$allocator@D@2@@std@@V12@UStlIniCompareStringNoCase@@V?$allocator@U?$pair@$$CBV?$basic_string@DU?$char_traits@D@std@@V?$allocator@D@2@@std@@V12@@std@@@2@@2@@std@@@2@$0A@@std@@@2@ABV?$basic_string@DU?$char_traits@D@std@@V?$allocator@D@2@@2@@Z 0041f0a0 f i stlini.obj
 0001:0001e110       ?_Lbound@?$_Tree@V?$_Tmap_traits@V?$basic_string@DU?$char_traits@D@std@@V?$allocator@D@2@@std@@V12@UStlIniCompareStringNoCase@@V?$allocator@U?$pair@$$CBV?$basic_string@DU?$char_traits@D@std@@V?$allocator@D@2@@std@@V12@@std@@@2@$0A@@std@@@std@@IBEPAU_Node@?$_Tree_nod@V?$_Tmap_traits@V?$basic_string@DU?$char_traits@D@std@@V?$allocator@D@2@@std@@V12@UStlIniCompareStringNoCase@@V?$allocator@U?$pair@$$CBV?$basic_string@DU?$char_traits@D@std@@V?$allocator@D@2@@std@@V12@@std@@@2@$0A@@std@@@2@ABV?$basic_string@DU?$char_traits@D@std@@V?$allocator@D@2@@2@@Z 0041f110 f i stlini.obj
 0001:0001e180       ?_Buynode@?$_Tree@V?$_Tmap_traits@V?$basic_string@DU?$char_traits@D@std@@V?$allocator@D@2@@std@@V?$map@V?$basic_string@DU?$char_traits@D@std@@V?$allocator@D@2@@std@@V12@UStlIniCompareStringNoCase@@V?$allocator@U?$pair@$$CBV?$basic_string@DU?$char_traits@D@std@@V?$allocator@D@2@@std@@V12@@std@@@2@@2@UStlIniCompareStringNoCase@@V?$allocator@U?$pair@$$CBV?$basic_string@DU?$char_traits@D@std@@V?$allocator@D@2@@std@@V?$map@V?$basic_string@DU?$char_traits@D@std@@V?$allocator@D@2@@std@@V12@UStlIniCompareStringNoCase@@V?$allocator@U?$pair@$$CBV?$basic_string@DU?$char_traits@D@std@@V?$allocator@D@2@@std@@V12@@std@@@2@@2@@std@@@2@$0A@@std@@@std@@IAEPAU_Node@?$_Tree_nod@V?$_Tmap_traits@V?$basic_string@DU?$char_traits@D@std@@V?$allocator@D@2@@std@@V?$map@V?$basic_string@DU?$char_traits@D@std@@V?$allocator@D@2@@std@@V12@UStlIniCompareStringNoCase@@V?$allocator@U?$pair@$$CBV?$basic_string@DU?$char_traits@D@std@@V?$allocator@D@2@@std@@V12@@std@@@2@@2@UStlIniCompareStringNoCase@@V?$allocator@U?$pair@$$CBV?$basic_string@DU?$char_traits@D@std@@V?$allocator@D@2@@std@@V?$map@V?$basic_string@DU?$char_traits@D@std@@V?$allocator@D@2@@std@@V12@UStlIniCompareStringNoCase@@V?$allocator@U?$pair@$$CBV?$basic_string@DU?$char_traits@D@std@@V?$allocator@D@2@@std@@V12@@std@@@2@@2@@std@@@2@$0A@@std@@@2@XZ 0041f180 f i stlini.obj
 0001:0001e1c0       ?_Buynode@?$_Tree@V?$_Tmap_traits@V?$basic_string@DU?$char_traits@D@std@@V?$allocator@D@2@@std@@V12@UStlIniCompareStringNoCase@@V?$allocator@U?$pair@$$CBV?$basic_string@DU?$char_traits@D@std@@V?$allocator@D@2@@std@@V12@@std@@@2@$0A@@std@@@std@@IAEPAU_Node@?$_Tree_nod@V?$_Tmap_traits@V?$basic_string@DU?$char_traits@D@std@@V?$allocator@D@2@@std@@V12@UStlIniCompareStringNoCase@@V?$allocator@U?$pair@$$CBV?$basic_string@DU?$char_traits@D@std@@V?$allocator@D@2@@std@@V12@@std@@@2@$0A@@std@@@2@PAU342@00ABU?$pair@$$CBV?$basic_string@DU?$char_traits@D@std@@V?$allocator@D@2@@std@@V12@@2@D@Z 0041f1c0 f i stlini.obj
 0001:0001e260       ?_Buynode@?$_Tree@V?$_Tmap_traits@V?$basic_string@DU?$char_traits@D@std@@V?$allocator@D@2@@std@@V12@UStlIniCompareStringNoCase@@V?$allocator@U?$pair@$$CBV?$basic_string@DU?$char_traits@D@std@@V?$allocator@D@2@@std@@V12@@std@@@2@$0A@@std@@@std@@IAEPAU_Node@?$_Tree_nod@V?$_Tmap_traits@V?$basic_string@DU?$char_traits@D@std@@V?$allocator@D@2@@std@@V12@UStlIniCompareStringNoCase@@V?$allocator@U?$pair@$$CBV?$basic_string@DU?$char_traits@D@std@@V?$allocator@D@2@@std@@V12@@std@@@2@$0A@@std@@@2@XZ 0041f260 f i stlini.obj
 0001:0001e2a0       ?find@?$_Tree@V?$_Tmap_traits@V?$basic_string@DU?$char_traits@D@std@@V?$allocator@D@2@@std@@V12@UStlIniCompareStringNoCase@@V?$allocator@U?$pair@$$CBV?$basic_string@DU?$char_traits@D@std@@V?$allocator@D@2@@std@@V12@@std@@@2@$0A@@std@@@std@@QAE?AViterator@12@ABV?$basic_string@DU?$char_traits@D@std@@V?$allocator@D@2@@2@@Z 0041f2a0 f i stlini.obj
 0001:0001e300       ?_Insert@?$_Tree@V?$_Tmap_traits@V?$basic_string@DU?$char_traits@D@std@@V?$allocator@D@2@@std@@V12@UStlIniCompareStringNoCase@@V?$allocator@U?$pair@$$CBV?$basic_string@DU?$char_traits@D@std@@V?$allocator@D@2@@std@@V12@@std@@@2@$0A@@std@@@std@@IAE?AViterator@12@_NPAU_Node@?$_Tree_nod@V?$_Tmap_traits@V?$basic_string@DU?$char_traits@D@std@@V?$allocator@D@2@@std@@V12@UStlIniCompareStringNoCase@@V?$allocator@U?$pair@$$CBV?$basic_string@DU?$char_traits@D@std@@V?$allocator@D@2@@std@@V12@@std@@@2@$0A@@std@@@2@ABU?$pair@$$CBV?$basic_string@DU?$char_traits@D@std@@V?$allocator@D@2@@std@@V12@@2@@Z 0041f300 f i stlini.obj
 0001:0001e4c0       ?GetIniSetting@@YA?AV?$basic_string@DU?$char_traits@D@std@@V?$allocator@D@2@@std@@AAV?$map@V?$basic_string@DU?$char_traits@D@std@@V?$allocator@D@2@@std@@V?$map@V?$basic_string@DU?$char_traits@D@std@@V?$allocator@D@2@@std@@V12@UStlIniCompareStringNoCase@@V?$allocator@U?$pair@$$CBV?$basic_string@DU?$char_traits@D@std@@V?$allocator@D@2@@std@@V12@@std@@@2@@2@UStlIniCompareStringNoCase@@V?$allocator@U?$pair@$$CBV?$basic_string@DU?$char_traits@D@std@@V?$allocator@D@2@@std@@V?$map@V?$basic_string@DU?$char_traits@D@std@@V?$allocator@D@2@@std@@V12@UStlIniCompareStringNoCase@@V?$allocator@U?$pair@$$CBV?$basic_string@DU?$char_traits@D@std@@V?$allocator@D@2@@std@@V12@@std@@@2@@2@@std@@@2@@2@PBD11@Z 0041f4c0 f   stlini.obj
 0001:0001e5f0       ?insert@?$_Tree@V?$_Tmap_traits@V?$basic_string@DU?$char_traits@D@std@@V?$allocator@D@2@@std@@V12@UStlIniCompareStringNoCase@@V?$allocator@U?$pair@$$CBV?$basic_string@DU?$char_traits@D@std@@V?$allocator@D@2@@std@@V12@@std@@@2@$0A@@std@@@std@@QAE?AU?$pair@Viterator@?$_Tree@V?$_Tmap_traits@V?$basic_string@DU?$char_traits@D@std@@V?$allocator@D@2@@std@@V12@UStlIniCompareStringNoCase@@V?$allocator@U?$pair@$$CBV?$basic_string@DU?$char_traits@D@std@@V?$allocator@D@2@@std@@V12@@std@@@2@$0A@@std@@@std@@_N@2@ABU?$pair@$$CBV?$basic_string@DU?$char_traits@D@std@@V?$allocator@D@2@@std@@V12@@2@@Z 0041f5f0 f i stlini.obj
 0001:0001e6e0       ?_Copy@?$_Tree@V?$_Tmap_traits@V?$basic_string@DU?$char_traits@D@std@@V?$allocator@D@2@@std@@V12@UStlIniCompareStringNoCase@@V?$allocator@U?$pair@$$CBV?$basic_string@DU?$char_traits@D@std@@V?$allocator@D@2@@std@@V12@@std@@@2@$0A@@std@@@std@@IAEPAU_Node@?$_Tree_nod@V?$_Tmap_traits@V?$basic_string@DU?$char_traits@D@std@@V?$allocator@D@2@@std@@V12@UStlIniCompareStringNoCase@@V?$allocator@U?$pair@$$CBV?$basic_string@DU?$char_traits@D@std@@V?$allocator@D@2@@std@@V12@@std@@@2@$0A@@std@@@2@PAU342@0@Z 0041f6e0 f i stlini.obj
 0001:0001e790       ?_Copy@?$_Tree@V?$_Tmap_traits@V?$basic_string@DU?$char_traits@D@std@@V?$allocator@D@2@@std@@V12@UStlIniCompareStringNoCase@@V?$allocator@U?$pair@$$CBV?$basic_string@DU?$char_traits@D@std@@V?$allocator@D@2@@std@@V12@@std@@@2@$0A@@std@@@std@@IAEXABV12@@Z 0041f790 f i stlini.obj
 0001:0001e820       ??0?$_Tree@V?$_Tmap_traits@V?$basic_string@DU?$char_traits@D@std@@V?$allocator@D@2@@std@@V12@UStlIniCompareStringNoCase@@V?$allocator@U?$pair@$$CBV?$basic_string@DU?$char_traits@D@std@@V?$allocator@D@2@@std@@V12@@std@@@2@$0A@@std@@@std@@QAE@ABV01@@Z 0041f820 f i stlini.obj
 0001:0001e8b0       ??1?$pair@V?$basic_string@DU?$char_traits@D@std@@V?$allocator@D@2@@std@@V?$map@V?$basic_string@DU?$char_traits@D@std@@V?$allocator@D@2@@std@@V12@UStlIniCompareStringNoCase@@V?$allocator@U?$pair@$$CBV?$basic_string@DU?$char_traits@D@std@@V?$allocator@D@2@@std@@V12@@std@@@2@@2@@std@@QAE@XZ 0041f8b0 f i stlini.obj
 0001:0001e930       ??$?0V?$basic_string@DU?$char_traits@D@std@@V?$allocator@D@2@@std@@V?$map@V?$basic_string@DU?$char_traits@D@std@@V?$allocator@D@2@@std@@V12@UStlIniCompareStringNoCase@@V?$allocator@U?$pair@$$CBV?$basic_string@DU?$char_traits@D@std@@V?$allocator@D@2@@std@@V12@@std@@@2@@1@@?$pair@$$CBV?$basic_string@DU?$char_traits@D@std@@V?$allocator@D@2@@std@@V?$map@V?$basic_string@DU?$char_traits@D@std@@V?$allocator@D@2@@std@@V12@UStlIniCompareStringNoCase@@V?$allocator@U?$pair@$$CBV?$basic_string@DU?$char_traits@D@std@@V?$allocator@D@2@@std@@V12@@std@@@2@@2@@std@@QAE@ABU?$pair@V?$basic_string@DU?$char_traits@D@std@@V?$allocator@D@2@@std@@V?$map@V?$basic_string@DU?$char_traits@D@std@@V?$allocator@D@2@@std@@V12@UStlIniCompareStringNoCase@@V?$allocator@U?$pair@$$CBV?$basic_string@DU?$char_traits@D@std@@V?$allocator@D@2@@std@@V12@@std@@@2@@2@@1@@Z 0041f930 f i stlini.obj
 0001:0001e930       ??0?$pair@$$CBV?$basic_string@DU?$char_traits@D@std@@V?$allocator@D@2@@std@@V?$map@V?$basic_string@DU?$char_traits@D@std@@V?$allocator@D@2@@std@@V12@UStlIniCompareStringNoCase@@V?$allocator@U?$pair@$$CBV?$basic_string@DU?$char_traits@D@std@@V?$allocator@D@2@@std@@V12@@std@@@2@@2@@std@@QAE@ABU01@@Z 0041f930 f i stlini.obj
 0001:0001e990       ??0?$pair@V?$basic_string@DU?$char_traits@D@std@@V?$allocator@D@2@@std@@V?$map@V?$basic_string@DU?$char_traits@D@std@@V?$allocator@D@2@@std@@V12@UStlIniCompareStringNoCase@@V?$allocator@U?$pair@$$CBV?$basic_string@DU?$char_traits@D@std@@V?$allocator@D@2@@std@@V12@@std@@@2@@2@@std@@QAE@ABV?$basic_string@DU?$char_traits@D@std@@V?$allocator@D@2@@1@ABV?$map@V?$basic_string@DU?$char_traits@D@std@@V?$allocator@D@2@@std@@V12@UStlIniCompareStringNoCase@@V?$allocator@U?$pair@$$CBV?$basic_string@DU?$char_traits@D@std@@V?$allocator@D@2@@std@@V12@@std@@@2@@1@@Z 0041f990 f i stlini.obj
 0001:0001e9f0       ?_Buynode@?$_Tree@V?$_Tmap_traits@V?$basic_string@DU?$char_traits@D@std@@V?$allocator@D@2@@std@@V?$map@V?$basic_string@DU?$char_traits@D@std@@V?$allocator@D@2@@std@@V12@UStlIniCompareStringNoCase@@V?$allocator@U?$pair@$$CBV?$basic_string@DU?$char_traits@D@std@@V?$allocator@D@2@@std@@V12@@std@@@2@@2@UStlIniCompareStringNoCase@@V?$allocator@U?$pair@$$CBV?$basic_string@DU?$char_traits@D@std@@V?$allocator@D@2@@std@@V?$map@V?$basic_string@DU?$char_traits@D@std@@V?$allocator@D@2@@std@@V12@UStlIniCompareStringNoCase@@V?$allocator@U?$pair@$$CBV?$basic_string@DU?$char_traits@D@std@@V?$allocator@D@2@@std@@V12@@std@@@2@@2@@std@@@2@$0A@@std@@@std@@IAEPAU_Node@?$_Tree_nod@V?$_Tmap_traits@V?$basic_string@DU?$char_traits@D@std@@V?$allocator@D@2@@std@@V?$map@V?$basic_string@DU?$char_traits@D@std@@V?$allocator@D@2@@std@@V12@UStlIniCompareStringNoCase@@V?$allocator@U?$pair@$$CBV?$basic_string@DU?$char_traits@D@std@@V?$allocator@D@2@@std@@V12@@std@@@2@@2@UStlIniCompareStringNoCase@@V?$allocator@U?$pair@$$CBV?$basic_string@DU?$char_traits@D@std@@V?$allocator@D@2@@std@@V?$map@V?$basic_string@DU?$char_traits@D@std@@V?$allocator@D@2@@std@@V12@UStlIniCompareStringNoCase@@V?$allocator@U?$pair@$$CBV?$basic_string@DU?$char_traits@D@std@@V?$allocator@D@2@@std@@V12@@std@@@2@@2@@std@@@2@$0A@@std@@@2@PAU342@00ABU?$pair@$$CBV?$basic_string@DU?$char_traits@D@std@@V?$allocator@D@2@@std@@V?$map@V?$basic_string@DU?$char_traits@D@std@@V?$allocator@D@2@@std@@V12@UStlIniCompareStringNoCase@@V?$allocator@U?$pair@$$CBV?$basic_string@DU?$char_traits@D@std@@V?$allocator@D@2@@std@@V12@@std@@@2@@2@@2@D@Z 0041f9f0 f i stlini.obj
 0001:0001ea90       ?_Insert@?$_Tree@V?$_Tmap_traits@V?$basic_string@DU?$char_traits@D@std@@V?$allocator@D@2@@std@@V?$map@V?$basic_string@DU?$char_traits@D@std@@V?$allocator@D@2@@std@@V12@UStlIniCompareStringNoCase@@V?$allocator@U?$pair@$$CBV?$basic_string@DU?$char_traits@D@std@@V?$allocator@D@2@@std@@V12@@std@@@2@@2@UStlIniCompareStringNoCase@@V?$allocator@U?$pair@$$CBV?$basic_string@DU?$char_traits@D@std@@V?$allocator@D@2@@std@@V?$map@V?$basic_string@DU?$char_traits@D@std@@V?$allocator@D@2@@std@@V12@UStlIniCompareStringNoCase@@V?$allocator@U?$pair@$$CBV?$basic_string@DU?$char_traits@D@std@@V?$allocator@D@2@@std@@V12@@std@@@2@@2@@std@@@2@$0A@@std@@@std@@IAE?AViterator@12@_NPAU_Node@?$_Tree_nod@V?$_Tmap_traits@V?$basic_string@DU?$char_traits@D@std@@V?$allocator@D@2@@std@@V?$map@V?$basic_string@DU?$char_traits@D@std@@V?$allocator@D@2@@std@@V12@UStlIniCompareStringNoCase@@V?$allocator@U?$pair@$$CBV?$basic_string@DU?$char_traits@D@std@@V?$allocator@D@2@@std@@V12@@std@@@2@@2@UStlIniCompareStringNoCase@@V?$allocator@U?$pair@$$CBV?$basic_string@DU?$char_traits@D@std@@V?$allocator@D@2@@std@@V?$map@V?$basic_string@DU?$char_traits@D@std@@V?$allocator@D@2@@std@@V12@UStlIniCompareStringNoCase@@V?$allocator@U?$pair@$$CBV?$basic_string@DU?$char_traits@D@std@@V?$allocator@D@2@@std@@V12@@std@@@2@@2@@std@@@2@$0A@@std@@@2@ABU?$pair@$$CBV?$basic_string@DU?$char_traits@D@std@@V?$allocator@D@2@@std@@V?$map@V?$basic_string@DU?$char_traits@D@std@@V?$allocator@D@2@@std@@V12@UStlIniCompareStringNoCase@@V?$allocator@U?$pair@$$CBV?$basic_string@DU?$char_traits@D@std@@V?$allocator@D@2@@std@@V12@@std@@@2@@2@@2@@Z 0041fa90 f i stlini.obj
 0001:0001ec50       ?insert@?$_Tree@V?$_Tmap_traits@V?$basic_string@DU?$char_traits@D@std@@V?$allocator@D@2@@std@@V?$map@V?$basic_string@DU?$char_traits@D@std@@V?$allocator@D@2@@std@@V12@UStlIniCompareStringNoCase@@V?$allocator@U?$pair@$$CBV?$basic_string@DU?$char_traits@D@std@@V?$allocator@D@2@@std@@V12@@std@@@2@@2@UStlIniCompareStringNoCase@@V?$allocator@U?$pair@$$CBV?$basic_string@DU?$char_traits@D@std@@V?$allocator@D@2@@std@@V?$map@V?$basic_string@DU?$char_traits@D@std@@V?$allocator@D@2@@std@@V12@UStlIniCompareStringNoCase@@V?$allocator@U?$pair@$$CBV?$basic_string@DU?$char_traits@D@std@@V?$allocator@D@2@@std@@V12@@std@@@2@@2@@std@@@2@$0A@@std@@@std@@QAE?AU?$pair@Viterator@?$_Tree@V?$_Tmap_traits@V?$basic_string@DU?$char_traits@D@std@@V?$allocator@D@2@@std@@V?$map@V?$basic_string@DU?$char_traits@D@std@@V?$allocator@D@2@@std@@V12@UStlIniCompareStringNoCase@@V?$allocator@U?$pair@$$CBV?$basic_string@DU?$char_traits@D@std@@V?$allocator@D@2@@std@@V12@@std@@@2@@2@UStlIniCompareStringNoCase@@V?$allocator@U?$pair@$$CBV?$basic_string@DU?$char_traits@D@std@@V?$allocator@D@2@@std@@V?$map@V?$basic_string@DU?$char_traits@D@std@@V?$allocator@D@2@@std@@V12@UStlIniCompareStringNoCase@@V?$allocator@U?$pair@$$CBV?$basic_string@DU?$char_traits@D@std@@V?$allocator@D@2@@std@@V12@@std@@@2@@2@@std@@@2@$0A@@std@@@std@@_N@2@ABU?$pair@$$CBV?$basic_string@DU?$char_traits@D@std@@V?$allocator@D@2@@std@@V?$map@V?$basic_string@DU?$char_traits@D@std@@V?$allocator@D@2@@std@@V12@UStlIniCompareStringNoCase@@V?$allocator@U?$pair@$$CBV?$basic_string@DU?$char_traits@D@std@@V?$allocator@D@2@@std@@V12@@std@@@2@@2@@2@@Z 0041fc50 f i stlini.obj
 0001:0001ed40       ?PutIniSetting@@YAXAAV?$map@V?$basic_string@DU?$char_traits@D@std@@V?$allocator@D@2@@std@@V?$map@V?$basic_string@DU?$char_traits@D@std@@V?$allocator@D@2@@std@@V12@UStlIniCompareStringNoCase@@V?$allocator@U?$pair@$$CBV?$basic_string@DU?$char_traits@D@std@@V?$allocator@D@2@@std@@V12@@std@@@2@@2@UStlIniCompareStringNoCase@@V?$allocator@U?$pair@$$CBV?$basic_string@DU?$char_traits@D@std@@V?$allocator@D@2@@std@@V?$map@V?$basic_string@DU?$char_traits@D@std@@V?$allocator@D@2@@std@@V12@UStlIniCompareStringNoCase@@V?$allocator@U?$pair@$$CBV?$basic_string@DU?$char_traits@D@std@@V?$allocator@D@2@@std@@V12@@std@@@2@@2@@std@@@2@@std@@PBD11@Z 0041fd40 f   stlini.obj
 0001:0001f0b0       ?_Copy@?$_Tree@V?$_Tmap_traits@V?$basic_string@DU?$char_traits@D@std@@V?$allocator@D@2@@std@@V?$map@V?$basic_string@DU?$char_traits@D@std@@V?$allocator@D@2@@std@@V12@UStlIniCompareStringNoCase@@V?$allocator@U?$pair@$$CBV?$basic_string@DU?$char_traits@D@std@@V?$allocator@D@2@@std@@V12@@std@@@2@@2@UStlIniCompareStringNoCase@@V?$allocator@U?$pair@$$CBV?$basic_string@DU?$char_traits@D@std@@V?$allocator@D@2@@std@@V?$map@V?$basic_string@DU?$char_traits@D@std@@V?$allocator@D@2@@std@@V12@UStlIniCompareStringNoCase@@V?$allocator@U?$pair@$$CBV?$basic_string@DU?$char_traits@D@std@@V?$allocator@D@2@@std@@V12@@std@@@2@@2@@std@@@2@$0A@@std@@@std@@IAEPAU_Node@?$_Tree_nod@V?$_Tmap_traits@V?$basic_string@DU?$char_traits@D@std@@V?$allocator@D@2@@std@@V?$map@V?$basic_string@DU?$char_traits@D@std@@V?$allocator@D@2@@std@@V12@UStlIniCompareStringNoCase@@V?$allocator@U?$pair@$$CBV?$basic_string@DU?$char_traits@D@std@@V?$allocator@D@2@@std@@V12@@std@@@2@@2@UStlIniCompareStringNoCase@@V?$allocator@U?$pair@$$CBV?$basic_string@DU?$char_traits@D@std@@V?$allocator@D@2@@std@@V?$map@V?$basic_string@DU?$char_traits@D@std@@V?$allocator@D@2@@std@@V12@UStlIniCompareStringNoCase@@V?$allocator@U?$pair@$$CBV?$basic_string@DU?$char_traits@D@std@@V?$allocator@D@2@@std@@V12@@std@@@2@@2@@std@@@2@$0A@@std@@@2@PAU342@0@Z 004200b0 f i stlini.obj
 0001:0001f160       ?_Copy@?$_Tree@V?$_Tmap_traits@V?$basic_string@DU?$char_traits@D@std@@V?$allocator@D@2@@std@@V?$map@V?$basic_string@DU?$char_traits@D@std@@V?$allocator@D@2@@std@@V12@UStlIniCompareStringNoCase@@V?$allocator@U?$pair@$$CBV?$basic_string@DU?$char_traits@D@std@@V?$allocator@D@2@@std@@V12@@std@@@2@@2@UStlIniCompareStringNoCase@@V?$allocator@U?$pair@$$CBV?$basic_string@DU?$char_traits@D@std@@V?$allocator@D@2@@std@@V?$map@V?$basic_string@DU?$char_traits@D@std@@V?$allocator@D@2@@std@@V12@UStlIniCompareStringNoCase@@V?$allocator@U?$pair@$$CBV?$basic_string@DU?$char_traits@D@std@@V?$allocator@D@2@@std@@V12@@std@@@2@@2@@std@@@2@$0A@@std@@@std@@IAEXABV12@@Z 00420160 f i stlini.obj
 0001:0001f1f0       ??0?$_Tree@V?$_Tmap_traits@V?$basic_string@DU?$char_traits@D@std@@V?$allocator@D@2@@std@@V?$map@V?$basic_string@DU?$char_traits@D@std@@V?$allocator@D@2@@std@@V12@UStlIniCompareStringNoCase@@V?$allocator@U?$pair@$$CBV?$basic_string@DU?$char_traits@D@std@@V?$allocator@D@2@@std@@V12@@std@@@2@@2@UStlIniCompareStringNoCase@@V?$allocator@U?$pair@$$CBV?$basic_string@DU?$char_traits@D@std@@V?$allocator@D@2@@std@@V?$map@V?$basic_string@DU?$char_traits@D@std@@V?$allocator@D@2@@std@@V12@UStlIniCompareStringNoCase@@V?$allocator@U?$pair@$$CBV?$basic_string@DU?$char_traits@D@std@@V?$allocator@D@2@@std@@V12@@std@@@2@@2@@std@@@2@$0A@@std@@@std@@QAE@ABV01@@Z 004201f0 f i stlini.obj
 0001:0001f280       ?LoadIni@@YA?AV?$map@V?$basic_string@DU?$char_traits@D@std@@V?$allocator@D@2@@std@@V?$map@V?$basic_string@DU?$char_traits@D@std@@V?$allocator@D@2@@std@@V12@UStlIniCompareStringNoCase@@V?$allocator@U?$pair@$$CBV?$basic_string@DU?$char_traits@D@std@@V?$allocator@D@2@@std@@V12@@std@@@2@@2@UStlIniCompareStringNoCase@@V?$allocator@U?$pair@$$CBV?$basic_string@DU?$char_traits@D@std@@V?$allocator@D@2@@std@@V?$map@V?$basic_string@DU?$char_traits@D@std@@V?$allocator@D@2@@std@@V12@UStlIniCompareStringNoCase@@V?$allocator@U?$pair@$$CBV?$basic_string@DU?$char_traits@D@std@@V?$allocator@D@2@@std@@V12@@std@@@2@@2@@std@@@2@@std@@PBD@Z 00420280 f   stlini.obj
 0001:0001f520       ?GetValueByMonitor@Subsequent@@QAEHPAVMonitor@@AAH1@Z 00420520 f   Subsequent.obj
 0001:0001f600       ??1?$list@PAVThreadEx@@V?$allocator@PAVThreadEx@@@std@@@std@@QAE@XZ 00420600 f i ScheduleThread.obj
 0001:0001f600       ??1?$list@PAVGroupsItem@@V?$allocator@PAVGroupsItem@@@std@@@std@@QAE@XZ 00420600 f i Groups.obj
 0001:0001f600       ??1?$list@PAUtmsg@@V?$allocator@PAUtmsg@@@std@@@std@@QAE@XZ 00420600 f i MSGQueue.obj
 0001:0001f600       ??1?$list@PAVStateConditionItem@@V?$allocator@PAVStateConditionItem@@@std@@@std@@QAE@XZ 00420600 f i StateCondition.obj
 0001:0001f600       ??1?$list@PAVSubsequentItem@@V?$allocator@PAVSubsequentItem@@@std@@@std@@QAE@XZ 00420600 f i Subsequent.obj
 0001:0001f600       ??1?$list@PAVMonitor@@V?$allocator@PAVMonitor@@@std@@@std@@QAE@XZ 00420600 f i MonitorSchedule.obj
 0001:0001f600       ??1?$list@PAVEntity@@V?$allocator@PAVEntity@@@std@@@std@@QAE@XZ 00420600 f i Groups.obj
 0001:0001f600       ??1?$list@PAVReturnValue@@V?$allocator@PAVReturnValue@@@std@@@std@@QAE@XZ 00420600 f i MonitorThread.obj
 0001:0001f600       ??1?$list@PAVReturnData@@V?$allocator@PAVReturnData@@@std@@@std@@QAE@XZ 00420600 f i Monitor.obj
 0001:0001f620       ??1Subsequent@@UAE@XZ      00420620 f   Subsequent.obj
 0001:0001f700       ??0Subsequent@@QAE@XZ      00420700 f   Subsequent.obj
 0001:0001f730       ??_ESubsequent@@UAEPAXI@Z  00420730 f i Subsequent.obj
 0001:0001f730       ??_GSubsequent@@UAEPAXI@Z  00420730 f i Subsequent.obj
 0001:0001f750       ?FromTextMap@Subsequent@@QAE_NAAV?$hashtable@Vword@svutil@@V12@@svutil@@@Z 00420750 f   Subsequent.obj
 0001:0001fa50       ?ToTextMap@Subsequent@@QAE_NAAV?$hashtable@Vword@svutil@@V12@@svutil@@@Z 00420a50 f   Subsequent.obj
 0001:0001fcc0       ??0SubsequentItem@@QAE@XZ  00420cc0 f   SubsequentItem.obj
 0001:0001fd20       ??1SubsequentItem@@QAE@XZ  00420d20 f   SubsequentItem.obj
 0001:0001fd70       ??$_Copy_opt@PAUPairTime@@PAU1@@std@@YAPAUPairTime@@PAU1@00U_Nonscalar_ptr_iterator_tag@0@@Z 00420d70 f i Task.obj
 0001:0001fdb0       ?resize@?$vector@UPairTime@@V?$allocator@UPairTime@@@std@@@std@@QAEXIUPairTime@@@Z 00420db0 f i Task.obj
 0001:0001fe30       ??0TaskWeekDay@@QAE@XZ     00420e30 f i Task.obj
 0001:0001fe40       ??1Task@@QAE@XZ            00420e40 f   Task.obj
 0001:0001fea0       ??0Task@@QAE@XZ            00420ea0 f   Task.obj
 0001:0001ff00       ?ToTextMap@Task@@QAE_NAAV?$hashtable@Vword@svutil@@V12@@svutil@@@Z 00420f00 f   Task.obj
 0001:00020400       ?FromTextMap@Task@@QAE_NAAV?$hashtable@Vword@svutil@@V12@@svutil@@@Z 00421400 f   Task.obj
 0001:00020920       ?CheckSubsequent@ThreadContrl@@IAE_NPAVMonitor@@AA_N1@Z 00421920 f   ThreadContrl.obj
 0001:00020ad0       ?CheckSubsequent@ThreadContrl@@IAEHPAVMonitor@@@Z 00421ad0 f   ThreadContrl.obj
 0001:00020cc0       ?CheckTaskQueueByMonitor@ThreadContrl@@QAEXPAVMonitor@@@Z 00421cc0 f   ThreadContrl.obj
 0001:00020ce0       ?PrintTaskQueueInfo@ThreadContrl@@QAEXXZ 00421ce0 f   ThreadContrl.obj
 0001:00020cf0       ?AdjustRetByMonitor@ThreadContrl@@QAEXPAVMonitor@@H@Z 00421cf0 f   ThreadContrl.obj
 0001:00020de0       ?_Incsize@?$list@PAVThreadEx@@V?$allocator@PAVThreadEx@@@std@@@std@@IAEXI@Z 00421de0 f i ThreadContrl.obj
 0001:00020e80       ??0ThreadContrl@@QAE@XZ    00421e80 f   ThreadContrl.obj
 0001:00020f20       ??1ThreadContrl@@UAE@XZ    00421f20 f   ThreadContrl.obj
 0001:00020fb0       ?AddNewThreads@ThreadContrl@@AAEHH@Z 00421fb0 f   ThreadContrl.obj
 0001:00021130       ?GetIdleThread@ThreadContrl@@AAEPAVThreadEx@@XZ 00422130 f   ThreadContrl.obj
 0001:00021230       ?StartMonitor@ThreadContrl@@AAEXPAVMonitor@@@Z 00422230 f   ThreadContrl.obj
 0001:00021270       ?ProcessSingleTaskQueueByIndex@ThreadContrl@@IAEHH@Z 00422270 f   ThreadContrl.obj
 0001:000212f0       ?CheckAllTaskQueue@ThreadContrl@@IAEXXZ 004222f0 f   ThreadContrl.obj
 0001:00021320       ?AddToIdleThread@ThreadContrl@@QAEXPAVThreadEx@@@Z 00422320 f   ThreadContrl.obj
 0001:000213b0       ?ExecuteMonitor@ThreadContrl@@QAEXPAVMonitor@@@Z 004223b0 f   ThreadContrl.obj
 0001:00021480       ?InitRefresh@ThreadContrl@@QAE_NH@Z 00422480 f   ThreadContrl.obj
 0001:000214d0       ?RefreshMonitors@ThreadContrl@@QAEXAAV?$list@PAVMonitor@@V?$allocator@PAVMonitor@@@std@@@std@@@Z 004224d0 f   ThreadContrl.obj
 0001:000215e0       ?Init@ThreadContrl@@QAEHXZ 004225e0 f   ThreadContrl.obj
 0001:000216b0       ?AddTask@ThreadContrl@@QAEHPAVMonitor@@@Z 004226b0 f   ThreadContrl.obj
 0001:00021860       ?ProcessSingleTaskEx@ThreadContrl@@IAEHPAVMonitor@@@Z 00422860 f   ThreadContrl.obj
 0001:000219d0       ?run@ThreadContrl@@UAEXXZ  004229d0 f   ThreadContrl.obj
 0001:00021b50       ??0ThreadEx@@QAE@XZ        00422b50 f   ThreadEx.obj
 0001:00021b80       ??1ThreadEx@@UAE@XZ        00422b80 f   ThreadEx.obj
 0001:00021b90       ??_GThreadEx@@UAEPAXI@Z    00422b90 f i ThreadEx.obj
 0001:00021b90       ??_EThreadEx@@UAEPAXI@Z    00422b90 f i ThreadEx.obj
 0001:00021bb0       ??0TString@@QAE@XZ         00422bb0 f   TString.obj
 0001:00021bd0       ??1TString@@UAE@XZ         00422bd0 f   TString.obj
 0001:00021be0       ?Format@TString@@QAAHPBDZZ 00422be0 f   TString.obj
 0001:00021cc0       ?Format@TString@@QAAHHPBDZZ 00422cc0 f   TString.obj
 0001:00021d30       ?Right@TString@@QAE?AV1@H@Z 00422d30 f   TString.obj
 0001:00021dc0       ?CompareNoCase@TString@@QAEHPBD@Z 00422dc0 f   TString.obj
 0001:00021de0       ?_Buynode@?$list@VSingelRecord@@V?$allocator@VSingelRecord@@@std@@@std@@IAEPAU_Node@?$_List_nod@VSingelRecord@@V?$allocator@VSingelRecord@@@std@@@2@PAU342@0ABVSingelRecord@@@Z 00422de0 f i Util.obj
 0001:00021e80       ?_Incsize@?$list@VSingelRecord@@V?$allocator@VSingelRecord@@@std@@@std@@IAEXI@Z 00422e80 f i Util.obj
 0001:00021f20       ?CacheRecords@Util@@CA_NV?$basic_string@DU?$char_traits@D@std@@V?$allocator@D@2@@std@@PBDH@Z 00422f20 f   Util.obj
 0001:00022030       ?InsertSvdb@Util@@SA_NV?$basic_string@DU?$char_traits@D@std@@V?$allocator@D@2@@std@@PBDH0@Z 00423030 f   Util.obj
 0001:00022230       ?InsertSvdb@Util@@SA_NV?$basic_string@DU?$char_traits@D@std@@V?$allocator@D@2@@std@@PBDH@Z 00423230 f   Util.obj
 0001:000223c0       ?FreeStringList@Util@@SAXAAV?$list@V?$basic_string@DU?$char_traits@D@std@@V?$allocator@D@2@@std@@V?$allocator@V?$basic_string@DU?$char_traits@D@std@@V?$allocator@D@2@@std@@@2@@std@@@Z 004233c0 f   Util.obj
 0001:000223d0       ?AppendThenClearAllRecords@Util@@SAHAAV?$list@VSingelRecord@@V?$allocator@VSingelRecord@@@std@@@std@@@Z 004233d0 f   Util.obj
 0001:00022510       ?GetRootPath@Util@@SA?AVTString@@XZ 00423510 f   Util.obj
 0001:000225a0       ?ErrorLog@Util@@SAXVTString@@@Z 004235a0 f   Util.obj
 0001:000227b0       ?SendMsgToWsServer@Util@@SA_NV?$basic_string@DU?$char_traits@D@std@@V?$allocator@D@2@@std@@0@Z 004237b0 f   Util.obj
 0001:00022b20       ?GetSVMQAddress@Util@@SA?AVTString@@XZ 00423b20 f   Util.obj
 0001:00022ce0       ??0Util@@QAE@XZ            00423ce0 f   Util.obj
 0001:00022d40       ?notify@Thread@ost@@MAEXPAV12@@Z 00423d40 f   ccgnu2:ccgnu2.dll
 0001:00022d46       ?getExtended@Thread@ost@@MAEPAXXZ 00423d46 f   ccgnu2:ccgnu2.dll
 0001:00022d4c       ?initial@Thread@ost@@MAEXXZ 00423d4c f   ccgnu2:ccgnu2.dll
 0001:00022d52       ?final@Thread@ost@@MAEXXZ  00423d52 f   ccgnu2:ccgnu2.dll
 0001:00022d58       ?compare@String@ost@@MBEHPBDII@Z 00423d58 f   ccgnu2:ccgnu2.dll
 0001:00022d60       ??0word@svutil@@QAE@PBD@Z  00423d60 f   libutil:strkey.obj
 0001:00022df0       ??0word@svutil@@QAE@ABV?$basic_string@DU?$char_traits@D@std@@V?$allocator@D@2@@std@@@Z 00423df0 f   libutil:strkey.obj
 0001:00022e90       ??4word@svutil@@QAEAAV01@PBD@Z 00423e90 f   libutil:strkey.obj
 0001:00022f30       ??4word@svutil@@QAEAAV01@ABV01@@Z 00423f30 f   libutil:strkey.obj
 0001:00022fe0       ??8word@svutil@@QBE_NABV01@@Z 00423fe0 f   libutil:strkey.obj
 0001:00023050       ??Mword@svutil@@QBE_NABV01@@Z 00424050 f   libutil:strkey.obj
 0001:00023160       ??Oword@svutil@@QBE_NABV01@@Z 00424160 f   libutil:strkey.obj
 0001:00023270       ??0buffer@svutil@@QAE@XZ   00424270 f   libutil:buffer.obj
 0001:000232b0       ??1buffer@svutil@@QAE@XZ   004242b0 f   libutil:buffer.obj
 0001:00023310       ?checksize@buffer@svutil@@QAE_NI@Z 00424310 f   libutil:buffer.obj
 0001:000233ef       ??2@YAPAXI@Z               004243ef f   msvcprt:newop_s.obj
 0001:00023414       ??_U@YAPAXI@Z              00424414 f   msvcprt:newaop_s.obj
 0001:0002341a       ??3@YAXPAX@Z               0042441a f   MSVCRT:MSVCR71.dll
 0001:00023420       ??0exception@@QAE@ABV0@@Z  00424420 f   MSVCRT:MSVCR71.dll
 0001:00023426       ??0bad_cast@@QAE@ABV0@@Z   00424426 f   MSVCRT:MSVCR71.dll
 0001:0002342c       ??_Etype_info@@UAEPAXI@Z   0042442c f i MSVCRT:ti_inst.obj
 0001:00023478       ??1bad_cast@@UAE@XZ        00424478 f   MSVCRT:MSVCR71.dll
 0001:0002347e       ___CxxFrameHandler         0042447e f   MSVCRT:MSVCR71.dll
 0001:00023490       __CxxThrowException@8      00424490 f   MSVCRT:MSVCR71.dll
 0001:000234c7       @__security_check_cookie@4 004244c7 f   MSVCRT:secchk.obj
 0001:000234e0       __chkstk                   004244e0 f   MSVCRT:chkstk.obj
 0001:000234e0       __alloca_probe             004244e0     MSVCRT:chkstk.obj
 0001:0002351e       ??_V@YAXPAX@Z              0042451e f   MSVCRT:MSVCR71.dll
 0001:00023524       __onexit                   00424524 f   MSVCRT:atonexit.obj
 0001:0002354a       _atexit                    0042454a f   MSVCRT:atonexit.obj
 0001:0002355c       __except_handler3          0042455c f   MSVCRT:MSVCR71.dll
 0001:00023562       ?__ArrayUnwind@@YGXPAXIHP6EX0@Z@Z 00424562 f   MSVCRT:ehvecdtr.obj
 0001:000235c0       ??_M@YGXPAXIHP6EX0@Z@Z     004245c0 f   MSVCRT:ehvecdtr.obj
 0001:00023620       ??_L@YGXPAXIHP6EX0@Z1@Z    00424620 f   MSVCRT:ehvecctr.obj
 0001:00023682       __purecall                 00424682 f   MSVCRT:MSVCR71.dll
 0001:00023688       _mainCRTStartup            00424688 f   MSVCRT:crtexe.obj
 0001:00023820       __RTC_CheckEsp             00424820 f   MSVCRT:stack.obj
 0001:00023843       __RTC_InitBase             00424843 f   MSVCRT:init.obj
 0001:00023869       __RTC_Shutdown             00424869 f   MSVCRT:init.obj
 0001:0002387c       _strcmp                    0042487c f   MSVCRT:MSVCR71.dll
 0001:00023882       _strlen                    00424882 f   MSVCRT:MSVCR71.dll
 0001:00023888       _memset                    00424888 f   MSVCRT:MSVCR71.dll
 0001:0002388e       _malloc                    0042488e f   MSVCRT:MSVCR71.dll
 0001:00023894       __callnewh                 00424894 f   MSVCRT:MSVCR71.dll
 0001:0002389a       ??1type_info@@UAE@XZ       0042489a f   MSVCRT:MSVCR71.dll
 0001:000238a0       ___security_init_cookie    004248a0 f   MSVCRT:seccinit.obj
 0001:00023906       ___security_error_handler  00424906 f   MSVCRT:MSVCR71.dll
 0001:0002390c       __SEH_prolog               0042490c f   MSVCRT:sehprolg.obj
 0001:00023947       __SEH_epilog               00424947 f   MSVCRT:sehprolg.obj
 0001:00023958       ___dllonexit               00424958 f   MSVCRT:MSVCR71.dll
 0001:0002395e       ?terminate@@YAXXZ          0042495e f   MSVCRT:MSVCR71.dll
 0001:00023964       __XcptFilter               00424964 f   MSVCRT:MSVCR71.dll
 0001:0002396a       __amsg_exit                0042496a f   MSVCRT:MSVCR71.dll
 0001:00023970       __RTC_Initialize           00424970 f   MSVCRT:initsect.obj
 0001:000239b4       __RTC_Terminate            004249b4 f   MSVCRT:initsect.obj
 0001:000239f8       __initterm                 004249f8 f   MSVCRT:MSVCR71.dll
 0001:000239fe       __setdefaultprecision      004249fe f   MSVCRT:fp8.obj
 0001:00023a10       __setargv                  00424a10 f   MSVCRT:dllargv.obj
 0001:00023a10       __matherr                  00424a10 f   MSVCRT:merr.obj
 0001:00023c45       ?_RTC_Failure@@YAXPAXH@Z   00424c45 f   MSVCRT:error.obj
 0001:00023c83       __RTC_SetErrorFunc         00424c83 f   MSVCRT:userapi.obj
 0001:00023c93       ?_RTC_GetErrorFunc@@YAP6AHHPBDH00ZZPBX@Z 00424c93 f   MSVCRT:userapi.obj
 0001:00023c9a       __CRT_RTC_INIT             00424c9a f   MSVCRT:MSVCR71.dll
 0001:00023ca0       __controlfp                00424ca0 f   MSVCRT:MSVCR71.dll
 0001:0002412f       ?_RTC_GetSrcLine@@YAHKPADHPAHPAPAD@Z 0042512f f   MSVCRT:pdblkup.obj
 0002:00000000       __imp__GetProcessHeap@0    00429000     kernel32:KERNEL32.dll
 0002:00000004       __imp__HeapFree@12         00429004     kernel32:KERNEL32.dll
 0002:00000008       __imp__GetCurrentProcess@0 00429008     kernel32:KERNEL32.dll
 0002:0000000c       __imp__HeapAlloc@12        0042900c     kernel32:KERNEL32.dll
 0002:00000010       __imp__CloseHandle@4       00429010     kernel32:KERNEL32.dll
 0002:00000014       __imp__GetModuleFileNameA@12 00429014     kernel32:KERNEL32.dll
 0002:00000018       __imp__DebugBreak@0        00429018     kernel32:KERNEL32.dll
 0002:0000001c       __imp__GetVersionExA@4     0042901c     kernel32:KERNEL32.dll
 0002:00000020       __imp__RaiseException@16   00429020     kernel32:KERNEL32.dll
 0002:00000024       __imp__GetSystemTimeAsFileTime@4 00429024     kernel32:KERNEL32.dll
 0002:00000028       __imp__GetCurrentProcessId@0 00429028     kernel32:KERNEL32.dll
 0002:0000002c       __imp__GetTickCount@0      0042902c     kernel32:KERNEL32.dll
 0002:00000030       __imp__QueryPerformanceCounter@4 00429030     kernel32:KERNEL32.dll
 0002:00000034       __imp__GetModuleHandleA@4  00429034     kernel32:KERNEL32.dll
 0002:00000038       __imp__GetCurrentThreadId@0 00429038     kernel32:KERNEL32.dll
 0002:0000003c       __imp__CreateProcessA@40   0042903c     kernel32:KERNEL32.dll
 0002:00000040       __imp__WaitForSingleObject@8 00429040     kernel32:KERNEL32.dll
 0002:00000044       __imp__Sleep@4             00429044     kernel32:KERNEL32.dll
 0002:00000048       __imp__CreateEventA@16     00429048     kernel32:KERNEL32.dll
 0002:0000004c       __imp__GetLastError@0      0042904c     kernel32:KERNEL32.dll
 0002:00000050       __imp__SetLastError@4      00429050     kernel32:KERNEL32.dll
 0002:00000054       __imp__ResetEvent@4        00429054     kernel32:KERNEL32.dll
 0002:00000058       __imp__LoadLibraryA@4      00429058     kernel32:KERNEL32.dll
 0002:0000005c       __imp__GetProcAddress@8    0042905c     kernel32:KERNEL32.dll
 0002:00000060       __imp__FreeLibrary@4       00429060     kernel32:KERNEL32.dll
 0002:00000064       __imp__ExitProcess@4       00429064     kernel32:KERNEL32.dll
 0002:00000068       __imp__OutputDebugStringA@4 00429068     kernel32:KERNEL32.dll
 0002:0000006c       \177KERNEL32_NULL_THUNK_DATA 0042906c     kernel32:KERNEL32.dll
 0002:00000070       __imp_?c_str@?$basic_string@DU?$char_traits@D@std@@V?$allocator@D@2@@std@@QBEPBDXZ 00429070     msvcprt:MSVCP71.dll
 0002:00000074       __imp_?getline@?$basic_istream@DU?$char_traits@D@std@@@std@@QAEAAV12@PADH@Z 00429074     msvcprt:MSVCP71.dll
 0002:00000078       __imp_??0?$basic_fstream@DU?$char_traits@D@std@@@std@@QAE@PBDHH@Z 00429078     msvcprt:MSVCP71.dll
 0002:0000007c       __imp_??_D?$basic_fstream@DU?$char_traits@D@std@@@std@@QAEXXZ 0042907c     msvcprt:MSVCP71.dll
 0002:00000080       __imp_?rfind@?$basic_string@DU?$char_traits@D@std@@V?$allocator@D@2@@std@@QBEIPBDII@Z 00429080     msvcprt:MSVCP71.dll
 0002:00000084       __imp_?find_first_of@?$basic_string@DU?$char_traits@D@std@@V?$allocator@D@2@@std@@QBEIPBDII@Z 00429084     msvcprt:MSVCP71.dll
 0002:00000088       __imp_?replace@?$basic_string@DU?$char_traits@D@std@@V?$allocator@D@2@@std@@QAEAAV12@IIPBD@Z 00429088     msvcprt:MSVCP71.dll
 0002:0000008c       __imp_??0?$basic_istringstream@DU?$char_traits@D@std@@V?$allocator@D@2@@std@@QAE@ABV?$basic_string@DU?$char_traits@D@std@@V?$allocator@D@2@@1@H@Z 0042908c     msvcprt:MSVCP71.dll
 0002:00000090       __imp_??_D?$basic_istringstream@DU?$char_traits@D@std@@V?$allocator@D@2@@std@@QAEXXZ 00429090     msvcprt:MSVCP71.dll
 0002:00000094       __imp_??$?8DU?$char_traits@D@std@@V?$allocator@D@1@@std@@YA_NABV?$basic_string@DU?$char_traits@D@std@@V?$allocator@D@2@@0@0@Z 00429094     msvcprt:MSVCP71.dll
 0002:00000098       __imp_??$?MDU?$char_traits@D@std@@V?$allocator@D@1@@std@@YA_NABV?$basic_string@DU?$char_traits@D@std@@V?$allocator@D@2@@0@0@Z 00429098     msvcprt:MSVCP71.dll
 0002:0000009c       __imp_??$?8DU?$char_traits@D@std@@V?$allocator@D@1@@std@@YA_NABV?$basic_string@DU?$char_traits@D@std@@V?$allocator@D@2@@0@PBD@Z 0042909c     msvcprt:MSVCP71.dll
 0002:000000a0       __imp_?compare@?$basic_string@DU?$char_traits@D@std@@V?$allocator@D@2@@std@@QBEHABV12@@Z 004290a0     msvcprt:MSVCP71.dll
 0002:000000a4       __imp_?find@?$basic_string@DU?$char_traits@D@std@@V?$allocator@D@2@@std@@QBEIPBDII@Z 004290a4     msvcprt:MSVCP71.dll
 0002:000000a8       __imp_?substr@?$basic_string@DU?$char_traits@D@std@@V?$allocator@D@2@@std@@QBE?AV12@II@Z 004290a8     msvcprt:MSVCP71.dll
 0002:000000ac       __imp_??0?$basic_string@DU?$char_traits@D@std@@V?$allocator@D@2@@std@@QAE@XZ 004290ac     msvcprt:MSVCP71.dll
 0002:000000b0       __imp_??4?$basic_string@DU?$char_traits@D@std@@V?$allocator@D@2@@std@@QAEAAV01@PBD@Z 004290b0     msvcprt:MSVCP71.dll
 0002:000000b4       __imp_?compare@?$basic_string@DU?$char_traits@D@std@@V?$allocator@D@2@@std@@QBEHIIPBDI@Z 004290b4     msvcprt:MSVCP71.dll
 0002:000000b8       __imp_??0?$basic_ostringstream@DU?$char_traits@D@std@@V?$allocator@D@2@@std@@QAE@H@Z 004290b8     msvcprt:MSVCP71.dll
 0002:000000bc       __imp_?str@?$basic_ostringstream@DU?$char_traits@D@std@@V?$allocator@D@2@@std@@QBE?AV?$basic_string@DU?$char_traits@D@std@@V?$allocator@D@2@@2@XZ 004290bc     msvcprt:MSVCP71.dll
 0002:000000c0       __imp_??_D?$basic_ostringstream@DU?$char_traits@D@std@@V?$allocator@D@2@@std@@QAEXXZ 004290c0     msvcprt:MSVCP71.dll
 0002:000000c4       __imp_??4?$basic_string@DU?$char_traits@D@std@@V?$allocator@D@2@@std@@QAEAAV01@ABV01@@Z 004290c4     msvcprt:MSVCP71.dll
 0002:000000c8       __imp_??$?6U?$char_traits@D@std@@@std@@YAAAV?$basic_ostream@DU?$char_traits@D@std@@@0@AAV10@PBD@Z 004290c8     msvcprt:MSVCP71.dll
 0002:000000cc       __imp_?endl@std@@YAAAV?$basic_ostream@DU?$char_traits@D@std@@@1@AAV21@@Z 004290cc     msvcprt:MSVCP71.dll
 0002:000000d0       __imp_?cout@std@@3V?$basic_ostream@DU?$char_traits@D@std@@@1@A 004290d0     msvcprt:MSVCP71.dll
 0002:000000d4       __imp_??6?$basic_ostream@DU?$char_traits@D@std@@@std@@QAEAAV01@H@Z 004290d4     msvcprt:MSVCP71.dll
 0002:000000d8       __imp_??6?$basic_ostream@DU?$char_traits@D@std@@@std@@QAEAAV01@P6AAAV01@AAV01@@Z@Z 004290d8     msvcprt:MSVCP71.dll
 0002:000000dc       __imp_?sputc@?$basic_streambuf@DU?$char_traits@D@std@@@std@@QAEHD@Z 004290dc     msvcprt:MSVCP71.dll
 0002:000000e0       __imp_?getloc@ios_base@std@@QBE?AVlocale@2@XZ 004290e0     msvcprt:MSVCP71.dll
 0002:000000e4       __imp_??1locale@std@@QAE@XZ 004290e4     msvcprt:MSVCP71.dll
 0002:000000e8       __imp_?npos@?$basic_string@DU?$char_traits@D@std@@V?$allocator@D@2@@std@@2IB 004290e8     msvcprt:MSVCP71.dll
 0002:000000ec       __imp_?erase@?$basic_string@DU?$char_traits@D@std@@V?$allocator@D@2@@std@@QAEAAV12@II@Z 004290ec     msvcprt:MSVCP71.dll
 0002:000000f0       __imp_?max_size@?$basic_string@DU?$char_traits@D@std@@V?$allocator@D@2@@std@@QBEIXZ 004290f0     msvcprt:MSVCP71.dll
 0002:000000f4       __imp_?sgetc@?$basic_streambuf@DU?$char_traits@D@std@@@std@@QAEHXZ 004290f4     msvcprt:MSVCP71.dll
 0002:000000f8       __imp_?append@?$basic_string@DU?$char_traits@D@std@@V?$allocator@D@2@@std@@QAEAAV12@ID@Z 004290f8     msvcprt:MSVCP71.dll
 0002:000000fc       __imp_?snextc@?$basic_streambuf@DU?$char_traits@D@std@@@std@@QAEHXZ 004290fc     msvcprt:MSVCP71.dll
 0002:00000100       __imp_?clear@ios_base@std@@QAEXH_N@Z 00429100     msvcprt:MSVCP71.dll
 0002:00000104       __imp_?_Osfx@?$basic_ostream@DU?$char_traits@D@std@@@std@@QAEXXZ 00429104     msvcprt:MSVCP71.dll
 0002:00000108       __imp_?flush@?$basic_ostream@DU?$char_traits@D@std@@@std@@QAEAAV12@XZ 00429108     msvcprt:MSVCP71.dll
 0002:0000010c       __imp_?_Ipfx@?$basic_istream@DU?$char_traits@D@std@@@std@@QAE_N_N@Z 0042910c     msvcprt:MSVCP71.dll
 0002:00000110       __imp_?uncaught_exception@std@@YA_NXZ 00429110     msvcprt:MSVCP71.dll
 0002:00000114       __imp_?_Nomemory@std@@YAXXZ 00429114     msvcprt:MSVCP71.dll
 0002:00000118       __imp_?clear@?$basic_string@DU?$char_traits@D@std@@V?$allocator@D@2@@std@@QAEXXZ 00429118     msvcprt:MSVCP71.dll
 0002:0000011c       __imp_??Y?$basic_string@DU?$char_traits@D@std@@V?$allocator@D@2@@std@@QAEAAV01@PBD@Z 0042911c     msvcprt:MSVCP71.dll
 0002:00000120       __imp_??1?$basic_string@DU?$char_traits@D@std@@V?$allocator@D@2@@std@@QAE@XZ 00429120     msvcprt:MSVCP71.dll
 0002:00000124       __imp_?_Unlock@_Mutex@std@@QAEXXZ 00429124     msvcprt:MSVCP71.dll
 0002:00000128       __imp_?_Lock@_Mutex@std@@QAEXXZ 00429128     msvcprt:MSVCP71.dll
 0002:0000012c       __imp_?_Register@facet@locale@std@@QAEXXZ 0042912c     msvcprt:MSVCP71.dll
 0002:00000130       __imp_?_Incref@facet@locale@std@@QAEXXZ 00429130     msvcprt:MSVCP71.dll
 0002:00000134       __imp_?_Getcat@?$ctype@D@std@@SAIPAPBVfacet@locale@2@@Z 00429134     msvcprt:MSVCP71.dll
 0002:00000138       __imp_?_Getfacet@locale@std@@QBEPBVfacet@12@I@Z 00429138     msvcprt:MSVCP71.dll
 0002:0000013c       __imp_?_Id_cnt@id@locale@std@@0HA 0042913c     msvcprt:MSVCP71.dll
 0002:00000140       __imp_??1_Lockit@std@@QAE@XZ 00429140     msvcprt:MSVCP71.dll
 0002:00000144       __imp_?id@?$ctype@D@std@@2V0locale@2@A 00429144     msvcprt:MSVCP71.dll
 0002:00000148       __imp_??0_Lockit@std@@QAE@H@Z 00429148     msvcprt:MSVCP71.dll
 0002:0000014c       __imp_??Y?$basic_string@DU?$char_traits@D@std@@V?$allocator@D@2@@std@@QAEAAV01@ABV01@@Z 0042914c     msvcprt:MSVCP71.dll
 0002:00000150       __imp_??0?$basic_string@DU?$char_traits@D@std@@V?$allocator@D@2@@std@@QAE@ABV01@@Z 00429150     msvcprt:MSVCP71.dll
 0002:00000154       __imp_??0?$basic_string@DU?$char_traits@D@std@@V?$allocator@D@2@@std@@QAE@PBD@Z 00429154     msvcprt:MSVCP71.dll
 0002:00000158       \177MSVCP71_NULL_THUNK_DATA 00429158     msvcprt:MSVCP71.dll
 0002:0000015c       __imp__strstr              0042915c     MSVCRT:MSVCR71.dll
 0002:00000160       __imp___atoi64             00429160     MSVCRT:MSVCR71.dll
 0002:00000164       __imp__mktime              00429164     MSVCRT:MSVCR71.dll
 0002:00000168       __imp__printf              00429168     MSVCRT:MSVCR71.dll
 0002:0000016c       __imp__puts                0042916c     MSVCRT:MSVCR71.dll
 0002:00000170       __imp___i64toa             00429170     MSVCRT:MSVCR71.dll
 0002:00000174       __imp__atoi                00429174     MSVCRT:MSVCR71.dll
 0002:00000178       __imp__memmove             00429178     MSVCRT:MSVCR71.dll
 0002:0000017c       __imp__free                0042917c     MSVCRT:MSVCR71.dll
 0002:00000180       __imp___strdup             00429180     MSVCRT:MSVCR71.dll
 0002:00000180       __imp__strdup              00429180     MSVCRT:MSVCR71.dll
 0002:00000184       __imp_??0exception@@QAE@XZ 00429184     MSVCRT:MSVCR71.dll
 0002:00000188       __imp_??1exception@@UAE@XZ 00429188     MSVCRT:MSVCR71.dll
 0002:0000018c       __imp_??_V@YAXPAX@Z        0042918c     MSVCRT:MSVCR71.dll
 0002:00000190       __imp__time                00429190     MSVCRT:MSVCR71.dll
 0002:00000194       __imp__sprintf             00429194     MSVCRT:MSVCR71.dll
 0002:00000198       __imp___CxxThrowException@8 00429198     MSVCRT:MSVCR71.dll
 0002:0000019c       __imp____CxxFrameHandler   0042919c     MSVCRT:MSVCR71.dll
 0002:000001a0       __imp_??0bad_cast@@QAE@PBD@Z 004291a0     MSVCRT:MSVCR71.dll
 0002:000001a4       __imp_??1bad_cast@@UAE@XZ  004291a4     MSVCRT:MSVCR71.dll
 0002:000001a8       __imp_??0bad_cast@@QAE@ABV0@@Z 004291a8     MSVCRT:MSVCR71.dll
 0002:000001ac       __imp_??0exception@@QAE@ABV0@@Z 004291ac     MSVCRT:MSVCR71.dll
 0002:000001b0       __imp_??3@YAXPAX@Z         004291b0     MSVCRT:MSVCR71.dll
 0002:000001b4       __imp__fclose              004291b4     MSVCRT:MSVCR71.dll
 0002:000001b8       __imp__fgets               004291b8     MSVCRT:MSVCR71.dll
 0002:000001bc       __imp___controlfp          004291bc     MSVCRT:MSVCR71.dll
 0002:000001c0       __imp___CRT_RTC_INIT       004291c0     MSVCRT:MSVCR71.dll
 0002:000001c4       __imp____set_app_type      004291c4     MSVCRT:MSVCR71.dll
 0002:000001c8       __imp____p__fmode          004291c8     MSVCRT:MSVCR71.dll
 0002:000001cc       __imp____p__commode        004291cc     MSVCRT:MSVCR71.dll
 0002:000001d0       __imp___adjust_fdiv        004291d0     MSVCRT:MSVCR71.dll
 0002:000001d4       __imp____setusermatherr    004291d4     MSVCRT:MSVCR71.dll
 0002:000001d8       __imp___initterm           004291d8     MSVCRT:MSVCR71.dll
 0002:000001dc       __imp____getmainargs       004291dc     MSVCRT:MSVCR71.dll
 0002:000001e0       __imp___amsg_exit          004291e0     MSVCRT:MSVCR71.dll
 0002:000001e4       __imp____p___initenv       004291e4     MSVCRT:MSVCR71.dll
 0002:000001e8       __imp__exit                004291e8     MSVCRT:MSVCR71.dll
 0002:000001ec       __imp___cexit              004291ec     MSVCRT:MSVCR71.dll
 0002:000001f0       __imp___XcptFilter         004291f0     MSVCRT:MSVCR71.dll
 0002:000001f4       __imp___exit               004291f4     MSVCRT:MSVCR71.dll
 0002:000001f8       __imp___c_exit             004291f8     MSVCRT:MSVCR71.dll
 0002:000001fc       __imp_?terminate@@YAXXZ    004291fc     MSVCRT:MSVCR71.dll
 0002:00000200       __imp___onexit             00429200     MSVCRT:MSVCR71.dll
 0002:00000204       __imp____dllonexit         00429204     MSVCRT:MSVCR71.dll
 0002:00000208       __imp____security_error_handler 00429208     MSVCRT:MSVCR71.dll
 0002:0000020c       __imp_??1type_info@@UAE@XZ 0042920c     MSVCRT:MSVCR71.dll
 0002:00000210       __imp___callnewh           00429210     MSVCRT:MSVCR71.dll
 0002:00000214       __imp__malloc              00429214     MSVCRT:MSVCR71.dll
 0002:00000218       __imp__memset              00429218     MSVCRT:MSVCR71.dll
 0002:0000021c       __imp__strlen              0042921c     MSVCRT:MSVCR71.dll
 0002:00000220       __imp__strcmp              00429220     MSVCRT:MSVCR71.dll
 0002:00000224       __imp___vsnprintf          00429224     MSVCRT:MSVCR71.dll
 0002:00000228       __imp___purecall           00429228     MSVCRT:MSVCR71.dll
 0002:0000022c       __imp__strchr              0042922c     MSVCRT:MSVCR71.dll
 0002:00000230       __imp__strrchr             00429230     MSVCRT:MSVCR71.dll
 0002:00000234       __imp__fputs               00429234     MSVCRT:MSVCR71.dll
 0002:00000238       __imp__fprintf             00429238     MSVCRT:MSVCR71.dll
 0002:0000023c       __imp__sscanf              0042923c     MSVCRT:MSVCR71.dll
 0002:00000240       __imp__strtod              00429240     MSVCRT:MSVCR71.dll
 0002:00000244       __imp__localtime           00429244     MSVCRT:MSVCR71.dll
 0002:00000248       __imp__atof                00429248     MSVCRT:MSVCR71.dll
 0002:0000024c       __imp___except_handler3    0042924c     MSVCRT:MSVCR71.dll
 0002:00000250       __imp___stricmp            00429250     MSVCRT:MSVCR71.dll
 0002:00000250       __imp__stricmp             00429250     MSVCRT:MSVCR71.dll
 0002:00000254       __imp__fopen               00429254     MSVCRT:MSVCR71.dll
 0002:00000258       \177MSVCR71_NULL_THUNK_DATA 00429258     MSVCRT:MSVCR71.dll
 0002:0000025c       __imp___itoa               0042925c     MSVCRTD:MSVCR71D.dll
 0002:0000025c       __imp__itoa                0042925c     MSVCRTD:MSVCR71D.dll
 0002:00000260       \177MSVCR71D_NULL_THUNK_DATA 00429260     MSVCRTD:MSVCR71D.dll
 0002:00000264       __imp__PeekMessageA@20     00429264     user32:USER32.dll
 0002:00000268       __imp__WaitMessage@0       00429268     user32:USER32.dll
 0002:0000026c       __imp__PostThreadMessageA@16 0042926c     user32:USER32.dll
 0002:00000270       __imp__GetMessageA@16      00429270     user32:USER32.dll
 0002:00000274       __imp__TranslateMessage@4  00429274     user32:USER32.dll
 0002:00000278       __imp__DispatchMessageA@4  00429278     user32:USER32.dll
 0002:0000027c       \177USER32_NULL_THUNK_DATA 0042927c     user32:USER32.dll
 0002:00000280       __imp__WSAStartup@8        00429280     ws2_32:WS2_32.dll
 0002:00000284       \177WS2_32_NULL_THUNK_DATA 00429284     ws2_32:WS2_32.dll
 0002:00000288       __imp_??Host@@YA?AVString@0@PBDABV10@@Z 00429288     ccgnu2:ccgnu2.dll
 0002:0000028c       __imp_?getValue@String@ost@@QBEJJ@Z 0042928c     ccgnu2:ccgnu2.dll
 0002:00000290       __imp_??8String@ost@@QBE_NABV01@@Z 00429290     ccgnu2:ccgnu2.dll
 0002:00000294       __imp_??0Event@ost@@QAE@XZ 00429294     ccgnu2:ccgnu2.dll
 0002:00000298       __imp_??1Event@ost@@UAE@XZ 00429298     ccgnu2:ccgnu2.dll
 0002:0000029c       __imp_?append@String@ost@@QAEXPBDI@Z 0042929c     ccgnu2:ccgnu2.dll
 0002:000002a0       __imp_?clear@String@ost@@QAEXXZ 004292a0     ccgnu2:ccgnu2.dll
 0002:000002a4       __imp_?append@String@ost@@QAEXABV12@@Z 004292a4     ccgnu2:ccgnu2.dll
 0002:000002a8       __imp_?signal@Event@ost@@QAEXXZ 004292a8     ccgnu2:ccgnu2.dll
 0002:000002ac       __imp_?getLength@String@ost@@QBE?BIXZ 004292ac     ccgnu2:ccgnu2.dll
 0002:000002b0       __imp_?substr@String@ost@@QBE?AV12@II@Z 004292b0     ccgnu2:ccgnu2.dll
 0002:000002b4       __imp_?rfind@String@ost@@QBEIPBDII@Z 004292b4     ccgnu2:ccgnu2.dll
 0002:000002b8       __imp_??0String@ost@@QAE@ABV01@@Z 004292b8     ccgnu2:ccgnu2.dll
 0002:000002bc       __imp_?notify@Thread@ost@@MAEXPAV12@@Z 004292bc     ccgnu2:ccgnu2.dll
 0002:000002c0       __imp_??1MutexLock@ost@@QAE@XZ 004292c0     ccgnu2:ccgnu2.dll
 0002:000002c4       __imp_?wait@Event@ost@@QAE_NXZ 004292c4     ccgnu2:ccgnu2.dll
 0002:000002c8       __imp_?reset@Event@ost@@QAEXXZ 004292c8     ccgnu2:ccgnu2.dll
 0002:000002cc       __imp_?replace@String@ost@@QAEXIIPBDI@Z 004292cc     ccgnu2:ccgnu2.dll
 0002:000002d0       __imp_?find@String@ost@@QBEIPBDIII@Z 004292d0     ccgnu2:ccgnu2.dll
 0002:000002d4       __imp_?init@String@ost@@IAEXXZ 004292d4     ccgnu2:ccgnu2.dll
 0002:000002d8       __imp_?copy@String@ost@@IAEXABV12@@Z 004292d8     ccgnu2:ccgnu2.dll
 0002:000002dc       __imp_?getText@String@ost@@QBEPADXZ 004292dc     ccgnu2:ccgnu2.dll
 0002:000002e0       __imp_?set@String@ost@@IAEPBDPBDI@Z 004292e0     ccgnu2:ccgnu2.dll
 0002:000002e4       __imp_??0String@ost@@QAE@PBD@Z 004292e4     ccgnu2:ccgnu2.dll
 0002:000002e8       __imp_?compare@String@ost@@MBEHPBDII@Z 004292e8     ccgnu2:ccgnu2.dll
 0002:000002ec       __imp_??0String@ost@@QAE@XZ 004292ec     ccgnu2:ccgnu2.dll
 0002:000002f0       __imp_??1String@ost@@UAE@XZ 004292f0     ccgnu2:ccgnu2.dll
 0002:000002f4       __imp_?enterMutex@Mutex@ost@@QAEXXZ 004292f4     ccgnu2:ccgnu2.dll
 0002:000002f8       __imp_?leaveMutex@Mutex@ost@@QAEXXZ 004292f8     ccgnu2:ccgnu2.dll
 0002:000002fc       __imp_??1Mutex@ost@@UAE@XZ 004292fc     ccgnu2:ccgnu2.dll
 0002:00000300       __imp_??0Mutex@ost@@QAE@PBD@Z 00429300     ccgnu2:ccgnu2.dll
 0002:00000304       __imp_?sleep@Thread@ost@@SAXK@Z 00429304     ccgnu2:ccgnu2.dll
 0002:00000308       __imp_?final@Thread@ost@@MAEXXZ 00429308     ccgnu2:ccgnu2.dll
 0002:0000030c       __imp_?initial@Thread@ost@@MAEXXZ 0042930c     ccgnu2:ccgnu2.dll
 0002:00000310       __imp_??1Thread@ost@@UAE@XZ 00429310     ccgnu2:ccgnu2.dll
 0002:00000314       __imp_??0Thread@ost@@QAE@HI@Z 00429314     ccgnu2:ccgnu2.dll
 0002:00000318       __imp_?setLength@String@ost@@IAEXI@Z 00429318     ccgnu2:ccgnu2.dll
 0002:0000031c       __imp_?resize@String@ost@@QAEXI@Z 0042931c     ccgnu2:ccgnu2.dll
 0002:00000320       __imp_??1ThreadFile@ost@@UAE@XZ 00429320     ccgnu2:ccgnu2.dll
 0002:00000324       __imp_?append@ThreadFile@ost@@QAE?AW4Error@File@2@PAXK@Z 00429324     ccgnu2:ccgnu2.dll
 0002:00000328       __imp_??0ThreadFile@ost@@QAE@PBD@Z 00429328     ccgnu2:ccgnu2.dll
 0002:0000032c       __imp_?isEmpty@String@ost@@QBE_NXZ 0042932c     ccgnu2:ccgnu2.dll
 0002:00000330       __imp_?getExtended@Thread@ost@@MAEPAXXZ 00429330     ccgnu2:ccgnu2.dll
 0002:00000334       __imp_?start@Thread@ost@@QAEHPAVSemaphore@2@@Z 00429334     ccgnu2:ccgnu2.dll
 0002:00000338       \177ccgnu2_NULL_THUNK_DATA 00429338     ccgnu2:ccgnu2.dll
 0002:0000033c       __imp__CoInitialize@4      0042933c     ole32:ole32.dll
 0002:00000340       \177ole32_NULL_THUNK_DATA  00429340     ole32:ole32.dll
 0002:00000344       __imp_?PushMessage@@YA_NV?$basic_string@DU?$char_traits@D@std@@V?$allocator@D@2@@std@@0PBDI00@Z 00429344     svapi:svapi.dll
 0002:00000348       __imp_?CloseMQRecord@@YA_NAAPAX@Z 00429348     svapi:svapi.dll
 0002:0000034c       __imp_?GetMessageData@@YA_NPAXAAV?$basic_string@DU?$char_traits@D@std@@V?$allocator@D@2@@std@@AAVTTime@svutil@@PADAAI@Z 0042934c     svapi:svapi.dll
 0002:00000350       __imp_?PopMessage@@YAPAXV?$basic_string@DU?$char_traits@D@std@@V?$allocator@D@2@@std@@I00@Z 00429350     svapi:svapi.dll
 0002:00000354       __imp_?SetSvdbAddrByFile@@YA_NV?$basic_string@DU?$char_traits@D@std@@V?$allocator@D@2@@std@@@Z 00429354     svapi:svapi.dll
 0002:00000358       __imp_?GetSVDYNNODisplayString@@YA_NV?$basic_string@DU?$char_traits@D@std@@V?$allocator@D@2@@std@@AAUsv_dyn@@00@Z 00429358     svapi:svapi.dll
 0002:0000035c       __imp_?DeleteQueue@@YA_NV?$basic_string@DU?$char_traits@D@std@@V?$allocator@D@2@@std@@00@Z 0042935c     svapi:svapi.dll
 0002:00000360       __imp_?ClearQueueMessage@@YA_NV?$basic_string@DU?$char_traits@D@std@@V?$allocator@D@2@@std@@00@Z 00429360     svapi:svapi.dll
 0002:00000364       __imp_?CreateQueue@@YA_NV?$basic_string@DU?$char_traits@D@std@@V?$allocator@D@2@@std@@H00@Z 00429364     svapi:svapi.dll
 0002:00000368       __imp_?BlockPopMessage@@YAPAXV?$basic_string@DU?$char_traits@D@std@@V?$allocator@D@2@@std@@00@Z 00429368     svapi:svapi.dll
 0002:0000036c       __imp_?GetSvdbAddr@@YA?AV?$basic_string@DU?$char_traits@D@std@@V?$allocator@D@2@@std@@XZ 0042936c     svapi:svapi.dll
 0002:00000370       __imp_?CloseResource@@YA_NAAPAX@Z 00429370     svapi:svapi.dll
 0002:00000374       __imp_?CloseGroup@@YA_NAAPAX@Z 00429374     svapi:svapi.dll
 0002:00000378       __imp_?FindNodeValue@@YA_NPAXV?$basic_string@DU?$char_traits@D@std@@V?$allocator@D@2@@std@@AAV12@@Z 00429378     svapi:svapi.dll
 0002:0000037c       __imp_?GetGroupMainAttribNode@@YAPAXPAX@Z 0042937c     svapi:svapi.dll
 0002:00000380       __imp_?GetGroup@@YAPAXV?$basic_string@DU?$char_traits@D@std@@V?$allocator@D@2@@std@@00@Z 00429380     svapi:svapi.dll
 0002:00000384       __imp_?GetMonitorTemplet@@YAPAXHV?$basic_string@DU?$char_traits@D@std@@V?$allocator@D@2@@std@@0@Z 00429384     svapi:svapi.dll
 0002:00000388       __imp_?GetEntityTemplet@@YAPAXV?$basic_string@DU?$char_traits@D@std@@V?$allocator@D@2@@std@@00@Z 00429388     svapi:svapi.dll
 0002:0000038c       __imp_?GetMonitor@@YAPAXV?$basic_string@DU?$char_traits@D@std@@V?$allocator@D@2@@std@@00@Z 0042938c     svapi:svapi.dll
 0002:00000390       __imp_?GetEntity@@YAPAXV?$basic_string@DU?$char_traits@D@std@@V?$allocator@D@2@@std@@00@Z 00429390     svapi:svapi.dll
 0002:00000394       __imp_?FindMTAdvanceParameterFirst@@YA_NPAXAAUsv_list@@@Z 00429394     svapi:svapi.dll
 0002:00000398       __imp_?ReleaseItemList@@YAXABUsv_list@@@Z 00429398     svapi:svapi.dll
 0002:0000039c       __imp_?FindNext@@YAPAXABUsv_list@@@Z 0042939c     svapi:svapi.dll
 0002:000003a0       __imp_?FindMTParameterFirst@@YA_NPAXAAUsv_list@@@Z 004293a0     svapi:svapi.dll
 0002:000003a4       __imp_?GetMonitorMainAttribNode@@YAPAXPAX@Z 004293a4     svapi:svapi.dll
 0002:000003a8       __imp_?GetMonitorAdvanceParameterNode@@YAPAXPAX@Z 004293a8     svapi:svapi.dll
 0002:000003ac       __imp_?GetMonitorParameter@@YAPAXPAX@Z 004293ac     svapi:svapi.dll
 0002:000003b0       __imp_?FindSEID@@YA?AV?$basic_string@DU?$char_traits@D@std@@V?$allocator@D@2@@std@@V12@@Z 004293b0     svapi:svapi.dll
 0002:000003b4       __imp_?FindETContrlFirst@@YA_NPAXAAUsv_list@@@Z 004293b4     svapi:svapi.dll
 0002:000003b8       __imp_?GetMTMainAttribNode@@YAPAXPAX@Z 004293b8     svapi:svapi.dll
 0002:000003bc       __imp_?FindMTReturnFirst@@YA_NPAXAAUsv_list@@@Z 004293bc     svapi:svapi.dll
 0002:000003c0       __imp_?GetResourceNode@@YAPAXPAX@Z 004293c0     svapi:svapi.dll
 0002:000003c4       __imp_?LoadResource@@YAPAXV?$basic_string@DU?$char_traits@D@std@@V?$allocator@D@2@@std@@0@Z 004293c4     svapi:svapi.dll
 0002:000003c8       __imp_?GetMonitorErrorAlertCondition@@YAPAXPAX@Z 004293c8     svapi:svapi.dll
 0002:000003cc       __imp_?CloseEntity@@YA_NAAPAX@Z 004293cc     svapi:svapi.dll
 0002:000003d0       __imp_?CloseMonitor@@YAXAAPAX@Z 004293d0     svapi:svapi.dll
 0002:000003d4       __imp_?CloseEntityTemplet@@YA_NAAPAX@Z 004293d4     svapi:svapi.dll
 0002:000003d8       __imp_?CloseMonitorTemplet@@YAXAAPAX@Z 004293d8     svapi:svapi.dll
 0002:000003dc       __imp_?GetMonitorGoodAlertCondition@@YAPAXPAX@Z 004293dc     svapi:svapi.dll
 0002:000003e0       __imp_?GetMonitorWarningAlertCondition@@YAPAXPAX@Z 004293e0     svapi:svapi.dll
 0002:000003e4       __imp_?GetIniFileString@@YA?AV?$basic_string@DU?$char_traits@D@std@@V?$allocator@D@2@@std@@V12@00000@Z 004293e4     svapi:svapi.dll
 0002:000003e8       __imp_?GetIniFileSections@@YA_NAAV?$list@V?$basic_string@DU?$char_traits@D@std@@V?$allocator@D@2@@std@@V?$allocator@V?$basic_string@DU?$char_traits@D@std@@V?$allocator@D@2@@std@@@2@@std@@V?$basic_string@DU?$char_traits@D@std@@V?$allocator@D@2@@2@11@Z 004293e8     svapi:svapi.dll
 0002:000003ec       __imp_?GetMonitorsInfoBySE@@YA_NV?$basic_string@DU?$char_traits@D@std@@V?$allocator@D@2@@std@@AAV?$list@Usv_pair@@V?$allocator@Usv_pair@@@std@@@2@000@Z 004293ec     svapi:svapi.dll
 0002:000003f0       __imp_?EnumNodeAttrib@@YA_NPAXAAV?$list@Usv_pair@@V?$allocator@Usv_pair@@@std@@@std@@@Z 004293f0     svapi:svapi.dll
 0002:000003f4       __imp_?GetAllEntitysInfo@@YA_NAAV?$list@Usv_pair@@V?$allocator@Usv_pair@@@std@@@std@@V?$basic_string@DU?$char_traits@D@std@@V?$allocator@D@2@@2@11@Z 004293f4     svapi:svapi.dll
 0002:000003f8       __imp_?GetAllGroupsInfo@@YA_NAAV?$list@Usv_pair@@V?$allocator@Usv_pair@@@std@@@std@@V?$basic_string@DU?$char_traits@D@std@@V?$allocator@D@2@@2@11@Z 004293f8     svapi:svapi.dll
 0002:000003fc       __imp_?CloseTask@@YAXAAPAX@Z 004293fc     svapi:svapi.dll
 0002:00000400       __imp_?GetTaskValue@@YA?AV?$basic_string@DU?$char_traits@D@std@@V?$allocator@D@2@@std@@V12@PAX@Z 00429400     svapi:svapi.dll
 0002:00000404       __imp_?GetTask@@YAPAXV?$basic_string@DU?$char_traits@D@std@@V?$allocator@D@2@@std@@00@Z 00429404     svapi:svapi.dll
 0002:00000408       __imp_?GetAllTaskName@@YA_NAAV?$list@V?$basic_string@DU?$char_traits@D@std@@V?$allocator@D@2@@std@@V?$allocator@V?$basic_string@DU?$char_traits@D@std@@V?$allocator@D@2@@std@@@2@@std@@V?$basic_string@DU?$char_traits@D@std@@V?$allocator@D@2@@2@1@Z 00429408     svapi:svapi.dll
 0002:0000040c       __imp_?AppendRecord@@YA_NV?$basic_string@DU?$char_traits@D@std@@V?$allocator@D@2@@std@@PBDI00@Z 0042940c     svapi:svapi.dll
 0002:00000410       __imp_?AppendMassRecord@@YA_NAAV?$list@VSingelRecord@@V?$allocator@VSingelRecord@@@std@@@std@@V?$basic_string@DU?$char_traits@D@std@@V?$allocator@D@2@@2@1@Z 00429410     svapi:svapi.dll
 0002:00000414       __imp_?GetSiteViewRootPath@@YA?AV?$basic_string@DU?$char_traits@D@std@@V?$allocator@D@2@@std@@XZ 00429414     svapi:svapi.dll
 0002:00000418       __imp_?GetEntityMainAttribNode@@YAPAXPAX@Z 00429418     svapi:svapi.dll
 0002:0000041c       __imp_?FindParentID@@YA?AV?$basic_string@DU?$char_traits@D@std@@V?$allocator@D@2@@std@@V12@@Z 0042941c     svapi:svapi.dll
 0002:00000420       \177svapi_NULL_THUNK_DATA  00429420     svapi:svapi.dll
 0002:0000044c       ??_7CAppendMassRecord@@6B@ 0042944c     appendmassrecord.obj
 0002:00000464       ??_C@_08EPJLHIJG@bad?5cast?$AA@ 00429464     appendmassrecord.obj
 0002:00000470       ??_C@_0BK@DMJNBOOE@AppendMassRecord?5failed?$CB?6?$AA@ 00429470     appendmassrecord.obj
 0002:0000048c       ??_C@_0BJ@HOCPNMDK@AppendMassRecord?5failed?$CB?$AA@ 0042948c     appendmassrecord.obj
 0002:000004a8       ??_C@_0CK@OOEGADDJ@AppendMass?5?$CFd?5records?5done?0?5slep@ 004294a8     appendmassrecord.obj
 0002:000004d4       ??_C@_0M@CGMGLBGG@AppendMass?5?$AA@ 004294d4     appendmassrecord.obj
 0002:000004e0       ??_C@_0P@BOFGGFEC@?5records?5done?0?$AA@ 004294e0     appendmassrecord.obj
 0002:000004f0       ??_C@_07DNIMPLNI@?5slept?5?$AA@ 004294f0     appendmassrecord.obj
 0002:000004f8       ??_C@_04GMOANHBN@?5ms?4?$AA@ 004294f8     appendmassrecord.obj
 0002:00000d00       ??_7Des@@6B@               00429d00     Des.obj
 0002:00000f28       ??_C@_02DKCKIIND@?$CFs?$AA@ 00429f28     Des.obj
 0002:00000f2c       ??_7logic_error@std@@6B@   00429f2c     Groups.obj
 0002:00000f34       ??_7length_error@std@@6B@  00429f34     Groups.obj
 0002:00000f3c       ??_C@_0M@IGBDGEOL@MSException?$AA@ 00429f3c     Groups.obj
 0002:00000f48       ??_C@_09FBNMMHMJ@Exception?$AA@ 00429f48     Groups.obj
 0002:00000f54       ??_7MSException@@6B@       00429f54     Groups.obj
 0002:00000f60       ??_7exception@svutil@@6B@  00429f60     Groups.obj
 0002:00000f6c       ??_7word@svutil@@6B@       00429f6c     Groups.obj
 0002:00000f70       ??_C@_00CNPNBAHC@?$AA@     00429f70     Groups.obj
 0002:00000f74       ??_C@_0BN@NKJIKKBC@Invalid?5parameter?5?$DMEntityID?$DO?$AA@ 00429f74     Groups.obj
 0002:00000f94       ??_C@_0BP@CECHBOBE@Invalid?5parameter?5?$DMSystemType?$DO?$AA@ 00429f94     Groups.obj
 0002:00000fb4       ??_C@_0BL@NKDFBEPA@Invalid?5parameter?5?$DMDepend?$DO?$AA@ 00429fb4     Groups.obj
 0002:00000fd0       ??_C@_0BN@EHFGBPEL@Invalid?5parameter?5?$DMIPAdress?$DO?$AA@ 00429fd0     Groups.obj
 0002:00000ff0       ??_C@_0BM@PFPPIFLI@Invalid?5parameter?5?$DMGroupID?$DO?$AA@ 00429ff0     Groups.obj
 0002:0000100c       ??_C@_0BN@JPLEKJNA@Invalid?5parameter?5?$DMParentID?$DO?$AA@ 0042a00c     Groups.obj
 0002:0000102c       ??_C@_0BO@MMLCMJIC@Invalid?5parameter?5?$DMDependSon?$DO?$AA@ 0042a02c     Groups.obj
 0002:0000104c       ??_7?$sorttree@V?$hashelement@Vword@svutil@@V12@@svutil@@@svutil@@6B@ 0042a04c     Groups.obj
 0002:00001050       ??_7?$treenode@V?$hashelement@Vword@svutil@@V12@@svutil@@@svutil@@6B@ 0042a050     Groups.obj
 0002:00001054       ??_C@_0BD@OLBABOEK@vector?$DMT?$DO?5too?5long?$AA@ 0042a054     Groups.obj
 0002:00001068       ??_C@_0BB@MOGOBHAF@list?$DMT?$DO?5too?5long?$AA@ 0042a068     Groups.obj
 0002:0000107c       ??_C@_0BD@JEAHJBKA@Create?5node?5failed?$AA@ 0042a07c     Groups.obj
 0002:00001090       ??_7Groups@@6B@            0042a090     Groups.obj
 0002:00001094       ??_C@_0CB@GAEFAOHM@Entitys_Item_DependsCondition_?$CFd@ 0042a094     Groups.obj
 0002:000010b8       ??_C@_0BH@KBGGFLBK@Entitys_Item_Depend_?$CFd?$AA@ 0042a0b8     Groups.obj
 0002:000010d0       ??_C@_0BJ@EJCPENMK@Entitys_Item_IPAdress_?$CFd?$AA@ 0042a0d0     Groups.obj
 0002:000010ec       ??_C@_0BL@HAKPDGFG@Entitys_Item_SystemType_?$CFd?$AA@ 0042a0ec     Groups.obj
 0002:00001108       ??_C@_0BJ@JJFNHBBK@Entitys_Item_EntityID_?$CFd?$AA@ 0042a108     Groups.obj
 0002:00001124       ??_C@_0CB@FIHKPOBH@Entitys_Item_MonitorTypeCount_?$CFd@ 0042a124     Groups.obj
 0002:00001148       ??_C@_0P@NPEHJNPL@EntityListSize?$AA@ 0042a148     Groups.obj
 0002:00001158       ??_C@_0CA@NHLGKIAC@Groups_Item_DependsCondition_?$CFd?$AA@ 0042a158     Groups.obj
 0002:00001178       ??_C@_0BJ@OFKMGMMG@Groups_Item_DependSon_?$CFd?$AA@ 0042a178     Groups.obj
 0002:00001194       ??_C@_0BI@DCOLEJA@Groups_Item_ParentID_?$CFd?$AA@ 0042a194     Groups.obj
 0002:000011ac       ??_C@_0BH@PIGADCGA@Groups_Item_GroupID_?$CFd?$AA@ 0042a1ac     Groups.obj
 0002:000011c4       ??_C@_0O@DBCCCLIC@GroupListSize?$AA@ 0042a1c4     Groups.obj
 0002:000011d4       ??_C@_04MNMAMLMA@seid?$AA@ 0042a1d4     Groups.obj
 0002:000011dc       ??_7GroupsItem@@6B@        0042a1dc     GroupsItem.obj
 0002:000011e0       ??_7TString@@6B@           0042a1e0     LoadConfig.obj
 0002:000011e8       ??_7LoadConfig@@6B@        0042a1e8     LoadConfig.obj
 0002:000011ec       ??_C@_0BF@HINMIOOM@Create?5config?5failed?$AA@ 0042a1ec     LoadConfig.obj
 0002:00001204       ??_C@_0BE@OBGFNBGK@Config?5already?5load?$AA@ 0042a204     LoadConfig.obj
 0002:00001218       ??_C@_07PACLKGJM@sv_plan?$AA@ 0042a218     LoadConfig.obj
 0002:00001220       ??_C@_0DJ@PFNMPLK@MonitorLibaray?9Get?5?$DMsv_class?$DO?5pa@ 0042a220     LoadConfig.obj
 0002:0000125c       ??_C@_08GMOHJOOK@sv_class?$AA@ 0042a25c     LoadConfig.obj
 0002:00001268       ??_C@_05LAPONLG@false?$AA@ 0042a268     LoadConfig.obj
 0002:00001270       ??_C@_04LOAJBDKD@true?$AA@ 0042a270     LoadConfig.obj
 0002:00001278       ??_C@_0M@BABONBBP@sv_checkerr?$AA@ 0042a278     LoadConfig.obj
 0002:00001284       ??_C@_0L@KPGOGJAI@sv_errfreq?$AA@ 0042a284     LoadConfig.obj
 0002:00001290       ??_C@_0CD@HHDJCACO@Frequency?5is?5zero?5error?4MonitorI@ 0042a290     LoadConfig.obj
 0002:000012b4       ??_C@_0DF@DCKNPJGI@Moniotor?9Get?5?8_frequency?8?5parame@ 0042a2b4     LoadConfig.obj
 0002:000012ec       ??_C@_0L@MKCONOGM@_frequency?$AA@ 0042a2ec     LoadConfig.obj
 0002:000012f8       ??_C@_0DD@INKJNDOK@Moniotor?9Get?5moniotor?5common?5par@ 0042a2f8     LoadConfig.obj
 0002:0000132c       ??_C@_0CM@ONDGMBMO@Entity?9Get?5common?5parameter?5erro@ 0042a32c     LoadConfig.obj
 0002:00001358       ??_C@_0L@CEPMLCGK@MonitorID?3?$AA@ 0042a358     LoadConfig.obj
 0002:00001364       ??_C@_0DH@PGLIJNFM@MoniotorLibrary?9Get?5ReturnData?5l@ 0042a364     LoadConfig.obj
 0002:0000139c       ??_C@_0BE@DMLELPDP@sv_dependscondition?$AA@ 0042a39c     LoadConfig.obj
 0002:000013b0       ??_C@_0N@PDJBEMBD@sv_dependson?$AA@ 0042a3b0     LoadConfig.obj
 0002:000013c0       ??_C@_0DE@IKEHINJM@Entity?9Get?5parameter?5?$DM_MachineNa@ 0042a3c0     LoadConfig.obj
 0002:000013f4       ??_C@_0N@EMEEJLAO@_MachineName?$AA@ 0042a3f4     LoadConfig.obj
 0002:00001404       ??_C@_0DF@PCCOCNCH@Entity?9Get?5parameter?5?$DMsv_devicet@ 0042a404     LoadConfig.obj
 0002:0000143c       ??_C@_0O@MDBDMLPJ@sv_devicetype?$AA@ 0042a43c     LoadConfig.obj
 0002:0000144c       ??_C@_0DE@JCAFDBEA@Subsequent?9Get?5parameter?5?$DMSubseq@ 0042a44c     LoadConfig.obj
 0002:00001480       ??_C@_0DN@HABCADCA@Monitor?9Get?5?$DM?5Normal?5StateCondit@ 0042a480     LoadConfig.obj
 0002:000014c0       ??_C@_0DI@EJMEGOO@Monitor?9Get?5?$DM?5Normal?5StateCondit@ 0042a4c0     LoadConfig.obj
 0002:000014f8       ??_C@_0DO@DMFOJBAD@Monitor?9Get?5?$DM?5Warning?5StateCondi@ 0042a4f8     LoadConfig.obj
 0002:00001538       ??_C@_0DJ@PIJAOJFD@Monitor?9Get?5?$DM?5Warning?5StateCondi@ 0042a538     LoadConfig.obj
 0002:00001574       ??_C@_0DM@HGCNHHG@Monitor?9Get?5?$DM?5Error?5StateConditi@ 0042a574     LoadConfig.obj
 0002:000015b0       ??_C@_0DG@DGDEJGHI@Monitor?9Get?5?$DM?5Error?5StateConditi@ 0042a5b0     LoadConfig.obj
 0002:000015e8       ??_C@_0BA@MGPMAEBD@sv_RunInProcess?$AA@ 0042a5e8     LoadConfig.obj
 0002:000015f8       ??_C@_06PAGNDDEB@?0MLID?3?$AA@ 0042a5f8     LoadConfig.obj
 0002:00001600       ??_C@_0BB@OKBJNAJH@error?0MonitorID?3?$AA@ 0042a600     LoadConfig.obj
 0002:00001614       ??_C@_0BP@JOFBNLMM@MonitorLibrary?9Get?5parameter?5?$DM?$AA@ 0042a614     LoadConfig.obj
 0002:00001634       ??_C@_0M@DFAAJGFD@_MonitorID?$DN?$AA@ 0042a634     LoadConfig.obj
 0002:00001640       ??_C@_0N@IELGHDHP@_TemplateID?$DN?$AA@ 0042a640     LoadConfig.obj
 0002:00001650       ??_C@_07IMGIOFNL@sv_func?$AA@ 0042a650     LoadConfig.obj
 0002:00001658       ??_C@_06OEOKCKEK@sv_dll?$AA@ 0042a658     LoadConfig.obj
 0002:00001660       ??_C@_0O@BHPIBBCC@N_ExecuteFunc?$AA@ 0042a660     LoadConfig.obj
 0002:00001670       ??_C@_0BG@MIMMHCPG@N_ExecuteAssemblyName?$AA@ 0042a670     LoadConfig.obj
 0002:00001688       ??_C@_0BD@OGCGEDOB@?$DO?5error?3MonitorID?3?$AA@ 0042a688     LoadConfig.obj
 0002:0000169c       ??_C@_0BI@PKCIHLB@Monitor?9Get?5parameter?5?$DM?$AA@ 0042a69c     LoadConfig.obj
 0002:000016b4       ??_C@_0L@BCKPHCDG@?0EntityID?3?$AA@ 0042a6b4     LoadConfig.obj
 0002:000016c0       ??_C@_0DG@EAIAJFEE@Entity?9Get?5parameter?5?$DMsv_systemt@ 0042a6c0     LoadConfig.obj
 0002:000016f8       ??_C@_01NEMOKFLO@?$DN?$AA@ 0042a6f8     LoadConfig.obj
 0002:000016fc       ??_C@_0DD@NFNJDPCP@MonitorLibaray?9Get?5parameter?5lis@ 0042a6fc     LoadConfig.obj
 0002:00001730       ??_C@_0BH@GCAEPELM@Monitors?5count?5is?5?3?$CFd?6?$AA@ 0042a730     LoadConfig.obj
 0002:00001748       ??_C@_0BF@GBOKHCBC@Config?5file?5not?5load?$AA@ 0042a748     LoadConfig.obj
 0002:00001760       ??_C@_0CL@OMKPCHHB@Entity?9Get?5parameter?5?$DMEntityID?5l@ 0042a760     LoadConfig.obj
 0002:0000178c       ??_C@_0BE@OHOKBJLJ@Toatal?5groupid?5?3?$CFd?6?$AA@ 0042a78c     LoadConfig.obj
 0002:000017a0       ??_C@_0CJ@IEDCIDHF@Group?9Get?5parameter?5?$DMGroupID?5lis@ 0042a7a0     LoadConfig.obj
 0002:000017cc       ??_C@_06ENNEIMBA@String?$AA@ 0042a7cc     MakeRecord.obj
 0002:000017d4       ??_C@_05KKPNNHNB@Float?$AA@ 0042a7d4     MakeRecord.obj
 0002:000017dc       ??_C@_03DBLNGNIM@Int?$AA@  0042a7dc     MakeRecord.obj
 0002:000017e0       ??_C@_0BC@HMPPKDEN@ParamList_Item_?$CFd?$AA@ 0042a7e0     Monitor.obj
 0002:000017f4       ??_C@_0P@IOGPDDKM@ParamList_Size?$AA@ 0042a7f4     Monitor.obj
 0002:00001804       ??_C@_0BE@GKGINBKG@ReturnItem_?$CFd_Label?$AA@ 0042a804     Monitor.obj
 0002:00001818       ??_C@_0BD@ONGJGNDP@ReturnItem_?$CFd_Name?$AA@ 0042a818     Monitor.obj
 0002:0000182c       ??_C@_0BD@PGOKFADG@ReturnItem_?$CFd_Unit?$AA@ 0042a82c     Monitor.obj
 0002:00001840       ??_C@_0BD@EGGKKNEP@ReturnItem_?$CFd_Type?$AA@ 0042a840     Monitor.obj
 0002:00001854       ??_C@_0BA@HINIIEBH@ReturnList_Size?$AA@ 0042a854     Monitor.obj
 0002:00001864       ??_C@_0CJ@DAJMJBB@StateCondition_Normal_Item_?$CFd_Pa@ 0042a864     Monitor.obj
 0002:00001890       ??_C@_0CH@COFEOHOE@StateCondition_Normal_Item_?$CFd_Op@ 0042a890     Monitor.obj
 0002:000018b8       ??_C@_0CI@JJGDCMHA@StateCondition_Normal_Item_?$CFd_Pa@ 0042a8b8     Monitor.obj
 0002:000018e0       ??_C@_0CF@PLKCAOPP@StateCondition_Normal_Item_?$CFd_It@ 0042a8e0     Monitor.obj
 0002:00001908       ??_C@_0BP@FJBKJKF@StateCondition_Normal_ItemSize?$AA@ 0042a908     Monitor.obj
 0002:00001928       ??_C@_0CB@LJFNKGOJ@StateCondition_Normal_Expression@ 0042a928     Monitor.obj
 0002:0000194c       ??_C@_0BL@BJAIFNAC@StateCondition_Normal_Type?$AA@ 0042a94c     Monitor.obj
 0002:00001968       ??_C@_0CK@OACOBDNF@StateCondition_Warning_Item_?$CFd_P@ 0042a968     Monitor.obj
 0002:00001994       ??_C@_0CI@PLKPBMII@StateCondition_Warning_Item_?$CFd_O@ 0042a994     Monitor.obj
 0002:000019bc       ??_C@_0CJ@NNLCPKPI@StateCondition_Warning_Item_?$CFd_P@ 0042a9bc     Monitor.obj
 0002:000019e8       ??_C@_0CG@CFOIJMDP@StateCondition_Warning_Item_?$CFd_I@ 0042a9e8     Monitor.obj
 0002:00001a10       ??_C@_0CA@EGKBADGJ@StateCondition_Warning_ItemSize?$AA@ 0042aa10     Monitor.obj
 0002:00001a30       ??_C@_0CC@OIBBDHGN@StateCondition_Warning_Expressio@ 0042aa30     Monitor.obj
 0002:00001a54       ??_C@_0BM@JBALEJIL@StateCondition_Warning_Type?$AA@ 0042aa54     Monitor.obj
 0002:00001a70       ??_C@_0CI@EDHHHBHD@StateCondition_Error_Item_?$CFd_Par@ 0042aa70     Monitor.obj
 0002:00001a98       ??_C@_0CG@EMMDHDEF@StateCondition_Error_Item_?$CFd_Ope@ 0042aa98     Monitor.obj
 0002:00001ac0       ??_C@_0CH@DINACIJK@StateCondition_Error_Item_?$CFd_Par@ 0042aac0     Monitor.obj
 0002:00001ae8       ??_C@_0CE@KNHJBDJL@StateCondition_Error_Item_?$CFd_Ite@ 0042aae8     Monitor.obj
 0002:00001b0c       ??_C@_0BO@EFCEKJGC@StateCondition_Error_ItemSize?$AA@ 0042ab0c     Monitor.obj
 0002:00001b2c       ??_C@_0CA@DNOGKHNF@StateCondition_Error_Expression?$AA@ 0042ab2c     Monitor.obj
 0002:00001b4c       ??_C@_0BK@CDNDAEBJ@StateCondition_Error_Type?$AA@ 0042ab4c     Monitor.obj
 0002:00001b68       ??_C@_08KJGGNPPO@TaskName?$AA@ 0042ab68     Monitor.obj
 0002:00001b74       ??_C@_0N@KEPOEGEN@MonitorClass?$AA@ 0042ab74     Monitor.obj
 0002:00001b84       ??_C@_0L@JLPANJNL@CheckError?$AA@ 0042ab84     Monitor.obj
 0002:00001b90       ??_C@_09BGPDCJH@ErrorFreq?$AA@ 0042ab90     Monitor.obj
 0002:00001b9c       ??_C@_09OGDICNME@Frequency?$AA@ 0042ab9c     Monitor.obj
 0002:00001ba8       ??_C@_0L@DNHHDPKK@EntityType?$AA@ 0042aba8     Monitor.obj
 0002:00001bb4       ??_C@_07MNGBFJEN@Process?$AA@ 0042abb4     Monitor.obj
 0002:00001bbc       ??_C@_07BGPNANBL@Library?$AA@ 0042abbc     Monitor.obj
 0002:00001bc4       ??_C@_0M@FCPFJAEP@MonitorType?$AA@ 0042abc4     Monitor.obj
 0002:00001bd0       ??_C@_0M@HMLPEDLP@NextRunTime?$AA@ 0042abd0     Monitor.obj
 0002:00001bdc       ??_C@_09KKNMDBLO@isDisable?$AA@ 0042abdc     Monitor.obj
 0002:00001be8       ??_C@_0O@JDMAIHJK@isTempDisable?$AA@ 0042abe8     Monitor.obj
 0002:00001bf8       ??_C@_09HLNADPAH@endTDTime?$AA@ 0042abf8     Monitor.obj
 0002:00001c04       ??_C@_0M@PHDBPIMP@beginTDTime?$AA@ 0042ac04     Monitor.obj
 0002:00001c10       ??_C@_09KHLDHEFF@LastState?$AA@ 0042ac10     Monitor.obj
 0002:00001c1c       ??_C@_08CGFBPIO@TaskType?$AA@ 0042ac1c     Monitor.obj
 0002:00001c28       ??_C@_0N@IGKEHPBK@RunInProcess?$AA@ 0042ac28     Monitor.obj
 0002:00001c38       ??_C@_09IOBNBFEB@MonitorID?$AA@ 0042ac38     Monitor.obj
 0002:00001c44       ??_7Monitor@@6B@           0042ac44     Monitor.obj
 0002:00001c48       ??_C@_0BM@DAFDJKHJ@?$CFd?9?$CF02d?9?$CF02d?5?$CF02d?3?$CF02d?3?$CF02d?$AA@ 0042ac48     MonitorSchedule.obj
 0002:00001c64       ??_C@_0P@FDDDHPEK@Run?5failed?5?3?$CFs?$AA@ 0042ac64     MonitorSchedule.obj
 0002:00001c74       ??_C@_0BE@KJIBIAAE@Root?5path?5is?5empty?$CB?$AA@ 0042ac74     MonitorSchedule.obj
 0002:00001c88       ??_C@_05JAAEJFKK@run?$CI?$CJ?$AA@ 0042ac88     MonitorSchedule.obj
 0002:00001c90       ??_C@_0CM@LLPGHKEN@RunMonitor?9Execute?5monitor?5happe@ 0042ac90     MonitorSchedule.obj
 0002:00001cbc       ??_C@_0DD@MIDNHJJE@Push?5message?5failed?5in?5Run_Proce@ 0042acbc     MonitorSchedule.obj
 0002:00001cf0       ??_C@_0BA@OBJIJCHB@SiteView_Return?$AA@ 0042acf0     MonitorSchedule.obj
 0002:00001d00       ??_C@_0DD@IDPLGFOF@Return?5result?5error?5in?5Run_Proce@ 0042ad00     MonitorSchedule.obj
 0002:00001d34       ??_C@_0CB@MEACFEKE@RunMonitor?9GetProcAddress?5failed@ 0042ad34     MonitorSchedule.obj
 0002:00001d58       ??_C@_0CL@MPNDFCGM@RunMonitor?9Load?5library?5failed?0D@ 0042ad58     MonitorSchedule.obj
 0002:00001d84       ??_C@_0DE@FEIJPGCO@Create?5object?5failed?5in?5Run_Proc@ 0042ad84     MonitorSchedule.obj
 0002:00001db8       ??_C@_0DJ@NDDLCMKI@Get?5Message?5failed?5failed?5in?5Run@ 0042adb8     MonitorSchedule.obj
 0002:00001df4       ??_C@_0DJ@JGDPEGMD@Pop?5Message?5failed?5failed?5in?5Run@ 0042adf4     MonitorSchedule.obj
 0002:00001e30       ??_C@_07DLHCIBDH@default?$AA@ 0042ae30     MonitorSchedule.obj
 0002:00001e38       ??_C@_09IPAEKDAI@localhost?$AA@ 0042ae38     MonitorSchedule.obj
 0002:00001e44       ??_7?$sorttree@V?$hashelement@Vword@svutil@@PAVTask@@@svutil@@@svutil@@6B@ 0042ae44     MonitorSchedule.obj
 0002:00001e48       ??_C@_03OFAPEBGM@?$CFs?6?$AA@ 0042ae48     MonitorSchedule.obj
 0002:00001e4c       ??_C@_0BB@LOANPNJH@Open?5file?5failed?$AA@ 0042ae4c     MonitorSchedule.obj
 0002:00001e60       ??_C@_0O@HJCOBDKN@Create?5failed?$AA@ 0042ae60     MonitorSchedule.obj
 0002:00001e70       ??_C@_07MJJJJMCG@push?5ok?$AA@ 0042ae70     MonitorSchedule.obj
 0002:00001e78       ??_C@_09KGLGAPFC@Create?5ok?$AA@ 0042ae78     MonitorSchedule.obj
 0002:00001e84       ??_C@_01EEMJAFIK@?6?$AA@   0042ae84     MonitorSchedule.obj
 0002:00001e88       ??_C@_01LIIJDEN@?$AN?$AA@  0042ae88     MonitorSchedule.obj
 0002:00001e8c       ??_C@_02CBLLGHLK@r?$CL?$AA@ 0042ae8c     MonitorSchedule.obj
 0002:00001e90       ??_C@_0BJ@IDJBHEIG@?$CFs?1MonitorManager?1?$CFs?4txt?$AA@ 0042ae90     MonitorSchedule.obj
 0002:00001eac       ??_C@_0BB@EOLFOCDC@Create?5exception?$AA@ 0042aeac     MonitorSchedule.obj
 0002:00001ec0       ??_C@_08COMDHBON@len?5?3?$CFd?6?$AA@ 0042aec0     MonitorSchedule.obj
 0002:00001ecc       ??_C@_0L@IBJCMAFA@label?5?3?$CFs?6?$AA@ 0042aecc     MonitorSchedule.obj
 0002:00001ed8       ??_C@_0BN@NIILEHFI@?5Self?9exit?5MonitorSchedule?$CB?5?$AA@ 0042aed8     MonitorSchedule.obj
 0002:00001ef8       ??_C@_0CL@JKPFCIHB@?$EA?$EA?$EA?$EA?5COMMUNICATION?0?5min?3?$CFd?5?0?$CFs?5?9@ 0042aef8     MonitorSchedule.obj
 0002:00001f24       ??_C@_0BL@NJEBMHAC@Parent?5process?5isn?8t?5exist?$AA@ 0042af24     MonitorSchedule.obj
 0002:00001f40       ??_C@_0CG@EPCAALMK@Create?5event?5of?5communication?5?5f@ 0042af40     MonitorSchedule.obj
 0002:00001f68       ??_C@_0BO@GKBOFLJB@Global?2Siteview?9Communictions?$AA@ 0042af68     MonitorSchedule.obj
 0002:00001f88       ??_C@_0M@COPBGLJN@Refresh_END?$AA@ 0042af88     MonitorSchedule.obj
 0002:00001f94       ??_C@_0M@FIIINBPP@Refresh?5end?$AA@ 0042af94     MonitorSchedule.obj
 0002:00001fa0       ??_C@_08BNACBFOL@eeeeeeee?$AA@ 0042afa0     MonitorSchedule.obj
 0002:00001fac       ??_C@_0BH@GMAKLKD@Refresh?5Monitors?5empty?$AA@ 0042afac     MonitorSchedule.obj
 0002:00001fc4       ??_C@_0BE@ODKJPBLG@Parameter?3?$CFs?0?$CFs?0?$CFs?6?$AA@ 0042afc4     MonitorSchedule.obj
 0002:00001fd8       ??_C@_0BD@KKHPGBEA@Monitor?5list?5empty?$AA@ 0042afd8     MonitorSchedule.obj
 0002:00001fec       ??_C@_0BH@CPLBAGDL@Monitor?5counts?5is?5?3?$CFd?6?$AA@ 0042afec     MonitorSchedule.obj
 0002:00002004       ??_C@_02CIKBGMLM@?9e?$AA@  0042b004     MonitorSchedule.obj
 0002:00002008       ??_C@_0BG@OHEKBIGI@Create?5Monitor?5failed?$AA@ 0042b008     MonitorSchedule.obj
 0002:00002020       ??_C@_0BM@BKLPBNGF@Create?5Option?5object?5failed?$AA@ 0042b020     MonitorSchedule.obj
 0002:0000203c       ??_C@_0O@DKOMNNKD@Begin?5refresh?$AA@ 0042b03c     MonitorSchedule.obj
 0002:0000204c       ??_C@_0BA@ODMDFNCK@Parameter?5error?$AA@ 0042b04c     MonitorSchedule.obj
 0002:0000205c       ??_C@_09KHHHFCIH@mc?4config?$AA@ 0042b05c     MonitorSchedule.obj
 0002:00002068       ??_C@_04OELPMFKG@?$CFs?5?5?$AA@ 0042b068     MonitorSchedule.obj
 0002:00002070       ??_C@_0BD@HECHCOFD@?6?5Process?5arg?5?$CFd?3?5?$AA@ 0042b070     MonitorSchedule.obj
 0002:00002084       ??_C@_06DKODENEM@D?3?2v70?$AA@ 0042b084     MonitorSchedule.obj
 0002:0000208c       ??_C@_0BH@OCJGEBAB@SiteView70?9ConfigTrack?$AA@ 0042b08c     MonitorSchedule.obj
 0002:000020a4       ??_7out_of_range@std@@6B@  0042b0a4     MonitorSchMain.obj
 0002:000020ac       ??_7CommunicationThread@@6B@ 0042b0ac     MonitorSchMain.obj
 0002:000020c4       ??_7ScheduleThread@@6B@    0042b0c4     MonitorSchMain.obj
 0002:000020dc       ??_C@_0M@HGDNMOCL@PreLoad?3?$CFs?6?$AA@ 0042b0dc     MonitorSchMain.obj
 0002:000020e8       ??_C@_0P@OJKKMJNH@?$CFs?1fcgi?9bin?1?$CFs?$AA@ 0042b0e8     MonitorSchMain.obj
 0002:000020f8       ??_C@_0BF@BLHLOIID@SerialData?5exception?$AA@ 0042b0f8     MonitorSchMain.obj
 0002:00002110       ??_C@_0CG@POBFDFOL@?$CFs?1temp?1MonitorScheduleSerialDat@ 0042b110     MonitorSchMain.obj
 0002:00002138       ??_C@_0CJ@EELDDAKD@Create?5append?5mass?5records?5threa@ 0042b138     MonitorSchMain.obj
 0002:00002164       ??_C@_0CD@LINIEKLA@Create?5communication?5thread?5fail@ 0042b164     MonitorSchMain.obj
 0002:00002188       ??_C@_0BN@LAHKCMAL@Create?5schdule?5thread?5failed?$AA@ 0042b188     MonitorSchMain.obj
 0002:000021a8       ??_C@_0BG@PLMGMAEI@Monitor?5list?5is?5empty?$AA@ 0042b1a8     MonitorSchMain.obj
 0002:000021c0       ??_C@_01KDCPPGHE@r?$AA@    0042b1c0     MonitorSchMain.obj
 0002:000021c4       ??_C@_0BM@INHHDILN@Create?5option?5object?5failed?$AA@ 0042b1c4     MonitorSchMain.obj
 0002:000021e0       ??_C@_0P@EBHJPAIL@Add?5Monitor?5Ok?$AA@ 0042b1e0     MonitorSchMain.obj
 0002:000021f0       ??_C@_0BB@NMJODGP@Get?5edit?5monitor?$AA@ 0042b1f0     MonitorSchMain.obj
 0002:00002204       ??_C@_0CK@PHKPLIGE@Create?5monitor?5failed?5while?5upda@ 0042b204     MonitorSchMain.obj
 0002:00002230       ??_C@_0BG@GPIPCGPG@Create?5monitor?5failed?$AA@ 0042b230     MonitorSchMain.obj
 0002:00002248       ??_C@_0P@KCMOAJFO@In?5Add?5Monitor?$AA@ 0042b248     MonitorSchMain.obj
 0002:00002258       ??_C@_0BM@PAPJHAGI@invalid?5map?1set?$DMT?$DO?5iterator?$AA@ 0042b258     MonitorSchMain.obj
 0002:00002274       ??_7MonitorSchMain@@6B@    0042b274     MonitorSchMain.obj
 0002:00002278       ??_C@_0N@HIJAOLDA@Add?5group?5ok?$AA@ 0042b278     MonitorSchMain.obj
 0002:00002288       ??_C@_0CI@KMELCGME@Create?5group?5failed?5while?5update@ 0042b288     MonitorSchMain.obj
 0002:000022b0       ??_C@_0M@JKBGGIP@In?5AddGroup?$AA@ 0042b2b0     MonitorSchMain.obj
 0002:000022bc       ??_C@_0O@EKLHKEHP@Add?5Entity?5ok?$AA@ 0042b2bc     MonitorSchMain.obj
 0002:000022cc       ??_C@_0CJ@PENADMNH@Create?5entity?5failed?5while?5updat@ 0042b2cc     MonitorSchMain.obj
 0002:000022f8       ??_C@_0O@NJAIJLAF@In?5Add?5Entity?$AA@ 0042b2f8     MonitorSchMain.obj
 0002:00002308       ??_C@_04KKJBFIJG@TASK?$AA@ 0042b308     MonitorSchMain.obj
 0002:00002310       ??_C@_05NAIABEH@GROUP?$AA@ 0042b310     MonitorSchMain.obj
 0002:00002318       ??_C@_06GKLBAPIO@ENTITY?$AA@ 0042b318     MonitorSchMain.obj
 0002:00002320       ??_C@_06FKDAMKFP@DELETE?$AA@ 0042b320     MonitorSchMain.obj
 0002:00002328       ??_C@_06HHJABCJL@UPDATE?$AA@ 0042b328     MonitorSchMain.obj
 0002:00002330       ??_C@_06EBDFEDAJ@ADDNEW?$AA@ 0042b330     MonitorSchMain.obj
 0002:00002338       ??_C@_07ENJDMOMA@MONITOR?$AA@ 0042b338     MonitorSchMain.obj
 0002:00002340       ??_C@_0BG@LMGENGAM@InProcessConfigChange?$AA@ 0042b340     MonitorSchMain.obj
 0002:00002358       ??_C@_01HIHLOKLC@1?$AA@    0042b358     MonitorSchMain.obj
 0002:0000235c       ??_C@_04GPMDFGEJ@type?$AA@ 0042b35c     MonitorSchMain.obj
 0002:00002364       ??_C@_09DPNCKCBF@?$CBcontains?$AA@ 0042b364     MonitorThread.obj
 0002:00002370       ??_C@_08JKMOLGCD@contains?$AA@ 0042b370     MonitorThread.obj
 0002:0000237c       ??_C@_02EHCHHCKH@?$DM?$DN?$AA@ 0042b37c     MonitorThread.obj
 0002:00002380       ??_C@_02EEKDKGMJ@?$DO?$DN?$AA@ 0042b380     MonitorThread.obj
 0002:00002384       ??_C@_01MNNFJEPP@?$DM?$AA@ 0042b384     MonitorThread.obj
 0002:00002388       ??_C@_01PPODPGHN@?$DO?$AA@ 0042b388     MonitorThread.obj
 0002:0000238c       ??_C@_02FDNJECIE@?$CB?$DN?$AA@ 0042b38c     MonitorThread.obj
 0002:00002390       ??_C@_02EGOFBIJA@?$DN?$DN?$AA@ 0042b390     MonitorThread.obj
 0002:00002394       ??_C@_0DA@LHLAIABH@GetMessageData?5failed2?5in?5RunInP@ 0042b394     MonitorThread.obj
 0002:000023c4       ??_C@_0CN@DCFBGIDL@Return?5data?5too?5big?5in?5RunInProc@ 0042b3c4     MonitorThread.obj
 0002:000023f4       ??_C@_0CL@NJMKJCHL@Return?5data?5error?5in?5RunInProces@ 0042b3f4     MonitorThread.obj
 0002:00002420       ??_C@_0CP@EKBANMBJ@GetMessageData?5failed?5in?5RunInPr@ 0042b420     MonitorThread.obj
 0002:00002450       ??_C@_0DA@MKCJNPGI@Receive?5messgae?5failed?5in?5RunInP@ 0042b450     MonitorThread.obj
 0002:00002480       ??_C@_0CP@GMCAPNHE@Create?5process?5failed?5in?5RunInPr@ 0042b480     MonitorThread.obj
 0002:000024b0       ??_C@_09OJMDMBJI@error?3?$CFd?6?$AA@ 0042b4b0     MonitorThread.obj
 0002:000024bc       ??_C@_08HLKDIFPF@dir?5?3?$CFs?6?$AA@ 0042b4bc     MonitorThread.obj
 0002:000024c8       ??_C@_0BB@EHFLIOOB@CommandLine?5?3?$CFs?6?$AA@ 0042b4c8     MonitorThread.obj
 0002:000024dc       ??_C@_0N@EIBEEKIA@?$CFs?2fcgi?9bin?2?$AA@ 0042b4dc     MonitorThread.obj
 0002:000024ec       ??_C@_0CG@NHIMFGNN@?$CFs?2fcgi?9bin?2MonitorSchedule?4exe?5@ 0042b4ec     MonitorThread.obj
 0002:00002514       ??_C@_0CK@NCGHLLJB@Get?5data?5failed2?5in?5RunInProcess@ 0042b514     MonitorThread.obj
 0002:00002540       ??_C@_0CP@HNBAPGGM@Malloc?5memmory?5failed?5in?5RunInPr@ 0042b540     MonitorThread.obj
 0002:00002570       ??_C@_0CM@LPGCBDMF@PushMessage?5failed?5in?5RunInProce@ 0042b570     MonitorThread.obj
 0002:0000259c       ??_C@_06IAAJIKIE@InData?$AA@ 0042b59c     MonitorThread.obj
 0002:000025a4       ??_C@_0CJ@CNPCJMEB@Get?5data?5failed?5in?5RunInProcess?5@ 0042b5a4     MonitorThread.obj
 0002:000025d0       ??_C@_0BH@IGJPFBMJ@SiteView_RunMonitor_?$CFd?$AA@ 0042b5d0     MonitorThread.obj
 0002:000025e8       ??_C@_0CK@DONCMLPK@Monitor?5is?5empty?5in?5RunInProcess@ 0042b5e8     MonitorThread.obj
 0002:00002614       ??_C@_0CA@LDKDPKBK@Malloc?5memmory?5failed?5for?5inbuf?$AA@ 0042b614     MonitorThread.obj
 0002:00002634       ??_C@_0L@EEDHOIGH@Refresh_OK?$AA@ 0042b634     MonitorThread.obj
 0002:00002640       ??_C@_01BJJEKLCA@?$CC?$AA@ 0042b640     MonitorThread.obj
 0002:00002644       ??_C@_0BK@FMBLJDOJ@Refresh?5?0PushMessage?5f?3?5?$CC?$AA@ 0042b644     MonitorThread.obj
 0002:00002660       ??_C@_0O@GJADFFLG@Send?5to?5Ws?3?$CFs?$AA@ 0042b660     MonitorThread.obj
 0002:00002670       ??_C@_0CO@CPHJELHI@MonitorId?3?$CFs?0MonitorType?3?$CFd?0stat@ 0042b670     MonitorThread.obj
 0002:000026a0       ??_C@_0BD@FFBGGDBK@Make?5record?5failed?$AA@ 0042b6a0     MonitorThread.obj
 0002:000026b4       ??_C@_0BD@IAPAOBID@Make?5result?5failed?$AA@ 0042b6b4     MonitorThread.obj
 0002:000026c8       ??_C@_0BF@IBAAHGOJ@Return?5value?5is?5NULL?$AA@ 0042b6c8     MonitorThread.obj
 0002:000026e0       ??_C@_0CB@FLKOHBGO@Process?5result?5?9?9?5string?5too?5big@ 0042b6e0     MonitorThread.obj
 0002:00002704       ??_C@_07JKFHKGEB@?$CFs?$DN?$CFs?0?5?$AA@ 0042b704     MonitorThread.obj
 0002:0000270c       ??_C@_0L@OEJPABKB@?$CFs?$DN?$CF0?42f?0?5?$AA@ 0042b70c     MonitorThread.obj
 0002:00002718       ??_C@_07FHJJMJGH@?$CFs?$DN?$CFd?0?5?$AA@ 0042b718     MonitorThread.obj
 0002:00002720       ??_C@_0BG@ELBFGNJG@Return?5value?5is?5empty?$AA@ 0042b720     MonitorThread.obj
 0002:00002738       ??_7MonitorThread@@6B@     0042b738     MonitorThread.obj
 0002:00002750       ??_C@_0M@OBPHACEC@Work?5thread?$AA@ 0042b750     MonitorThread.obj
 0002:0000275c       ??_C@_0BL@NHKELIEI@baseline?5compare?5value?3?$CFs?6?$AA@ 0042b75c     MonitorThread.obj
 0002:00002778       ??_C@_04GANEPBPG@?$CF?44f?$AA@ 0042b778     MonitorThread.obj
 0002:00002780       ??_C@_02PGHGPEOM@?91?$AA@  0042b780     MonitorThread.obj
 0002:00002784       ??_C@_0L@MDMGLDID@nIndex?3?$CFd?6?$AA@ 0042b784     MonitorThread.obj
 0002:00002790       ??_C@_0BI@IANADNEN@baseline?5data?5is?5empty?6?$AA@ 0042b790     MonitorThread.obj
 0002:000027a8       ??_C@_0BK@ILOEJHAB@get?5baseline?5data?5error?4?6?$AA@ 0042b7a8     MonitorThread.obj
 0002:000027c4       ??_C@_01IHBHIGKO@?0?$AA@   0042b7c4     MonitorThread.obj
 0002:000027c8       ??_C@_0BD@KABPLKME@baseline?5value?3?$CFs?6?$AA@ 0042b7c8     MonitorThread.obj
 0002:000027dc       ??_C@_05OMNIFHIN@?$CF0?42f?$AA@ 0042b7dc     MonitorThread.obj
 0002:000027e4       ??_C@_02DPKJAMEF@?$CFd?$AA@ 0042b7e4     MonitorThread.obj
 0002:000027e8       ??_C@_04CGFJFPFD@none?$AA@ 0042b7e8     MonitorThread.obj
 0002:000027f0       ??_C@_06KHDOHNKC@always?$AA@ 0042b7f0     MonitorThread.obj
 0002:000027f8       ??_C@_03BOPJPIAM@and?$AA@  0042b7f8     MonitorThread.obj
 0002:000027fc       ??_C@_02FODMLBIE@or?$AA@   0042b7fc     MonitorThread.obj
 0002:00002800       ??_C@_05KHAAJFEE@dddd2?$AA@ 0042b800     MonitorThread.obj
 0002:00002808       ??_C@_0CG@JCPBNBJ@ParserResult?5error?0?5unknown?5type@ 0042b808     MonitorThread.obj
 0002:00002830       ??_C@_0BM@DJALOLKD@Return?5string?5value?5too?5big?$AA@ 0042b830     MonitorThread.obj
 0002:0000284c       ??_C@_0CO@JFPPND@ParserResult?5return?5value?5is?5bad@ 0042b84c     MonitorThread.obj
 0002:0000287c       ??_C@_09NNKKCEBL@name?5?3?$CFs?6?$AA@ 0042b87c     MonitorThread.obj
 0002:00002888       ??_C@_05KKCIMGE@error?$AA@ 0042b888     MonitorThread.obj
 0002:00002890       ??_C@_0DO@KOBGHNKJ@?9?9?9?9?9?9?9?9?9?9?9?9?9?9?9?9?9?9?9?9?9?9?9?9?9End?5ret@ 0042b890     MonitorThread.obj
 0002:000028d0       ??_C@_06BAKFFEGN@?$CFs?$DN?$CFs?6?$AA@ 0042b8d0     MonitorThread.obj
 0002:000028d8       ??_C@_0DN@PHDDFDJC@?6?9?9?9?9?9?9?9?9?9?9?9?9?9?9?9?9?9?9?9?9?9?9?9?9Return?5@ 0042b8d8     MonitorThread.obj
 0002:00002918       ??_C@_0BJ@LDLKKICI@Build?5return?5data?5failed?$AA@ 0042b918     MonitorThread.obj
 0002:00002934       ??_C@_0BL@CCPCOPBL@Parser?5monitor?5state?5error?$AA@ 0042b934     MonitorThread.obj
 0002:00002950       ??_C@_0BC@NBPKJOIJ@No?5state?5be?5match?$AA@ 0042b950     MonitorThread.obj
 0002:00002964       ??_C@_0BG@LNJMHBDP@Error?3Set?5state?5error?$AA@ 0042b964     MonitorThread.obj
 0002:0000297c       ??_C@_0O@KLOAMOGB@?4?4?4?4?4?$CFs?4?4?4?4?4?6?$AA@ 0042b97c     MonitorThread.obj
 0002:0000298c       ??_C@_0CA@IHAKOAJP@RunMonitor?5happened?5exception_2?$AA@ 0042b98c     MonitorThread.obj
 0002:000029ac       ??_C@_0DH@MCIGBLIO@?9?9?9?9?9?9?9?9?9?9?9?9?9?9?9?9End?5input?5parame@ 0042b9ac     MonitorThread.obj
 0002:000029e4       ??_C@_0DI@LANHKPNL@?6?9?9?9?9?9?9?9?9?9?9?9?9?9?9?9?9?9Input?5paramete@ 0042b9e4     MonitorThread.obj
 0002:00002a1c       ??_C@_0DH@NMAEPFAK@?9?9?9?9?9?9?9?9?9?9?9?9?9?9?9?9?9End?5load?5librar@ 0042ba1c     MonitorThread.obj
 0002:00002a54       ??_C@_0BC@HBIOKDBG@Function?5name?3?$CFs?6?$AA@ 0042ba54     MonitorThread.obj
 0002:00002a68       ??_C@_0BB@MAHGPIEF@Library?5name?3?$CFs?6?$AA@ 0042ba68     MonitorThread.obj
 0002:00002a7c       ??_C@_0DH@ECHEPDHL@?9?9?9?9?9?9?9?9?9?9?9?9?9?9?9?9?9Load?5library?9?9?9@ 0042ba7c     MonitorThread.obj
 0002:00002ab4       ??_C@_0CC@EBGODKGI@RunMonitor?9Function?5name?5is?5empt@ 0042bab4     MonitorThread.obj
 0002:00002ad8       ??_C@_0DE@CKEBKLBI@?$DN?$DN?$DN?$DN?$DN?$DN?$DN?$DN?$DN?$DN?$DN?$DN?$DN?$DN?$DN?$DN?$DNDemo?5mode?$DN?$DN?$DN?$DN?$DN?$DN@ 0042bad8     MonitorThread.obj
 0002:00002b0c       ??_C@_0BA@FDBPJKBO@Monitor?5is?5NULL?$AA@ 0042bb0c     MonitorThread.obj
 0002:00002b1c       ??_C@_0CF@CKIHHJPD@Thread?5?5exit?5by?5exception?0?5threa@ 0042bb1c     MonitorThread.obj
 0002:00002b48       ??_C@_0EC@FININCLD@Executent?5monitor?5exception?0Moni@ 0042bb48     MonitorThread.obj
 0002:00002b8c       ??_C@_0CE@NPMHNIJ@?$CFs?0?$CFs?0MonitorID?3?$CFs?0?5SkipCount?3?5?$CF@ 0042bb8c     MonitorThread.obj
 0002:00002bb0       ??_C@_0BD@KIEJNJGK@Init?5socket?5failed?$AA@ 0042bbb0     MonitorThread.obj
 0002:00002bc4       ??_C@_0BK@OGJDDKA@MonitorThread?5wait?5failed?$AA@ 0042bbc4     MonitorThread.obj
 0002:00002be0       ??_C@_0P@OFIOIKFL@In?5Thread?5?3?$CFs?6?$AA@ 0042bbe0     MonitorThread.obj
 0002:00002bf0       ??_C@_0CK@NDPCMGE@CoInitialize?5failed?5when?5create?5@ 0042bbf0     MonitorThread.obj
 0002:00002c1c       ??_C@_0BI@JNFJPIOH@Update?5config?5exception?$AA@ 0042bc1c     ommunicationThread.obj
 0002:00002c34       ??_C@_0DH@IFDEAPCF@?9?9?9?9?9?9?9?9?9?9?9?9Config?5update?3OPT?3?$CFs@ 0042bc34     ommunicationThread.obj
 0002:00002c6c       ??_C@_0BH@PPHCKACI@configtq?3?$CFs?0scaddr?3?$CFs?6?$AA@ 0042bc6c     ommunicationThread.obj
 0002:00002c84       ??_C@_03HCMCBFLP@_?$CFd?$AA@ 0042bc84     ommunicationThread.obj
 0002:00002c88       ??_C@_0BG@IPBNEDAD@GetMonitorRandomValue?$AA@ 0042bc88     Option.obj
 0002:00002ca0       ??_C@_0BD@BGPFHAHE@GetRandomValue?4dll?$AA@ 0042bca0     Option.obj
 0002:00002cb8       ??_C@_0EN@OAOPOKND@Monitor?4dll?0AimParser?4dll?0NTPerf@ 0042bcb8     Option.obj
 0002:00002d08       ??_C@_0BE@NANPOADH@PreLoadLibrary?3?5?$CFs?6?$AA@ 0042bd08     Option.obj
 0002:00002d1c       ??_C@_0BB@FHMPAEII@SvdbHostAddr?3?$CFs?6?$AA@ 0042bd1c     Option.obj
 0002:00002d30       ??_C@_0P@IMMBEGNC@ServerHost?3?$CFs?6?$AA@ 0042bd30     Option.obj
 0002:00002d40       ??_C@_0L@HPMGBIOI@ServerHost?$AA@ 0042bd40     Option.obj
 0002:00002d4c       ??_C@_0BD@IBGILBHJ@UseLocalBuffer?3?$CFd?6?$AA@ 0042bd4c     Option.obj
 0002:00002d60       ??_C@_0P@MDHIJODC@UseLocalBuffer?$AA@ 0042bd60     Option.obj
 0002:00002d70       ??_C@_0O@IMKCCFPM@CheckTime?3?$CFd?6?$AA@ 0042bd70     Option.obj
 0002:00002d80       ??_C@_0M@FJGFLLPA@information?$AA@ 0042bd80     Option.obj
 0002:00002d8c       ??_C@_09BNBNBJLL@CheckTime?$AA@ 0042bd8c     Option.obj
 0002:00002d98       ??_C@_0BN@LIPFGMK@Monitor?5Tread?5Plus?5Count?3?$CFd?6?$AA@ 0042bd98     Option.obj
 0002:00002db8       ??_C@_0BG@FONIDPNA@MonitorTreadPlusCount?$AA@ 0042bdb8     Option.obj
 0002:00002dd0       ??_C@_0CD@JOPCOBKP@MilliSecond?5Between?5AppendMass?3?$CF@ 0042bdd0     Option.obj
 0002:00002df4       ??_C@_0BJ@JDGJNGLI@MilliSecondBetweenAppend?$AA@ 0042bdf4     Option.obj
 0002:00002e10       ??_C@_0BG@LLMIDADL@Enable?5AppendMass?3?$CFd?6?$AA@ 0042be10     Option.obj
 0002:00002e28       ??_C@_0BH@BADJGBLK@EnableAppendMassRecord?$AA@ 0042be28     Option.obj
 0002:00002e40       ??_C@_08LPECFGOG@SEID?3?$CFd?6?$AA@ 0042be40     Option.obj
 0002:00002e4c       ??_C@_04BPKCJLI@SEID?$AA@  0042be4c     Option.obj
 0002:00002e54       ??_C@_0N@GILKEGBN@DemoFunction?$AA@ 0042be54     Option.obj
 0002:00002e64       ??_C@_0M@LNCPGDFN@DemoLibrary?$AA@ 0042be64     Option.obj
 0002:00002e70       ??_C@_0P@PLKHAMGL@PreLoadLibrary?$AA@ 0042be70     Option.obj
 0002:00002e80       ??_C@_0N@EOHIAJJP@DemoMode?3?$CFd?6?$AA@ 0042be80     Option.obj
 0002:00002e90       ??_C@_0BA@GGPFGLLN@MonitorSchedule?$AA@ 0042be90     Option.obj
 0002:00002ea0       ??_C@_08IFDCAAJM@DemoMode?$AA@ 0042bea0     Option.obj
 0002:00002eac       ??_C@_0BG@BCDLAJLI@?$CFs?1fcgi?9bin?1mc?4config?$AA@ 0042beac     Option.obj
 0002:00002ec4       ??_7QueueItem@@6B@         0042bec4     QueueItem.obj
 0002:00002ec8       ??_C@_0BB@MDMKLOLD@?$CFs?5has?5in?5queue?6?$AA@ 0042bec8     QueueItem.obj
 0002:00002edc       ??_7QueuesManager@@6B@     0042bedc     QueuesManager.obj
 0002:00002ee0       ??_C@_0CB@GOJDKLND@Queue?5name?3?$CFs?9?9Monitor?5count?3?$CFd?6@ 0042bee0     QueuesManager.obj
 0002:00002f04       ??_C@_0CA@LOGPADMM@Error?5?3?5Create?5main?5queue?5error?$AA@ 0042bf04     QueuesManager.obj
 0002:00002f24       ??_C@_0O@BCGHPMGH@MainQueueName?$AA@ 0042bf24     QueuesManager.obj
 0002:00002f34       ??_C@_0DM@JPOBCMBO@Error?5?3?5m_pSchMain?5is?5NULL?5when?5@ 0042bf34     QueuesManager.obj
 0002:00002f70       ??_7?$treenode@V?$hashelement@Vword@svutil@@PAVTask@@@svutil@@@svutil@@6B@ 0042bf70     readSVDB.obj
 0002:00002f74       ??_C@_0BE@JONHPENG@map?1set?$DMT?$DO?5too?5long?$AA@ 0042bf74     readSVDB.obj
 0002:00002f88       ??_C@_08NLHBPEGP@password?$AA@ 0042bf88     readSVDB.obj
 0002:00002f94       ??_C@_07JMHMLHHN@sv_type?$AA@ 0042bf94     readSVDB.obj
 0002:00002f9c       ??_C@_07DHHPHHAN@sv_name?$AA@ 0042bf9c     readSVDB.obj
 0002:00002fa4       ??_C@_0P@MHFALFJ@sv_monitortype?$AA@ 0042bfa4     readSVDB.obj
 0002:00002fb4       ??_C@_0L@GHBKOMKF@sv_endtime?$AA@ 0042bfb4     readSVDB.obj
 0002:00002fc0       ??_C@_0P@IBIONABC@?$CFd?9?$CFd?9?$CFd?9?$CFd?3?$CFd?$AA@ 0042bfc0     readSVDB.obj
 0002:00002fd0       ??_C@_0N@ICEJBPGE@sv_starttime?$AA@ 0042bfd0     readSVDB.obj
 0002:00002fe0       ??_C@_04CLCEDBPF@time?$AA@ 0042bfe0     readSVDB.obj
 0002:00002fe8       ??_C@_0L@OAHBFFC@sv_disable?$AA@ 0042bfe8     readSVDB.obj
 0002:00002ff4       ??_C@_06LAFJNIHE@sv_run?$AA@ 0042bff4     readSVDB.obj
 0002:00002ffc       ??_C@_07CMPMEKAE@sv_unit?$AA@ 0042bffc     readSVDB.obj
 0002:00003004       ??_C@_08KCGFJGDM@sv_label?$AA@ 0042c004     readSVDB.obj
 0002:00003010       ??_C@_07MOEJHPPH@sv_flag?$AA@ 0042c010     readSVDB.obj
 0002:00003018       ??_C@_0O@CCOOCICD@sv_expression?$AA@ 0042c018     readSVDB.obj
 0002:00003028       ??_C@_0BG@DOLADECI@sv_baselineexpression?$AA@ 0042c028     readSVDB.obj
 0002:00003040       ??_C@_0BA@LGICCOFJ@sv_paramvalue?$CFd?$AA@ 0042c040     readSVDB.obj
 0002:00003050       ??_C@_0BI@EBHHLHID@sv_baselineparamvalue?$CFd?$AA@ 0042c050     readSVDB.obj
 0002:00003068       ??_C@_0N@BICCOAFN@sv_operate?$CFd?$AA@ 0042c068     readSVDB.obj
 0002:00003078       ??_C@_0BF@CKFPIJAM@sv_baselineoperate?$CFd?$AA@ 0042c078     readSVDB.obj
 0002:00003090       ??_C@_0P@OGMJOHM@sv_paramname?$CFd?$AA@ 0042c090     readSVDB.obj
 0002:000030a0       ??_C@_0BH@JJKCBJOI@sv_baselineparamname?$CFd?$AA@ 0042c0a0     readSVDB.obj
 0002:000030b8       ??_C@_0BC@FODCJCHA@sv_conditioncount?$AA@ 0042c0b8     readSVDB.obj
 0002:000030cc       ??_C@_0BK@KMDGGDPA@sv_baselineconditioncount?$AA@ 0042c0cc     readSVDB.obj
 0002:000030e8       ??_C@_06KHAHGKPO@Total?3?$AA@ 0042c0e8     readSVDB.obj
 0002:000030f0       ??_C@_05KGEAEGFG@Total?$AA@ 0042c0f0     readSVDB.obj
 0002:000030f8       ??_C@_09JOFEILIG@PerEntity?$AA@ 0042c0f8     readSVDB.obj
 0002:00003104       ??_C@_0P@PDBODGCK@subsequent?4ini?$AA@ 0042c104     readSVDB.obj
 0002:00003114       ??_C@_05GAOAHFKE@sv_id?$AA@ 0042c114     readSVDB.obj
 0002:0000311c       ??_C@_0BJ@FDFMDGLH@FindETContrlFirst?5failed?$AA@ 0042c11c     readSVDB.obj
 0002:00003138       ??_C@_0BI@BBIPGNJB@FastGetEntityTPL?5failed?$AA@ 0042c138     readSVDB.obj
 0002:00003150       ??_C@_0CE@HIMICJOA@FindNodeValue?9?9sv_devicetype?5fai@ 0042c150     readSVDB.obj
 0002:00003174       ??_C@_0BP@PPHIBCG@GetEntityMainAttribNode?5failed?$AA@ 0042c174     readSVDB.obj
 0002:00003194       ??_C@_0BF@LLGPBLJJ@FastGetEntity?5failed?$AA@ 0042c194     readSVDB.obj
 0002:000031ac       ??_C@_05LLFFEDGF@end?$CFd?$AA@ 0042c1ac     readSVDB.obj
 0002:000031b4       ??_C@_01JLIPDDHJ@?3?$AA@   0042c1b4     readSVDB.obj
 0002:000031b8       ??_C@_01CLKCMJKC@?5?$AA@   0042c1b8     readSVDB.obj
 0002:000031bc       ??_C@_07DLNFDAOO@start?$CFd?$AA@ 0042c1bc     readSVDB.obj
 0002:000031c4       ??_C@_01GBGANLPD@0?$AA@    0042c1c4     readSVDB.obj
 0002:000031c8       ??_C@_07JOFHFJEE@Allow?$CFd?$AA@ 0042c1c8     readSVDB.obj
 0002:000031d0       ??_C@_04KOACHJEN@Type?$AA@ 0042c1d0     readSVDB.obj
 0002:000031d8       ??_7ReturnValue@@6B@       0042c1d8     ReturnValue.obj
 0002:000031dc       ??_C@_0CJ@NLLCMNLL@?$LM?$OA?$LC?b?F?w?$LB?$LL?$LM?$OA?J?$LB?$LN?$PL?V?$LJ?0?F?p?J?$LM?J?$LB?$LM?d?3?$CFs?0?V?U?V@ 0042c1dc     ScheduleThread.obj
 0002:00003208       ??_C@_0CF@ECDDNBCA@?$LM?$OA?$LC?b?F?w?$LB?$LL?H?N?N?q?$LM?F?$LL?$KO?$LN?$PL?V?$LJ?0?H?N?N?q?$LM?F?$LL?$KO?C?$PL?$LD@ 0042c208     ScheduleThread.obj
 0002:00003230       ??_C@_0CE@MJLBMCEO@?$LM?$OA?$LC?b?F?w?$LB?$LL?W?i?R?$MA?$LP?$LP?$LN?$PL?V?$LJ?K?y?R?$MA?$LP?$LP?$LM?$OA?$LC?b?F?wID@ 0042c230     ScheduleThread.obj
 0002:00003254       ??_C@_0N@HMAIBABL@?$LM?$OA?$LC?b?F?w?$LB?$LL?$LN?$PL?V?$LJ?$AA@ 0042c254     ScheduleThread.obj
 0002:00003264       ??_C@_0DH@LNKBENAH@?$CK?$CK?$CK?$CK?$CK?$CK?$CK?$CK?$CK?$CK?$CK?$CKSchedule?5thread?5exce@ 0042c264     ScheduleThread.obj
 0002:0000329c       ??_C@_0DJ@CNOMCNKI@?$CK?$CK?$CK?$CK?$CK?$CK?$CK?$CK?$CK?$CK?$CK?$CKSchedule?5thread?5erro@ 0042c29c     ScheduleThread.obj
 0002:000032d8       ??_C@_0EM@PJKGAEOB@?$DO?$DO?$DO?$DO?$DO?$DO?$DO?$DO?$DO?$DO?$DO?$DO?$DO?$DO?$DO?$DO?$DO?$DO?$DOTotal?5count?5i@ 0042c2d8     ScheduleThread.obj
 0002:00003324       ??_C@_0BA@BPIDHNMI@Disable?5str?3?$CFs?6?$AA@ 0042c324     ScheduleThread.obj
 0002:00003338       ??_C@_0EE@HMBHBFOA@?9?9?9?9?9?9?9?9?9?9?9?9?9?9?9?9?9?9?9?9?9?9?9Disable?5b@ 0042c338     ScheduleThread.obj
 0002:0000337c       ??_C@_0DP@CGCCEOCJ@?9?9?9?9?9?9?9?9?9?9?9?9?9?9?9?9?9?9Disable?5by?5tas@ 0042c37c     ScheduleThread.obj
 0002:000033bc       ??_C@_0DL@JEHCEPA@?$DN?$DN?$DN?$DN?$DN?$DN?$DN?$DN?$DN?$DNmonitorid?3?$CFs?9?9?9?9?9temp?5@ 0042c3bc     ScheduleThread.obj
 0002:000033f8       ??_C@_0DG@HGMHJPKJ@?$DN?$DN?$DN?$DN?$DN?$DN?$DN?$DN?$DN?$DNmonitorid?3?$CFs?9?9?9?9?9disab@ 0042c3f8     ScheduleThread.obj
 0002:00003430       ??_C@_0BF@OOCCECGP@Current?5time?5is?5?3?$CFs?6?$AA@ 0042c430     ScheduleThread.obj
 0002:00003448       ??_7ThreadContrl@@6B@      0042c448     ScheduleThread.obj
 0002:00003460       ??_C@_0CE@LCGHHEAH@Error?5?3?5Start?5threads?5contrl?5fai@ 0042c460     ScheduleThread.obj
 0002:00003484       ??_C@_0CJ@GHIKFLMK@Error?5?3?5initialize?5threads?5contr@ 0042c484     ScheduleThread.obj
 0002:000034b0       ??_C@_0BL@LGEOIOEN@IDS_TempDisableMonitorTime?$AA@ 0042c4b0     ScheduleThread.obj
 0002:000034cc       ??_C@_0BL@IPHPIPPC@IDS_DisableMonitorSchedule?$AA@ 0042c4cc     ScheduleThread.obj
 0002:000034e8       ??_C@_0BH@GGEAELEE@IDS_GroupDependMonitor?$AA@ 0042c4e8     ScheduleThread.obj
 0002:00003500       ??_C@_0BE@NDAHHCC@IDS_MonitorDisabled?$AA@ 0042c500     ScheduleThread.obj
 0002:00003514       ??_C@_0BF@NKBLJJHD@Main?5dispatch?5thread?$AA@ 0042c514     ScheduleThread.obj
 0002:0000352c       ??_C@_07MMLDEGLO@?$CFs?$DN?$CFs?$AN?6?$AA@ 0042c52c     SerialData.obj
 0002:00003534       ??_C@_02PCIJFNDE@?$AN?6?$AA@ 0042c534     SerialData.obj
 0002:00003538       ??_C@_02CBLDBPFN@?1?1?$AA@ 0042c538     SerialData.obj
 0002:0000353c       ??_C@_0L@GJJHIEAE@?$FLTask_End?$FN?$AA@ 0042c53c     SerialData.obj
 0002:00003548       ??_C@_0O@FLHJPJCN@?$FLTaskMap_End?$FN?$AA@ 0042c548     SerialData.obj
 0002:00003558       ??_C@_0N@FEGMPFPC@?$FLTask_Begin?$FN?$AA@ 0042c558     SerialData.obj
 0002:00003568       ??_C@_0BA@DOJOFFHG@?$FLTaskMap_Begin?$FN?$AA@ 0042c568     SerialData.obj
 0002:00003578       ??_C@_0BB@NFDMFCMN@?$FLSubsequent_End?$FN?$AA@ 0042c578     SerialData.obj
 0002:0000358c       ??_C@_0BD@CBOEFCLP@?$FLSubsequent_Begin?$FN?$AA@ 0042c58c     SerialData.obj
 0002:000035a0       ??_C@_0N@OBIMKLGN@?$FLGroups_End?$FN?$AA@ 0042c5a0     SerialData.obj
 0002:000035b0       ??_C@_0P@ELICJAFO@?$FLGroups_Begin?$FN?$AA@ 0042c5b0     SerialData.obj
 0002:000035c0       ??_C@_0O@OAMKKKGC@?$FLMonitor_End?$FN?$AA@ 0042c5c0     SerialData.obj
 0002:000035d0       ??_C@_0BC@LKAKHPAN@?$FLMonitorList_End?$FN?$AA@ 0042c5d0     SerialData.obj
 0002:000035e4       ??_C@_0BA@LLBNLNEB@?$FLMonitor_Begin?$FN?$AA@ 0042c5e4     SerialData.obj
 0002:000035f4       ??_C@_0BE@KPMBLGLC@?$FLMonitorList_Begin?$FN?$AA@ 0042c5f4     SerialData.obj
 0002:00003608       ??_C@_0BC@GFFAJGOD@Data?5version?57?401?$AA@ 0042c608     SerialData.obj
 0002:0000361c       ??_C@_0BO@LKIAPAJI@SiteView?5ECC?5serial?5data?5file?$AA@ 0042c61c     SerialData.obj
 0002:0000363c       ??_C@_0BA@BGHMDAPH@?$FLTaskMap_End?$FN?$AN?6?$AA@ 0042c63c     SerialData.obj
 0002:0000364c       ??_C@_0N@HMIOJAHD@?$FLTask_End?$FN?$AN?6?$AA@ 0042c64c     SerialData.obj
 0002:0000365c       ??_C@_0P@BJGKKKBJ@?$FLTask_Begin?$FN?$AN?6?$AA@ 0042c65c     SerialData.obj
 0002:0000366c       ??_C@_0BC@JAFDDOEM@?$FLTaskMap_Begin?$FN?$AN?6?$AA@ 0042c66c     SerialData.obj
 0002:00003680       ??_C@_0BD@JAGDHDO@?$FLSubsequent_End?$FN?$AN?6?$AA@ 0042c680     SerialData.obj
 0002:00003694       ??_C@_0BF@BEAPNIJC@?$FLSubsequent_Begin?$FN?$AN?6?$AA@ 0042c694     SerialData.obj
 0002:000036ac       ??_C@_0P@GDGAPFNP@?$FLGroups_End?$FN?$AN?6?$AA@ 0042c6ac     SerialData.obj
 0002:000036bc       ??_C@_0BB@CGAANDMF@?$FLGroups_Begin?$FN?$AN?6?$AA@ 0042c6bc     SerialData.obj
 0002:000036d0       ??_C@_0BE@IHCDNDDD@?$FLMonitorList_End?$FN?$AN?6?$AA@ 0042c6d0     SerialData.obj
 0002:000036e4       ??_C@_0BA@JDPPNIMA@?$FLMonitor_End?$FN?$AN?6?$AA@ 0042c6e4     SerialData.obj
 0002:000036f4       ??_C@_0BC@KOIFHBLB@?$FLMonitor_Begin?$FN?$AN?6?$AA@ 0042c6f4     SerialData.obj
 0002:00003708       ??_C@_0BG@GMGAOJL@?$FLMonitorList_Begin?$FN?$AN?6?$AA@ 0042c708     SerialData.obj
 0002:00003720       ??_C@_0BO@CNFKDPCJ@?1?1?$CK?$CK?$CK?$CKData?5version?57?401?$CK?$CK?$CK?$CK?$AN?6?$AA@ 0042c720     SerialData.obj
 0002:00003740       ??_C@_0CK@NBGHNGHE@?1?1?$CK?$CK?$CK?$CKSiteView?5ECC?5serial?5data?5f@ 0042c740     SerialData.obj
 0002:0000376c       ??_C@_01NOFIACDB@w?$AA@    0042c76c     SerialData.obj
 0002:00003770       ??_7Subsequent@@6B@        0042c770     Subsequent.obj
 0002:00003774       ??_C@_0O@NFAJKAMD@Item_Total_?$CFd?$AA@ 0042c774     Subsequent.obj
 0002:00003784       ??_C@_0BC@EMFKJGHG@Item_PerEntity_?$CFd?$AA@ 0042c784     Subsequent.obj
 0002:00003798       ??_C@_0O@KGPJIDC@Item_Class_?$CFd?$AA@ 0042c798     Subsequent.obj
 0002:000037a8       ??_C@_0N@CKAFJMBL@ItemListSize?$AA@ 0042c7a8     Subsequent.obj
 0002:000037b8       ??_C@_0BK@OEOIOMLD@week_?$CFd_task_?$CFd_endminute?$AA@ 0042c7b8     Task.obj
 0002:000037d4       ??_C@_0BI@KFDFDCPF@week_?$CFd_task_?$CFd_endhour?$AA@ 0042c7d4     Task.obj
 0002:000037ec       ??_C@_0BM@PJDEGFLC@week_?$CFd_task_?$CFd_beginminute?$AA@ 0042c7ec     Task.obj
 0002:00003808       ??_C@_0BK@FHABNGKF@week_?$CFd_task_?$CFd_beginhour?$AA@ 0042c808     Task.obj
 0002:00003824       ??_C@_0BB@DCAFICLF@week_?$CFd_tasksize?$AA@ 0042c824     Task.obj
 0002:00003838       ??_C@_07PPGEDGLE@week_?$CFd?$AA@ 0042c838     Task.obj
 0002:00003840       ??_C@_08OKFGHCFJ@taskname?$AA@ 0042c840     Task.obj
 0002:0000384c       ??_C@_0BL@DCHDNGMB@eeeeeeeeeeeeeeeeeeeeeeeeee?$AA@ 0042c84c     ThreadContrl.obj
 0002:00003868       ??_C@_0L@CDENFONM@eid?5is?3?$CFs?6?$AA@ 0042c868     ThreadContrl.obj
 0002:00003874       ??_C@_0P@PNNENJOE@Work?5thread?5?$CFd?$AA@ 0042c874     ThreadContrl.obj
 0002:00003884       ??_C@_0BC@HCCBKLLK@?$CK?$CK?$CK?$CK?$CKSuccess?$CK?$CK?$CK?$CK?$CK?$AA@ 0042c884     ThreadContrl.obj
 0002:00003898       ??_C@_0BC@MPMOOLEJ@?$CK?$CK?$CK?$CK?$CKTimeout?$CK?$CK?$CK?$CK?$CK?$AA@ 0042c898     ThreadContrl.obj
 0002:000038ac       ??_C@_0BL@CKNCPHPM@?$CK?$CK?$CK?$CK?$CKStart?5monitor?4?4?4?$CK?$CK?$CK?$CK?$CK?$AA@ 0042c8ac     ThreadContrl.obj
 0002:000038c8       ??_C@_0BG@IADFEHLC@Get?5Idle?5thread?5error?$AA@ 0042c8c8     ThreadContrl.obj
 0002:000038e0       ??_C@_0BC@MOLLFNMK@Task?5check?5thread?$AA@ 0042c8e0     ThreadContrl.obj
 0002:000038f4       ??_C@_05IAOCCJNL@Enter?$AA@ 0042c8f4     ThreadContrl.obj
 0002:000038fc       ??_C@_0CD@DGKGIDJF@Error?5?3?5Create?5QueueManager?5fail@ 0042c8fc     ThreadContrl.obj
 0002:00003920       ??_C@_0CE@MHDGOAMB@Monitor?5skip?5count?3?$CFd?0Monitor?5ID@ 0042c920     ThreadContrl.obj
 0002:00003944       ??_C@_0DN@MKONPGPB@SkipCount?5?$DO?5?$CFd?0?5MonitorID?3?$CFs?0?5th@ 0042c944     ThreadContrl.obj
 0002:00003984       ??_C@_0BB@GIBOBFMF@Monitor?5is?5empty?$AA@ 0042c984     ThreadContrl.obj
 0002:00003998       ??_C@_0CJ@DENKKNNJ@ThreadContrl?5dispatch?5thread?5exi@ 0042c998     ThreadContrl.obj
 0002:000039c4       ??_C@_0CJ@DBFJCJEP@ThreadContrl?5dispatch?5thread?5exi@ 0042c9c4     ThreadContrl.obj
 0002:000039f0       ??_C@_0BD@OGAMPDKN@Contrl?5thread?5exit?$AA@ 0042c9f0     ThreadContrl.obj
 0002:00003a04       ??_7ThreadEx@@6B@          0042ca04     ThreadEx.obj
 0002:00003a1c       ??_C@_09NPPHDNIB@?5is?5done?$CB?$AA@ 0042ca1c     Util.obj
 0002:00003a28       ??_C@_05LKACOLBK@?5?5to?5?$AA@ 0042ca28     Util.obj
 0002:00003a30       ??_C@_0O@MDINJGAG@AppendRecord?5?$AA@ 0042ca30     Util.obj
 0002:00003a40       ??_C@_0BI@EAIMEEIF@?5?5to?5localhost?5is?5done?$CB?$AA@ 0042ca40     Util.obj
 0002:00003a58       ??_C@_0FI@LJJOLFLA@?5?5?h?$IO?$LH?e?$IP?$JGdll?e?$IH?$LN?f?$JF?$LA?e?$KE?$LB?h?$LE?$KF?0?5Failed?5@ 0042ca58     Util.obj
 0002:00003ab0       ??_C@_07NDMDKDNP@SendMsg?$AA@ 0042cab0     Util.obj
 0002:00003ab8       ??_C@_0CD@LNOMEKCN@Load?5MonitorScheduleWeb?4dll?5fail@ 0042cab8     Util.obj
 0002:00003adc       ??_C@_05OALCLBHC@?$CFs?7?$CFs?$AA@ 0042cadc     Util.obj
 0002:00003ae4       ??_C@_0BC@CMNJFMFG@?1temp?1mserror?4log?$AA@ 0042cae4     Util.obj
 0002:00003af8       ??_C@_0BA@IMBNEAAC@sendmsg?5failed?6?$AA@ 0042caf8     Util.obj
 0002:00003b08       ??_C@_0BA@OLEHDLDB@sendmsg?5sucess?6?$AA@ 0042cb08     Util.obj
 0002:00003b18       ??_C@_07BOPMDPAI@WebPort?$AA@ 0042cb18     Util.obj
 0002:00003b20       ??_C@_06DKGIMKCM@WebECC?$AA@ 0042cb20     Util.obj
 0002:00003b28       ??_C@_0L@KGMMJMHC@WebService?$AA@ 0042cb28     Util.obj
 0002:00003b34       ??_C@_0BH@GFIOEFED@?$CFs?1fcgi?9bin?1WebECC?4ini?$AA@ 0042cb34     Util.obj
 0002:00003b4c       ??_C@_0CD@OFAEHLFE@?$CFs?1fcgi?9bin?1MonitorScheduleWeb?4d@ 0042cb4c     Util.obj
 0002:00003b70       ??_C@_09PFCHIMEP@127?40?40?41?$AA@ 0042cb70     Util.obj
 0002:00003b7c       ??_C@_0M@PBEHJCJG@InstallPath?$AA@ 0042cb7c     Util.obj
 0002:00003b88       ??_C@_0M@IFENNAEF@SVMQAddress?$AA@ 0042cb88     Util.obj
 0002:00003b94       ??_C@_0BP@BBHFKOOO@?$CFs?1MonitorManager?1siteview?4ini?$AA@ 0042cb94     Util.obj
 0002:00003bb4       ??_C@_07POIENIBA@Refresh?$AA@ 0042cbb4     Util.obj
 0002:00003bc0       ??_7type_info@@6B@         0042cbc0     MSVCRT:ti_inst.obj
 0002:00003c48       ??_C@_0BO@GNIAFIKK@Unknown?5Runtime?5Check?5Error?6?$AN?$AA@ 0042cc48     MSVCRT:error.obj
 0002:00003c68       ??_C@_0DG@HKJMLLLP@A?5local?5variable?5was?5used?5before@ 0042cc68     MSVCRT:error.obj
 0002:00003ca0       ??_C@_0BN@FFOINMNJ@Stack?5memory?5was?5corrupted?6?$AN?$AA@ 0042cca0     MSVCRT:error.obj
 0002:00003cc0       ??_C@_0BBN@GPMLNJCF@A?5cast?5to?5a?5smaller?5data?5type?5ha@ 0042ccc0     MSVCRT:error.obj
 0002:00003de0       ??_C@_0NN@NGPKDKPD@The?5value?5of?5ESP?5was?5not?5properl@ 0042cde0     MSVCRT:error.obj
 0002:00003edc       ??_C@_0BC@KNBMEBEO@IsDebuggerPresent?$AA@ 0042cedc     MSVCRT:error.obj
 0002:00003ef0       ??_C@_0N@HAOHNMDE@Kernel32?4dll?$AA@ 0042cef0     MSVCRT:error.obj
 0002:00003f00       ??_C@_0CA@IODNCDPG@Run?9Time?5Check?5Failure?5?$CD?$CFd?5?9?5?$CFs?$AA@ 0042cf00     MSVCRT:error.obj
 0002:00003f20       ??_C@_0CK@CNLNOEPB@Local?5variable?5used?5before?5initi@ 0042cf20     MSVCRT:userapi.obj
 0002:00003f4c       ??_C@_0BI@CIGMDCBH@Stack?5memory?5corruption?$AA@ 0042cf4c     MSVCRT:userapi.obj
 0002:00003f64       ??_C@_0CK@FEGOIOPB@Cast?5to?5smaller?5type?5causing?5los@ 0042cf64     MSVCRT:userapi.obj
 0002:00003f90       ??_C@_0BJ@HEGAHDFO@Stack?5pointer?5corruption?$AA@ 0042cf90     MSVCRT:userapi.obj
 0002:00003fac       ??_C@_0M@HHEBEAAO@MSPDB71?4DLL?$AA@ 0042cfac     MSVCRT:pdblkup.obj
 0002:00003fb8       ??_C@_0N@KIGOLBLC@Module32Next?$AA@ 0042cfb8     MSVCRT:pdblkup.obj
 0002:00003fc8       ??_C@_0O@CNMFJJGO@Module32First?$AA@ 0042cfc8     MSVCRT:pdblkup.obj
 0002:00003fd8       ??_C@_0BF@OCLFCNKN@GetModuleInformation?$AA@ 0042cfd8     MSVCRT:pdblkup.obj
 0002:00003ff0       ??_C@_0BD@FIEJBLME@EnumProcessModules?$AA@ 0042cff0     MSVCRT:pdblkup.obj
 0002:00004004       ??_C@_09EPMADGLA@PSAPI?4DLL?$AA@ 0042d004     MSVCRT:pdblkup.obj
 0002:00004010       ??_C@_0BJ@JEFKDHMD@CreateToolhelp32Snapshot?$AA@ 0042d010     MSVCRT:pdblkup.obj
 0002:0000402c       ??_C@_0O@CHDGJGFP@ImageNtHeader?$AA@ 0042d02c     MSVCRT:pdblkup.obj
 0002:0000403c       ??_C@_0N@KBGMOMJO@IMAGEHLP?4DLL?$AA@ 0042d03c     MSVCRT:pdblkup.obj
 0002:0000404c       ??_C@_0N@NHGLKGEC@KERNEL32?4DLL?$AA@ 0042d04c     MSVCRT:pdblkup.obj
 0002:0000405c       ??_C@_0BF@BMIHBHCA@EnvironmentDirectory?$AA@ 0042d05c     MSVCRT:pdblkup.obj
 0002:00004074       ??_C@_0CN@KGLAKABH@SOFTWARE?2Microsoft?2VisualStudio?2@ 0042d074     MSVCRT:pdblkup.obj
 0002:000040a4       ??_C@_0M@HLOHPNFA@RegCloseKey?$AA@ 0042d0a4     MSVCRT:pdblkup.obj
 0002:000040b0       ??_C@_0BB@HHEIPGME@RegQueryValueExA?$AA@ 0042d0b0     MSVCRT:pdblkup.obj
 0002:000040c4       ??_C@_0O@DCOGKJGG@RegOpenKeyExA?$AA@ 0042d0c4     MSVCRT:pdblkup.obj
 0002:000040d4       ??_C@_0N@JJPEKNFO@ADVAPI32?4DLL?$AA@ 0042d0d4     MSVCRT:pdblkup.obj
 0002:000040e4       ??_C@_08ONJBEOFA@PDBClose?$AA@ 0042d0e4     MSVCRT:pdblkup.obj
 0002:000040f0       ??_C@_08NINFAAFA@DBIClose?$AA@ 0042d0f0     MSVCRT:pdblkup.obj
 0002:000040fc       ??_C@_08LIGPJJNA@ModClose?$AA@ 0042d0fc     MSVCRT:pdblkup.obj
 0002:00004108       ??_C@_0O@IPLOKOKN@ModQueryLines?$AA@ 0042d108     MSVCRT:pdblkup.obj
 0002:00004118       ??_C@_0BE@GDNPNLGH@DBIQueryModFromAddr?$AA@ 0042d118     MSVCRT:pdblkup.obj
 0002:0000412c       ??_C@_0L@KPMOCKEL@PDBOpenDBI?$AA@ 0042d12c     MSVCRT:pdblkup.obj
 0002:00004138       ??_C@_0BB@PENKIMFE@PDBOpenValidate3?$AA@ 0042d138     MSVCRT:pdblkup.obj
 0002:000041c8       ??_R1A@?0A@A@type_info@@8  0042d1c8     MSVCRT:ti_inst.obj
 0002:000041e0       ??_R2type_info@@8          0042d1e0     MSVCRT:ti_inst.obj
 0002:000041e8       ??_R3type_info@@8          0042d1e8     MSVCRT:ti_inst.obj
 0002:000041f8       ??_R4type_info@@6B@        0042d1f8     MSVCRT:ti_inst.obj
 0002:0000420c       ___rtc_iaa                 0042d20c     MSVCRT:initsect.obj
 0002:00004214       ___rtc_izz                 0042d214     MSVCRT:initsect.obj
 0002:00004218       ___rtc_taa                 0042d218     MSVCRT:initsect.obj
 0002:00004220       ___rtc_tzz                 0042d220     MSVCRT:initsect.obj
 0002:00004224       __CT??_R0?AVexception@@@8??0exception@@QAE@ABV0@@Z12 0042d224     appendmassrecord.obj
 0002:00004240       __CT??_R0?AVbad_cast@@@8??0bad_cast@@QAE@ABV0@@Z12 0042d240     appendmassrecord.obj
 0002:0000425c       __CTA2?AVbad_cast@@        0042d25c     appendmassrecord.obj
 0002:00004268       __TI2?AVbad_cast@@         0042d268     appendmassrecord.obj
 0002:00004420       __CT??_R0?AVMSException@@@8??0MSException@@QAE@ABV0@@Z280 0042d420     Groups.obj
 0002:0000443c       __CTA1?AVMSException@@     0042d43c     Groups.obj
 0002:00004444       __TI1?AVMSException@@      0042d444     Groups.obj
 0002:00004480       __CT??_R0?AVlogic_error@std@@@8??0logic_error@std@@QAE@ABV01@@Z40 0042d480     Groups.obj
 0002:0000449c       __CT??_R0?AVlength_error@std@@@8??0length_error@std@@QAE@ABV01@@Z40 0042d49c     Groups.obj
 0002:000044b8       __CTA3?AVlength_error@std@@ 0042d4b8     Groups.obj
 0002:000044c8       __TI3?AVlength_error@std@@ 0042d4c8     Groups.obj
 0002:00004594       __CT??_R0?AVexception@svutil@@@8??0exception@svutil@@QAE@ABV01@@Z280 0042d594     Groups.obj
 0002:000045b0       __CTA1?AVexception@svutil@@ 0042d5b0     Groups.obj
 0002:000045b8       __TI1?AVexception@svutil@@ 0042d5b8     Groups.obj
 0002:000058cc       __CT??_R0?AVout_of_range@std@@@8??0out_of_range@std@@QAE@ABV01@@Z40 0042e8cc     MonitorSchMain.obj
 0002:000058e8       __CTA3?AVout_of_range@std@@ 0042e8e8     MonitorSchMain.obj
 0002:000058f8       __TI3?AVout_of_range@std@@ 0042e8f8     MonitorSchMain.obj
 0002:0000798c       __IMPORT_DESCRIPTOR_ccgnu2 0043098c     ccgnu2:ccgnu2.dll
 0002:000079a0       __IMPORT_DESCRIPTOR_svapi  004309a0     svapi:svapi.dll
 0002:000079b4       __IMPORT_DESCRIPTOR_WS2_32 004309b4     ws2_32:WS2_32.dll
 0002:000079c8       __IMPORT_DESCRIPTOR_KERNEL32 004309c8     kernel32:KERNEL32.dll
 0002:000079dc       __IMPORT_DESCRIPTOR_USER32 004309dc     user32:USER32.dll
 0002:000079f0       __IMPORT_DESCRIPTOR_ole32  004309f0     ole32:ole32.dll
 0002:00007a04       __IMPORT_DESCRIPTOR_MSVCP71 00430a04     msvcprt:MSVCP71.dll
 0002:00007a18       __IMPORT_DESCRIPTOR_MSVCR71 00430a18     MSVCRT:MSVCR71.dll
 0002:00007a2c       __IMPORT_DESCRIPTOR_MSVCR71D 00430a2c     MSVCRTD:MSVCR71D.dll
 0002:00007a40       __NULL_IMPORT_DESCRIPTOR   00430a40     ccgnu2:ccgnu2.dll
 0003:00000000       ___xc_a                    00434000     MSVCRT:cinitexe.obj
 0003:0000005c       ___xc_z                    0043405c     MSVCRT:cinitexe.obj
 0003:00000060       ___xi_a                    00434060     MSVCRT:cinitexe.obj
 0003:00000064       ___xi_z                    00434064     MSVCRT:cinitexe.obj
 0003:00000070       ??_R0?AVexception@@@8      00434070     appendmassrecord.obj
 0003:00000088       ??_R0?AVbad_cast@@@8       00434088     appendmassrecord.obj
 0003:000000a0       ?map@@3PAY0BA@DA           004340a0     Des.obj
 0003:000001a0       ?key8@@3PAEA               004341a0     Des.obj
 0003:000001a8       ??_R0?AVMSException@@@8    004341a8     Groups.obj
 0003:000001c4       ??_R0?AVlogic_error@std@@@8 004341c4     Groups.obj
 0003:000001e4       ??_R0?AVlength_error@std@@@8 004341e4     Groups.obj
 0003:00000204       ??_R0?AVexception@svutil@@@8 00434204     Groups.obj
 0003:00000224       ?seid@Univ@@2HA            00434224     MonitorSchedule.obj
 0003:00000228       ?msappend@Univ@@2HA        00434228     MonitorSchedule.obj
 0003:0000022c       ??_R0?AVout_of_range@std@@@8 0043422c     MonitorSchMain.obj
 0003:0000024c       ?str_disable@@3PBDB        0043424c     ScheduleThread.obj
 0003:00000250       ?str_gddisable@@3PBDB      00434250     ScheduleThread.obj
 0003:00000254       ?str_taskplandisable@@3PBDB 00434254     ScheduleThread.obj
 0003:00000258       ?str_tempdisable@@3PBDB    00434258     ScheduleThread.obj
 0003:0000025c       ??_R0?AVtype_info@@@8      0043425c     MSVCRT:ti_inst.obj
 0003:00000280       ___security_cookie         00434280     MSVCRT:seccook.obj
 0003:00000290       ___defaultmatherr          00434290     MSVCRT:merr.obj
 0003:00000294       ?_RTC_ErrorLevels@@3PAHA   00434294     MSVCRT:error.obj
 0003:000002d0       ?_Psave@?$_Facetptr@V?$ctype@D@std@@@std@@2PBVfacet@locale@2@B 004342d0     appendmassrecord.obj
 0003:00000368       ?key@@3PAEA                00434368     Des.obj
 0003:00000380       ?putil@@3PAVUtil@@A        00434380     MonitorSchedule.obj
 0003:00000384       ?g_pOption@@3PAVOption@@A  00434384     MonitorSchedule.obj
 0003:00000388       ?pMain@@3PAVMonitorSchMain@@A 00434388     MonitorSchedule.obj
 0003:0000038c       ?pluscount@Univ@@2HA       0043438c     MonitorSchedule.obj
 0003:00000390       ?enablemass@Univ@@2_NA     00434390     MonitorSchedule.obj
 0003:00000394       ?g_ServerHost@@3V?$basic_string@DU?$char_traits@D@std@@V?$allocator@D@2@@std@@A 00434394     MonitorSchedule.obj
 0003:000003b0       ?g_strRootPath@@3VTString@@A 004343b0     MonitorSchedule.obj
 0003:000003c4       ?g_QueueAddr@@3V?$basic_string@DU?$char_traits@D@std@@V?$allocator@D@2@@std@@A 004343c4     MonitorSchedule.obj
 0003:000003e0       ?g_LastSchTime@@3VTTime@svutil@@A 004343e0     MonitorSchedule.obj
 0003:000003e4       ?g_ConfigTrackQueueName@@3V?$basic_string@DU?$char_traits@D@std@@V?$allocator@D@2@@std@@A 004343e4     MonitorSchedule.obj
 0003:00000400       ?g_RefreshQueueName@@3V?$basic_string@DU?$char_traits@D@std@@V?$allocator@D@2@@std@@A 00434400     MonitorSchedule.obj
 0003:0000041c       ?language_obj@readSVDB@@0PAXA 0043441c     readSVDB.obj
 0003:00000420       ?EntityTPL@readSVDB@@0V?$map@V?$basic_string@DU?$char_traits@D@std@@V?$allocator@D@2@@std@@PAXU?$less@V?$basic_string@DU?$char_traits@D@std@@V?$allocator@D@2@@std@@@2@V?$allocator@U?$pair@$$CBV?$basic_string@DU?$char_traits@D@std@@V?$allocator@D@2@@std@@PAX@std@@@2@@std@@A 00434420     readSVDB.obj
 0003:0000042c       ?Monitors@readSVDB@@0V?$map@V?$basic_string@DU?$char_traits@D@std@@V?$allocator@D@2@@std@@PAXU?$less@V?$basic_string@DU?$char_traits@D@std@@V?$allocator@D@2@@std@@@2@V?$allocator@U?$pair@$$CBV?$basic_string@DU?$char_traits@D@std@@V?$allocator@D@2@@std@@PAX@std@@@2@@std@@A 0043442c     readSVDB.obj
 0003:00000438       ?MonitorTPL@readSVDB@@0V?$map@HPAXU?$less@H@std@@V?$allocator@U?$pair@$$CBHPAX@std@@@2@@std@@A 00434438     readSVDB.obj
 0003:00000444       ?Entities@readSVDB@@0V?$map@V?$basic_string@DU?$char_traits@D@std@@V?$allocator@D@2@@std@@PAXU?$less@V?$basic_string@DU?$char_traits@D@std@@V?$allocator@D@2@@std@@@2@V?$allocator@U?$pair@$$CBV?$basic_string@DU?$char_traits@D@std@@V?$allocator@D@2@@std@@PAX@std@@@2@@std@@A 00434444     readSVDB.obj
 0003:00000454       ?s_str_tempdisable@@3V?$basic_string@DU?$char_traits@D@std@@V?$allocator@D@2@@std@@A 00434454     ScheduleThread.obj
 0003:00000470       ?s_str_disable@@3V?$basic_string@DU?$char_traits@D@std@@V?$allocator@D@2@@std@@A 00434470     ScheduleThread.obj
 0003:0000048c       ?s_str_gddisable@@3V?$basic_string@DU?$char_traits@D@std@@V?$allocator@D@2@@std@@A 0043448c     ScheduleThread.obj
 0003:000004a8       ?s_str_taskplandisable@@3V?$basic_string@DU?$char_traits@D@std@@V?$allocator@D@2@@std@@A 004344a8     ScheduleThread.obj
 0003:000004e8       ?g_strSession@Util@@2VTString@@A 004344e8     Util.obj
 0003:000004fc       ?listrcd@Util@@0V?$list@VSingelRecord@@V?$allocator@VSingelRecord@@@std@@@std@@A 004344fc     Util.obj
 0003:00000508       ?szServer@Util@@0V?$basic_string@DU?$char_traits@D@std@@V?$allocator@D@2@@std@@A 00434508     Util.obj
 0003:00000558       ?szPort@Util@@0V?$basic_string@DU?$char_traits@D@std@@V?$allocator@D@2@@std@@A 00434558     Util.obj
 0003:00000578       __dowildcard               00434578     MSVCRT:wildcard.obj
 0003:0000057c       __newmode                  0043457c     MSVCRT:_newmode.obj
 0003:00000580       __commode                  00434580     MSVCRT:xncommod.obj
 0003:00000584       __fmode                    00434584     MSVCRT:xtxtmode.obj
 0003:000005e4       __adjust_fdiv              004345e4     <common>
 0003:000005e8       ___onexitend               004345e8     <common>
 0003:000005ec       ___onexitbegin             004345ec     <common>

 entry point at        0001:00023688

 Static symbols

 0001:000004cf       $L46321                    004014cf f i appendmassrecord.obj
 0001:000006c1       $L46690                    004016c1 f i appendmassrecord.obj
 0001:000054f9       $L50934                    004064f9 f   LoadConfig.obj
 0001:00005704       $L50976                    00406704 f   LoadConfig.obj
 0001:00005eaf       $L53500                    00406eaf f i LoadConfig.obj
 0001:00006d2f       $L55784                    00407d2f f   LoadConfig.obj
 0001:00006fd3       $L55876                    00407fd3 f   LoadConfig.obj
 0001:000071d1       $L56288                    004081d1 f   LoadConfig.obj
 0001:00007571       $L56846                    00408571 f   LoadConfig.obj
 0001:0000b182       $L55083                    0040c182 f   MonitorSchedule.obj
 0001:0000b659       $L55178                    0040c659 f   MonitorSchedule.obj
 0001:0000bec2       $L60859                    0040cec2 f   MonitorSchedule.obj
 0001:0000c0c2       $L60984                    0040d0c2 f   MonitorSchedule.obj
 0001:0000cc14       $L62245                    0040dc14 f   MonitorSchedule.obj
 0001:0000cfdd       $L62247                    0040dfdd f   MonitorSchedule.obj
 0001:0000d9c7       $L58808                    0040e9c7 f   MonitorSchMain.obj
 0001:00011557       $L84646                    00412557 f i MonitorThread.obj
 0001:00011777       $L85802                    00412777 f i MonitorThread.obj
 0001:000123f1       $L88472                    004133f1 f i MonitorThread.obj
 0001:000124ad       $L88474                    004134ad f i MonitorThread.obj
 0001:0001450b       $L92919                    0041550b f   MonitorThread.obj
 0001:0001453f       $L92920                    0041553f f   MonitorThread.obj
 0001:0001464b       $L92922                    0041564b f   MonitorThread.obj
 0001:00014839       $L93184                    00415839 f   MonitorThread.obj
 0001:000148bc       $L93185                    004158bc f   MonitorThread.obj
 0001:000149b9       $L93186                    004159b9 f   MonitorThread.obj
 0001:00014e71       $L48836                    00415e71 f   ommunicationThread.obj
 0001:00014e9b       $L48837                    00415e9b f   ommunicationThread.obj
 0001:00015957       $L43119                    00416957 f   ProcessMonitorData.obj
 0001:00016e37       $L60182                    00417e37 f i readSVDB.obj
 0001:00017fae       $L64681                    00418fae f i readSVDB.obj
 0001:00017fba       $L64683                    00418fba f i readSVDB.obj
 0001:000199ad       $L66765                    0041a9ad f i readSVDB.obj
 0001:000199b9       $L66767                    0041a9b9 f i readSVDB.obj
 0001:0001cb17       $L57969                    0041db17 f   ScheduleThread.obj
 0001:0001cb53       $L57970                    0041db53 f   ScheduleThread.obj
 0001:0001e23e       $L22540                    0041f23e f i stlini.obj
 0001:0001e778       $L25075                    0041f778 f i stlini.obj
 0001:0001e891       $L25990                    0041f891 f i stlini.obj
 0001:0001ea6e       $L26828                    0041fa6e f i stlini.obj
 0001:0001f148       $L28477                    00420148 f i stlini.obj
 0001:0001f261       $L29093                    00420261 f i stlini.obj
 0001:00021aa6       $L57459                    00422aa6 f   ThreadContrl.obj
 0001:00021af6       $L57460                    00422af6 f   ThreadContrl.obj
 0001:00021e5d       $L49448                    00422e5d f i Util.obj
 0001:00021ff4       $L50451                    00422ff4 f   Util.obj
 0001:000221df       $L50556                    004231df f   Util.obj
 0001:00022379       $L50624                    00423379 f   Util.obj
 0001:00023496       _report_failure            00424496 f   MSVCRT:secchk.obj
 0001:00023a13       ?DebuggerProbe@@YAHK@Z     00424a13 f   MSVCRT:error.obj
 0001:00023a60       ?DebuggerRuntime@@YAHKHPAXPB_W@Z 00424a60 f   MSVCRT:error.obj
 0001:00023abf       ?Win95IsDebuggerPresent@@YGHXZ 00424abf f   MSVCRT:error.obj
 0001:00023ad0       ?Initialize@@YAHXZ         00424ad0 f   MSVCRT:error.obj
 0001:00023b38       ?failwithmessage@@YAXPAXHHPBD@Z 00424b38 f   MSVCRT:error.obj
 0001:00023ca6       ?GetImageInfo@@YAPAUImageInfo@@K@Z 00424ca6 f   MSVCRT:pdblkup.obj
 0001:00023ff7       ?GetPdbDll@@YAPAUHINSTANCE__@@XZ 00424ff7 f   MSVCRT:pdblkup.obj
 0001:00024480       $L45770                    00425480 f   appendmassrecord.obj
 0001:00024489       __ehhandler$??$use_facet@V?$ctype@D@std@@@std@@YAABV?$ctype@D@0@ABVlocale@0@@Z 00425489 f   appendmassrecord.obj
 0001:000244a0       $L45823                    004254a0 f   appendmassrecord.obj
 0001:000244a0       $L45865                    004254a0 f   appendmassrecord.obj
 0001:000244a9       $L45866                    004254a9 f   appendmassrecord.obj
 0001:000244a9       $L45824                    004254a9 f   appendmassrecord.obj
 0001:000244c3       __ehhandler$??$?HDU?$char_traits@D@std@@V?$allocator@D@1@@std@@YA?AV?$basic_string@DU?$char_traits@D@std@@V?$allocator@D@2@@0@ABV10@0@Z 004254c3 f   appendmassrecord.obj
 0001:000244c3       __ehhandler$??$?HDU?$char_traits@D@std@@V?$allocator@D@1@@std@@YA?AV?$basic_string@DU?$char_traits@D@std@@V?$allocator@D@2@@0@ABV10@PBD@Z 004254c3 f   appendmassrecord.obj
 0001:000244d0       $L46249                    004254d0 f   appendmassrecord.obj
 0001:000244d0       $L46192                    004254d0 f   appendmassrecord.obj
 0001:000244d0       $L46161                    004254d0 f   appendmassrecord.obj
 0001:000244d8       __ehhandler$??0sentry@?$basic_ostream@DU?$char_traits@D@std@@@std@@QAE@AAV12@@Z 004254d8 f   appendmassrecord.obj
 0001:000244d8       __ehhandler$??0sentry@?$basic_istream@DU?$char_traits@D@std@@@std@@QAE@AAV12@_N@Z 004254d8 f   appendmassrecord.obj
 0001:000244d8       __ehhandler$??1sentry@?$basic_ostream@DU?$char_traits@D@std@@@std@@QAE@XZ 004254d8 f   appendmassrecord.obj
 0001:000244f0       $L46322                    004254f0 f   appendmassrecord.obj
 0001:000244f8       $L46323                    004254f8 f   appendmassrecord.obj
 0001:00024501       __ehhandler$??$?5DU?$char_traits@D@std@@V?$allocator@D@1@@std@@YAAAV?$basic_istream@DU?$char_traits@D@std@@@0@AAV10@AAV?$basic_string@DU?$char_traits@D@std@@V?$allocator@D@2@@0@@Z 00425501 f   appendmassrecord.obj
 0001:00024510       $L46691                    00425510 f   appendmassrecord.obj
 0001:00024518       $L46819                    00425518 f   appendmassrecord.obj
 0001:00024520       __ehhandler$??$?6DU?$char_traits@D@std@@V?$allocator@D@1@@std@@YAAAV?$basic_ostream@DU?$char_traits@D@std@@@0@AAV10@ABV?$basic_string@DU?$char_traits@D@std@@V?$allocator@D@2@@0@@Z 00425520 f   appendmassrecord.obj
 0001:00024530       $L47656                    00425530 f   appendmassrecord.obj
 0001:00024538       $L47657                    00425538 f   appendmassrecord.obj
 0001:00024540       __ehhandler$??1CAppendMassRecord@@UAE@XZ 00425540 f   appendmassrecord.obj
 0001:00024550       $L47783                    00425550 f   appendmassrecord.obj
 0001:0002455b       __ehhandler$?run@CAppendMassRecord@@UAEXXZ 0042555b f   appendmassrecord.obj
 0001:00024570       $L46752                    00425570 f   Groups.obj
 0001:00024570       $L46734                    00425570 f   Groups.obj
 0001:00024578       $L46753                    00425578 f   Groups.obj
 0001:00024578       $L46735                    00425578 f   Groups.obj
 0001:00024583       __ehhandler$??0?$hashelement@Vword@svutil@@V12@@svutil@@QAE@ABVword@1@@Z 00425583 f   Groups.obj
 0001:00024583       __ehhandler$??0?$hashelement@Vword@svutil@@V12@@svutil@@QAE@ABVword@1@0@Z 00425583 f   Groups.obj
 0001:00024590       $L49592                    00425590 f   Groups.obj
 0001:00024590       $L46862                    00425590 f   Groups.obj
 0001:00024590       $L49502                    00425590 f   Groups.obj
 0001:00024599       $L46866                    00425599 f   Groups.obj
 0001:00024599       $L49612                    00425599 f   Groups.obj
 0001:00024599       $L49522                    00425599 f   Groups.obj
 0001:000245a2       __ehhandler$?_Xlen@?$vector@PAV?$hashnode@Vword@svutil@@V12@@svutil@@V?$allocator@PAV?$hashnode@Vword@svutil@@V12@@svutil@@@std@@@std@@IBEXXZ 004255a2 f   Groups.obj
 0001:000245a2       __ehhandler$?_Incsize@?$list@PAVEntity@@V?$allocator@PAVEntity@@@std@@@std@@IAEXI@Z 004255a2 f   Groups.obj
 0001:000245a2       __ehhandler$?_Incsize@?$list@PAVGroupsItem@@V?$allocator@PAVGroupsItem@@@std@@@std@@IAEXI@Z 004255a2 f   Groups.obj
 0001:000245b0       $L46885                    004255b0 f   Groups.obj
 0001:000245b0       $L46284                    004255b0 f   Groups.obj
 0001:000245b9       __ehhandler$??0logic_error@std@@QAE@ABV01@@Z 004255b9 f   Groups.obj
 0001:000245b9       __ehhandler$??1logic_error@std@@UAE@XZ 004255b9 f   Groups.obj
 0001:000245d0       $L46976                    004255d0 f   Groups.obj
 0001:000245d0       $L46928                    004255d0 f   Groups.obj
 0001:000245d8       __ehhandler$??M?$treenode@V?$hashelement@Vword@svutil@@V12@@svutil@@@svutil@@QAE_NV01@@Z 004255d8 f   Groups.obj
 0001:000245d8       __ehhandler$??O?$treenode@V?$hashelement@Vword@svutil@@V12@@svutil@@@svutil@@QAE_NV01@@Z 004255d8 f   Groups.obj
 0001:000245f0       $L47902                    004255f0 f   Groups.obj
 0001:000245f0       $L47281                    004255f0 f   Groups.obj
 0001:000245fb       __ehhandler$??0?$treenode@V?$hashelement@Vword@svutil@@V12@@svutil@@@svutil@@QAE@ABV?$hashelement@Vword@svutil@@V12@@1@@Z 004255fb f   Groups.obj
 0001:000245fb       __ehhandler$??0?$treenode@V?$hashelement@Vword@svutil@@V12@@svutil@@@svutil@@QAE@ABV01@@Z 004255fb f   Groups.obj
 0001:00024610       $L48994                    00425610 f   Groups.obj
 0001:00024610       $L52142                    00425610 f   Groups.obj
 0001:0002461b       __ehhandler$??$CreateNode@V?$hashelement@Vword@svutil@@V12@@svutil@@@?$sorttree@V?$hashelement@Vword@svutil@@V12@@svutil@@@svutil@@SAPAV?$treenode@V?$hashelement@Vword@svutil@@V12@@svutil@@@1@ABV?$hashelement@Vword@svutil@@V12@@1@@Z 0042561b f   Groups.obj
 0001:0002461b       __ehhandler$?insert@?$hashtable@Vword@svutil@@V12@@svutil@@QAEAAVword@2@ABV32@0@Z 0042561b f   Groups.obj
 0001:00024630       $L50527                    00425630 f   Groups.obj
 0001:0002463b       $L50528                    0042563b f   Groups.obj
 0001:00024646       __ehhandler$??1Groups@@UAE@XZ 00425646 f   Groups.obj
 0001:00024650       $L51340                    00425650 f   Groups.obj
 0001:00024650       $L49674                    00425650 f   Groups.obj
 0001:00024658       __ehhandler$?insert@?$hashnode@Vword@svutil@@V12@@svutil@@QAEAAV?$hashelement@Vword@svutil@@V12@@2@ABVword@2@0@Z 00425658 f   Groups.obj
 0001:00024658       __ehhandler$?find@?$hashnode@Vword@svutil@@V12@@svutil@@QAE_NABVword@2@PAPAV?$hashelement@Vword@svutil@@V12@@2@@Z 00425658 f   Groups.obj
 0001:00024670       $L51550                    00425670 f   Groups.obj
 0001:0002467b       __ehhandler$??0Groups@@QAE@XZ 0042567b f   Groups.obj
 0001:00024690       $L51811                    00425690 f   Groups.obj
 0001:0002469b       $L51812                    0042569b f   Groups.obj
 0001:000246a6       $L51813                    004256a6 f   Groups.obj
 0001:000246b4       $L51814                    004256b4 f   Groups.obj
 0001:000246bf       $L51815                    004256bf f   Groups.obj
 0001:000246ca       $L51816                    004256ca f   Groups.obj
 0001:000246d5       $L51817                    004256d5 f   Groups.obj
 0001:000246e0       $L51818                    004256e0 f   Groups.obj
 0001:000246eb       $L51819                    004256eb f   Groups.obj
 0001:000246f9       $L51820                    004256f9 f   Groups.obj
 0001:00024704       $L51821                    00425704 f   Groups.obj
 0001:0002470f       $L51822                    0042570f f   Groups.obj
 0001:0002471a       $L51823                    0042571a f   Groups.obj
 0001:00024725       $L51824                    00425725 f   Groups.obj
 0001:00024730       $L51825                    00425730 f   Groups.obj
 0001:0002473b       __ehhandler$?FromTextMap@Groups@@QAE_NAAV?$hashtable@Vword@svutil@@V12@@svutil@@@Z 0042573b f   Groups.obj
 0001:00024750       $L52355                    00425750 f   Groups.obj
 0001:00024758       __ehhandler$??A?$hashtable@Vword@svutil@@V12@@svutil@@QAEAAVword@1@ABV21@@Z 00425758 f   Groups.obj
 0001:00024770       $L52392                    00425770 f   Groups.obj
 0001:0002477b       $L52393                    0042577b f   Groups.obj
 0001:00024786       $L52394                    00425786 f   Groups.obj
 0001:00024791       $L52395                    00425791 f   Groups.obj
 0001:0002479c       $L52396                    0042579c f   Groups.obj
 0001:000247a7       $L52397                    004257a7 f   Groups.obj
 0001:000247b2       $L52398                    004257b2 f   Groups.obj
 0001:000247bd       $L52399                    004257bd f   Groups.obj
 0001:000247c8       $L52400                    004257c8 f   Groups.obj
 0001:000247d3       $L52401                    004257d3 f   Groups.obj
 0001:000247de       $L52402                    004257de f   Groups.obj
 0001:000247e9       $L52403                    004257e9 f   Groups.obj
 0001:000247f4       $L52404                    004257f4 f   Groups.obj
 0001:000247ff       __ehhandler$?ToTextMap@Groups@@QAE_NAAV?$hashtable@Vword@svutil@@V12@@svutil@@@Z 004257ff f   Groups.obj
 0001:00024810       $L50277                    00425810 f   LoadConfig.obj
 0001:00024819       __ehhandler$?SetTaskName@Monitor@@QAEXV?$basic_string@DU?$char_traits@D@std@@V?$allocator@D@2@@std@@@Z 00425819 f   LoadConfig.obj
 0001:00024830       $L50415                    00425830 f   LoadConfig.obj
 0001:0002483e       $L50416                    0042583e f   LoadConfig.obj
 0001:0002484c       $L50417                    0042584c f   LoadConfig.obj
 0001:0002485a       $L50418                    0042585a f   LoadConfig.obj
 0001:00024868       $L50419                    00425868 f   LoadConfig.obj
 0001:00024876       __ehhandler$?LoadAll@LoadConfig@@QAEHXZ 00425876 f   LoadConfig.obj
 0001:00024880       $L50458                    00425880 f   LoadConfig.obj
 0001:00024889       $L50459                    00425889 f   LoadConfig.obj
 0001:00024892       $L50461                    00425892 f   LoadConfig.obj
 0001:0002489b       $L50462                    0042589b f   LoadConfig.obj
 0001:000248a7       $L50464                    004258a7 f   LoadConfig.obj
 0001:000248b3       $L50466                    004258b3 f   LoadConfig.obj
 0001:000248bf       $L50468                    004258bf f   LoadConfig.obj
 0001:000248c8       $L50469                    004258c8 f   LoadConfig.obj
 0001:000248d4       $L50470                    004258d4 f   LoadConfig.obj
 0001:000248e0       $L50471                    004258e0 f   LoadConfig.obj
 0001:000248ec       $L50473                    004258ec f   LoadConfig.obj
 0001:000248f8       __ehhandler$?GetMonitorPro@LoadConfig@@AAEHPAVMonitor@@V?$basic_string@DU?$char_traits@D@std@@V?$allocator@D@2@@std@@@Z 004258f8 f   LoadConfig.obj
 0001:00024910       $L50689                    00425910 f   LoadConfig.obj
 0001:00024919       $L50690                    00425919 f   LoadConfig.obj
 0001:00024922       $L50691                    00425922 f   LoadConfig.obj
 0001:0002492b       __ehhandler$?LoadCommonEntity@LoadConfig@@AAEHV?$basic_string@DU?$char_traits@D@std@@V?$allocator@D@2@@std@@AAV?$list@V?$basic_string@DU?$char_traits@D@std@@V?$allocator@D@2@@std@@V?$allocator@V?$basic_string@DU?$char_traits@D@std@@V?$allocator@D@2@@std@@@2@@3@@Z 0042592b f   LoadConfig.obj
 0001:00024940       $L50723                    00425940 f   LoadConfig.obj
 0001:00024949       $L50724                    00425949 f   LoadConfig.obj
 0001:00024955       $L50725                    00425955 f   LoadConfig.obj
 0001:00024961       __ehhandler$?GetReturnList@LoadConfig@@AAEHPAVMonitor@@H@Z 00425961 f   LoadConfig.obj
 0001:00024970       $L50776                    00425970 f   LoadConfig.obj
 0001:00024979       $L50777                    00425979 f   LoadConfig.obj
 0001:00024982       $L50778                    00425982 f   LoadConfig.obj
 0001:0002498b       $L50779                    0042598b f   LoadConfig.obj
 0001:00024997       $L50781                    00425997 f   LoadConfig.obj
 0001:000249a3       $L50783                    004259a3 f   LoadConfig.obj
 0001:000249af       $L50785                    004259af f   LoadConfig.obj
 0001:000249bb       __ehhandler$?LoadSingleEntity@LoadConfig@@AAEXPAVEntity@@V?$basic_string@DU?$char_traits@D@std@@V?$allocator@D@2@@std@@@Z 004259bb f   LoadConfig.obj
 0001:000249d0       $L50935                    004259d0 f   LoadConfig.obj
 0001:000249d9       __ehhandler$?CreateSingleEntity@LoadConfig@@QAEHPAVEntity@@V?$basic_string@DU?$char_traits@D@std@@V?$allocator@D@2@@std@@@Z 004259d9 f   LoadConfig.obj
 0001:000249f0       $L50977                    004259f0 f   LoadConfig.obj
 0001:000249f9       $L50978                    004259f9 f   LoadConfig.obj
 0001:00024a02       $L50979                    00425a02 f   LoadConfig.obj
 0001:00024a0b       $L50981                    00425a0b f   LoadConfig.obj
 0001:00024a14       $L50982                    00425a14 f   LoadConfig.obj
 0001:00024a1d       $L50984                    00425a1d f   LoadConfig.obj
 0001:00024a26       __ehhandler$?CreateSingleGroup@LoadConfig@@QAEHPAVGroupsItem@@V?$basic_string@DU?$char_traits@D@std@@V?$allocator@D@2@@std@@@Z 00425a26 f   LoadConfig.obj
 0001:00024a30       $L51682                    00425a30 f   LoadConfig.obj
 0001:00024a39       $L51683                    00425a39 f   LoadConfig.obj
 0001:00024a42       $L51684                    00425a42 f   LoadConfig.obj
 0001:00024a4b       $L51686                    00425a4b f   LoadConfig.obj
 0001:00024a59       $L51689                    00425a59 f   LoadConfig.obj
 0001:00024a67       $L51692                    00425a67 f   LoadConfig.obj
 0001:00024a75       __ehhandler$?GetStateCondition@LoadConfig@@AAEHPAVMonitor@@V?$basic_string@DU?$char_traits@D@std@@V?$allocator@D@2@@std@@@Z 00425a75 f   LoadConfig.obj
 0001:00024a80       $L53501                    00425a80 f   LoadConfig.obj
 0001:00024a91       __ehhandler$?_Buynode@?$list@V?$basic_string@DU?$char_traits@D@std@@V?$allocator@D@2@@std@@V?$allocator@V?$basic_string@DU?$char_traits@D@std@@V?$allocator@D@2@@std@@@2@@std@@IAEPAU_Node@?$_List_nod@V?$basic_string@DU?$char_traits@D@std@@V?$allocator@D@2@@std@@V?$allocator@V?$basic_string@DU?$char_traits@D@std@@V?$allocator@D@2@@std@@@2@@2@PAU342@0ABV?$basic_string@DU?$char_traits@D@std@@V?$allocator@D@2@@2@@Z 00425a91 f   LoadConfig.obj
 0001:00024aa0       $L53534                    00425aa0 f   LoadConfig.obj
 0001:00024aa0       $L53781                    00425aa0 f   LoadConfig.obj
 0001:00024aa9       $L53801                    00425aa9 f   LoadConfig.obj
 0001:00024aa9       $L53554                    00425aa9 f   LoadConfig.obj
 0001:00024ab2       __ehhandler$?_Incsize@?$list@PAVMonitor@@V?$allocator@PAVMonitor@@@std@@@std@@IAEXI@Z 00425ab2 f   LoadConfig.obj
 0001:00024ab2       __ehhandler$?_Incsize@?$list@V?$basic_string@DU?$char_traits@D@std@@V?$allocator@D@2@@std@@V?$allocator@V?$basic_string@DU?$char_traits@D@std@@V?$allocator@D@2@@std@@@2@@std@@IAEXI@Z 00425ab2 f   LoadConfig.obj
 0001:00024ac0       $L54321                    00425ac0 f   LoadConfig.obj
 0001:00024ac9       $L54322                    00425ac9 f   LoadConfig.obj
 0001:00024ad2       $L54323                    00425ad2 f   LoadConfig.obj
 0001:00024ade       $L54324                    00425ade f   LoadConfig.obj
 0001:00024aea       $L54325                    00425aea f   LoadConfig.obj
 0001:00024af6       $L54326                    00425af6 f   LoadConfig.obj
 0001:00024b02       $L54328                    00425b02 f   LoadConfig.obj
 0001:00024b0e       $L54329                    00425b0e f   LoadConfig.obj
 0001:00024b1a       $L54330                    00425b1a f   LoadConfig.obj
 0001:00024b26       $L54332                    00425b26 f   LoadConfig.obj
 0001:00024b32       $L54334                    00425b32 f   LoadConfig.obj
 0001:00024b3e       $L54335                    00425b3e f   LoadConfig.obj
 0001:00024b4a       $L54336                    00425b4a f   LoadConfig.obj
 0001:00024b56       $L54337                    00425b56 f   LoadConfig.obj
 0001:00024b62       $L54338                    00425b62 f   LoadConfig.obj
 0001:00024b6e       $L54339                    00425b6e f   LoadConfig.obj
 0001:00024b7a       $L54340                    00425b7a f   LoadConfig.obj
 0001:00024b86       $L54342                    00425b86 f   LoadConfig.obj
 0001:00024b92       $L54343                    00425b92 f   LoadConfig.obj
 0001:00024b9e       $L54344                    00425b9e f   LoadConfig.obj
 0001:00024baa       $L54345                    00425baa f   LoadConfig.obj
 0001:00024bb6       $L54346                    00425bb6 f   LoadConfig.obj
 0001:00024bc2       $L54348                    00425bc2 f   LoadConfig.obj
 0001:00024bce       $L54349                    00425bce f   LoadConfig.obj
 0001:00024bda       $L54350                    00425bda f   LoadConfig.obj
 0001:00024be6       $L54352                    00425be6 f   LoadConfig.obj
 0001:00024bf2       $L54353                    00425bf2 f   LoadConfig.obj
 0001:00024bfe       $L54354                    00425bfe f   LoadConfig.obj
 0001:00024c0a       __ehhandler$?GetParamList@LoadConfig@@AAEHPAVMonitor@@V?$basic_string@DU?$char_traits@D@std@@V?$allocator@D@2@@std@@1@Z 00425c0a f   LoadConfig.obj
 0001:00024c20       $L55785                    00425c20 f   LoadConfig.obj
 0001:00024c29       $L55787                    00425c29 f   LoadConfig.obj
 0001:00024c32       __ehhandler$?CreateSingleMonitor@LoadConfig@@QAEHPAVMonitor@@V?$basic_string@DU?$char_traits@D@std@@V?$allocator@D@2@@std@@@Z 00425c32 f   LoadConfig.obj
 0001:00024c40       $L55877                    00425c40 f   LoadConfig.obj
 0001:00024c48       $L55878                    00425c48 f   LoadConfig.obj
 0001:00024c51       $L55879                    00425c51 f   LoadConfig.obj
 0001:00024c5a       $L55880                    00425c5a f   LoadConfig.obj
 0001:00024c65       $L55883                    00425c65 f   LoadConfig.obj
 0001:00024c6e       __ehhandler$?CreateMonitors@LoadConfig@@QAEHAAV?$list@PAVMonitor@@V?$allocator@PAVMonitor@@@std@@@std@@@Z 00425c6e f   LoadConfig.obj
 0001:00024c80       $L56289                    00425c80 f   LoadConfig.obj
 0001:00024c88       $L56290                    00425c88 f   LoadConfig.obj
 0001:00024c91       $L56291                    00425c91 f   LoadConfig.obj
 0001:00024c9c       __ehhandler$?LoadEntitys@LoadConfig@@AAEXAAV?$list@PAVEntity@@V?$allocator@PAVEntity@@@std@@@std@@@Z 00425c9c f   LoadConfig.obj
 0001:00024cb0       $L56847                    00425cb0 f   LoadConfig.obj
 0001:00024cb8       $L56848                    00425cb8 f   LoadConfig.obj
 0001:00024cc1       $L56849                    00425cc1 f   LoadConfig.obj
 0001:00024cca       $L56850                    00425cca f   LoadConfig.obj
 0001:00024cd3       $L56851                    00425cd3 f   LoadConfig.obj
 0001:00024ce1       $L56853                    00425ce1 f   LoadConfig.obj
 0001:00024ced       $L56854                    00425ced f   LoadConfig.obj
 0001:00024cf6       $L56856                    00425cf6 f   LoadConfig.obj
 0001:00024cff       __ehhandler$?LoadGroups@LoadConfig@@AAEXAAV?$list@PAVGroupsItem@@V?$allocator@PAVGroupsItem@@@std@@@std@@@Z 00425cff f   LoadConfig.obj
 0001:00024d10       $L46079                    00425d10 f   MakeRecord.obj
 0001:00024d19       __ehhandler$?buildbuffer@MakeRecord@@AAEPADV?$basic_string@DU?$char_traits@D@std@@V?$allocator@D@2@@std@@PADH@Z 00425d19 f   MakeRecord.obj
 0001:00024d30       $L46619                    00425d30 f   MakeRecord.obj
 0001:00024d39       __ehhandler$?MakeBuf@MakeRecord@@QAE_NPAVReturnValue@@@Z 00425d39 f   MakeRecord.obj
 0001:00024d50       $L46647                    00425d50 f   MakeRecord.obj
 0001:00024d59       __ehhandler$?MakeError@MakeRecord@@QAE_NHV?$basic_string@DU?$char_traits@D@std@@V?$allocator@D@2@@std@@@Z 00425d59 f   MakeRecord.obj
 0001:00024d70       $L51339                    00425d70 f   Monitor.obj
 0001:00024d70       $L51410                    00425d70 f   Monitor.obj
 0001:00024d79       $L51359                    00425d79 f   Monitor.obj
 0001:00024d79       $L51430                    00425d79 f   Monitor.obj
 0001:00024d82       __ehhandler$?_Incsize@?$list@PAVStateConditionItem@@V?$allocator@PAVStateConditionItem@@@std@@@std@@IAEXI@Z 00425d82 f   Monitor.obj
 0001:00024d82       __ehhandler$?_Incsize@?$list@PAVReturnData@@V?$allocator@PAVReturnData@@@std@@@std@@IAEXI@Z 00425d82 f   Monitor.obj
 0001:00024d90       $L53746                    00425d90 f   Monitor.obj
 0001:00024d9b       $L53747                    00425d9b f   Monitor.obj
 0001:00024da6       $L53748                    00425da6 f   Monitor.obj
 0001:00024db1       $L53749                    00425db1 f   Monitor.obj
 0001:00024dbc       $L53750                    00425dbc f   Monitor.obj
 0001:00024dc7       $L53751                    00425dc7 f   Monitor.obj
 0001:00024dd2       $L53752                    00425dd2 f   Monitor.obj
 0001:00024ddd       $L53753                    00425ddd f   Monitor.obj
 0001:00024de8       $L53754                    00425de8 f   Monitor.obj
 0001:00024df3       $L53755                    00425df3 f   Monitor.obj
 0001:00024dfe       $L53756                    00425dfe f   Monitor.obj
 0001:00024e09       $L53757                    00425e09 f   Monitor.obj
 0001:00024e14       $L53758                    00425e14 f   Monitor.obj
 0001:00024e1f       $L53759                    00425e1f f   Monitor.obj
 0001:00024e2a       $L53760                    00425e2a f   Monitor.obj
 0001:00024e35       $L53761                    00425e35 f   Monitor.obj
 0001:00024e40       $L53762                    00425e40 f   Monitor.obj
 0001:00024e4b       $L53763                    00425e4b f   Monitor.obj
 0001:00024e56       $L53764                    00425e56 f   Monitor.obj
 0001:00024e64       $L53765                    00425e64 f   Monitor.obj
 0001:00024e6f       $L53766                    00425e6f f   Monitor.obj
 0001:00024e7a       $L53767                    00425e7a f   Monitor.obj
 0001:00024e85       $L53768                    00425e85 f   Monitor.obj
 0001:00024e93       $L53769                    00425e93 f   Monitor.obj
 0001:00024e9e       $L53770                    00425e9e f   Monitor.obj
 0001:00024ea9       $L53771                    00425ea9 f   Monitor.obj
 0001:00024eb4       $L53772                    00425eb4 f   Monitor.obj
 0001:00024ebf       $L53773                    00425ebf f   Monitor.obj
 0001:00024ecd       $L53774                    00425ecd f   Monitor.obj
 0001:00024ed8       $L53775                    00425ed8 f   Monitor.obj
 0001:00024ee3       $L53776                    00425ee3 f   Monitor.obj
 0001:00024eee       $L53777                    00425eee f   Monitor.obj
 0001:00024efc       $L53778                    00425efc f   Monitor.obj
 0001:00024f07       $L53779                    00425f07 f   Monitor.obj
 0001:00024f12       $L53780                    00425f12 f   Monitor.obj
 0001:00024f1d       $L53781                    00425f1d f   Monitor.obj
 0001:00024f28       $L53782                    00425f28 f   Monitor.obj
 0001:00024f36       $L53783                    00425f36 f   Monitor.obj
 0001:00024f41       $L53784                    00425f41 f   Monitor.obj
 0001:00024f4c       $L53785                    00425f4c f   Monitor.obj
 0001:00024f57       $L53786                    00425f57 f   Monitor.obj
 0001:00024f65       $L53787                    00425f65 f   Monitor.obj
 0001:00024f70       $L53788                    00425f70 f   Monitor.obj
 0001:00024f7b       $L53789                    00425f7b f   Monitor.obj
 0001:00024f86       $L53790                    00425f86 f   Monitor.obj
 0001:00024f91       $L53791                    00425f91 f   Monitor.obj
 0001:00024f9c       $L53792                    00425f9c f   Monitor.obj
 0001:00024faa       $L53793                    00425faa f   Monitor.obj
 0001:00024fb5       $L53794                    00425fb5 f   Monitor.obj
 0001:00024fc0       $L53795                    00425fc0 f   Monitor.obj
 0001:00024fcb       $L53796                    00425fcb f   Monitor.obj
 0001:00024fd6       $L53797                    00425fd6 f   Monitor.obj
 0001:00024fe1       $L53798                    00425fe1 f   Monitor.obj
 0001:00024fea       $L53799                    00425fea f   Monitor.obj
 0001:00024ff5       $L53800                    00425ff5 f   Monitor.obj
 0001:00025001       __ehhandler$?FromTextMap@Monitor@@QAEHAAV?$hashtable@Vword@svutil@@V12@@svutil@@@Z 00426001 f   Monitor.obj
 0001:00025010       $L54650                    00426010 f   Monitor.obj
 0001:0002501b       $L54651                    0042601b f   Monitor.obj
 0001:00025026       $L54652                    00426026 f   Monitor.obj
 0001:00025031       $L54653                    00426031 f   Monitor.obj
 0001:0002503c       $L54654                    0042603c f   Monitor.obj
 0001:0002504a       __ehhandler$??0Monitor@@QAE@XZ 0042604a f   Monitor.obj
 0001:00025060       $L54911                    00426060 f   Monitor.obj
 0001:0002506b       $L54912                    0042606b f   Monitor.obj
 0001:00025076       $L54913                    00426076 f   Monitor.obj
 0001:00025081       $L54914                    00426081 f   Monitor.obj
 0001:0002508c       $L54915                    0042608c f   Monitor.obj
 0001:0002509a       $L54916                    0042609a f   Monitor.obj
 0001:000250a9       __ehhandler$??1Monitor@@UAE@XZ 004260a9 f   Monitor.obj
 0001:000250c0       $L55733                    004260c0 f   Monitor.obj
 0001:000250c9       $L55734                    004260c9 f   Monitor.obj
 0001:000250d4       $L55735                    004260d4 f   Monitor.obj
 0001:000250df       $L55736                    004260df f   Monitor.obj
 0001:000250ea       $L55737                    004260ea f   Monitor.obj
 0001:000250f5       $L55738                    004260f5 f   Monitor.obj
 0001:00025100       $L55739                    00426100 f   Monitor.obj
 0001:0002510b       $L55740                    0042610b f   Monitor.obj
 0001:00025116       $L55741                    00426116 f   Monitor.obj
 0001:00025121       $L55742                    00426121 f   Monitor.obj
 0001:0002512c       $L55743                    0042612c f   Monitor.obj
 0001:00025137       $L55744                    00426137 f   Monitor.obj
 0001:00025142       $L55745                    00426142 f   Monitor.obj
 0001:0002514d       $L55746                    0042614d f   Monitor.obj
 0001:00025158       $L55747                    00426158 f   Monitor.obj
 0001:00025163       $L55748                    00426163 f   Monitor.obj
 0001:0002516e       $L55749                    0042616e f   Monitor.obj
 0001:00025179       $L55750                    00426179 f   Monitor.obj
 0001:00025184       $L55751                    00426184 f   Monitor.obj
 0001:0002518f       $L55752                    0042618f f   Monitor.obj
 0001:0002519a       $L55753                    0042619a f   Monitor.obj
 0001:000251a5       $L55754                    004261a5 f   Monitor.obj
 0001:000251b0       $L55755                    004261b0 f   Monitor.obj
 0001:000251bb       $L55756                    004261bb f   Monitor.obj
 0001:000251c6       $L55757                    004261c6 f   Monitor.obj
 0001:000251d1       $L55758                    004261d1 f   Monitor.obj
 0001:000251dc       $L55759                    004261dc f   Monitor.obj
 0001:000251e7       $L55760                    004261e7 f   Monitor.obj
 0001:000251f2       $L55761                    004261f2 f   Monitor.obj
 0001:000251fd       $L55762                    004261fd f   Monitor.obj
 0001:00025208       $L55763                    00426208 f   Monitor.obj
 0001:00025213       $L55764                    00426213 f   Monitor.obj
 0001:0002521e       $L55765                    0042621e f   Monitor.obj
 0001:00025229       $L55766                    00426229 f   Monitor.obj
 0001:00025234       $L55767                    00426234 f   Monitor.obj
 0001:0002523f       $L55768                    0042623f f   Monitor.obj
 0001:0002524a       $L55769                    0042624a f   Monitor.obj
 0001:00025255       $L55770                    00426255 f   Monitor.obj
 0001:00025260       $L55771                    00426260 f   Monitor.obj
 0001:0002526b       $L55772                    0042626b f   Monitor.obj
 0001:00025276       $L55773                    00426276 f   Monitor.obj
 0001:00025281       $L55774                    00426281 f   Monitor.obj
 0001:0002528c       $L55775                    0042628c f   Monitor.obj
 0001:00025297       $L55776                    00426297 f   Monitor.obj
 0001:000252a2       $L55777                    004262a2 f   Monitor.obj
 0001:000252ad       $L55778                    004262ad f   Monitor.obj
 0001:000252b8       $L55779                    004262b8 f   Monitor.obj
 0001:000252c3       $L55780                    004262c3 f   Monitor.obj
 0001:000252ce       $L55781                    004262ce f   Monitor.obj
 0001:000252d9       __ehhandler$?ToTextMap@Monitor@@QAEHAAV?$hashtable@Vword@svutil@@V12@@svutil@@@Z 004262d9 f   Monitor.obj
 0001:000252f0       $L54920                    004262f0 f   MonitorSchedule.obj
 0001:000252f9       __ehhandler$??0TString@@QAE@ABV0@@Z 004262f9 f   MonitorSchedule.obj
 0001:00025310       $L55084                    00426310 f   MonitorSchedule.obj
 0001:00025318       $L55085                    00426318 f   MonitorSchedule.obj
 0001:00025320       $L55086                    00426320 f   MonitorSchedule.obj
 0001:0002532b       $L55087                    0042632b f   MonitorSchedule.obj
 0001:00025336       __ehhandler$?Run@@YAXXZ    00426336 f   MonitorSchedule.obj
 0001:00025340       $L55179                    00426340 f   MonitorSchedule.obj
 0001:00025349       $L55180                    00426349 f   MonitorSchedule.obj
 0001:00025351       $L55181                    00426351 f   MonitorSchedule.obj
 0001:0002535d       $L55182                    0042635d f   MonitorSchedule.obj
 0001:00025369       $L55184                    00426369 f   MonitorSchedule.obj
 0001:00025372       $L55185                    00426372 f   MonitorSchedule.obj
 0001:0002537d       $L55186                    0042637d f   MonitorSchedule.obj
 0001:00025388       $L55187                    00426388 f   MonitorSchedule.obj
 0001:00025394       $L55188                    00426394 f   MonitorSchedule.obj
 0001:000253a0       $L55189                    004263a0 f   MonitorSchedule.obj
 0001:000253ac       __ehhandler$?Run_ProcessMonitor@@YAXV?$basic_string@DU?$char_traits@D@std@@V?$allocator@D@2@@std@@@Z 004263ac f   MonitorSchedule.obj
 0001:000253c0       $L55624                    004263c0 f   MonitorSchedule.obj
 0001:000253c9       $L55628                    004263c9 f   MonitorSchedule.obj
 0001:000253d2       __ehhandler$?_Xlen@?$vector@PAV?$hashnode@Vword@svutil@@PAVTask@@@svutil@@V?$allocator@PAV?$hashnode@Vword@svutil@@PAVTask@@@svutil@@@std@@@std@@IBEXXZ 004263d2 f   MonitorSchedule.obj
 0001:000253e0       $L58445                    004263e0 f   MonitorSchedule.obj
 0001:000253e8       __ehhandler$??1?$hashnode@Vword@svutil@@PAVTask@@@svutil@@QAE@XZ 004263e8 f   MonitorSchedule.obj
 0001:00025400       $L60860                    00426400 f   MonitorSchedule.obj
 0001:00025408       $L60861                    00426408 f   MonitorSchedule.obj
 0001:00025410       $L60862                    00426410 f   MonitorSchedule.obj
 0001:0002541b       $L60863                    0042641b f   MonitorSchedule.obj
 0001:00025429       __ehhandler$?GetMonitorListByFile@@YAHAAV?$list@PAVMonitor@@V?$allocator@PAVMonitor@@@std@@@std@@PBD@Z 00426429 f   MonitorSchedule.obj
 0001:00025440       $L60985                    00426440 f   MonitorSchedule.obj
 0001:00025449       $L60986                    00426449 f   MonitorSchedule.obj
 0001:00025451       $L60987                    00426451 f   MonitorSchedule.obj
 0001:0002545c       __ehhandler$?MakeMonitorListByBuf@@YA_NAAV?$list@PAVMonitor@@V?$allocator@PAVMonitor@@@std@@@std@@PBD@Z 0042645c f   MonitorSchedule.obj
 0001:00025470       $L61110                    00426470 f   MonitorSchedule.obj
 0001:00025479       $L61111                    00426479 f   MonitorSchedule.obj
 0001:00025482       $L61112                    00426482 f   MonitorSchedule.obj
 0001:0002548b       $L61113                    0042648b f   MonitorSchedule.obj
 0001:00025494       $L61114                    00426494 f   MonitorSchedule.obj
 0001:0002549d       $L61116                    0042649d f   MonitorSchedule.obj
 0001:000254a6       __ehhandler$?GetMonitorListByPipe@@YA_NAAV?$list@PAVMonitor@@V?$allocator@PAVMonitor@@@std@@@std@@V?$basic_string@DU?$char_traits@D@std@@V?$allocator@D@2@@2@11@Z 004264a6 f   MonitorSchedule.obj
 0001:000254b0       $L61174                    004264b0 f   MonitorSchedule.obj
 0001:000254b0       $L61629                    004264b0 f   MonitorSchedule.obj
 0001:000254b8       __ehhandler$??1?$hashtable@Vword@svutil@@PAVTask@@@svutil@@QAE@XZ 004264b8 f   MonitorSchedule.obj
 0001:000254b8       __ehhandler$??0?$hashtable@Vword@svutil@@PAVTask@@@svutil@@QAE@XZ 004264b8 f   MonitorSchedule.obj
 0001:000254d0       $L62249                    004264d0 f   MonitorSchedule.obj
 0001:000254de       $L62251                    004264de f   MonitorSchedule.obj
 0001:000254e6       $L62252                    004264e6 f   MonitorSchedule.obj
 0001:000254f4       $L62253                    004264f4 f   MonitorSchedule.obj
 0001:00025502       $L62255                    00426502 f   MonitorSchedule.obj
 0001:0002550d       $L62256                    0042650d f   MonitorSchedule.obj
 0001:0002551b       $L62259                    0042651b f   MonitorSchedule.obj
 0001:00025523       $L62261                    00426523 f   MonitorSchedule.obj
 0001:0002552b       $L62262                    0042652b f   MonitorSchedule.obj
 0001:00025537       $L62263                    00426537 f   MonitorSchedule.obj
 0001:00025543       $L62266                    00426543 f   MonitorSchedule.obj
 0001:0002554f       $L62267                    0042654f f   MonitorSchedule.obj
 0001:0002555b       $L62268                    0042655b f   MonitorSchedule.obj
 0001:00025567       $L62271                    00426567 f   MonitorSchedule.obj
 0001:0002556f       $L62274                    0042656f f   MonitorSchedule.obj
 0001:0002557b       $L62278                    0042657b f   MonitorSchedule.obj
 0001:00025586       $L62276                    00426586 f   MonitorSchedule.obj
 0001:0002558f       __ehhandler$_main          0042658f f   MonitorSchedule.obj
 0001:000255a0       $L57228                    004265a0 f   MonitorSchMain.obj
 0001:000255a8       $L57229                    004265a8 f   MonitorSchMain.obj
 0001:000255b1       $L57230                    004265b1 f   MonitorSchMain.obj
 0001:000255ba       __ehhandler$?GetLastState@Monitor@@QAEHXZ 004265ba f   MonitorSchMain.obj
 0001:000255d0       $L57348                    004265d0 f   MonitorSchMain.obj
 0001:000255d9       __ehhandler$?CopyTempData@Entity@@QAE_NPBV1@@Z 004265d9 f   MonitorSchMain.obj
 0001:000255f0       $L57404                    004265f0 f   MonitorSchMain.obj
 0001:000255f9       $L57405                    004265f9 f   MonitorSchMain.obj
 0001:00025602       __ehhandler$??0SerialData@@QAE@V?$basic_string@DU?$char_traits@D@std@@V?$allocator@D@2@@std@@@Z 00426602 f   MonitorSchMain.obj
 0001:00025610       $L57439                    00426610 f   MonitorSchMain.obj
 0001:00025619       $L57440                    00426619 f   MonitorSchMain.obj
 0001:00025622       $L57441                    00426622 f   MonitorSchMain.obj
 0001:0002562b       __ehhandler$?ParseOpt@MonitorSchMain@@KA_NV?$basic_string@DU?$char_traits@D@std@@V?$allocator@D@2@@std@@AAV23@1@Z 0042662b f   MonitorSchMain.obj
 0001:00025640       $L57469                    00426640 f   MonitorSchMain.obj
 0001:0002564c       $L57470                    0042664c f   MonitorSchMain.obj
 0001:00025658       __ehhandler$?LoadPreLibrary@MonitorSchMain@@QAE_NXZ 00426658 f   MonitorSchMain.obj
 0001:00025670       $L57916                    00426670 f   MonitorSchMain.obj
 0001:00025678       __ehhandler$??0?$hashelement@Vword@svutil@@PAVTask@@@svutil@@QAE@ABVword@1@@Z 00426678 f   MonitorSchMain.obj
 0001:00025690       $L58704                    00426690 f   MonitorSchMain.obj
 0001:00025699       __ehhandler$??1?$pair@$$CBV?$basic_string@DU?$char_traits@D@std@@V?$allocator@D@2@@std@@V12@@std@@QAE@XZ 00426699 f   MonitorSchMain.obj
 0001:000256b0       $L58810                    004266b0 f   MonitorSchMain.obj
 0001:000256b8       __ehhandler$?SerialMonitorData@MonitorSchMain@@QAE_N_N@Z 004266b8 f   MonitorSchMain.obj
 0001:000256d0       $L60849                    004266d0 f   MonitorSchMain.obj
 0001:000256de       $L60850                    004266de f   MonitorSchMain.obj
 0001:000256ec       $L60851                    004266ec f   MonitorSchMain.obj
 0001:000256fa       $L60852                    004266fa f   MonitorSchMain.obj
 0001:00025708       $L60853                    00426708 f   MonitorSchMain.obj
 0001:00025716       $L60854                    00426716 f   MonitorSchMain.obj
 0001:00025724       $L60855                    00426724 f   MonitorSchMain.obj
 0001:00025732       $L60856                    00426732 f   MonitorSchMain.obj
 0001:00025740       $L60857                    00426740 f   MonitorSchMain.obj
 0001:0002574e       $L60858                    0042674e f   MonitorSchMain.obj
 0001:0002575c       __ehhandler$?Init@MonitorSchMain@@QAEHXZ 0042675c f   MonitorSchMain.obj
 0001:00025770       $L61893                    00426770 f   MonitorSchMain.obj
 0001:00025778       __ehhandler$?find@?$hashnode@Vword@svutil@@PAVTask@@@svutil@@QAE_NABVword@2@PAPAV?$hashelement@Vword@svutil@@PAVTask@@@2@@Z 00426778 f   MonitorSchMain.obj
 0001:00025790       $L63124                    00426790 f   MonitorSchMain.obj
 0001:00025799       $L63125                    00426799 f   MonitorSchMain.obj
 0001:000257a2       $L63126                    004267a2 f   MonitorSchMain.obj
 0001:000257ab       __ehhandler$?CheckGroupDependState@MonitorSchMain@@QAEHPAVMonitor@@AAVTString@@@Z 004267ab f   MonitorSchMain.obj
 0001:000257c0       $L63311                    004267c0 f   MonitorSchMain.obj
 0001:000257c9       $L63312                    004267c9 f   MonitorSchMain.obj
 0001:000257d2       __ehhandler$?DeleteMonitorV70@MonitorSchMain@@QAE_NV?$basic_string@DU?$char_traits@D@std@@V?$allocator@D@2@@std@@@Z 004267d2 f   MonitorSchMain.obj
 0001:000257e0       $L64358                    004267e0 f   MonitorSchMain.obj
 0001:000257e9       $L64359                    004267e9 f   MonitorSchMain.obj
 0001:000257f2       $L64360                    004267f2 f   MonitorSchMain.obj
 0001:000257fa       __ehhandler$?CheckTask@MonitorSchMain@@QAE_NPAVMonitor@@VTTime@svutil@@AA_N@Z 004267fa f   MonitorSchMain.obj
 0001:00025810       $L64975                    00426810 f   MonitorSchMain.obj
 0001:00025819       $L64976                    00426819 f   MonitorSchMain.obj
 0001:00025825       $L64977                    00426825 f   MonitorSchMain.obj
 0001:00025830       $L64978                    00426830 f   MonitorSchMain.obj
 0001:0002583e       __ehhandler$?AddMonitorV70@MonitorSchMain@@IAE_NV?$basic_string@DU?$char_traits@D@std@@V?$allocator@D@2@@std@@_N@Z 0042683e f   MonitorSchMain.obj
 0001:00025850       $L65737                    00426850 f   MonitorSchMain.obj
 0001:00025859       $L65747                    00426859 f   MonitorSchMain.obj
 0001:00025862       $L66118                    00426862 f   MonitorSchMain.obj
 0001:0002586b       __ehhandler$?erase@?$_Tree@V?$_Tmap_traits@V?$basic_string@DU?$char_traits@D@std@@V?$allocator@D@2@@std@@V12@UStlIniCompareStringNoCase@@V?$allocator@U?$pair@$$CBV?$basic_string@DU?$char_traits@D@std@@V?$allocator@D@2@@std@@V12@@std@@@2@$0A@@std@@@std@@QAE?AViterator@12@V312@@Z 0042686b f   MonitorSchMain.obj
 0001:00025880       $L66230                    00426880 f   MonitorSchMain.obj
 0001:0002588c       $L66231                    0042688c f   MonitorSchMain.obj
 0001:00025898       $L66232                    00426898 f   MonitorSchMain.obj
 0001:000258a3       $L66233                    004268a3 f   MonitorSchMain.obj
 0001:000258ae       $L66234                    004268ae f   MonitorSchMain.obj
 0001:000258bc       $L66235                    004268bc f   MonitorSchMain.obj
 0001:000258cb       __ehhandler$??1MonitorSchMain@@UAE@XZ 004268cb f   MonitorSchMain.obj
 0001:000258e0       $L66377                    004268e0 f   MonitorSchMain.obj
 0001:000258e9       __ehhandler$?ReLoadTaskV70@MonitorSchMain@@IAE_NXZ 004268e9 f   MonitorSchMain.obj
 0001:00025900       $L66569                    00426900 f   MonitorSchMain.obj
 0001:0002590c       $L66570                    0042690c f   MonitorSchMain.obj
 0001:00025918       $L66571                    00426918 f   MonitorSchMain.obj
 0001:00025923       $L66572                    00426923 f   MonitorSchMain.obj
 0001:0002592e       $L66573                    0042692e f   MonitorSchMain.obj
 0001:0002593c       __ehhandler$??0MonitorSchMain@@QAE@XZ 0042693c f   MonitorSchMain.obj
 0001:00025950       $L66682                    00426950 f   MonitorSchMain.obj
 0001:00025959       $L66683                    00426959 f   MonitorSchMain.obj
 0001:00025962       $L66684                    00426962 f   MonitorSchMain.obj
 0001:0002596a       $L66685                    0042696a f   MonitorSchMain.obj
 0001:00025973       __ehhandler$?ReLoadMonitorsV70@MonitorSchMain@@IAE_NV?$basic_string@DU?$char_traits@D@std@@V?$allocator@D@2@@std@@@Z 00426973 f   MonitorSchMain.obj
 0001:00025980       $L67242                    00426980 f   MonitorSchMain.obj
 0001:00025989       $L67243                    00426989 f   MonitorSchMain.obj
 0001:00025992       $L67244                    00426992 f   MonitorSchMain.obj
 0001:0002599a       __ehhandler$?InitMonitorsGroupDependV70@MonitorSchMain@@IAE_NV?$basic_string@DU?$char_traits@D@std@@V?$allocator@D@2@@std@@@Z 0042699a f   MonitorSchMain.obj
 0001:000259b0       $L67493                    004269b0 f   MonitorSchMain.obj
 0001:000259b9       $L67494                    004269b9 f   MonitorSchMain.obj
 0001:000259c1       $L67495                    004269c1 f   MonitorSchMain.obj
 0001:000259cf       __ehhandler$?AddGroupV70@MonitorSchMain@@IAE_NV?$basic_string@DU?$char_traits@D@std@@V?$allocator@D@2@@std@@_N@Z 004269cf f   MonitorSchMain.obj
 0001:000259e0       $L68035                    004269e0 f   MonitorSchMain.obj
 0001:000259e9       $L68036                    004269e9 f   MonitorSchMain.obj
 0001:000259f1       $L68037                    004269f1 f   MonitorSchMain.obj
 0001:000259ff       __ehhandler$?AddEntityV70@MonitorSchMain@@IAE_NV?$basic_string@DU?$char_traits@D@std@@V?$allocator@D@2@@std@@_N@Z 004269ff f   MonitorSchMain.obj
 0001:00025a10       $L68235                    00426a10 f   MonitorSchMain.obj
 0001:00025a19       $L68236                    00426a19 f   MonitorSchMain.obj
 0001:00025a22       $L68237                    00426a22 f   MonitorSchMain.obj
 0001:00025a2b       $L68238                    00426a2b f   MonitorSchMain.obj
 0001:00025a34       __ehhandler$?ProcessConfigChange@MonitorSchMain@@QAE_NV?$basic_string@DU?$char_traits@D@std@@V?$allocator@D@2@@std@@0@Z 00426a34 f   MonitorSchMain.obj
 0001:00025a40       $L68659                    00426a40 f   MonitorSchMain.obj
 0001:00025a49       __ehhandler$??1?$pair@$$CBV?$basic_string@DU?$char_traits@D@std@@V?$allocator@D@2@@std@@V?$map@V?$basic_string@DU?$char_traits@D@std@@V?$allocator@D@2@@std@@V12@UStlIniCompareStringNoCase@@V?$allocator@U?$pair@$$CBV?$basic_string@DU?$char_traits@D@std@@V?$allocator@D@2@@std@@V12@@std@@@2@@2@@std@@QAE@XZ 00426a49 f   MonitorSchMain.obj
 0001:00025a60       $L68864                    00426a60 f   MonitorSchMain.obj
 0001:00025a69       $L68874                    00426a69 f   MonitorSchMain.obj
 0001:00025a72       __ehhandler$?erase@?$_Tree@V?$_Tmap_traits@V?$basic_string@DU?$char_traits@D@std@@V?$allocator@D@2@@std@@V?$map@V?$basic_string@DU?$char_traits@D@std@@V?$allocator@D@2@@std@@V12@UStlIniCompareStringNoCase@@V?$allocator@U?$pair@$$CBV?$basic_string@DU?$char_traits@D@std@@V?$allocator@D@2@@std@@V12@@std@@@2@@2@UStlIniCompareStringNoCase@@V?$allocator@U?$pair@$$CBV?$basic_string@DU?$char_traits@D@std@@V?$allocator@D@2@@std@@V?$map@V?$basic_string@DU?$char_traits@D@std@@V?$allocator@D@2@@std@@V12@UStlIniCompareStringNoCase@@V?$allocator@U?$pair@$$CBV?$basic_string@DU?$char_traits@D@std@@V?$allocator@D@2@@std@@V12@@std@@@2@@2@@std@@@2@$0A@@std@@@std@@QAE?AViterator@12@V312@@Z 00426a72 f   MonitorSchMain.obj
 0001:00025a80       $L80853                    00426a80 f   MonitorThread.obj
 0001:00025a89       __ehhandler$??0TString@@QAE@VString@ost@@@Z 00426a89 f   MonitorThread.obj
 0001:00025aa0       $L81448                    00426aa0 f   MonitorThread.obj
 0001:00025aa9       $L81449                    00426aa9 f   MonitorThread.obj
 0001:00025ab2       $L81450                    00426ab2 f   MonitorThread.obj
 0001:00025abe       $L81451                    00426abe f   MonitorThread.obj
 0001:00025aca       $L81453                    00426aca f   MonitorThread.obj
 0001:00025ad6       $L81454                    00426ad6 f   MonitorThread.obj
 0001:00025ae2       $L81456                    00426ae2 f   MonitorThread.obj
 0001:00025aed       $L81457                    00426aed f   MonitorThread.obj
 0001:00025af9       $L81458                    00426af9 f   MonitorThread.obj
 0001:00025b05       $L81459                    00426b05 f   MonitorThread.obj
 0001:00025b11       $L81461                    00426b11 f   MonitorThread.obj
 0001:00025b1c       $L81462                    00426b1c f   MonitorThread.obj
 0001:00025b28       $L81463                    00426b28 f   MonitorThread.obj
 0001:00025b34       $L81465                    00426b34 f   MonitorThread.obj
 0001:00025b40       $L81466                    00426b40 f   MonitorThread.obj
 0001:00025b4c       $L81468                    00426b4c f   MonitorThread.obj
 0001:00025b58       $L81469                    00426b58 f   MonitorThread.obj
 0001:00025b64       $L81471                    00426b64 f   MonitorThread.obj
 0001:00025b70       $L81472                    00426b70 f   MonitorThread.obj
 0001:00025b7c       $L81473                    00426b7c f   MonitorThread.obj
 0001:00025b88       $L81475                    00426b88 f   MonitorThread.obj
 0001:00025b94       $L81476                    00426b94 f   MonitorThread.obj
 0001:00025ba0       $L81478                    00426ba0 f   MonitorThread.obj
 0001:00025bac       $L81479                    00426bac f   MonitorThread.obj
 0001:00025bb8       $L81481                    00426bb8 f   MonitorThread.obj
 0001:00025bc4       $L81482                    00426bc4 f   MonitorThread.obj
 0001:00025bd0       $L81484                    00426bd0 f   MonitorThread.obj
 0001:00025bdc       $L81485                    00426bdc f   MonitorThread.obj
 0001:00025be8       __ehhandler$?RunInProcess@MonitorThread@@IAE_NHV?$basic_string@DU?$char_traits@D@std@@V?$allocator@D@2@@std@@0@Z 00426be8 f   MonitorThread.obj
 0001:00025c00       $L81795                    00426c00 f   MonitorThread.obj
 0001:00025c00       $L85400                    00426c00 f   MonitorThread.obj
 0001:00025c09       $L85420                    00426c09 f   MonitorThread.obj
 0001:00025c09       $L81799                    00426c09 f   MonitorThread.obj
 0001:00025c12       __ehhandler$?_Xlen@?$vector@V?$basic_string@DU?$char_traits@D@std@@V?$allocator@D@2@@std@@V?$allocator@V?$basic_string@DU?$char_traits@D@std@@V?$allocator@D@2@@std@@@2@@std@@IBEXXZ 00426c12 f   MonitorThread.obj
 0001:00025c12       __ehhandler$?_Incsize@?$list@PAVReturnValue@@V?$allocator@PAVReturnValue@@@std@@@std@@IAEXI@Z 00426c12 f   MonitorThread.obj
 0001:00025c20       $L84653                    00426c20 f   MonitorThread.obj
 0001:00025c31       __ehhandler$??$_Uninit_copy@PAV?$basic_string@DU?$char_traits@D@std@@V?$allocator@D@2@@std@@PAV12@V?$allocator@V?$basic_string@DU?$char_traits@D@std@@V?$allocator@D@2@@std@@@2@@std@@YAPAV?$basic_string@DU?$char_traits@D@std@@V?$allocator@D@2@@0@PAV10@00AAV?$allocator@V?$basic_string@DU?$char_traits@D@std@@V?$allocator@D@2@@std@@@0@U_Nonscalar_ptr_iterator_tag@0@@Z 00426c31 f   MonitorThread.obj
 0001:00025c40       $L85520                    00426c40 f   MonitorThread.obj
 0001:00025c48       __ehhandler$??1?$hashnode@Vword@svutil@@V12@@svutil@@QAE@XZ 00426c48 f   MonitorThread.obj
 0001:00025c60       $L85809                    00426c60 f   MonitorThread.obj
 0001:00025c71       __ehhandler$??$_Uninit_fill_n@PAV?$basic_string@DU?$char_traits@D@std@@V?$allocator@D@2@@std@@IV12@V?$allocator@V?$basic_string@DU?$char_traits@D@std@@V?$allocator@D@2@@std@@@2@@std@@YAXPAV?$basic_string@DU?$char_traits@D@std@@V?$allocator@D@2@@0@IABV10@AAV?$allocator@V?$basic_string@DU?$char_traits@D@std@@V?$allocator@D@2@@std@@@0@U_Nonscalar_ptr_iterator_tag@0@@Z 00426c71 f   MonitorThread.obj
 0001:00025c80       $L86436                    00426c80 f   MonitorThread.obj
 0001:00025c8b       $L86437                    00426c8b f   MonitorThread.obj
 0001:00025c96       $L86439                    00426c96 f   MonitorThread.obj
 0001:00025ca1       $L86440                    00426ca1 f   MonitorThread.obj
 0001:00025cad       $L86443                    00426cad f   MonitorThread.obj
 0001:00025cb9       $L86444                    00426cb9 f   MonitorThread.obj
 0001:00025cc5       $L86445                    00426cc5 f   MonitorThread.obj
 0001:00025cd1       $L86446                    00426cd1 f   MonitorThread.obj
 0001:00025cdd       $L86447                    00426cdd f   MonitorThread.obj
 0001:00025ce9       $L86450                    00426ce9 f   MonitorThread.obj
 0001:00025cf5       __ehhandler$?ProcessResultV70@MonitorThread@@AAEXXZ 00426cf5 f   MonitorThread.obj
 0001:00025d00       $L88475                    00426d00 f   MonitorThread.obj
 0001:00025d09       __ehhandler$?_Insert_n@?$vector@V?$basic_string@DU?$char_traits@D@std@@V?$allocator@D@2@@std@@V?$allocator@V?$basic_string@DU?$char_traits@D@std@@V?$allocator@D@2@@std@@@2@@std@@IAEXViterator@12@IABV?$basic_string@DU?$char_traits@D@std@@V?$allocator@D@2@@2@@Z 00426d09 f   MonitorThread.obj
 0001:00025d20       $L89047                    00426d20 f   MonitorThread.obj
 0001:00025d28       $L89048                    00426d28 f   MonitorThread.obj
 0001:00025d30       $L89049                    00426d30 f   MonitorThread.obj
 0001:00025d39       $L89050                    00426d39 f   MonitorThread.obj
 0001:00025d41       $L89051                    00426d41 f   MonitorThread.obj
 0001:00025d4a       $L89052                    00426d4a f   MonitorThread.obj
 0001:00025d52       $L89053                    00426d52 f   MonitorThread.obj
 0001:00025d5e       $L89054                    00426d5e f   MonitorThread.obj
 0001:00025d66       $L89055                    00426d66 f   MonitorThread.obj
 0001:00025d72       __ehhandler$?ParserExpression@MonitorThread@@AAEHVTString@@AAV?$list@V?$basic_string@DU?$char_traits@D@std@@V?$allocator@D@2@@std@@V?$allocator@V?$basic_string@DU?$char_traits@D@std@@V?$allocator@D@2@@std@@@2@@std@@1@Z 00426d72 f   MonitorThread.obj
 0001:00025d80       $L90229                    00426d80 f   MonitorThread.obj
 0001:00025d80       $L89549                    00426d80 f   MonitorThread.obj
 0001:00025d88       __ehhandler$??0?$hashtable@Vword@svutil@@V12@@svutil@@QAE@XZ 00426d88 f   MonitorThread.obj
 0001:00025d88       __ehhandler$??1?$hashtable@Vword@svutil@@V12@@svutil@@QAE@XZ 00426d88 f   MonitorThread.obj
 0001:00025da0       $L90155                    00426da0 f   MonitorThread.obj
 0001:00025da8       $L90156                    00426da8 f   MonitorThread.obj
 0001:00025db4       $L90157                    00426db4 f   MonitorThread.obj
 0001:00025dbf       $L90158                    00426dbf f   MonitorThread.obj
 0001:00025dca       $L90159                    00426dca f   MonitorThread.obj
 0001:00025dd8       $L90160                    00426dd8 f   MonitorThread.obj
 0001:00025df3       __ehhandler$??1MonitorThread@@UAE@XZ 00426df3 f   MonitorThread.obj
 0001:00025e00       $L90603                    00426e00 f   MonitorThread.obj
 0001:00025e09       $L90604                    00426e09 f   MonitorThread.obj
 0001:00025e12       $L90606                    00426e12 f   MonitorThread.obj
 0001:00025e1b       $L90605                    00426e1b f   MonitorThread.obj
 0001:00025e24       __ehhandler$?String2Array@@YAXAAV?$vector@V?$basic_string@DU?$char_traits@D@std@@V?$allocator@D@2@@std@@V?$allocator@V?$basic_string@DU?$char_traits@D@std@@V?$allocator@D@2@@std@@@2@@std@@V?$basic_string@DU?$char_traits@D@std@@V?$allocator@D@2@@2@1@Z 00426e24 f   MonitorThread.obj
 0001:00025e30       $L90643                    00426e30 f   MonitorThread.obj
 0001:00025e38       $L90644                    00426e38 f   MonitorThread.obj
 0001:00025e44       $L90645                    00426e44 f   MonitorThread.obj
 0001:00025e4f       $L90646                    00426e4f f   MonitorThread.obj
 0001:00025e5a       $L90647                    00426e5a f   MonitorThread.obj
 0001:00025e68       $L90648                    00426e68 f   MonitorThread.obj
 0001:00025e83       $L90649                    00426e83 f   MonitorThread.obj
 0001:00025e91       __ehhandler$??0MonitorThread@@QAE@XZ 00426e91 f   MonitorThread.obj
 0001:00025ea0       $L90768                    00426ea0 f   MonitorThread.obj
 0001:00025eab       $L90769                    00426eab f   MonitorThread.obj
 0001:00025eb3       $L90770                    00426eb3 f   MonitorThread.obj
 0001:00025ebe       $L90771                    00426ebe f   MonitorThread.obj
 0001:00025ec7       $L90772                    00426ec7 f   MonitorThread.obj
 0001:00025ed3       __ehhandler$?CheckSingleItemState@MonitorThread@@AAEHPAVStateCondition@@H@Z 00426ed3 f   MonitorThread.obj
 0001:00025ee0       $L91327                    00426ee0 f   MonitorThread.obj
 0001:00025ee8       $L91328                    00426ee8 f   MonitorThread.obj
 0001:00025ef0       $L91329                    00426ef0 f   MonitorThread.obj
 0001:00025ef8       $L91507                    00426ef8 f   MonitorThread.obj
 0001:00025f01       __ehhandler$?CheckStateByType@MonitorThread@@AAEHH@Z 00426f01 f   MonitorThread.obj
 0001:00025f10       $L92600                    00426f10 f   MonitorThread.obj
 0001:00025f19       $L92601                    00426f19 f   MonitorThread.obj
 0001:00025f22       $L92602                    00426f22 f   MonitorThread.obj
 0001:00025f2b       $L92603                    00426f2b f   MonitorThread.obj
 0001:00025f37       $L92604                    00426f37 f   MonitorThread.obj
 0001:00025f43       $L92605                    00426f43 f   MonitorThread.obj
 0001:00025f4e       $L92606                    00426f4e f   MonitorThread.obj
 0001:00025f59       __ehhandler$?BulidStringMap@MonitorThread@@AAE_NAAV?$hashtable@Vword@svutil@@V12@@svutil@@PBD@Z 00426f59 f   MonitorThread.obj
 0001:00025f70       $L92668                    00426f70 f   MonitorThread.obj
 0001:00025f7b       $L92669                    00426f7b f   MonitorThread.obj
 0001:00025f83       $L92670                    00426f83 f   MonitorThread.obj
 0001:00025f91       $L92671                    00426f91 f   MonitorThread.obj
 0001:00025f9c       $L92672                    00426f9c f   MonitorThread.obj
 0001:00025fa8       __ehhandler$?PaserResultV70@MonitorThread@@AAEHXZ 00426fa8 f   MonitorThread.obj
 0001:00025fc0       $L92923                    00426fc0 f   MonitorThread.obj
 0001:00025fc8       $L92924                    00426fc8 f   MonitorThread.obj
 0001:00025fd0       $L92925                    00426fd0 f   MonitorThread.obj
 0001:00025fd8       $L92926                    00426fd8 f   MonitorThread.obj
 0001:00025fe0       $L92927                    00426fe0 f   MonitorThread.obj
 0001:00025fe8       $L92928                    00426fe8 f   MonitorThread.obj
 0001:00025ff1       $L92929                    00426ff1 f   MonitorThread.obj
 0001:00025ffa       __ehhandler$?RunMonitor@MonitorThread@@IAEXXZ 00426ffa f   MonitorThread.obj
 0001:00026010       $L93187                    00427010 f   MonitorThread.obj
 0001:00026018       __ehhandler$?run@MonitorThread@@UAEXXZ 00427018 f   MonitorThread.obj
 0001:00026030       $L28027                    00427030 f   MSGQueue.obj
 0001:0002603e       $L28028                    0042703e f   MSGQueue.obj
 0001:0002604d       $L28029                    0042704d f   MSGQueue.obj
 0001:0002605c       __ehhandler$??0MSGQueue@@QAE@XZ 0042705c f   MSGQueue.obj
 0001:00026070       $L28124                    00427070 f   MSGQueue.obj
 0001:0002607e       $L28125                    0042707e f   MSGQueue.obj
 0001:0002608d       __ehhandler$??1MSGQueue@@QAE@XZ 0042708d f   MSGQueue.obj
 0001:000260a0       $L48838                    004270a0 f   ommunicationThread.obj
 0001:000260a9       $L48839                    004270a9 f   ommunicationThread.obj
 0001:000260b5       $L48840                    004270b5 f   ommunicationThread.obj
 0001:000260c1       $L48842                    004270c1 f   ommunicationThread.obj
 0001:000260cd       $L48843                    004270cd f   ommunicationThread.obj
 0001:000260d9       $L48845                    004270d9 f   ommunicationThread.obj
 0001:000260e5       $L48846                    004270e5 f   ommunicationThread.obj
 0001:000260f1       $L48848                    004270f1 f   ommunicationThread.obj
 0001:000260fa       $L48849                    004270fa f   ommunicationThread.obj
 0001:00026106       __ehhandler$?run@CommunicationThread@@UAEXXZ 00427106 f   ommunicationThread.obj
 0001:00026110       $L44917                    00427110 f   Option.obj
 0001:0002611c       $L44918                    0042711c f   Option.obj
 0001:00026128       $L44919                    00427128 f   Option.obj
 0001:00026134       $L44920                    00427134 f   Option.obj
 0001:00026140       __ehhandler$??0Option@@QAE@XZ 00427140 f   Option.obj
 0001:00026150       $L49826                    00427150 f   Option.obj
 0001:0002615c       $L49827                    0042715c f   Option.obj
 0001:00026167       $L49828                    00427167 f   Option.obj
 0001:00026173       $L49829                    00427173 f   Option.obj
 0001:0002617f       $L49830                    0042717f f   Option.obj
 0001:0002618b       $L49831                    0042718b f   Option.obj
 0001:00026197       $L49832                    00427197 f   Option.obj
 0001:000261a3       $L49833                    004271a3 f   Option.obj
 0001:000261af       $L49834                    004271af f   Option.obj
 0001:000261bb       $L49835                    004271bb f   Option.obj
 0001:000261c7       $L49836                    004271c7 f   Option.obj
 0001:000261d3       $L49837                    004271d3 f   Option.obj
 0001:000261df       $L49838                    004271df f   Option.obj
 0001:000261eb       $L49839                    004271eb f   Option.obj
 0001:000261f7       __ehhandler$?LoadOption@Option@@QAE_NXZ 004271f7 f   Option.obj
 0001:00026210       $L43014                    00427210 f   ProcessMonitorData.obj
 0001:0002621c       $L43015                    0042721c f   ProcessMonitorData.obj
 0001:00026228       __ehhandler$??0ProcessMonitorData@@QAE@XZ 00427228 f   ProcessMonitorData.obj
 0001:00026240       $L43031                    00427240 f   ProcessMonitorData.obj
 0001:0002624c       __ehhandler$??1ProcessMonitorData@@QAE@XZ 0042724c f   ProcessMonitorData.obj
 0001:00026260       __ehhandler$?CreateObjectByRawData@ProcessMonitorData@@QAE_NPBDH@Z 00427260 f   ProcessMonitorData.obj
 0001:00026270       $L48481                    00427270 f   QueueItem.obj
 0001:0002627b       __ehhandler$??1QueueItem@@UAE@XZ 0042727b f   QueueItem.obj
 0001:00026290       $L48526                    00427290 f   QueueItem.obj
 0001:00026299       __ehhandler$?Push@QueueItem@@QAEXPAVMonitor@@H@Z 00427299 f   QueueItem.obj
 0001:000262b0       $L48717                    004272b0 f   QueueItem.obj
 0001:000262b9       __ehhandler$?Pop@QueueItem@@QAEPAVMonitor@@XZ 004272b9 f   QueueItem.obj
 0001:000262d0       $L51479                    004272d0 f   QueuesManager.obj
 0001:000262d8       __ehhandler$?Push@QueuesManager@@QAEHPAVMonitor@@H@Z 004272d8 f   QueuesManager.obj
 0001:000262f0       $L51582                    004272f0 f   QueuesManager.obj
 0001:000262fb       __ehhandler$??0QueueItem@@QAE@PBD@Z 004272fb f   QueuesManager.obj
 0001:00026310       $L51688                    00427310 f   QueuesManager.obj
 0001:0002631b       __ehhandler$?CreateQueueBySubsequent@QueuesManager@@AAEHXZ 0042731b f   QueuesManager.obj
 0001:00026330       $L51791                    00427330 f   QueuesManager.obj
 0001:0002633e       __ehhandler$?CreateMainQueue@QueuesManager@@AAEHXZ 0042733e f   QueuesManager.obj
 0001:00026350       $L54805                    00427350 f   readSVDB.obj
 0001:00026359       __ehhandler$??1sv_pair@@QAE@XZ 00427359 f   readSVDB.obj
 0001:00026370       $L54903                    00427370 f   readSVDB.obj
 0001:00026370       $L54914                    00427370 f   readSVDB.obj
 0001:00026379       $L54904                    00427379 f   readSVDB.obj
 0001:00026379       $L54915                    00427379 f   readSVDB.obj
 0001:00026385       __ehhandler$??1readSVDB@@QAE@XZ 00427385 f   readSVDB.obj
 0001:00026385       __ehhandler$??0readSVDB@@QAE@XZ 00427385 f   readSVDB.obj
 0001:00026390       $L54953                    00427390 f   readSVDB.obj
 0001:00026399       $L54954                    00427399 f   readSVDB.obj
 0001:000263a2       $L54955                    004273a2 f   readSVDB.obj
 0001:000263ab       $L54956                    004273ab f   readSVDB.obj
 0001:000263b4       $L54958                    004273b4 f   readSVDB.obj
 0001:000263bd       __ehhandler$?GetSGProValue@readSVDB@@QAE_NV?$basic_string@DU?$char_traits@D@std@@V?$allocator@D@2@@std@@0AAV23@@Z 004273bd f   readSVDB.obj
 0001:000263d0       $L55435                    004273d0 f   readSVDB.obj
 0001:000263d8       __ehhandler$??0?$hashelement@Vword@svutil@@PAVTask@@@svutil@@QAE@ABVword@1@ABQAVTask@@@Z 004273d8 f   readSVDB.obj
 0001:000263f0       $L62159                    004273f0 f   readSVDB.obj
 0001:000263f0       $L55351                    004273f0 f   readSVDB.obj
 0001:000263f0       $L62563                    004273f0 f   readSVDB.obj
 0001:000263f0       $L61262                    004273f0 f   readSVDB.obj
 0001:000263f0       $L55473                    004273f0 f   readSVDB.obj
 0001:000263f0       $L61542                    004273f0 f   readSVDB.obj
 0001:000263f0       $L60108                    004273f0 f   readSVDB.obj
 0001:000263f9       $L55477                    004273f9 f   readSVDB.obj
 0001:000263f9       $L61282                    004273f9 f   readSVDB.obj
 0001:000263f9       $L61562                    004273f9 f   readSVDB.obj
 0001:000263f9       $L62169                    004273f9 f   readSVDB.obj
 0001:000263f9       $L60128                    004273f9 f   readSVDB.obj
 0001:000263f9       $L55355                    004273f9 f   readSVDB.obj
 0001:000263f9       $L62573                    004273f9 f   readSVDB.obj
 0001:00026402       __ehhandler$?_Xlen@?$vector@UPairTime@@V?$allocator@UPairTime@@@std@@@std@@IBEXXZ 00427402 f   readSVDB.obj
 0001:00026402       __ehhandler$?erase@?$_Tree@V?$_Tmap_traits@HPAXU?$less@H@std@@V?$allocator@U?$pair@$$CBHPAX@std@@@2@$0A@@std@@@std@@QAE?AViterator@12@V312@@Z 00427402 f   readSVDB.obj
 0001:00026402       __ehhandler$?erase@?$_Tree@V?$_Tmap_traits@V?$basic_string@DU?$char_traits@D@std@@V?$allocator@D@2@@std@@PAXU?$less@V?$basic_string@DU?$char_traits@D@std@@V?$allocator@D@2@@std@@@2@V?$allocator@U?$pair@$$CBV?$basic_string@DU?$char_traits@D@std@@V?$allocator@D@2@@std@@PAX@std@@@2@$0A@@std@@@std@@QAE?AViterator@12@V312@@Z 00427402 f   readSVDB.obj
 0001:00026402       __ehhandler$?_Insert@?$_Tree@V?$_Tmap_traits@V?$basic_string@DU?$char_traits@D@std@@V?$allocator@D@2@@std@@PAXU?$less@V?$basic_string@DU?$char_traits@D@std@@V?$allocator@D@2@@std@@@2@V?$allocator@U?$pair@$$CBV?$basic_string@DU?$char_traits@D@std@@V?$allocator@D@2@@std@@PAX@std@@@2@$0A@@std@@@std@@IAE?AViterator@12@_NPAU_Node@?$_Tree_nod@V?$_Tmap_traits@V?$basic_string@DU?$char_traits@D@std@@V?$allocator@D@2@@std@@PAXU?$less@V?$basic_string@DU?$char_traits@D@std@@V?$allocator@D@2@@std@@@2@V?$allocator@U?$pair@$$CBV?$basic_string@DU?$char_traits@D@std@@V?$allocator@D@2@@std@@PAX@std@@@2@$0A@@std@@@2@ABU?$pair@$$CBV?$basic_string@DU?$char_traits@D@std@@V?$allocator@D@2@@std@@PAX@2@@Z 00427402 f   readSVDB.obj
 0001:00026402       __ehhandler$?_Incsize@?$list@PAVSubsequentItem@@V?$allocator@PAVSubsequentItem@@@std@@@std@@IAEXI@Z 00427402 f   readSVDB.obj
 0001:00026402       __ehhandler$?_Insert@?$_Tree@V?$_Tmap_traits@HPAXU?$less@H@std@@V?$allocator@U?$pair@$$CBHPAX@std@@@2@$0A@@std@@@std@@IAE?AViterator@12@_NPAU_Node@?$_Tree_nod@V?$_Tmap_traits@HPAXU?$less@H@std@@V?$allocator@U?$pair@$$CBHPAX@std@@@2@$0A@@std@@@2@ABU?$pair@$$CBHPAX@2@@Z 00427402 f   readSVDB.obj
 0001:00026402       __ehhandler$?_Xlen@?$vector@U?$pair@HH@std@@V?$allocator@U?$pair@HH@std@@@2@@std@@IBEXXZ 00427402 f   readSVDB.obj
 0001:00026410       $L55771                    00427410 f   readSVDB.obj
 0001:00026410       $L55808                    00427410 f   readSVDB.obj
 0001:00026418       __ehhandler$??M?$treenode@V?$hashelement@Vword@svutil@@PAVTask@@@svutil@@@svutil@@QAE_NV01@@Z 00427418 f   readSVDB.obj
 0001:00026418       __ehhandler$??O?$treenode@V?$hashelement@Vword@svutil@@PAVTask@@@svutil@@@svutil@@QAE_NV01@@Z 00427418 f   readSVDB.obj
 0001:00026430       $L57830                    00427430 f   readSVDB.obj
 0001:00026430       $L56201                    00427430 f   readSVDB.obj
 0001:0002643b       __ehhandler$??0?$treenode@V?$hashelement@Vword@svutil@@PAVTask@@@svutil@@@svutil@@QAE@ABV01@@Z 0042743b f   readSVDB.obj
 0001:0002643b       __ehhandler$??0?$treenode@V?$hashelement@Vword@svutil@@PAVTask@@@svutil@@@svutil@@QAE@ABV?$hashelement@Vword@svutil@@PAVTask@@@1@@Z 0042743b f   readSVDB.obj
 0001:00026450       $L58894                    00427450 f   readSVDB.obj
 0001:00026459       $L58895                    00427459 f   readSVDB.obj
 0001:00026472       __ehhandler$??$make_pair@V?$basic_string@DU?$char_traits@D@std@@V?$allocator@D@2@@std@@PAX@std@@YA?AU?$pair@V?$basic_string@DU?$char_traits@D@std@@V?$allocator@D@2@@std@@PAX@0@V?$basic_string@DU?$char_traits@D@std@@V?$allocator@D@2@@0@PAX@Z 00427472 f   readSVDB.obj
 0001:00026480       $L58966                    00427480 f   readSVDB.obj
 0001:00026480       $L68953                    00427480 f   readSVDB.obj
 0001:0002648b       __ehhandler$??$CreateNode@V?$hashelement@Vword@svutil@@PAVTask@@@svutil@@@?$sorttree@V?$hashelement@Vword@svutil@@PAVTask@@@svutil@@@svutil@@SAPAV?$treenode@V?$hashelement@Vword@svutil@@PAVTask@@@svutil@@@1@ABV?$hashelement@Vword@svutil@@PAVTask@@@1@@Z 0042748b f   readSVDB.obj
 0001:0002648b       __ehhandler$?insert@?$hashtable@Vword@svutil@@PAVTask@@@svutil@@QAEAAPAVTask@@ABVword@2@ABQAV3@@Z 0042748b f   readSVDB.obj
 0001:000264a0       $L60183                    004274a0 f   readSVDB.obj
 0001:000264b1       __ehhandler$?_Buynode@?$_Tree@V?$_Tmap_traits@V?$basic_string@DU?$char_traits@D@std@@V?$allocator@D@2@@std@@PAXU?$less@V?$basic_string@DU?$char_traits@D@std@@V?$allocator@D@2@@std@@@2@V?$allocator@U?$pair@$$CBV?$basic_string@DU?$char_traits@D@std@@V?$allocator@D@2@@std@@PAX@std@@@2@$0A@@std@@@std@@IAEPAU_Node@?$_Tree_nod@V?$_Tmap_traits@V?$basic_string@DU?$char_traits@D@std@@V?$allocator@D@2@@std@@PAXU?$less@V?$basic_string@DU?$char_traits@D@std@@V?$allocator@D@2@@std@@@2@V?$allocator@U?$pair@$$CBV?$basic_string@DU?$char_traits@D@std@@V?$allocator@D@2@@std@@PAX@std@@@2@$0A@@std@@@2@PAU342@00ABU?$pair@$$CBV?$basic_string@DU?$char_traits@D@std@@V?$allocator@D@2@@std@@PAX@2@D@Z 004274b1 f   readSVDB.obj
 0001:000264c0       $L64050                    004274c0 f   readSVDB.obj
 0001:000264c8       __ehhandler$?insert@?$hashnode@Vword@svutil@@PAVTask@@@svutil@@QAEAAV?$hashelement@Vword@svutil@@PAVTask@@@2@ABVword@2@ABQAVTask@@@Z 004274c8 f   readSVDB.obj
 0001:000264e0       __ehhandler$?_Insert_n@?$vector@U?$pair@HH@std@@V?$allocator@U?$pair@HH@std@@@2@@std@@IAEXViterator@12@IABU?$pair@HH@2@@Z 004274e0 f   readSVDB.obj
 0001:000264f0       $L64915                    004274f0 f   readSVDB.obj
 0001:000264f9       __ehhandler$?FastGetMonitorTPL@readSVDB@@AAEPAXH@Z 004274f9 f   readSVDB.obj
 0001:00026510       $L65408                    00427510 f   readSVDB.obj
 0001:00026510       $L64998                    00427510 f   readSVDB.obj
 0001:00026510       $L65203                    00427510 f   readSVDB.obj
 0001:00026519       $L65409                    00427519 f   readSVDB.obj
 0001:00026519       $L64999                    00427519 f   readSVDB.obj
 0001:00026519       $L65204                    00427519 f   readSVDB.obj
 0001:00026522       $L65410                    00427522 f   readSVDB.obj
 0001:00026522       $L65000                    00427522 f   readSVDB.obj
 0001:00026522       $L65205                    00427522 f   readSVDB.obj
 0001:0002652b       $L65003                    0042752b f   readSVDB.obj
 0001:0002652b       $L65208                    0042752b f   readSVDB.obj
 0001:0002652b       $L65413                    0042752b f   readSVDB.obj
 0001:00026533       $L65004                    00427533 f   readSVDB.obj
 0001:00026533       $L65414                    00427533 f   readSVDB.obj
 0001:00026533       $L65209                    00427533 f   readSVDB.obj
 0001:0002653b       __ehhandler$?FastGetEntityTPL@readSVDB@@AAEPAXV?$basic_string@DU?$char_traits@D@std@@V?$allocator@D@2@@std@@@Z 0042753b f   readSVDB.obj
 0001:0002653b       __ehhandler$?FastGetMonitor@readSVDB@@AAEPAXV?$basic_string@DU?$char_traits@D@std@@V?$allocator@D@2@@std@@@Z 0042753b f   readSVDB.obj
 0001:0002653b       __ehhandler$?FastGetEntity@readSVDB@@AAEPAXV?$basic_string@DU?$char_traits@D@std@@V?$allocator@D@2@@std@@@Z 0042753b f   readSVDB.obj
 0001:00026550       $L65624                    00427550 f   readSVDB.obj
 0001:00026559       $L65625                    00427559 f   readSVDB.obj
 0001:00026562       $L65627                    00427562 f   readSVDB.obj
 0001:0002656e       $L65630                    0042756e f   readSVDB.obj
 0001:0002657a       $L65632                    0042757a f   readSVDB.obj
 0001:00026586       $L65633                    00427586 f   readSVDB.obj
 0001:00026592       $L65638                    00427592 f   readSVDB.obj
 0001:0002659d       __ehhandler$?GetMonitorParaValueByName@readSVDB@@QAE_NV?$basic_string@DU?$char_traits@D@std@@V?$allocator@D@2@@std@@0AAV23@@Z 0042759d f   readSVDB.obj
 0001:000265b0       $L65706                    004275b0 f   readSVDB.obj
 0001:000265b9       $L65708                    004275b9 f   readSVDB.obj
 0001:000265c2       $L65709                    004275c2 f   readSVDB.obj
 0001:000265cb       __ehhandler$?GetSMCommon@readSVDB@@QAE_NPAVMonitor@@V?$basic_string@DU?$char_traits@D@std@@V?$allocator@D@2@@std@@@Z 004275cb f   readSVDB.obj
 0001:000265e0       $L65954                    004275e0 f   readSVDB.obj
 0001:000265e0       $L65863                    004275e0 f   readSVDB.obj
 0001:000265e9       $L65955                    004275e9 f   readSVDB.obj
 0001:000265e9       $L65864                    004275e9 f   readSVDB.obj
 0001:000265f2       $L65866                    004275f2 f   readSVDB.obj
 0001:000265f2       $L65956                    004275f2 f   readSVDB.obj
 0001:000265fb       __ehhandler$?GetEntityConfigValue@readSVDB@@QAE_NV?$basic_string@DU?$char_traits@D@std@@V?$allocator@D@2@@std@@0AAV23@@Z 004275fb f   readSVDB.obj
 0001:000265fb       __ehhandler$?GetMLValue@readSVDB@@QAE_NV?$basic_string@DU?$char_traits@D@std@@V?$allocator@D@2@@std@@0AAV23@@Z 004275fb f   readSVDB.obj
 0001:00026610       $L66379                    00427610 f   readSVDB.obj
 0001:00026610       $L68650                    00427610 f   readSVDB.obj
 0001:00026610       $L65990                    00427610 f   readSVDB.obj
 0001:00026619       $L68653                    00427619 f   readSVDB.obj
 0001:00026619       $L65991                    00427619 f   readSVDB.obj
 0001:00026619       $L66381                    00427619 f   readSVDB.obj
 0001:00026622       __ehhandler$?GetMLRunParaNames@readSVDB@@QAE_NV?$basic_string@DU?$char_traits@D@std@@V?$allocator@D@2@@std@@AAV?$list@V?$basic_string@DU?$char_traits@D@std@@V?$allocator@D@2@@std@@V?$allocator@V?$basic_string@DU?$char_traits@D@std@@V?$allocator@D@2@@std@@@2@@3@@Z 00427622 f   readSVDB.obj
 0001:00026622       __ehhandler$?GetConditionString@readSVDB@@QAE_NV?$basic_string@DU?$char_traits@D@std@@V?$allocator@D@2@@std@@IAAV23@@Z 00427622 f   readSVDB.obj
 0001:00026622       __ehhandler$?GetMonitorBaselineFlag@readSVDB@@QAE_NV?$basic_string@DU?$char_traits@D@std@@V?$allocator@D@2@@std@@@Z 00427622 f   readSVDB.obj
 0001:00026630       $L66168                    00427630 f   readSVDB.obj
 0001:00026639       $L66170                    00427639 f   readSVDB.obj
 0001:00026642       $L66171                    00427642 f   readSVDB.obj
 0001:0002664d       $L66175                    0042764d f   readSVDB.obj
 0001:00026656       __ehhandler$?GetMLReturnDataList@readSVDB@@QAE_NAAV?$list@PAVReturnData@@V?$allocator@PAVReturnData@@@std@@@std@@H@Z 00427656 f   readSVDB.obj
 0001:00026660       __ehhandler$?_Insert_n@?$vector@UPairTime@@V?$allocator@UPairTime@@@std@@@std@@IAEXViterator@12@IABUPairTime@@@Z 00427660 f   readSVDB.obj
 0001:00026670       $L68629                    00427670 f   readSVDB.obj
 0001:00026679       __ehhandler$?SetSvdbAddr@readSVDB@@QAE_NV?$basic_string@DU?$char_traits@D@std@@V?$allocator@D@2@@std@@@Z 00427679 f   readSVDB.obj
 0001:00026690       $L68708                    00427690 f   readSVDB.obj
 0001:00026699       $L68711                    00427699 f   readSVDB.obj
 0001:000266a2       $L68714                    004276a2 f   readSVDB.obj
 0001:000266ad       __ehhandler$?GetSMStateConditionItemList@readSVDB@@QAE_NV?$basic_string@DU?$char_traits@D@std@@V?$allocator@D@2@@std@@AAV?$list@PAVStateConditionItem@@V?$allocator@PAVStateConditionItem@@@std@@@3@I@Z 004276ad f   readSVDB.obj
 0001:000266c0       $L69642                    004276c0 f   readSVDB.obj
 0001:000266cb       $L69643                    004276cb f   readSVDB.obj
 0001:000266d7       $L69644                    004276d7 f   readSVDB.obj
 0001:000266e3       $L69646                    004276e3 f   readSVDB.obj
 0001:000266f1       $L69647                    004276f1 f   readSVDB.obj
 0001:000266fa       $L69648                    004276fa f   readSVDB.obj
 0001:00026703       $L69649                    00427703 f   readSVDB.obj
 0001:0002670c       $L69650                    0042770c f   readSVDB.obj
 0001:00026715       $L69651                    00427715 f   readSVDB.obj
 0001:0002671e       $L69652                    0042771e f   readSVDB.obj
 0001:00026727       $L69654                    00427727 f   readSVDB.obj
 0001:00026730       $L69655                    00427730 f   readSVDB.obj
 0001:00026739       $L69656                    00427739 f   readSVDB.obj
 0001:00026742       $L69657                    00427742 f   readSVDB.obj
 0001:0002674b       $L69658                    0042774b f   readSVDB.obj
 0001:00026754       $L69659                    00427754 f   readSVDB.obj
 0001:0002675d       $L69661                    0042775d f   readSVDB.obj
 0001:00026766       __ehhandler$?GetSubsequentList@readSVDB@@QAEHAAV?$list@PAVSubsequentItem@@V?$allocator@PAVSubsequentItem@@@std@@@std@@@Z 00427766 f   readSVDB.obj
 0001:00026770       $L70721                    00427770 f   readSVDB.obj
 0001:0002677b       $L70722                    0042777b f   readSVDB.obj
 0001:00026787       $L70723                    00427787 f   readSVDB.obj
 0001:00026790       $L70724                    00427790 f   readSVDB.obj
 0001:00026799       $L71035                    00427799 f   readSVDB.obj
 0001:000267a2       __ehhandler$?GetMonitorIDLSTBySE@readSVDB@@QAEJAAV?$list@V?$basic_string@DU?$char_traits@D@std@@V?$allocator@D@2@@std@@V?$allocator@V?$basic_string@DU?$char_traits@D@std@@V?$allocator@D@2@@std@@@2@@std@@H@Z 004277a2 f   readSVDB.obj
 0001:000267b0       $L71219                    004277b0 f   readSVDB.obj
 0001:000267b9       $L71221                    004277b9 f   readSVDB.obj
 0001:000267c5       $L71224                    004277c5 f   readSVDB.obj
 0001:000267d0       $L71225                    004277d0 f   readSVDB.obj
 0001:000267dc       $L71226                    004277dc f   readSVDB.obj
 0001:000267e8       $L71229                    004277e8 f   readSVDB.obj
 0001:000267f3       $L71230                    004277f3 f   readSVDB.obj
 0001:000267ff       $L71231                    004277ff f   readSVDB.obj
 0001:0002680b       $L71232                    0042780b f   readSVDB.obj
 0001:00026816       $L71233                    00427816 f   readSVDB.obj
 0001:00026822       $L71234                    00427822 f   readSVDB.obj
 0001:0002682e       __ehhandler$?GetEntityList@readSVDB@@QAE_NV?$basic_string@DU?$char_traits@D@std@@V?$allocator@D@2@@std@@AAV?$list@V?$basic_string@DU?$char_traits@D@std@@V?$allocator@D@2@@std@@V?$allocator@V?$basic_string@DU?$char_traits@D@std@@V?$allocator@D@2@@std@@@2@@3@@Z 0042782e f   readSVDB.obj
 0001:00026840       $L72167                    00427840 f   readSVDB.obj
 0001:00026848       $L72168                    00427848 f   readSVDB.obj
 0001:00026851       $L72169                    00427851 f   readSVDB.obj
 0001:0002685a       $L72509                    0042785a f   readSVDB.obj
 0001:00026863       __ehhandler$?GetEntityIDListBySE@readSVDB@@QAE_NAAV?$list@V?$basic_string@DU?$char_traits@D@std@@V?$allocator@D@2@@std@@V?$allocator@V?$basic_string@DU?$char_traits@D@std@@V?$allocator@D@2@@std@@@2@@std@@H@Z 00427863 f   readSVDB.obj
 0001:00026870       $L72681                    00427870 f   readSVDB.obj
 0001:00026878       $L72682                    00427878 f   readSVDB.obj
 0001:00026881       $L72683                    00427881 f   readSVDB.obj
 0001:0002688a       $L72990                    0042788a f   readSVDB.obj
 0001:00026893       __ehhandler$?GetGroupIDList@readSVDB@@QAE_NAAV?$list@V?$basic_string@DU?$char_traits@D@std@@V?$allocator@D@2@@std@@V?$allocator@V?$basic_string@DU?$char_traits@D@std@@V?$allocator@D@2@@std@@@2@@std@@@Z 00427893 f   readSVDB.obj
 0001:000268a0       $L74251                    004278a0 f   readSVDB.obj
 0001:000268ab       $L74252                    004278ab f   readSVDB.obj
 0001:000268b7       $L74254                    004278b7 f   readSVDB.obj
 0001:000268c3       $L74255                    004278c3 f   readSVDB.obj
 0001:000268cf       $L74257                    004278cf f   readSVDB.obj
 0001:000268dd       $L74258                    004278dd f   readSVDB.obj
 0001:000268e8       $L74259                    004278e8 f   readSVDB.obj
 0001:000268f4       $L74261                    004278f4 f   readSVDB.obj
 0001:00026900       $L74262                    00427900 f   readSVDB.obj
 0001:0002690b       $L74263                    0042790b f   readSVDB.obj
 0001:00026916       $L74265                    00427916 f   readSVDB.obj
 0001:00026922       $L74267                    00427922 f   readSVDB.obj
 0001:0002692e       $L74268                    0042792e f   readSVDB.obj
 0001:0002693a       $L74269                    0042793a f   readSVDB.obj
 0001:00026946       $L74273                    00427946 f   readSVDB.obj
 0001:00026952       $L74274                    00427952 f   readSVDB.obj
 0001:0002695e       $L74275                    0042795e f   readSVDB.obj
 0001:0002696a       __ehhandler$?GetTaskMap@readSVDB@@QAE_NAAV?$hashtable@Vword@svutil@@PAVTask@@@svutil@@@Z 0042796a f   readSVDB.obj
 0001:00026980       $L42952                    00427980 f   ReturnData.obj
 0001:00026980       $L42969                    00427980 f   ReturnData.obj
 0001:0002698b       __ehhandler$??1ReturnData@@QAE@XZ 0042798b f   ReturnData.obj
 0001:0002698b       __ehhandler$??0ReturnData@@QAE@XZ 0042798b f   ReturnData.obj
 0001:000269a0       $L57971                    004279a0 f   ScheduleThread.obj
 0001:000269a8       $L57972                    004279a8 f   ScheduleThread.obj
 0001:000269b0       $L57973                    004279b0 f   ScheduleThread.obj
 0001:000269b8       $L57975                    004279b8 f   ScheduleThread.obj
 0001:000269c4       $L57980                    004279c4 f   ScheduleThread.obj
 0001:000269cf       $L57984                    004279cf f   ScheduleThread.obj
 0001:000269da       $L57985                    004279da f   ScheduleThread.obj
 0001:000269e6       $L57991                    004279e6 f   ScheduleThread.obj
 0001:000269f1       $L57995                    004279f1 f   ScheduleThread.obj
 0001:000269f9       $L57999                    004279f9 f   ScheduleThread.obj
 0001:00026a01       $L58003                    00427a01 f   ScheduleThread.obj
 0001:00026a09       __ehhandler$?run@ScheduleThread@@UAEXXZ 00427a09 f   ScheduleThread.obj
 0001:00026a20       $L58855                    00427a20 f   ScheduleThread.obj
 0001:00026a28       $L58856                    00427a28 f   ScheduleThread.obj
 0001:00026a34       $L58857                    00427a34 f   ScheduleThread.obj
 0001:00026a42       __ehhandler$??0ThreadContrl@@QAE@PAVMonitorSchMain@@@Z 00427a42 f   ScheduleThread.obj
 0001:00026a50       $L58972                    00427a50 f   ScheduleThread.obj
 0001:00026a5c       $L58974                    00427a5c f   ScheduleThread.obj
 0001:00026a65       $L58979                    00427a65 f   ScheduleThread.obj
 0001:00026a73       __ehhandler$?Init@ScheduleThread@@QAEHXZ 00427a73 f   ScheduleThread.obj
 0001:00026a80       $L57042                    00427a80 f   SerialData.obj
 0001:00026a89       $L57043                    00427a89 f   SerialData.obj
 0001:00026a92       $L57044                    00427a92 f   SerialData.obj
 0001:00026a9b       $L57045                    00427a9b f   SerialData.obj
 0001:00026aa3       __ehhandler$?CovertStringToMap@SerialData@@AAE_NV?$basic_string@DU?$char_traits@D@std@@V?$allocator@D@2@@std@@AAV?$hashtable@Vword@svutil@@V12@@svutil@@@Z 00427aa3 f   SerialData.obj
 0001:00026ab0       $L57158                    00427ab0 f   SerialData.obj
 0001:00026abb       $L57159                    00427abb f   SerialData.obj
 0001:00026ac7       $L57161                    00427ac7 f   SerialData.obj
 0001:00026ad5       $L57165                    00427ad5 f   SerialData.obj
 0001:00026ae3       $L57166                    00427ae3 f   SerialData.obj
 0001:00026aee       __ehhandler$?Serial@SerialData@@AAEHPAU_iobuf@@AAV?$list@PAVMonitor@@V?$allocator@PAVMonitor@@@std@@@std@@PAVGroups@@PAVSubsequent@@AAV?$hashtable@Vword@svutil@@PAVTask@@@svutil@@_N@Z 00427aee f   SerialData.obj
 0001:00026b00       $L45715                    00427b00 f   StateCondition.obj
 0001:00026b0b       $L45716                    00427b0b f   StateCondition.obj
 0001:00026b16       __ehhandler$??1StateCondition@@QAE@XZ 00427b16 f   StateCondition.obj
 0001:00026b20       $L46030                    00427b20 f   StateCondition.obj
 0001:00026b2b       __ehhandler$??0StateCondition@@QAE@XZ 00427b2b f   StateCondition.obj
 0001:00026b40       $L42952                    00427b40 f   StateConditionItem.obj
 0001:00026b40       $L42969                    00427b40 f   StateConditionItem.obj
 0001:00026b4b       __ehhandler$??1StateConditionItem@@QAE@XZ 00427b4b f   StateConditionItem.obj
 0001:00026b4b       __ehhandler$??0StateConditionItem@@QAE@XZ 00427b4b f   StateConditionItem.obj
 0001:00026b60       $L20281                    00427b60 f   stlini.obj
 0001:00026b60       $L19388                    00427b60 f   stlini.obj
 0001:00026b60       $L20073                    00427b60 f   stlini.obj
 0001:00026b60       $L19456                    00427b60 f   stlini.obj
 0001:00026b60       $L26799                    00427b60 f   stlini.obj
 0001:00026b60       $L26763                    00427b60 f   stlini.obj
 0001:00026b60       $L26779                    00427b60 f   stlini.obj
 0001:00026b69       __ehhandler$??0?$pair@$$CBV?$basic_string@DU?$char_traits@D@std@@V?$allocator@D@2@@std@@V12@@std@@QAE@ABU01@@Z 00427b69 f   stlini.obj
 0001:00026b69       __ehhandler$??$?0V?$basic_string@DU?$char_traits@D@std@@V?$allocator@D@2@@std@@V?$map@V?$basic_string@DU?$char_traits@D@std@@V?$allocator@D@2@@std@@V12@UStlIniCompareStringNoCase@@V?$allocator@U?$pair@$$CBV?$basic_string@DU?$char_traits@D@std@@V?$allocator@D@2@@std@@V12@@std@@@2@@1@@?$pair@$$CBV?$basic_string@DU?$char_traits@D@std@@V?$allocator@D@2@@std@@V?$map@V?$basic_string@DU?$char_traits@D@std@@V?$allocator@D@2@@std@@V12@UStlIniCompareStringNoCase@@V?$allocator@U?$pair@$$CBV?$basic_string@DU?$char_traits@D@std@@V?$allocator@D@2@@std@@V12@@std@@@2@@2@@std@@QAE@ABU?$pair@V?$basic_string@DU?$char_traits@D@std@@V?$allocator@D@2@@std@@V?$map@V?$basic_string@DU?$char_traits@D@std@@V?$allocator@D@2@@std@@V12@UStlIniCompareStringNoCase@@V?$allocator@U?$pair@$$CBV?$basic_string@DU?$char_traits@D@std@@V?$allocator@D@2@@std@@V12@@std@@@2@@2@@1@@Z 00427b69 f   stlini.obj
 0001:00026b69       __ehhandler$??1?$pair@V?$basic_string@DU?$char_traits@D@std@@V?$allocator@D@2@@std@@V12@@std@@QAE@XZ 00427b69 f   stlini.obj
 0001:00026b69       __ehhandler$??$?0V?$basic_string@DU?$char_traits@D@std@@V?$allocator@D@2@@std@@V01@@?$pair@$$CBV?$basic_string@DU?$char_traits@D@std@@V?$allocator@D@2@@std@@V12@@std@@QAE@ABU?$pair@V?$basic_string@DU?$char_traits@D@std@@V?$allocator@D@2@@std@@V12@@1@@Z 00427b69 f   stlini.obj
 0001:00026b69       __ehhandler$??0?$pair@V?$basic_string@DU?$char_traits@D@std@@V?$allocator@D@2@@std@@V12@@std@@QAE@ABV?$basic_string@DU?$char_traits@D@std@@V?$allocator@D@2@@1@0@Z 00427b69 f   stlini.obj
 0001:00026b69       __ehhandler$??0?$pair@$$CBV?$basic_string@DU?$char_traits@D@std@@V?$allocator@D@2@@std@@V?$map@V?$basic_string@DU?$char_traits@D@std@@V?$allocator@D@2@@std@@V12@UStlIniCompareStringNoCase@@V?$allocator@U?$pair@$$CBV?$basic_string@DU?$char_traits@D@std@@V?$allocator@D@2@@std@@V12@@std@@@2@@2@@std@@QAE@ABU01@@Z 00427b69 f   stlini.obj
 0001:00026b69       __ehhandler$??0?$pair@V?$basic_string@DU?$char_traits@D@std@@V?$allocator@D@2@@std@@V?$map@V?$basic_string@DU?$char_traits@D@std@@V?$allocator@D@2@@std@@V12@UStlIniCompareStringNoCase@@V?$allocator@U?$pair@$$CBV?$basic_string@DU?$char_traits@D@std@@V?$allocator@D@2@@std@@V12@@std@@@2@@2@@std@@QAE@ABV?$basic_string@DU?$char_traits@D@std@@V?$allocator@D@2@@1@ABV?$map@V?$basic_string@DU?$char_traits@D@std@@V?$allocator@D@2@@std@@V12@UStlIniCompareStringNoCase@@V?$allocator@U?$pair@$$CBV?$basic_string@DU?$char_traits@D@std@@V?$allocator@D@2@@std@@V12@@std@@@2@@1@@Z 00427b69 f   stlini.obj
 0001:00026b80       $L22541                    00427b80 f   stlini.obj
 0001:00026b91       __ehhandler$?_Buynode@?$_Tree@V?$_Tmap_traits@V?$basic_string@DU?$char_traits@D@std@@V?$allocator@D@2@@std@@V12@UStlIniCompareStringNoCase@@V?$allocator@U?$pair@$$CBV?$basic_string@DU?$char_traits@D@std@@V?$allocator@D@2@@std@@V12@@std@@@2@$0A@@std@@@std@@IAEPAU_Node@?$_Tree_nod@V?$_Tmap_traits@V?$basic_string@DU?$char_traits@D@std@@V?$allocator@D@2@@std@@V12@UStlIniCompareStringNoCase@@V?$allocator@U?$pair@$$CBV?$basic_string@DU?$char_traits@D@std@@V?$allocator@D@2@@std@@V12@@std@@@2@$0A@@std@@@2@PAU342@00ABU?$pair@$$CBV?$basic_string@DU?$char_traits@D@std@@V?$allocator@D@2@@std@@V12@@2@D@Z 00427b91 f   stlini.obj
 0001:00026ba0       $L26869                    00427ba0 f   stlini.obj
 0001:00026ba0       $L22974                    00427ba0 f   stlini.obj
 0001:00026ba9       $L22994                    00427ba9 f   stlini.obj
 0001:00026ba9       $L26889                    00427ba9 f   stlini.obj
 0001:00026bb2       __ehhandler$?_Insert@?$_Tree@V?$_Tmap_traits@V?$basic_string@DU?$char_traits@D@std@@V?$allocator@D@2@@std@@V12@UStlIniCompareStringNoCase@@V?$allocator@U?$pair@$$CBV?$basic_string@DU?$char_traits@D@std@@V?$allocator@D@2@@std@@V12@@std@@@2@$0A@@std@@@std@@IAE?AViterator@12@_NPAU_Node@?$_Tree_nod@V?$_Tmap_traits@V?$basic_string@DU?$char_traits@D@std@@V?$allocator@D@2@@std@@V12@UStlIniCompareStringNoCase@@V?$allocator@U?$pair@$$CBV?$basic_string@DU?$char_traits@D@std@@V?$allocator@D@2@@std@@V12@@std@@@2@$0A@@std@@@2@ABU?$pair@$$CBV?$basic_string@DU?$char_traits@D@std@@V?$allocator@D@2@@std@@V12@@2@@Z 00427bb2 f   stlini.obj
 0001:00026bb2       __ehhandler$?_Insert@?$_Tree@V?$_Tmap_traits@V?$basic_string@DU?$char_traits@D@std@@V?$allocator@D@2@@std@@V?$map@V?$basic_string@DU?$char_traits@D@std@@V?$allocator@D@2@@std@@V12@UStlIniCompareStringNoCase@@V?$allocator@U?$pair@$$CBV?$basic_string@DU?$char_traits@D@std@@V?$allocator@D@2@@std@@V12@@std@@@2@@2@UStlIniCompareStringNoCase@@V?$allocator@U?$pair@$$CBV?$basic_string@DU?$char_traits@D@std@@V?$allocator@D@2@@std@@V?$map@V?$basic_string@DU?$char_traits@D@std@@V?$allocator@D@2@@std@@V12@UStlIniCompareStringNoCase@@V?$allocator@U?$pair@$$CBV?$basic_string@DU?$char_traits@D@std@@V?$allocator@D@2@@std@@V12@@std@@@2@@2@@std@@@2@$0A@@std@@@std@@IAE?AViterator@12@_NPAU_Node@?$_Tree_nod@V?$_Tmap_traits@V?$basic_string@DU?$char_traits@D@std@@V?$allocator@D@2@@std@@V?$map@V?$basic_string@DU?$char_traits@D@std@@V?$allocator@D@2@@std@@V12@UStlIniCompareStringNoCase@@V?$allocator@U?$pair@$$CBV?$basic_string@DU?$char_traits@D@std@@V?$allocator@D@2@@std@@V12@@std@@@2@@2@UStlIniCompareStringNoCase@@V?$allocator@U?$pair@$$CBV?$basic_string@DU?$char_traits@D@std@@V?$allocator@D@2@@std@@V?$map@V?$basic_string@DU?$char_traits@D@std@@V?$allocator@D@2@@std@@V12@UStlIniCompareStringNoCase@@V?$allocator@U?$pair@$$CBV?$basic_string@DU?$char_traits@D@std@@V?$allocator@D@2@@std@@V12@@std@@@2@@2@@std@@@2@$0A@@std@@@2@ABU?$pair@$$CBV?$basic_string@DU?$char_traits@D@std@@V?$allocator@D@2@@std@@V?$map@V?$basic_string@DU?$char_traits@D@std@@V?$allocator@D@2@@std@@V12@UStlIniCompareStringNoCase@@V?$allocator@U?$pair@$$CBV?$basic_string@DU?$char_traits@D@std@@V?$allocator@D@2@@std@@V12@@std@@@2@@2@@2@@Z 00427bb2 f   stlini.obj
 0001:00026bc0       $L23397                    00427bc0 f   stlini.obj
 0001:00026bc9       $L23400                    00427bc9 f   stlini.obj
 0001:00026be3       __ehhandler$?GetIniSetting@@YA?AV?$basic_string@DU?$char_traits@D@std@@V?$allocator@D@2@@std@@AAV?$map@V?$basic_string@DU?$char_traits@D@std@@V?$allocator@D@2@@std@@V?$map@V?$basic_string@DU?$char_traits@D@std@@V?$allocator@D@2@@std@@V12@UStlIniCompareStringNoCase@@V?$allocator@U?$pair@$$CBV?$basic_string@DU?$char_traits@D@std@@V?$allocator@D@2@@std@@V12@@std@@@2@@2@UStlIniCompareStringNoCase@@V?$allocator@U?$pair@$$CBV?$basic_string@DU?$char_traits@D@std@@V?$allocator@D@2@@std@@V?$map@V?$basic_string@DU?$char_traits@D@std@@V?$allocator@D@2@@std@@V12@UStlIniCompareStringNoCase@@V?$allocator@U?$pair@$$CBV?$basic_string@DU?$char_traits@D@std@@V?$allocator@D@2@@std@@V12@@std@@@2@@2@@std@@@2@@2@PBD11@Z 00427be3 f   stlini.obj
 0001:00026bf0       __ehhandler$?_Copy@?$_Tree@V?$_Tmap_traits@V?$basic_string@DU?$char_traits@D@std@@V?$allocator@D@2@@std@@V12@UStlIniCompareStringNoCase@@V?$allocator@U?$pair@$$CBV?$basic_string@DU?$char_traits@D@std@@V?$allocator@D@2@@std@@V12@@std@@@2@$0A@@std@@@std@@IAEPAU_Node@?$_Tree_nod@V?$_Tmap_traits@V?$basic_string@DU?$char_traits@D@std@@V?$allocator@D@2@@std@@V12@UStlIniCompareStringNoCase@@V?$allocator@U?$pair@$$CBV?$basic_string@DU?$char_traits@D@std@@V?$allocator@D@2@@std@@V12@@std@@@2@$0A@@std@@@2@PAU342@0@Z 00427bf0 f   stlini.obj
 0001:00026c00       __ehhandler$??0?$_Tree@V?$_Tmap_traits@V?$basic_string@DU?$char_traits@D@std@@V?$allocator@D@2@@std@@V12@UStlIniCompareStringNoCase@@V?$allocator@U?$pair@$$CBV?$basic_string@DU?$char_traits@D@std@@V?$allocator@D@2@@std@@V12@@std@@@2@$0A@@std@@@std@@QAE@ABV01@@Z 00427c00 f   stlini.obj
 0001:00026c10       $L26252                    00427c10 f   stlini.obj
 0001:00026c19       __ehhandler$??1?$pair@V?$basic_string@DU?$char_traits@D@std@@V?$allocator@D@2@@std@@V?$map@V?$basic_string@DU?$char_traits@D@std@@V?$allocator@D@2@@std@@V12@UStlIniCompareStringNoCase@@V?$allocator@U?$pair@$$CBV?$basic_string@DU?$char_traits@D@std@@V?$allocator@D@2@@std@@V12@@std@@@2@@2@@std@@QAE@XZ 00427c19 f   stlini.obj
 0001:00026c30       $L26829                    00427c30 f   stlini.obj
 0001:00026c41       __ehhandler$?_Buynode@?$_Tree@V?$_Tmap_traits@V?$basic_string@DU?$char_traits@D@std@@V?$allocator@D@2@@std@@V?$map@V?$basic_string@DU?$char_traits@D@std@@V?$allocator@D@2@@std@@V12@UStlIniCompareStringNoCase@@V?$allocator@U?$pair@$$CBV?$basic_string@DU?$char_traits@D@std@@V?$allocator@D@2@@std@@V12@@std@@@2@@2@UStlIniCompareStringNoCase@@V?$allocator@U?$pair@$$CBV?$basic_string@DU?$char_traits@D@std@@V?$allocator@D@2@@std@@V?$map@V?$basic_string@DU?$char_traits@D@std@@V?$allocator@D@2@@std@@V12@UStlIniCompareStringNoCase@@V?$allocator@U?$pair@$$CBV?$basic_string@DU?$char_traits@D@std@@V?$allocator@D@2@@std@@V12@@std@@@2@@2@@std@@@2@$0A@@std@@@std@@IAEPAU_Node@?$_Tree_nod@V?$_Tmap_traits@V?$basic_string@DU?$char_traits@D@std@@V?$allocator@D@2@@std@@V?$map@V?$basic_string@DU?$char_traits@D@std@@V?$allocator@D@2@@std@@V12@UStlIniCompareStringNoCase@@V?$allocator@U?$pair@$$CBV?$basic_string@DU?$char_traits@D@std@@V?$allocator@D@2@@std@@V12@@std@@@2@@2@UStlIniCompareStringNoCase@@V?$allocator@U?$pair@$$CBV?$basic_string@DU?$char_traits@D@std@@V?$allocator@D@2@@std@@V?$map@V?$basic_string@DU?$char_traits@D@std@@V?$allocator@D@2@@std@@V12@UStlIniCompareStringNoCase@@V?$allocator@U?$pair@$$CBV?$basic_string@DU?$char_traits@D@std@@V?$allocator@D@2@@std@@V12@@std@@@2@@2@@std@@@2@$0A@@std@@@2@PAU342@00ABU?$pair@$$CBV?$basic_string@DU?$char_traits@D@std@@V?$allocator@D@2@@std@@V?$map@V?$basic_string@DU?$char_traits@D@std@@V?$allocator@D@2@@std@@V12@UStlIniCompareStringNoCase@@V?$allocator@U?$pair@$$CBV?$basic_string@DU?$char_traits@D@std@@V?$allocator@D@2@@std@@V12@@std@@@2@@2@@2@D@Z 00427c41 f   stlini.obj
 0001:00026c50       $L27820                    00427c50 f   stlini.obj
 0001:00026c5b       $L27821                    00427c5b f   stlini.obj
 0001:00026c67       $L27822                    00427c67 f   stlini.obj
 0001:00026c73       $L27823                    00427c73 f   stlini.obj
 0001:00026c7e       $L27824                    00427c7e f   stlini.obj
 0001:00026c89       $L27825                    00427c89 f   stlini.obj
 0001:00026c95       $L27826                    00427c95 f   stlini.obj
 0001:00026ca0       $L27827                    00427ca0 f   stlini.obj
 0001:00026cab       $L27829                    00427cab f   stlini.obj
 0001:00026cb4       $L27830                    00427cb4 f   stlini.obj
 0001:00026cbd       $L27831                    00427cbd f   stlini.obj
 0001:00026cc5       $L27832                    00427cc5 f   stlini.obj
 0001:00026cd0       __ehhandler$?PutIniSetting@@YAXAAV?$map@V?$basic_string@DU?$char_traits@D@std@@V?$allocator@D@2@@std@@V?$map@V?$basic_string@DU?$char_traits@D@std@@V?$allocator@D@2@@std@@V12@UStlIniCompareStringNoCase@@V?$allocator@U?$pair@$$CBV?$basic_string@DU?$char_traits@D@std@@V?$allocator@D@2@@std@@V12@@std@@@2@@2@UStlIniCompareStringNoCase@@V?$allocator@U?$pair@$$CBV?$basic_string@DU?$char_traits@D@std@@V?$allocator@D@2@@std@@V?$map@V?$basic_string@DU?$char_traits@D@std@@V?$allocator@D@2@@std@@V12@UStlIniCompareStringNoCase@@V?$allocator@U?$pair@$$CBV?$basic_string@DU?$char_traits@D@std@@V?$allocator@D@2@@std@@V12@@std@@@2@@2@@std@@@2@@std@@PBD11@Z 00427cd0 f   stlini.obj
 0001:00026ce0       __ehhandler$?_Copy@?$_Tree@V?$_Tmap_traits@V?$basic_string@DU?$char_traits@D@std@@V?$allocator@D@2@@std@@V?$map@V?$basic_string@DU?$char_traits@D@std@@V?$allocator@D@2@@std@@V12@UStlIniCompareStringNoCase@@V?$allocator@U?$pair@$$CBV?$basic_string@DU?$char_traits@D@std@@V?$allocator@D@2@@std@@V12@@std@@@2@@2@UStlIniCompareStringNoCase@@V?$allocator@U?$pair@$$CBV?$basic_string@DU?$char_traits@D@std@@V?$allocator@D@2@@std@@V?$map@V?$basic_string@DU?$char_traits@D@std@@V?$allocator@D@2@@std@@V12@UStlIniCompareStringNoCase@@V?$allocator@U?$pair@$$CBV?$basic_string@DU?$char_traits@D@std@@V?$allocator@D@2@@std@@V12@@std@@@2@@2@@std@@@2@$0A@@std@@@std@@IAEPAU_Node@?$_Tree_nod@V?$_Tmap_traits@V?$basic_string@DU?$char_traits@D@std@@V?$allocator@D@2@@std@@V?$map@V?$basic_string@DU?$char_traits@D@std@@V?$allocator@D@2@@std@@V12@UStlIniCompareStringNoCase@@V?$allocator@U?$pair@$$CBV?$basic_string@DU?$char_traits@D@std@@V?$allocator@D@2@@std@@V12@@std@@@2@@2@UStlIniCompareStringNoCase@@V?$allocator@U?$pair@$$CBV?$basic_string@DU?$char_traits@D@std@@V?$allocator@D@2@@std@@V?$map@V?$basic_string@DU?$char_traits@D@std@@V?$allocator@D@2@@std@@V12@UStlIniCompareStringNoCase@@V?$allocator@U?$pair@$$CBV?$basic_string@DU?$char_traits@D@std@@V?$allocator@D@2@@std@@V12@@std@@@2@@2@@std@@@2@$0A@@std@@@2@PAU342@0@Z 00427ce0 f   stlini.obj
 0001:00026cf0       __ehhandler$??0?$_Tree@V?$_Tmap_traits@V?$basic_string@DU?$char_traits@D@std@@V?$allocator@D@2@@std@@V?$map@V?$basic_string@DU?$char_traits@D@std@@V?$allocator@D@2@@std@@V12@UStlIniCompareStringNoCase@@V?$allocator@U?$pair@$$CBV?$basic_string@DU?$char_traits@D@std@@V?$allocator@D@2@@std@@V12@@std@@@2@@2@UStlIniCompareStringNoCase@@V?$allocator@U?$pair@$$CBV?$basic_string@DU?$char_traits@D@std@@V?$allocator@D@2@@std@@V?$map@V?$basic_string@DU?$char_traits@D@std@@V?$allocator@D@2@@std@@V12@UStlIniCompareStringNoCase@@V?$allocator@U?$pair@$$CBV?$basic_string@DU?$char_traits@D@std@@V?$allocator@D@2@@std@@V12@@std@@@2@@2@@std@@@2@$0A@@std@@@std@@QAE@ABV01@@Z 00427cf0 f   stlini.obj
 0001:00026d00       $L29620                    00427d00 f   stlini.obj
 0001:00026d0b       $L29621                    00427d0b f   stlini.obj
 0001:00026d17       $L29622                    00427d17 f   stlini.obj
 0001:00026d23       $L29623                    00427d23 f   stlini.obj
 0001:00026d42       __ehhandler$?LoadIni@@YA?AV?$map@V?$basic_string@DU?$char_traits@D@std@@V?$allocator@D@2@@std@@V?$map@V?$basic_string@DU?$char_traits@D@std@@V?$allocator@D@2@@std@@V12@UStlIniCompareStringNoCase@@V?$allocator@U?$pair@$$CBV?$basic_string@DU?$char_traits@D@std@@V?$allocator@D@2@@std@@V12@@std@@@2@@2@UStlIniCompareStringNoCase@@V?$allocator@U?$pair@$$CBV?$basic_string@DU?$char_traits@D@std@@V?$allocator@D@2@@std@@V?$map@V?$basic_string@DU?$char_traits@D@std@@V?$allocator@D@2@@std@@V12@UStlIniCompareStringNoCase@@V?$allocator@U?$pair@$$CBV?$basic_string@DU?$char_traits@D@std@@V?$allocator@D@2@@std@@V12@@std@@@2@@2@@std@@@2@@std@@PBD@Z 00427d42 f   stlini.obj
 0001:00026d50       $L50368                    00427d50 f   Subsequent.obj
 0001:00026d58       __ehhandler$?GetValueByMonitor@Subsequent@@QAEHPAVMonitor@@AAH1@Z 00427d58 f   Subsequent.obj
 0001:00026d70       $L50764                    00427d70 f   Subsequent.obj
 0001:00026d7b       __ehhandler$??1Subsequent@@UAE@XZ 00427d7b f   Subsequent.obj
 0001:00026d90       $L51531                    00427d90 f   Subsequent.obj
 0001:00026d9b       $L51532                    00427d9b f   Subsequent.obj
 0001:00026da9       $L51533                    00427da9 f   Subsequent.obj
 0001:00026db4       $L51534                    00427db4 f   Subsequent.obj
 0001:00026dbf       $L51535                    00427dbf f   Subsequent.obj
 0001:00026dca       __ehhandler$?FromTextMap@Subsequent@@QAE_NAAV?$hashtable@Vword@svutil@@V12@@svutil@@@Z 00427dca f   Subsequent.obj
 0001:00026de0       $L52054                    00427de0 f   Subsequent.obj
 0001:00026deb       $L52055                    00427deb f   Subsequent.obj
 0001:00026df6       $L52056                    00427df6 f   Subsequent.obj
 0001:00026e01       $L52057                    00427e01 f   Subsequent.obj
 0001:00026e0c       __ehhandler$?ToTextMap@Subsequent@@QAE_NAAV?$hashtable@Vword@svutil@@V12@@svutil@@@Z 00427e0c f   Subsequent.obj
 0001:00026e20       $L42973                    00427e20 f   SubsequentItem.obj
 0001:00026e20       $L42990                    00427e20 f   SubsequentItem.obj
 0001:00026e28       __ehhandler$??0SubsequentItem@@QAE@XZ 00427e28 f   SubsequentItem.obj
 0001:00026e28       __ehhandler$??1SubsequentItem@@QAE@XZ 00427e28 f   SubsequentItem.obj
 0001:00026e40       $L49638                    00427e40 f   Task.obj
 0001:00026e40       $L49674                    00427e40 f   Task.obj
 0001:00026e56       __ehhandler$??1Task@@QAE@XZ 00427e56 f   Task.obj
 0001:00026e56       __ehhandler$??0Task@@QAE@XZ 00427e56 f   Task.obj
 0001:00026e60       $L49697                    00427e60 f   Task.obj
 0001:00026e6b       $L49698                    00427e6b f   Task.obj
 0001:00026e76       $L49699                    00427e76 f   Task.obj
 0001:00026e81       $L49700                    00427e81 f   Task.obj
 0001:00026e8c       $L49701                    00427e8c f   Task.obj
 0001:00026e97       $L49702                    00427e97 f   Task.obj
 0001:00026ea2       $L49703                    00427ea2 f   Task.obj
 0001:00026ead       $L49704                    00427ead f   Task.obj
 0001:00026eb8       $L49705                    00427eb8 f   Task.obj
 0001:00026ec3       __ehhandler$?ToTextMap@Task@@QAE_NAAV?$hashtable@Vword@svutil@@V12@@svutil@@@Z 00427ec3 f   Task.obj
 0001:00026ed0       $L50004                    00427ed0 f   Task.obj
 0001:00026edb       $L50005                    00427edb f   Task.obj
 0001:00026ee6       $L50006                    00427ee6 f   Task.obj
 0001:00026ef1       $L50007                    00427ef1 f   Task.obj
 0001:00026efc       $L50008                    00427efc f   Task.obj
 0001:00026f07       $L50009                    00427f07 f   Task.obj
 0001:00026f12       $L50010                    00427f12 f   Task.obj
 0001:00026f1d       $L50011                    00427f1d f   Task.obj
 0001:00026f28       __ehhandler$?FromTextMap@Task@@QAE_NAAV?$hashtable@Vword@svutil@@V12@@svutil@@@Z 00427f28 f   Task.obj
 0001:00026f40       $L53096                    00427f40 f   ThreadContrl.obj
 0001:00026f40       $L53010                    00427f40 f   ThreadContrl.obj
 0001:00026f49       $L53011                    00427f49 f   ThreadContrl.obj
 0001:00026f49       $L53097                    00427f49 f   ThreadContrl.obj
 0001:00026f51       __ehhandler$?CheckSubsequent@ThreadContrl@@IAE_NPAVMonitor@@AA_N1@Z 00427f51 f   ThreadContrl.obj
 0001:00026f51       __ehhandler$?CheckSubsequent@ThreadContrl@@IAEHPAVMonitor@@@Z 00427f51 f   ThreadContrl.obj
 0001:00026f60       $L53228                    00427f60 f   ThreadContrl.obj
 0001:00026f68       __ehhandler$?AdjustRetByMonitor@ThreadContrl@@QAEXPAVMonitor@@H@Z 00427f68 f   ThreadContrl.obj
 0001:00026f80       $L55441                    00427f80 f   ThreadContrl.obj
 0001:00026f89       $L55461                    00427f89 f   ThreadContrl.obj
 0001:00026f92       __ehhandler$?_Incsize@?$list@PAVThreadEx@@V?$allocator@PAVThreadEx@@@std@@@std@@IAEXI@Z 00427f92 f   ThreadContrl.obj
 0001:00026fa0       $L56206                    00427fa0 f   ThreadContrl.obj
 0001:00026fa0       $L56106                    00427fa0 f   ThreadContrl.obj
 0001:00026fa8       $L56107                    00427fa8 f   ThreadContrl.obj
 0001:00026fa8       $L56207                    00427fa8 f   ThreadContrl.obj
 0001:00026fb4       $L56108                    00427fb4 f   ThreadContrl.obj
 0001:00026fb4       $L56208                    00427fb4 f   ThreadContrl.obj
 0001:00026fc2       __ehhandler$??0ThreadContrl@@QAE@XZ 00427fc2 f   ThreadContrl.obj
 0001:00026fc2       __ehhandler$??1ThreadContrl@@UAE@XZ 00427fc2 f   ThreadContrl.obj
 0001:00026fd0       $L56262                    00427fd0 f   ThreadContrl.obj
 0001:00026fd8       $L56263                    00427fd8 f   ThreadContrl.obj
 0001:00026fe3       __ehhandler$?AddNewThreads@ThreadContrl@@AAEHH@Z 00427fe3 f   ThreadContrl.obj
 0001:00026ff0       $L56626                    00427ff0 f   ThreadContrl.obj
 0001:00026ff0       $L56368                    00427ff0 f   ThreadContrl.obj
 0001:00026ff9       __ehhandler$?AddToIdleThread@ThreadContrl@@QAEXPAVThreadEx@@@Z 00427ff9 f   ThreadContrl.obj
 0001:00026ff9       __ehhandler$?GetIdleThread@ThreadContrl@@AAEPAVThreadEx@@XZ 00427ff9 f   ThreadContrl.obj
 0001:00027010       $L57207                    00428010 f   ThreadContrl.obj
 0001:00027018       __ehhandler$?AddTask@ThreadContrl@@QAEHPAVMonitor@@@Z 00428018 f   ThreadContrl.obj
 0001:00027030       $L57262                    00428030 f   ThreadContrl.obj
 0001:00027038       $L57263                    00428038 f   ThreadContrl.obj
 0001:00027040       __ehhandler$?ProcessSingleTaskEx@ThreadContrl@@IAEHPAVMonitor@@@Z 00428040 f   ThreadContrl.obj
 0001:00027050       $L57461                    00428050 f   ThreadContrl.obj
 0001:00027058       $L57463                    00428058 f   ThreadContrl.obj
 0001:00027060       __ehhandler$?run@ThreadContrl@@UAEXXZ 00428060 f   ThreadContrl.obj
 0001:00027070       $L49449                    00428070 f   Util.obj
 0001:00027081       __ehhandler$?_Buynode@?$list@VSingelRecord@@V?$allocator@VSingelRecord@@@std@@@std@@IAEPAU_Node@?$_List_nod@VSingelRecord@@V?$allocator@VSingelRecord@@@std@@@2@PAU342@0ABVSingelRecord@@@Z 00428081 f   Util.obj
 0001:00027090       $L49489                    00428090 f   Util.obj
 0001:00027099       $L49509                    00428099 f   Util.obj
 0001:000270a2       __ehhandler$?_Incsize@?$list@VSingelRecord@@V?$allocator@VSingelRecord@@@std@@@std@@IAEXI@Z 004280a2 f   Util.obj
 0001:000270b0       $L50452                    004280b0 f   Util.obj
 0001:000270b9       $L50453                    004280b9 f   Util.obj
 0001:000270c1       __ehhandler$?CacheRecords@Util@@CA_NV?$basic_string@DU?$char_traits@D@std@@V?$allocator@D@2@@std@@PBDH@Z 004280c1 f   Util.obj
 0001:000270d0       $L50557                    004280d0 f   Util.obj
 0001:000270d9       $L50558                    004280d9 f   Util.obj
 0001:000270e2       $L50559                    004280e2 f   Util.obj
 0001:000270eb       $L50561                    004280eb f   Util.obj
 0001:000270f4       $L50562                    004280f4 f   Util.obj
 0001:000270fd       __ehhandler$?InsertSvdb@Util@@SA_NV?$basic_string@DU?$char_traits@D@std@@V?$allocator@D@2@@std@@PBDH0@Z 004280fd f   Util.obj
 0001:00027110       $L50625                    00428110 f   Util.obj
 0001:00027119       $L50626                    00428119 f   Util.obj
 0001:00027122       $L50628                    00428122 f   Util.obj
 0001:0002712b       $L50629                    0042812b f   Util.obj
 0001:00027134       __ehhandler$?InsertSvdb@Util@@SA_NV?$basic_string@DU?$char_traits@D@std@@V?$allocator@D@2@@std@@PBDH@Z 00428134 f   Util.obj
 0001:00027140       $L51994                    00428140 f   Util.obj
 0001:00027149       $L51995                    00428149 f   Util.obj
 0001:00027152       __ehhandler$?AppendThenClearAllRecords@Util@@SAHAAV?$list@VSingelRecord@@V?$allocator@VSingelRecord@@@std@@@std@@@Z 00428152 f   Util.obj
 0001:00027160       $L53964                    00428160 f   Util.obj
 0001:00027169       __ehhandler$?GetRootPath@Util@@SA?AVTString@@XZ 00428169 f   Util.obj
 0001:00027180       $L54111                    00428180 f   Util.obj
 0001:00027188       $L54112                    00428188 f   Util.obj
 0001:00027194       $L54113                    00428194 f   Util.obj
 0001:0002719c       $L54114                    0042819c f   Util.obj
 0001:000271a7       $L54115                    004281a7 f   Util.obj
 0001:000271b0       $L54116                    004281b0 f   Util.obj
 0001:000271b8       $L54117                    004281b8 f   Util.obj
 0001:000271c4       __ehhandler$?ErrorLog@Util@@SAXVTString@@@Z 004281c4 f   Util.obj
 0001:000271d0       $L54180                    004281d0 f   Util.obj
 0001:000271d9       $L54181                    004281d9 f   Util.obj
 0001:000271e2       $L54182                    004281e2 f   Util.obj
 0001:000271ee       $L54183                    004281ee f   Util.obj
 0001:000271f9       $L54184                    004281f9 f   Util.obj
 0001:00027204       $L54185                    00428204 f   Util.obj
 0001:0002720f       $L54186                    0042820f f   Util.obj
 0001:0002721b       $L54187                    0042821b f   Util.obj
 0001:00027227       $L54188                    00428227 f   Util.obj
 0001:00027233       $L54189                    00428233 f   Util.obj
 0001:0002723f       $L54190                    0042823f f   Util.obj
 0001:0002724b       __ehhandler$?SendMsgToWsServer@Util@@SA_NV?$basic_string@DU?$char_traits@D@std@@V?$allocator@D@2@@std@@0@Z 0042824b f   Util.obj
 0001:00027260       $L54380                    00428260 f   Util.obj
 0001:0002726b       $L54381                    0042826b f   Util.obj
 0001:00027276       $L54382                    00428276 f   Util.obj
 0001:00027282       $L54383                    00428282 f   Util.obj
 0001:000272a1       __ehhandler$?GetSVMQAddress@Util@@SA?AVTString@@XZ 004282a1 f   Util.obj
 0001:000272b0       $L54742                    004282b0 f   Util.obj
 0001:000272b8       __ehhandler$??0Util@@QAE@XZ 004282b8 f   Util.obj
 0001:000272d0       _$E1                       004282d0 f   MonitorSchedule.obj
 0001:000272f0       _$E4                       004282f0 f   MonitorSchedule.obj
 0001:00027310       _$E7                       00428310 f   MonitorSchedule.obj
 0001:00027330       _$E10                      00428330 f   MonitorSchedule.obj
 0001:00027350       _$E13                      00428350 f   MonitorSchedule.obj
 0001:00027370       _$E16                      00428370 f   MonitorSchedule.obj
 0001:00027380       _$E1                       00428380 f   readSVDB.obj
 0001:000273a0       _$E4                       004283a0 f   readSVDB.obj
 0001:000273c0       _$E7                       004283c0 f   readSVDB.obj
 0001:000273e0       _$E10                      004283e0 f   readSVDB.obj
 0001:00027400       _$E1                       00428400 f   ScheduleThread.obj
 0001:00027420       _$E4                       00428420 f   ScheduleThread.obj
 0001:00027440       _$E7                       00428440 f   ScheduleThread.obj
 0001:00027460       _$E10                      00428460 f   ScheduleThread.obj
 0001:00027480       _$E1                       00428480 f   Util.obj
 0001:000274a0       _$E4                       004284a0 f   Util.obj
 0001:000274c0       _$E7                       004284c0 f   Util.obj
 0001:000274e0       _$E10                      004284e0 f   Util.obj
 0001:00027500       _$E13                      00428500 f   Util.obj
 0001:00027520       _$E16                      00428520 f   Util.obj
 0001:00027540       _$E19                      00428540 f   Util.obj
 0001:00027570       _$E2                       00428570 f   MonitorSchedule.obj
 0001:00027580       _$E5                       00428580 f   MonitorSchedule.obj
 0001:00027590       _$E8                       00428590 f   MonitorSchedule.obj
 0001:000275a0       _$E11                      004285a0 f   MonitorSchedule.obj
 0001:000275b0       _$E14                      004285b0 f   MonitorSchedule.obj
 0001:000275c0       _$E17                      004285c0 f   MonitorSchedule.obj
 0001:000275d0       _$E2                       004285d0 f   readSVDB.obj
 0001:000275e0       _$E8                       004285e0 f   readSVDB.obj
 0001:000275f0       _$E11                      004285f0 f   readSVDB.obj
 0001:00027600       _$E5                       00428600 f   readSVDB.obj
 0001:00027610       _$E2                       00428610 f   ScheduleThread.obj
 0001:00027620       _$E5                       00428620 f   ScheduleThread.obj
 0001:00027630       _$E8                       00428630 f   ScheduleThread.obj
 0001:00027640       _$E11                      00428640 f   ScheduleThread.obj
 0001:00027650       _$E2                       00428650 f   Util.obj
 0001:00027660       _$E5                       00428660 f   Util.obj
 0001:00027670       _$E8                       00428670 f   Util.obj
 0001:00027680       _$E11                      00428680 f   Util.obj
 0001:00027690       _$E17                      00428690 f   Util.obj
 0001:000276a0       _$E14                      004286a0 f   Util.obj
 0001:000276b0       _$E20                      004286b0 f   Util.obj
