 MonitorSchedule

 Timestamp is 5018c91c (Wed Aug 01 14:13:48 2012)

 Preferred load address is 00400000

 Start         Length     Name                   Class
 0001:00000000 00023cfeH .text                   CODE
 0001:00023d00 00002ea2H .text$x                 CODE
 0001:00026bb0 0000029cH .text$yc                CODE
 0001:00026e50 00000163H .text$yd                CODE
 0002:00000000 000003e8H .idata$5                DATA
 0002:000003f0 00003948H .rdata                  DATA
 0002:00003d38 0000007aH .rdata$debug            DATA
 0002:00003db4 00000044H .rdata$r                DATA
 0002:00003e00 000002fcH .rdata$sxdata           DATA
 0002:000040fc 00000004H .rtc$IAA                DATA
 0002:00004100 00000004H .rtc$IZZ                DATA
 0002:00004104 00000004H .rtc$TAA                DATA
 0002:00004108 00000004H .rtc$TZZ                DATA
 0002:0000410c 000037acH .xdata$x                DATA
 0002:000078b8 0000008cH .idata$2                DATA
 0002:00007944 00000014H .idata$3                DATA
 0002:00007958 000003e8H .idata$4                DATA
 0002:00007d40 00002b08H .idata$6                DATA
 0002:0000a848 00000000H .edata                  DATA
 0003:00000000 00000004H .CRT$XCA                DATA
 0003:00000004 00000004H .CRT$XCAA               DATA
 0003:00000008 00000054H .CRT$XCU                DATA
 0003:0000005c 00000004H .CRT$XCZ                DATA
 0003:00000060 00000004H .CRT$XIA                DATA
 0003:00000064 00000004H .CRT$XIZ                DATA
 0003:00000070 00000224H .data                   DATA
 0003:00000298 000002c4H .bss                    DATA

  Address         Publics by Value              Rva+Base     Lib:Object

 0000:00000000       __except_list              00000000     <absolute>
 0000:000000bf       ___safe_se_handler_count   000000bf     <absolute>
 0000:00009876       __ldused                   00009876     <absolute>
 0000:00009876       __fltused                  00009876     <absolute>
 0001:00000000       ??0CAppendMassRecord@@QAE@XZ 00401000 f   appendmassrecord.obj
 0001:00000020       ??$use_facet@V?$ctype@D@std@@@std@@YAABV?$ctype@D@0@ABVlocale@0@@Z 00401020 f i appendmassrecord.obj
 0001:00000120       ??$?HDU?$char_traits@D@std@@V?$allocator@D@1@@std@@YA?AV?$basic_string@DU?$char_traits@D@std@@V?$allocator@D@2@@0@ABV10@0@Z 00401120 f i appendmassrecord.obj
 0001:000001a0       ??$?HDU?$char_traits@D@std@@V?$allocator@D@1@@std@@YA?AV?$basic_string@DU?$char_traits@D@std@@V?$allocator@D@2@@0@PBDABV10@@Z 004011a0 f i appendmassrecord.obj
 0001:00000220       ??$?HDU?$char_traits@D@std@@V?$allocator@D@1@@std@@YA?AV?$basic_string@DU?$char_traits@D@std@@V?$allocator@D@2@@0@ABV10@PBD@Z 00401220 f i appendmassrecord.obj
 0001:000002a0       ??1_Sentry_base@?$basic_istream@DU?$char_traits@D@std@@@std@@QAE@XZ 004012a0 f i appendmassrecord.obj
 0001:000002a0       ??1sentry@?$basic_istream@DU?$char_traits@D@std@@@std@@QAE@XZ 004012a0 f i appendmassrecord.obj
 0001:000002a0       ??1_Sentry_base@?$basic_ostream@DU?$char_traits@D@std@@@std@@QAE@XZ 004012a0 f i appendmassrecord.obj
 0001:000002c0       ??0sentry@?$basic_istream@DU?$char_traits@D@std@@@std@@QAE@AAV12@_N@Z 004012c0 f i appendmassrecord.obj
 0001:00000330       ??0sentry@?$basic_ostream@DU?$char_traits@D@std@@@std@@QAE@AAV12@@Z 00401330 f i appendmassrecord.obj
 0001:000003c0       ??1sentry@?$basic_ostream@DU?$char_traits@D@std@@@std@@QAE@XZ 004013c0 f i appendmassrecord.obj
 0001:00000430       ??$?5DU?$char_traits@D@std@@V?$allocator@D@1@@std@@YAAAV?$basic_istream@DU?$char_traits@D@std@@@0@AAV10@AAV?$basic_string@DU?$char_traits@D@std@@V?$allocator@D@2@@0@@Z 00401430 f i appendmassrecord.obj
 0001:000005e0       ??$?6DU?$char_traits@D@std@@V?$allocator@D@1@@std@@YAAAV?$basic_ostream@DU?$char_traits@D@std@@@0@AAV10@ABV?$basic_string@DU?$char_traits@D@std@@V?$allocator@D@2@@0@@Z 004015e0 f i appendmassrecord.obj
 0001:000007e0       ?_Buynode@?$list@VSingelRecord@@V?$allocator@VSingelRecord@@@std@@@std@@IAEPAU_Node@?$_List_nod@VSingelRecord@@V?$allocator@VSingelRecord@@@std@@@2@XZ 004017e0 f i appendmassrecord.obj
 0001:00000800       ??1CAppendMassRecord@@UAE@XZ 00401800 f   appendmassrecord.obj
 0001:00000890       ?run@CAppendMassRecord@@UAEXXZ 00401890 f   appendmassrecord.obj
 0001:00000a30       ??_ECAppendMassRecord@@UAEPAXI@Z 00401a30 f i appendmassrecord.obj
 0001:00000a30       ??_GCAppendMassRecord@@UAEPAXI@Z 00401a30 f i appendmassrecord.obj
 0001:00000a50       ??0Des@@QAE@XZ             00401a50 f   Des.obj
 0001:00000a60       ??1Des@@UAE@XZ             00401a60 f   Des.obj
 0001:00000a70       ?bitsel@Des@@AAEIPAIPBHH@Z 00401a70 f   Des.obj
 0001:00000ad0       ?des_decipher@Des@@AAEXPAIIIPAUDESContext@@@Z 00401ad0 f   Des.obj
 0001:00001450       ??_EDes@@UAEPAXI@Z         00402450 f i Des.obj
 0001:00001450       ??_GDes@@UAEPAXI@Z         00402450 f i Des.obj
 0001:00001470       ?des_key_setup@Des@@AAEXIIPAUDESContext@@@Z 00402470 f   Des.obj
 0001:000015f0       ?des_cbc_decrypt@Des@@AAEXPAEPBEIPAUDESContext@@@Z 004025f0 f   Des.obj
 0001:00001720       ?Decrypt@Des@@QAE_NPBDPAD@Z 00402720 f   Des.obj
 0001:00001940       ??0Entity@@QAE@XZ          00402940 f   Entity.obj
 0001:00001980       ??1Entity@@QAE@XZ          00402980 f   Entity.obj
 0001:000019a0       ?InitActiveMonitorsArray@Entity@@QAEHH@Z 004029a0 f   Entity.obj
 0001:000019f0       ?SetMonitorTypeCount@Entity@@QAEXH@Z 004029f0 f   Entity.obj
 0001:00001a00       ?AdjustActiveMonitorRef@Entity@@QAEXHH@Z 00402a00 f   Entity.obj
 0001:00001a60       ??1MakeRecord@@QAE@XZ      00402a60 f i MakeRecord.obj
 0001:00001a60       ??3@YAXPAX0@Z              00402a60 f i Groups.obj
 0001:00001a60       ?ReleaseAll@LoadConfig@@QAEXXZ 00402a60 f i LoadConfig.obj
 0001:00001a70       ??1logic_error@std@@UAE@XZ 00402a70 f i Groups.obj
 0001:00001ad0       ?what@logic_error@std@@UBEPBDXZ 00402ad0 f i Groups.obj
 0001:00001ae0       ??_Elogic_error@std@@UAEPAXI@Z 00402ae0 f i Groups.obj
 0001:00001ae0       ??_Glogic_error@std@@UAEPAXI@Z 00402ae0 f i Groups.obj
 0001:00001b00       ??_Glength_error@std@@UAEPAXI@Z 00402b00 f i Groups.obj
 0001:00001b00       ??_Elength_error@std@@UAEPAXI@Z 00402b00 f i Groups.obj
 0001:00001b20       ??1length_error@std@@UAE@XZ 00402b20 f i Groups.obj
 0001:00001b30       ??0MSException@@QAE@PBD0@Z 00402b30 f i Groups.obj
 0001:00001bf0       ??_EMSException@@UAEPAXI@Z 00402bf0 f i Groups.obj
 0001:00001bf0       ??_GMSException@@UAEPAXI@Z 00402bf0 f i Groups.obj
 0001:00001c10       ??0exception@svutil@@QAE@PBD0@Z 00402c10 f i Groups.obj
 0001:00001cd0       ?GetErrorType@exception@svutil@@UBEPBDXZ 00402cd0 f i Groups.obj
 0001:00001cd0       ?GetErrorType@MSException@@UBEPBDXZ 00402cd0 f i Groups.obj
 0001:00001ce0       ?GetDescription@exception@svutil@@UBEPBDXZ 00402ce0 f i Groups.obj
 0001:00001ce0       ?GetDescription@MSException@@UBEPBDXZ 00402ce0 f i Groups.obj
 0001:00001cf0       ??_Gexception@svutil@@UAEPAXI@Z 00402cf0 f i Groups.obj
 0001:00001cf0       ??_Eexception@svutil@@UAEPAXI@Z 00402cf0 f i Groups.obj
 0001:00001d10       ??_Gword@svutil@@UAEPAXI@Z 00402d10 f i Groups.obj
 0001:00001d10       ??_Eword@svutil@@UAEPAXI@Z 00402d10 f i Groups.obj
 0001:00001d40       ?SetEntityID@Entity@@QAEXPBD@Z 00402d40 f i Groups.obj
 0001:00001db0       ??1MSException@@UAE@XZ     00402db0 f i Groups.obj
 0001:00001dc0       ?SetSystemType@Entity@@QAEXPBD@Z 00402dc0 f i Groups.obj
 0001:00001e30       ?SetDepend@Entity@@QAEXPBD@Z 00402e30 f i Groups.obj
 0001:00001ea0       ?SetIPAdress@Entity@@QAEXPBD@Z 00402ea0 f i Groups.obj
 0001:00001f10       ??0MSException@@QAE@ABV0@@Z 00402f10 f i Groups.obj
 0001:00001f60       ?SetGroupID@GroupsItem@@QAEXPBD@Z 00402f60 f i Groups.obj
 0001:00001fd0       ?SetParentID@GroupsItem@@QAEXPBD@Z 00402fd0 f i Groups.obj
 0001:00002040       ?SetDepedSon@GroupsItem@@QAEXPBD@Z 00403040 f i Groups.obj
 0001:000020b0       ??0?$hashelement@Vword@svutil@@V12@@svutil@@QAE@ABVword@1@@Z 004030b0 f i Groups.obj
 0001:00002130       ??0?$hashelement@Vword@svutil@@V12@@svutil@@QAE@ABVword@1@0@Z 00403130 f i Groups.obj
 0001:000021c0       ??1?$hashelement@Vword@svutil@@V12@@svutil@@QAE@XZ 004031c0 f i Groups.obj
 0001:00002200       ??1?$treenode@V?$hashelement@Vword@svutil@@V12@@svutil@@@svutil@@UAE@XZ 00403200 f i Groups.obj
 0001:00002240       ??_G?$treenode@V?$hashelement@Vword@svutil@@V12@@svutil@@@svutil@@UAEPAXI@Z 00403240 f i Groups.obj
 0001:00002240       ??_E?$treenode@V?$hashelement@Vword@svutil@@V12@@svutil@@@svutil@@UAEPAXI@Z 00403240 f i Groups.obj
 0001:00002260       ?_Xlen@?$vector@PAV?$hashnode@Vword@svutil@@V12@@svutil@@V?$allocator@PAV?$hashnode@Vword@svutil@@V12@@svutil@@@std@@@std@@IBEXXZ 00403260 f i Groups.obj
 0001:000022e0       ??0logic_error@std@@QAE@ABV01@@Z 004032e0 f i Groups.obj
 0001:00002340       ??M?$treenode@V?$hashelement@Vword@svutil@@V12@@svutil@@@svutil@@QAE_NV01@@Z 00403340 f i Groups.obj
 0001:000023c0       ??O?$treenode@V?$hashelement@Vword@svutil@@V12@@svutil@@@svutil@@QAE_NV01@@Z 004033c0 f i Groups.obj
 0001:00002440       ??$fill@PAPAV?$hashnode@Vword@svutil@@PAVTask@@@svutil@@PAV12@@std@@YAXPAPAV?$hashnode@Vword@svutil@@PAVTask@@@svutil@@0ABQAV12@@Z 00403440 f i MonitorSchedule.obj
 0001:00002440       ??$fill@PAPAV?$hashnode@Vword@svutil@@V12@@svutil@@PAV12@@std@@YAXPAPAV?$hashnode@Vword@svutil@@V12@@svutil@@0ABQAV12@@Z 00403440 f i Groups.obj
 0001:00002460       ??0?$treenode@V?$hashelement@Vword@svutil@@V12@@svutil@@@svutil@@QAE@ABV?$hashelement@Vword@svutil@@V12@@1@@Z 00403460 f i Groups.obj
 0001:00002500       ?DeleteTree@?$sorttree@V?$hashelement@Vword@svutil@@V12@@svutil@@@svutil@@QAEXPAV?$treenode@V?$hashelement@Vword@svutil@@V12@@svutil@@@2@@Z 00403500 f i Groups.obj
 0001:00002550       ??0length_error@std@@QAE@ABV01@@Z 00403550 f i Groups.obj
 0001:00002570       ?findnode@?$sorttree@V?$hashelement@Vword@svutil@@V12@@svutil@@@svutil@@QAEPAV?$treenode@V?$hashelement@Vword@svutil@@V12@@svutil@@@2@ABV?$hashelement@Vword@svutil@@V12@@2@PAV32@@Z 00403570 f i Groups.obj
 0001:000025e0       ??0?$treenode@V?$hashelement@Vword@svutil@@V12@@svutil@@@svutil@@QAE@ABV01@@Z 004035e0 f i Groups.obj
 0001:00002680       ??$copy_backward@PAPAV?$hashnode@Vword@svutil@@V12@@svutil@@PAPAV12@@std@@YAPAPAV?$hashnode@Vword@svutil@@V12@@svutil@@PAPAV12@00@Z 00403680 f i Groups.obj
 0001:00002680       ??$copy_backward@PAPAV?$hashnode@Vword@svutil@@PAVTask@@@svutil@@PAPAV12@@std@@YAPAPAV?$hashnode@Vword@svutil@@PAVTask@@@svutil@@PAPAV12@00@Z 00403680 f i MonitorSchedule.obj
 0001:000026b0       ??$CreateNode@V?$hashelement@Vword@svutil@@V12@@svutil@@@?$sorttree@V?$hashelement@Vword@svutil@@V12@@svutil@@@svutil@@SAPAV?$treenode@V?$hashelement@Vword@svutil@@V12@@svutil@@@1@ABV?$hashelement@Vword@svutil@@V12@@1@@Z 004036b0 f i Groups.obj
 0001:00002710       ??_E?$sorttree@V?$hashelement@Vword@svutil@@V12@@svutil@@@svutil@@UAEPAXI@Z 00403710 f i Groups.obj
 0001:00002710       ??_G?$sorttree@V?$hashelement@Vword@svutil@@V12@@svutil@@@svutil@@UAEPAXI@Z 00403710 f i Groups.obj
 0001:00002770       ?_Incsize@?$list@PAVGroupsItem@@V?$allocator@PAVGroupsItem@@@std@@@std@@IAEXI@Z 00403770 f i Groups.obj
 0001:00002770       ?_Incsize@?$list@PAVEntity@@V?$allocator@PAVEntity@@@std@@@std@@IAEXI@Z 00403770 f i Groups.obj
 0001:00002810       ?find@?$hashnode@Vword@svutil@@V12@@svutil@@QAE_NABVword@2@PAPAV?$hashelement@Vword@svutil@@V12@@2@@Z 00403810 f i Groups.obj
 0001:00002910       ?InsertNode@?$sorttree@V?$hashelement@Vword@svutil@@V12@@svutil@@@svutil@@QAEXPAV?$treenode@V?$hashelement@Vword@svutil@@V12@@svutil@@@2@0@Z 00403910 f i Groups.obj
 0001:000029a0       ?GetEntityByID@Groups@@QAEPAVEntity@@PBD@Z 004039a0 f   Groups.obj
 0001:00002a00       ?GetSingleGroupByID@Groups@@QAEPAVGroupsItem@@PBD@Z 00403a00 f   Groups.obj
 0001:00002a60       ?InitAllEntityActiveMonitorArray@Groups@@QAEHH@Z 00403a60 f   Groups.obj
 0001:00002aa0       ?find@?$hashnode@Vword@svutil@@V12@@svutil@@QAE_NABVword@2@PAPAV32@@Z 00403aa0 f i Groups.obj
 0001:00002b00       ?InsertNodeEx@?$sorttree@V?$hashelement@Vword@svutil@@V12@@svutil@@@svutil@@QAEAAV?$hashelement@Vword@svutil@@V12@@2@ABV32@@Z 00403b00 f i Groups.obj
 0001:00002b90       ??1exception@svutil@@UAE@XZ 00403b90 f i Groups.obj
 0001:00002ba0       ??0exception@svutil@@QAE@ABV01@@Z 00403ba0 f i Groups.obj
 0001:00002bf0       ?_Ufill@?$vector@PAV?$hashnode@Vword@svutil@@V12@@svutil@@V?$allocator@PAV?$hashnode@Vword@svutil@@V12@@svutil@@@std@@@std@@IAEPAPAV?$hashnode@Vword@svutil@@V12@@svutil@@PAPAV34@IABQAV34@@Z 00403bf0 f i Groups.obj
 0001:00002bf0       ?_Ufill@?$vector@PAV?$hashnode@Vword@svutil@@PAVTask@@@svutil@@V?$allocator@PAV?$hashnode@Vword@svutil@@PAVTask@@@svutil@@@std@@@std@@IAEPAPAV?$hashnode@Vword@svutil@@PAVTask@@@svutil@@PAPAV34@IABQAV34@@Z 00403bf0 f i MonitorSchedule.obj
 0001:00002c20       ??1Groups@@UAE@XZ          00403c20 f   Groups.obj
 0001:00002d90       ?push_back@?$list@PAVEntity@@V?$allocator@PAVEntity@@@std@@@std@@QAEXABQAVEntity@@@Z 00403d90 f i Groups.obj
 0001:00002d90       ?push_back@?$list@PAVGroupsItem@@V?$allocator@PAVGroupsItem@@@std@@@std@@QAEXABQAVGroupsItem@@@Z 00403d90 f i Groups.obj
 0001:00002dd0       ?find@?$hashtable@Vword@svutil@@V12@@svutil@@QAEPAVword@2@ABV32@@Z 00403dd0 f i Groups.obj
 0001:00002e40       ?insert@?$hashnode@Vword@svutil@@V12@@svutil@@QAEAAV?$hashelement@Vword@svutil@@V12@@2@ABVword@2@0@Z 00403e40 f i Groups.obj
 0001:00002f40       ?_Insert_n@?$vector@PAV?$hashnode@Vword@svutil@@V12@@svutil@@V?$allocator@PAV?$hashnode@Vword@svutil@@V12@@svutil@@@std@@@std@@IAEXViterator@12@IABQAV?$hashnode@Vword@svutil@@V12@@svutil@@@Z 00403f40 f i Groups.obj
 0001:00003130       ??0Groups@@QAE@XZ          00404130 f   Groups.obj
 0001:000031b0       ??_EGroups@@UAEPAXI@Z      004041b0 f i Groups.obj
 0001:000031b0       ??_GGroups@@UAEPAXI@Z      004041b0 f i Groups.obj
 0001:000031d0       ?FromTextMap@Groups@@QAE_NAAV?$hashtable@Vword@svutil@@V12@@svutil@@@Z 004041d0 f   Groups.obj
 0001:00003a10       ?resize@?$vector@PAV?$hashnode@Vword@svutil@@V12@@svutil@@V?$allocator@PAV?$hashnode@Vword@svutil@@V12@@svutil@@@std@@@std@@QAEXIPAV?$hashnode@Vword@svutil@@V12@@svutil@@@Z 00404a10 f i Groups.obj
 0001:00003aa0       ?insert@?$hashtable@Vword@svutil@@V12@@svutil@@QAEAAVword@2@ABV32@0@Z 00404aa0 f i Groups.obj
 0001:00003b90       ??A?$hashtable@Vword@svutil@@V12@@svutil@@QAEAAVword@1@ABV21@@Z 00404b90 f i Groups.obj
 0001:00003c20       ?ToTextMap@Groups@@QAE_NAAV?$hashtable@Vword@svutil@@V12@@svutil@@@Z 00404c20 f   Groups.obj
 0001:00004300       ??0GroupsItem@@QAE@XZ      00405300 f   GroupsItem.obj
 0001:00004320       ??_GGroupsItem@@UAEPAXI@Z  00405320 f i GroupsItem.obj
 0001:00004320       ??_EGroupsItem@@UAEPAXI@Z  00405320 f i GroupsItem.obj
 0001:00004340       ??4TString@@QAEABV0@PBD@Z  00405340 f i LoadConfig.obj
 0001:00004360       ?SetProcess@Monitor@@QAEXPBD@Z 00405360 f i LoadConfig.obj
 0001:00004380       ?SetEntityType@Monitor@@QAEXPBD@Z 00405380 f i LoadConfig.obj
 0001:000043a0       ?GetParentID@Monitor@@QBE?AV?$basic_string@DU?$char_traits@D@std@@V?$allocator@D@2@@std@@XZ 004053a0 f i LoadConfig.obj
 0001:000043e0       ?SetTaskName@Monitor@@QAEXV?$basic_string@DU?$char_traits@D@std@@V?$allocator@D@2@@std@@@Z 004053e0 f i LoadConfig.obj
 0001:00004430       ??0LoadConfig@@QAE@XZ      00405430 f   LoadConfig.obj
 0001:00004450       ?LoadAll@LoadConfig@@QAEHXZ 00405450 f   LoadConfig.obj
 0001:000046e0       ?GetMonitorPro@LoadConfig@@AAEHPAVMonitor@@V?$basic_string@DU?$char_traits@D@std@@V?$allocator@D@2@@std@@@Z 004056e0 f   LoadConfig.obj
 0001:00004d70       ?LoadCommonEntity@LoadConfig@@AAEHV?$basic_string@DU?$char_traits@D@std@@V?$allocator@D@2@@std@@AAV?$list@V?$basic_string@DU?$char_traits@D@std@@V?$allocator@D@2@@std@@V?$allocator@V?$basic_string@DU?$char_traits@D@std@@V?$allocator@D@2@@std@@@2@@3@@Z 00405d70 f   LoadConfig.obj
 0001:00004ed0       ?GetReturnList@LoadConfig@@AAEHPAVMonitor@@H@Z 00405ed0 f   LoadConfig.obj
 0001:00005050       ?LoadSingleEntity@LoadConfig@@AAEXPAVEntity@@V?$basic_string@DU?$char_traits@D@std@@V?$allocator@D@2@@std@@@Z 00406050 f   LoadConfig.obj
 0001:000053a0       ?ClearBuffer@LoadConfig@@QAE_NXZ 004063a0 f   LoadConfig.obj
 0001:000053f0       ?CreateSingleEntity@LoadConfig@@QAEHPAVEntity@@V?$basic_string@DU?$char_traits@D@std@@V?$allocator@D@2@@std@@@Z 004063f0 f   LoadConfig.obj
 0001:000054b0       ?CreateSingleGroup@LoadConfig@@QAEHPAVGroupsItem@@V?$basic_string@DU?$char_traits@D@std@@V?$allocator@D@2@@std@@@Z 004064b0 f   LoadConfig.obj
 0001:000056c0       ?LoadTaskPlan@LoadConfig@@QAE_NAAV?$hashtable@Vword@svutil@@PAVTask@@@svutil@@@Z 004066c0 f   LoadConfig.obj
 0001:000056d0       ??1_Node@?$_List_nod@V?$basic_string@DU?$char_traits@D@std@@V?$allocator@D@2@@std@@V?$allocator@V?$basic_string@DU?$char_traits@D@std@@V?$allocator@D@2@@std@@@2@@std@@QAE@XZ 004066d0 f i LoadConfig.obj
 0001:000056d0       ??1_Node@?$_List_nod@VSingelRecord@@V?$allocator@VSingelRecord@@@std@@@std@@QAE@XZ 004066d0 f i appendmassrecord.obj
 0001:000056e0       ??1LoadConfig@@UAE@XZ      004066e0 f   LoadConfig.obj
 0001:000057a0       ?GetStateCondition@LoadConfig@@AAEHPAVMonitor@@V?$basic_string@DU?$char_traits@D@std@@V?$allocator@D@2@@std@@@Z 004067a0 f   LoadConfig.obj
 0001:00005d10       ?CreateSubsequent@LoadConfig@@QAEHPAVSubsequent@@@Z 00406d10 f   LoadConfig.obj
 0001:00005d60       ??_ELoadConfig@@UAEPAXI@Z  00406d60 f i LoadConfig.obj
 0001:00005d60       ??_GLoadConfig@@UAEPAXI@Z  00406d60 f i LoadConfig.obj
 0001:00005d80       ?_Buynode@?$list@V?$basic_string@DU?$char_traits@D@std@@V?$allocator@D@2@@std@@V?$allocator@V?$basic_string@DU?$char_traits@D@std@@V?$allocator@D@2@@std@@@2@@std@@IAEPAU_Node@?$_List_nod@V?$basic_string@DU?$char_traits@D@std@@V?$allocator@D@2@@std@@V?$allocator@V?$basic_string@DU?$char_traits@D@std@@V?$allocator@D@2@@std@@@2@@2@XZ 00406d80 f i LoadConfig.obj
 0001:00005da0       ?_Buynode@?$list@V?$basic_string@DU?$char_traits@D@std@@V?$allocator@D@2@@std@@V?$allocator@V?$basic_string@DU?$char_traits@D@std@@V?$allocator@D@2@@std@@@2@@std@@IAEPAU_Node@?$_List_nod@V?$basic_string@DU?$char_traits@D@std@@V?$allocator@D@2@@std@@V?$allocator@V?$basic_string@DU?$char_traits@D@std@@V?$allocator@D@2@@std@@@2@@2@PAU342@0ABV?$basic_string@DU?$char_traits@D@std@@V?$allocator@D@2@@2@@Z 00406da0 f i LoadConfig.obj
 0001:00005e30       ?_Incsize@?$list@V?$basic_string@DU?$char_traits@D@std@@V?$allocator@D@2@@std@@V?$allocator@V?$basic_string@DU?$char_traits@D@std@@V?$allocator@D@2@@std@@@2@@std@@IAEXI@Z 00406e30 f i LoadConfig.obj
 0001:00005ed0       ?_Incsize@?$list@PAVMonitor@@V?$allocator@PAVMonitor@@@std@@@std@@IAEXI@Z 00406ed0 f i LoadConfig.obj
 0001:00005f70       ??0?$list@V?$basic_string@DU?$char_traits@D@std@@V?$allocator@D@2@@std@@V?$allocator@V?$basic_string@DU?$char_traits@D@std@@V?$allocator@D@2@@std@@@2@@std@@QAE@XZ 00406f70 f i LoadConfig.obj
 0001:00005f90       ?push_back@?$list@V?$basic_string@DU?$char_traits@D@std@@V?$allocator@D@2@@std@@V?$allocator@V?$basic_string@DU?$char_traits@D@std@@V?$allocator@D@2@@std@@@2@@std@@QAEXABV?$basic_string@DU?$char_traits@D@std@@V?$allocator@D@2@@2@@Z 00406f90 f i LoadConfig.obj
 0001:00005fd0       ?clear@?$list@V?$basic_string@DU?$char_traits@D@std@@V?$allocator@D@2@@std@@V?$allocator@V?$basic_string@DU?$char_traits@D@std@@V?$allocator@D@2@@std@@@2@@std@@QAEXXZ 00406fd0 f i LoadConfig.obj
 0001:00005fd0       ?clear@?$list@VSingelRecord@@V?$allocator@VSingelRecord@@@std@@@std@@QAEXXZ 00406fd0 f i appendmassrecord.obj
 0001:00006010       ?GetParamList@LoadConfig@@AAEHPAVMonitor@@V?$basic_string@DU?$char_traits@D@std@@V?$allocator@D@2@@std@@1@Z 00407010 f   LoadConfig.obj
 0001:00006bb0       ?CreateSingleMonitor@LoadConfig@@QAEHPAVMonitor@@V?$basic_string@DU?$char_traits@D@std@@V?$allocator@D@2@@std@@@Z 00407bb0 f   LoadConfig.obj
 0001:00006cd0       ??1?$list@V?$basic_string@DU?$char_traits@D@std@@V?$allocator@D@2@@std@@V?$allocator@V?$basic_string@DU?$char_traits@D@std@@V?$allocator@D@2@@std@@@2@@std@@QAE@XZ 00407cd0 f i LoadConfig.obj
 0001:00006cd0       ??1?$list@VSingelRecord@@V?$allocator@VSingelRecord@@@std@@@std@@QAE@XZ 00407cd0 f i appendmassrecord.obj
 0001:00006cf0       ?CreateMonitors@LoadConfig@@QAEHAAV?$list@PAVMonitor@@V?$allocator@PAVMonitor@@@std@@@std@@@Z 00407cf0 f   LoadConfig.obj
 0001:00006f90       ?LoadEntitys@LoadConfig@@AAEXAAV?$list@PAVEntity@@V?$allocator@PAVEntity@@@std@@@std@@@Z 00407f90 f   LoadConfig.obj
 0001:000071c0       ?LoadGroups@LoadConfig@@AAEXAAV?$list@PAVGroupsItem@@V?$allocator@PAVGroupsItem@@@std@@@std@@@Z 004081c0 f   LoadConfig.obj
 0001:00007560       ?CreateGroups@LoadConfig@@QAEHPAVGroups@@@Z 00408560 f   LoadConfig.obj
 0001:000075c0       ?GetCurrentTimeEx@TTime@svutil@@SA?AV12@XZ 004085c0 f i MakeRecord.obj
 0001:000075f0       ?buildbuffer@MakeRecord@@AAEPADMPADH@Z 004085f0 f   MakeRecord.obj
 0001:00007620       ?buildbuffer@MakeRecord@@AAEPADV?$basic_string@DU?$char_traits@D@std@@V?$allocator@D@2@@std@@PADH@Z 00408620 f   MakeRecord.obj
 0001:000076c0       ??0MakeRecord@@QAE@PADHH@Z 004086c0 f   MakeRecord.obj
 0001:00007700       ?MakeBuf@MakeRecord@@QAE_NPAVReturnValue@@@Z 00408700 f   MakeRecord.obj
 0001:00007850       ?MakeError@MakeRecord@@QAE_NHV?$basic_string@DU?$char_traits@D@std@@V?$allocator@D@2@@std@@@Z 00408850 f   MakeRecord.obj
 0001:00007910       ??0TTime@svutil@@QAE@HHHHHHH@Z 00408910 f i Monitor.obj
 0001:000079e0       ?CalculateNextRunTime@Monitor@@QAE_NVTTime@svutil@@@Z 004089e0 f   Monitor.obj
 0001:00007a00       ?CalculateNextRunTime@Monitor@@QAE_NXZ 00408a00 f   Monitor.obj
 0001:00007a80       ?CalculateErrorFrequency@Monitor@@QAEX_N@Z 00408a80 f   Monitor.obj
 0001:00007ae0       ?_Buynode@?$list@PAVStateConditionItem@@V?$allocator@PAVStateConditionItem@@@std@@@std@@IAEPAU_Node@?$_List_nod@PAVStateConditionItem@@V?$allocator@PAVStateConditionItem@@@std@@@2@XZ 00408ae0 f i StateCondition.obj
 0001:00007ae0       ?_Buynode@?$list@PAVReturnData@@V?$allocator@PAVReturnData@@@std@@@std@@IAEPAU_Node@?$_List_nod@PAVReturnData@@V?$allocator@PAVReturnData@@@std@@@2@XZ 00408ae0 f i Monitor.obj
 0001:00007ae0       ?_Buynode@?$list@PAUtmsg@@V?$allocator@PAUtmsg@@@std@@@std@@IAEPAU_Node@?$_List_nod@PAUtmsg@@V?$allocator@PAUtmsg@@@std@@@2@XZ 00408ae0 f i MSGQueue.obj
 0001:00007ae0       ?_Buynode@?$list@PAVReturnValue@@V?$allocator@PAVReturnValue@@@std@@@std@@IAEPAU_Node@?$_List_nod@PAVReturnValue@@V?$allocator@PAVReturnValue@@@std@@@2@XZ 00408ae0 f i MonitorThread.obj
 0001:00007ae0       ?_Buynode@?$list@PAVEntity@@V?$allocator@PAVEntity@@@std@@@std@@IAEPAU_Node@?$_List_nod@PAVEntity@@V?$allocator@PAVEntity@@@std@@@2@XZ 00408ae0 f i Groups.obj
 0001:00007ae0       ?_Buynode@?$list@PAVGroupsItem@@V?$allocator@PAVGroupsItem@@@std@@@std@@IAEPAU_Node@?$_List_nod@PAVGroupsItem@@V?$allocator@PAVGroupsItem@@@std@@@2@XZ 00408ae0 f i Groups.obj
 0001:00007ae0       ?_Buynode@?$list@PAVMonitor@@V?$allocator@PAVMonitor@@@std@@@std@@IAEPAU_Node@?$_List_nod@PAVMonitor@@V?$allocator@PAVMonitor@@@std@@@2@XZ 00408ae0 f i MonitorSchedule.obj
 0001:00007ae0       ?_Buynode@?$list@PAVThreadEx@@V?$allocator@PAVThreadEx@@@std@@@std@@IAEPAU_Node@?$_List_nod@PAVThreadEx@@V?$allocator@PAVThreadEx@@@std@@@2@XZ 00408ae0 f i ScheduleThread.obj
 0001:00007ae0       ?_Buynode@?$list@PAVSubsequentItem@@V?$allocator@PAVSubsequentItem@@@std@@@std@@IAEPAU_Node@?$_List_nod@PAVSubsequentItem@@V?$allocator@PAVSubsequentItem@@@std@@@2@XZ 00408ae0 f i Subsequent.obj
 0001:00007b00       ?_Incsize@?$list@PAVReturnData@@V?$allocator@PAVReturnData@@@std@@@std@@IAEXI@Z 00408b00 f i Monitor.obj
 0001:00007b00       ?_Incsize@?$list@PAVStateConditionItem@@V?$allocator@PAVStateConditionItem@@@std@@@std@@IAEXI@Z 00408b00 f i Monitor.obj
 0001:00007ba0       ?_Buynode@?$list@PAVEntity@@V?$allocator@PAVEntity@@@std@@@std@@IAEPAU_Node@?$_List_nod@PAVEntity@@V?$allocator@PAVEntity@@@std@@@2@PAU342@0ABQAVEntity@@@Z 00408ba0 f i Groups.obj
 0001:00007ba0       ?_Buynode@?$list@PAVGroupsItem@@V?$allocator@PAVGroupsItem@@@std@@@std@@IAEPAU_Node@?$_List_nod@PAVGroupsItem@@V?$allocator@PAVGroupsItem@@@std@@@2@PAU342@0ABQAVGroupsItem@@@Z 00408ba0 f i Groups.obj
 0001:00007ba0       ?_Buynode@?$list@PAVReturnData@@V?$allocator@PAVReturnData@@@std@@@std@@IAEPAU_Node@?$_List_nod@PAVReturnData@@V?$allocator@PAVReturnData@@@std@@@2@PAU342@0ABQAVReturnData@@@Z 00408ba0 f i Monitor.obj
 0001:00007ba0       ?_Buynode@?$list@PAVThreadEx@@V?$allocator@PAVThreadEx@@@std@@@std@@IAEPAU_Node@?$_List_nod@PAVThreadEx@@V?$allocator@PAVThreadEx@@@std@@@2@PAU342@0ABQAVThreadEx@@@Z 00408ba0 f i ThreadContrl.obj
 0001:00007ba0       ?_Buynode@?$list@PAVStateConditionItem@@V?$allocator@PAVStateConditionItem@@@std@@@std@@IAEPAU_Node@?$_List_nod@PAVStateConditionItem@@V?$allocator@PAVStateConditionItem@@@std@@@2@PAU342@0ABQAVStateConditionItem@@@Z 00408ba0 f i Monitor.obj
 0001:00007ba0       ?_Buynode@?$list@PAVMonitor@@V?$allocator@PAVMonitor@@@std@@@std@@IAEPAU_Node@?$_List_nod@PAVMonitor@@V?$allocator@PAVMonitor@@@std@@@2@PAU342@0ABQAVMonitor@@@Z 00408ba0 f i LoadConfig.obj
 0001:00007ba0       ?_Buynode@?$list@PAVReturnValue@@V?$allocator@PAVReturnValue@@@std@@@std@@IAEPAU_Node@?$_List_nod@PAVReturnValue@@V?$allocator@PAVReturnValue@@@std@@@2@PAU342@0ABQAVReturnValue@@@Z 00408ba0 f i MonitorThread.obj
 0001:00007ba0       ?_Buynode@?$list@PAVSubsequentItem@@V?$allocator@PAVSubsequentItem@@@std@@@std@@IAEPAU_Node@?$_List_nod@PAVSubsequentItem@@V?$allocator@PAVSubsequentItem@@@std@@@2@PAU342@0ABQAVSubsequentItem@@@Z 00408ba0 f i readSVDB.obj
 0001:00007bd0       ??1?$list@PAVReturnValue@@V?$allocator@PAVReturnValue@@@std@@@std@@QAE@XZ 00408bd0 f i MonitorThread.obj
 0001:00007bd0       ??1?$list@PAVEntity@@V?$allocator@PAVEntity@@@std@@@std@@QAE@XZ 00408bd0 f i Groups.obj
 0001:00007bd0       ??1?$list@PAVStateConditionItem@@V?$allocator@PAVStateConditionItem@@@std@@@std@@QAE@XZ 00408bd0 f i StateCondition.obj
 0001:00007bd0       ??1?$list@PAVReturnData@@V?$allocator@PAVReturnData@@@std@@@std@@QAE@XZ 00408bd0 f i Monitor.obj
 0001:00007bd0       ??1?$list@PAUtmsg@@V?$allocator@PAUtmsg@@@std@@@std@@QAE@XZ 00408bd0 f i MSGQueue.obj
 0001:00007bd0       ??1?$list@PAVMonitor@@V?$allocator@PAVMonitor@@@std@@@std@@QAE@XZ 00408bd0 f i MonitorSchedule.obj
 0001:00007bd0       ??1?$list@PAVGroupsItem@@V?$allocator@PAVGroupsItem@@@std@@@std@@QAE@XZ 00408bd0 f i Groups.obj
 0001:00007bd0       ??1?$list@PAVSubsequentItem@@V?$allocator@PAVSubsequentItem@@@std@@@std@@QAE@XZ 00408bd0 f i Subsequent.obj
 0001:00007bd0       ??1?$list@PAVThreadEx@@V?$allocator@PAVThreadEx@@@std@@@std@@QAE@XZ 00408bd0 f i ScheduleThread.obj
 0001:00007bf0       ?push_back@?$list@PAVStateConditionItem@@V?$allocator@PAVStateConditionItem@@@std@@@std@@QAEXABQAVStateConditionItem@@@Z 00408bf0 f i Monitor.obj
 0001:00007bf0       ?push_back@?$list@PAVReturnData@@V?$allocator@PAVReturnData@@@std@@@std@@QAEXABQAVReturnData@@@Z 00408bf0 f i Monitor.obj
 0001:00007c30       ?FromTextMap@Monitor@@QAEHAAV?$hashtable@Vword@svutil@@V12@@svutil@@@Z 00408c30 f   Monitor.obj
 0001:000095a0       ??0Monitor@@QAE@XZ         0040a5a0 f   Monitor.obj
 0001:00009700       ??1Monitor@@UAE@XZ         0040a700 f   Monitor.obj
 0001:000098d0       ??_GMonitor@@UAEPAXI@Z     0040a8d0 f i Monitor.obj
 0001:000098d0       ??_EMonitor@@UAEPAXI@Z     0040a8d0 f i Monitor.obj
 0001:000098f0       ?ToTextMap@Monitor@@QAEHAAV?$hashtable@Vword@svutil@@V12@@svutil@@@Z 0040a8f0 f   Monitor.obj
 0001:0000adb0       ??0TString@@QAE@PBD@Z      0040bdb0 f i MonitorSchedule.obj
 0001:0000add0       ??0TString@@QAE@ABV0@@Z    0040bdd0 f i MonitorSchedule.obj
 0001:0000ae30       ?Replace@TString@@QAEHPBD0@Z 0040be30 f i MonitorSchedule.obj
 0001:0000aed0       ??_ETString@@UAEPAXI@Z     0040bed0 f i MonitorSchedule.obj
 0001:0000aed0       ??_GTString@@UAEPAXI@Z     0040bed0 f i MonitorSchedule.obj
 0001:0000aef0       ?Format@TTime@svutil@@QBE?AV?$basic_string@DU?$char_traits@D@std@@V?$allocator@D@2@@std@@XZ 0040bef0 f i MonitorSchedule.obj
 0001:0000af80       ?GetMonitorClass@Monitor@@QAE?AVTString@@XZ 0040bf80 f i MonitorSchedule.obj
 0001:0000afb0       ?GetSEID@Monitor@@QBE?AV?$basic_string@DU?$char_traits@D@std@@V?$allocator@D@2@@std@@XZ 0040bfb0 f i MonitorSchedule.obj
 0001:0000aff0       ?WriteLog@@YAXPBD@Z        0040bff0 f   MonitorSchedule.obj
 0001:0000b140       ?Run@@YAXXZ                0040c140 f   MonitorSchedule.obj
 0001:0000b2c0       ?CheckReturnLen@@YAHPBD@Z  0040c2c0 f   MonitorSchedule.obj
 0001:0000b2f0       ?Run_ProcessMonitor@@YAXV?$basic_string@DU?$char_traits@D@std@@V?$allocator@D@2@@std@@@Z 0040c2f0 f   MonitorSchedule.obj
 0001:0000b790       ?_Xlen@?$vector@PAV?$hashnode@Vword@svutil@@PAVTask@@@svutil@@V?$allocator@PAV?$hashnode@Vword@svutil@@PAVTask@@@svutil@@@std@@@std@@IBEXXZ 0040c790 f i MonitorSchedule.obj
 0001:0000b810       ??1?$hashelement@Vword@svutil@@PAVTask@@@svutil@@QAE@XZ 0040c810 f i MonitorSchedule.obj
 0001:0000b810       ??1word@svutil@@UAE@XZ     0040c810 f i Groups.obj
 0001:0000b830       ?CountNodes@?$sorttree@V?$hashelement@Vword@svutil@@PAVTask@@@svutil@@@svutil@@AAEXPAV?$treenode@V?$hashelement@Vword@svutil@@PAVTask@@@svutil@@@2@AAK@Z 0040c830 f i MonitorSchedule.obj
 0001:0000b860       ??GTTime@svutil@@QBE?AVTTimeSpan@1@V01@@Z 0040c860 f i MonitorSchedule.obj
 0001:0000b880       ?DeleteTree@?$sorttree@V?$hashelement@Vword@svutil@@PAVTask@@@svutil@@@svutil@@QAEXPAV?$treenode@V?$hashelement@Vword@svutil@@PAVTask@@@svutil@@@2@@Z 0040c880 f i MonitorSchedule.obj
 0001:0000b8d0       ?findnextnode@?$sorttree@V?$hashelement@Vword@svutil@@PAVTask@@@svutil@@@svutil@@ABEPAV?$treenode@V?$hashelement@Vword@svutil@@PAVTask@@@svutil@@@2@AAV?$hashelement@Vword@svutil@@PAVTask@@@2@AA_NPAV32@@Z 0040c8d0 f i MonitorSchedule.obj
 0001:0000b940       ??_E?$sorttree@V?$hashelement@Vword@svutil@@PAVTask@@@svutil@@@svutil@@UAEPAXI@Z 0040c940 f i MonitorSchedule.obj
 0001:0000b940       ??_G?$sorttree@V?$hashelement@Vword@svutil@@PAVTask@@@svutil@@@svutil@@UAEPAXI@Z 0040c940 f i MonitorSchedule.obj
 0001:0000b9a0       ?clear@?$list@PAVReturnData@@V?$allocator@PAVReturnData@@@std@@@std@@QAEXXZ 0040c9a0 f i Monitor.obj
 0001:0000b9a0       ?clear@?$list@PAVStateConditionItem@@V?$allocator@PAVStateConditionItem@@@std@@@std@@QAEXXZ 0040c9a0 f i StateCondition.obj
 0001:0000b9a0       ?clear@?$list@PAVMonitor@@V?$allocator@PAVMonitor@@@std@@@std@@QAEXXZ 0040c9a0 f i MonitorSchedule.obj
 0001:0000b9a0       ?clear@?$list@PAVSubsequentItem@@V?$allocator@PAVSubsequentItem@@@std@@@std@@QAEXXZ 0040c9a0 f i Subsequent.obj
 0001:0000b9a0       ?clear@?$list@PAVReturnValue@@V?$allocator@PAVReturnValue@@@std@@@std@@QAEXXZ 0040c9a0 f i MonitorThread.obj
 0001:0000b9a0       ?clear@?$list@PAUtmsg@@V?$allocator@PAUtmsg@@@std@@@std@@QAEXXZ 0040c9a0 f i MSGQueue.obj
 0001:0000b9a0       ?clear@?$list@PAVThreadEx@@V?$allocator@PAVThreadEx@@@std@@@std@@QAEXXZ 0040c9a0 f i ScheduleThread.obj
 0001:0000b9a0       ?clear@?$list@PAVGroupsItem@@V?$allocator@PAVGroupsItem@@@std@@@std@@QAEXXZ 0040c9a0 f i Groups.obj
 0001:0000b9a0       ?clear@?$list@PAVEntity@@V?$allocator@PAVEntity@@@std@@@std@@QAEXXZ 0040c9a0 f i Groups.obj
 0001:0000b9e0       ??1?$hashnode@Vword@svutil@@PAVTask@@@svutil@@QAE@XZ 0040c9e0 f i MonitorSchedule.obj
 0001:0000ba70       ??$_Ucopy@PAPAV?$hashnode@Vword@svutil@@V12@@svutil@@@?$vector@PAV?$hashnode@Vword@svutil@@V12@@svutil@@V?$allocator@PAV?$hashnode@Vword@svutil@@V12@@svutil@@@std@@@std@@IAEPAPAV?$hashnode@Vword@svutil@@V12@@svutil@@PAPAV23@00@Z 0040ca70 f i Groups.obj
 0001:0000ba70       ??$_Ucopy@PAPAV?$hashnode@Vword@svutil@@PAVTask@@@svutil@@@?$vector@PAV?$hashnode@Vword@svutil@@PAVTask@@@svutil@@V?$allocator@PAV?$hashnode@Vword@svutil@@PAVTask@@@svutil@@@std@@@std@@IAEPAPAV?$hashnode@Vword@svutil@@PAVTask@@@svutil@@PAPAV23@00@Z 0040ca70 f i MonitorSchedule.obj
 0001:0000baa0       ?push_back@?$list@PAVMonitor@@V?$allocator@PAVMonitor@@@std@@@std@@QAEXABQAVMonitor@@@Z 0040caa0 f i MonitorSchedule.obj
 0001:0000bae0       ?clearnodes@?$hashtable@Vword@svutil@@PAVTask@@@svutil@@IAEXXZ 0040cae0 f i MonitorSchedule.obj
 0001:0000bb50       ?findnext@?$hashnode@Vword@svutil@@PAVTask@@@svutil@@QAE_NAAV?$hashelement@Vword@svutil@@PAVTask@@@2@PAPAV32@@Z 0040cb50 f i MonitorSchedule.obj
 0001:0000bc00       ?_Insert_n@?$vector@PAV?$hashnode@Vword@svutil@@PAVTask@@@svutil@@V?$allocator@PAV?$hashnode@Vword@svutil@@PAVTask@@@svutil@@@std@@@std@@IAEXViterator@12@IABQAV?$hashnode@Vword@svutil@@PAVTask@@@svutil@@@Z 0040cc00 f i MonitorSchedule.obj
 0001:0000bdf0       ?GetMonitorListByFile@@YAHAAV?$list@PAVMonitor@@V?$allocator@PAVMonitor@@@std@@@std@@PBD@Z 0040cdf0 f   MonitorSchedule.obj
 0001:0000c0e0       ?MakeMonitorListByBuf@@YA_NAAV?$list@PAVMonitor@@V?$allocator@PAVMonitor@@@std@@@std@@PBD@Z 0040d0e0 f   MonitorSchedule.obj
 0001:0000c2a0       ?GetMonitorListByPipe@@YA_NAAV?$list@PAVMonitor@@V?$allocator@PAVMonitor@@@std@@@std@@V?$basic_string@DU?$char_traits@D@std@@V?$allocator@D@2@@2@11@Z 0040d2a0 f   MonitorSchedule.obj
 0001:0000c4e0       ??1?$hashtable@Vword@svutil@@PAVTask@@@svutil@@QAE@XZ 0040d4e0 f i MonitorSchedule.obj
 0001:0000c540       ?findnext@?$hashtable@Vword@svutil@@PAVTask@@@svutil@@QAE_NAAViterator@12@@Z 0040d540 f i MonitorSchedule.obj
 0001:0000c5e0       ?resize@?$vector@PAV?$hashnode@Vword@svutil@@PAVTask@@@svutil@@V?$allocator@PAV?$hashnode@Vword@svutil@@PAVTask@@@svutil@@@std@@@std@@QAEXIPAV?$hashnode@Vword@svutil@@PAVTask@@@svutil@@@Z 0040d5e0 f i MonitorSchedule.obj
 0001:0000c670       ??0?$hashtable@Vword@svutil@@PAVTask@@@svutil@@QAE@XZ 0040d670 f i MonitorSchedule.obj
 0001:0000c6c0       _main                      0040d6c0 f   MonitorSchedule.obj
 0001:0000d0b0       ??_Eout_of_range@std@@UAEPAXI@Z 0040e0b0 f i MonitorSchMain.obj
 0001:0000d0b0       ??_Gout_of_range@std@@UAEPAXI@Z 0040e0b0 f i MonitorSchMain.obj
 0001:0000d0d0       ??1out_of_range@std@@UAE@XZ 0040e0d0 f i MonitorSchMain.obj
 0001:0000d0e0       ??1sv_dyn@@QAE@XZ          0040e0e0 f i MonitorSchMain.obj
 0001:0000d0f0       ?GetLastState@Monitor@@QAEHXZ 0040e0f0 f i MonitorSchMain.obj
 0001:0000d1c0       ?GetNextRunTime@Monitor@@QAE?AVTTime@svutil@@XZ 0040e1c0 f i MonitorSchMain.obj
 0001:0000d1d0       ?GetTaskName@Monitor@@QAE?AV?$basic_string@DU?$char_traits@D@std@@V?$allocator@D@2@@std@@XZ 0040e1d0 f i MonitorSchMain.obj
 0001:0000d200       ?GetParentID@Entity@@QBE?AV?$basic_string@DU?$char_traits@D@std@@V?$allocator@D@2@@std@@XZ 0040e200 f i MonitorSchMain.obj
 0001:0000d240       ?CopyTempData@Entity@@QAE_NPBV1@@Z 0040e240 f i MonitorSchMain.obj
 0001:0000d320       ?Start@ThreadEx@@QAEHXZ    0040e320 f i MonitorSchMain.obj
 0001:0000d340       ??_GCommunicationThread@@UAEPAXI@Z 0040e340 f i MonitorSchMain.obj
 0001:0000d340       ??_ECommunicationThread@@UAEPAXI@Z 0040e340 f i MonitorSchMain.obj
 0001:0000d360       ??_GScheduleThread@@UAEPAXI@Z 0040e360 f i MonitorSchMain.obj
 0001:0000d360       ??_EScheduleThread@@UAEPAXI@Z 0040e360 f i MonitorSchMain.obj
 0001:0000d380       ??0SerialData@@QAE@V?$basic_string@DU?$char_traits@D@std@@V?$allocator@D@2@@std@@@Z 0040e380 f i MonitorSchMain.obj
 0001:0000d3f0       ?Run@MonitorSchMain@@QAEXXZ 0040e3f0 f   MonitorSchMain.obj
 0001:0000d400       ?GetMonitorList@MonitorSchMain@@QAEAAV?$list@PAVMonitor@@V?$allocator@PAVMonitor@@@std@@@std@@XZ 0040e400 f   MonitorSchMain.obj
 0001:0000d410       ?ParseOpt@MonitorSchMain@@KA_NV?$basic_string@DU?$char_traits@D@std@@V?$allocator@D@2@@std@@AAV23@1@Z 0040e410 f   MonitorSchMain.obj
 0001:0000d520       ?LoadPreLibrary@MonitorSchMain@@QAE_NXZ 0040e520 f   MonitorSchMain.obj
 0001:0000d6c0       ??0?$hashelement@Vword@svutil@@PAVTask@@@svutil@@QAE@ABVword@1@@Z 0040e6c0 f i MonitorSchMain.obj
 0001:0000d720       ?_Max@?$_Tree@V?$_Tmap_traits@V?$basic_string@DU?$char_traits@D@std@@V?$allocator@D@2@@std@@V?$map@V?$basic_string@DU?$char_traits@D@std@@V?$allocator@D@2@@std@@V12@UStlIniCompareStringNoCase@@V?$allocator@U?$pair@$$CBV?$basic_string@DU?$char_traits@D@std@@V?$allocator@D@2@@std@@V12@@std@@@2@@2@UStlIniCompareStringNoCase@@V?$allocator@U?$pair@$$CBV?$basic_string@DU?$char_traits@D@std@@V?$allocator@D@2@@std@@V?$map@V?$basic_string@DU?$char_traits@D@std@@V?$allocator@D@2@@std@@V12@UStlIniCompareStringNoCase@@V?$allocator@U?$pair@$$CBV?$basic_string@DU?$char_traits@D@std@@V?$allocator@D@2@@std@@V12@@std@@@2@@2@@std@@@2@$0A@@std@@@std@@KAPAU_Node@?$_Tree_nod@V?$_Tmap_traits@V?$basic_string@DU?$char_traits@D@std@@V?$allocator@D@2@@std@@V?$map@V?$basic_string@DU?$char_traits@D@std@@V?$allocator@D@2@@std@@V12@UStlIniCompareStringNoCase@@V?$allocator@U?$pair@$$CBV?$basic_string@DU?$char_traits@D@std@@V?$allocator@D@2@@std@@V12@@std@@@2@@2@UStlIniCompareStringNoCase@@V?$allocator@U?$pair@$$CBV?$basic_string@DU?$char_traits@D@std@@V?$allocator@D@2@@std@@V?$map@V?$basic_string@DU?$char_traits@D@std@@V?$allocator@D@2@@std@@V12@UStlIniCompareStringNoCase@@V?$allocator@U?$pair@$$CBV?$basic_string@DU?$char_traits@D@std@@V?$allocator@D@2@@std@@V12@@std@@@2@@2@@std@@@2@$0A@@std@@@2@PAU342@@Z 0040e720 f i MonitorSchMain.obj
 0001:0000d740       ?_Min@?$_Tree@V?$_Tmap_traits@V?$basic_string@DU?$char_traits@D@std@@V?$allocator@D@2@@std@@V?$map@V?$basic_string@DU?$char_traits@D@std@@V?$allocator@D@2@@std@@V12@UStlIniCompareStringNoCase@@V?$allocator@U?$pair@$$CBV?$basic_string@DU?$char_traits@D@std@@V?$allocator@D@2@@std@@V12@@std@@@2@@2@UStlIniCompareStringNoCase@@V?$allocator@U?$pair@$$CBV?$basic_string@DU?$char_traits@D@std@@V?$allocator@D@2@@std@@V?$map@V?$basic_string@DU?$char_traits@D@std@@V?$allocator@D@2@@std@@V12@UStlIniCompareStringNoCase@@V?$allocator@U?$pair@$$CBV?$basic_string@DU?$char_traits@D@std@@V?$allocator@D@2@@std@@V12@@std@@@2@@2@@std@@@2@$0A@@std@@@std@@KAPAU_Node@?$_Tree_nod@V?$_Tmap_traits@V?$basic_string@DU?$char_traits@D@std@@V?$allocator@D@2@@std@@V?$map@V?$basic_string@DU?$char_traits@D@std@@V?$allocator@D@2@@std@@V12@UStlIniCompareStringNoCase@@V?$allocator@U?$pair@$$CBV?$basic_string@DU?$char_traits@D@std@@V?$allocator@D@2@@std@@V12@@std@@@2@@2@UStlIniCompareStringNoCase@@V?$allocator@U?$pair@$$CBV?$basic_string@DU?$char_traits@D@std@@V?$allocator@D@2@@std@@V?$map@V?$basic_string@DU?$char_traits@D@std@@V?$allocator@D@2@@std@@V12@UStlIniCompareStringNoCase@@V?$allocator@U?$pair@$$CBV?$basic_string@DU?$char_traits@D@std@@V?$allocator@D@2@@std@@V12@@std@@@2@@2@@std@@@2@$0A@@std@@@2@PAU342@@Z 0040e740 f i MonitorSchMain.obj
 0001:0000d760       ?_Rrotate@?$_Tree@V?$_Tmap_traits@V?$basic_string@DU?$char_traits@D@std@@V?$allocator@D@2@@std@@V?$map@V?$basic_string@DU?$char_traits@D@std@@V?$allocator@D@2@@std@@V12@UStlIniCompareStringNoCase@@V?$allocator@U?$pair@$$CBV?$basic_string@DU?$char_traits@D@std@@V?$allocator@D@2@@std@@V12@@std@@@2@@2@UStlIniCompareStringNoCase@@V?$allocator@U?$pair@$$CBV?$basic_string@DU?$char_traits@D@std@@V?$allocator@D@2@@std@@V?$map@V?$basic_string@DU?$char_traits@D@std@@V?$allocator@D@2@@std@@V12@UStlIniCompareStringNoCase@@V?$allocator@U?$pair@$$CBV?$basic_string@DU?$char_traits@D@std@@V?$allocator@D@2@@std@@V12@@std@@@2@@2@@std@@@2@$0A@@std@@@std@@IAEXPAU_Node@?$_Tree_nod@V?$_Tmap_traits@V?$basic_string@DU?$char_traits@D@std@@V?$allocator@D@2@@std@@V?$map@V?$basic_string@DU?$char_traits@D@std@@V?$allocator@D@2@@std@@V12@UStlIniCompareStringNoCase@@V?$allocator@U?$pair@$$CBV?$basic_string@DU?$char_traits@D@std@@V?$allocator@D@2@@std@@V12@@std@@@2@@2@UStlIniCompareStringNoCase@@V?$allocator@U?$pair@$$CBV?$basic_string@DU?$char_traits@D@std@@V?$allocator@D@2@@std@@V?$map@V?$basic_string@DU?$char_traits@D@std@@V?$allocator@D@2@@std@@V12@UStlIniCompareStringNoCase@@V?$allocator@U?$pair@$$CBV?$basic_string@DU?$char_traits@D@std@@V?$allocator@D@2@@std@@V12@@std@@@2@@2@@std@@@2@$0A@@std@@@2@@Z 0040e760 f i MonitorSchMain.obj
 0001:0000d7c0       ?_Inc@const_iterator@?$_Tree@V?$_Tmap_traits@V?$basic_string@DU?$char_traits@D@std@@V?$allocator@D@2@@std@@V?$map@V?$basic_string@DU?$char_traits@D@std@@V?$allocator@D@2@@std@@V12@UStlIniCompareStringNoCase@@V?$allocator@U?$pair@$$CBV?$basic_string@DU?$char_traits@D@std@@V?$allocator@D@2@@std@@V12@@std@@@2@@2@UStlIniCompareStringNoCase@@V?$allocator@U?$pair@$$CBV?$basic_string@DU?$char_traits@D@std@@V?$allocator@D@2@@std@@V?$map@V?$basic_string@DU?$char_traits@D@std@@V?$allocator@D@2@@std@@V12@UStlIniCompareStringNoCase@@V?$allocator@U?$pair@$$CBV?$basic_string@DU?$char_traits@D@std@@V?$allocator@D@2@@std@@V12@@std@@@2@@2@@std@@@2@$0A@@std@@@std@@QAEXXZ 0040e7c0 f i MonitorSchMain.obj
 0001:0000d820       ?_Max@?$_Tree@V?$_Tmap_traits@V?$basic_string@DU?$char_traits@D@std@@V?$allocator@D@2@@std@@V12@UStlIniCompareStringNoCase@@V?$allocator@U?$pair@$$CBV?$basic_string@DU?$char_traits@D@std@@V?$allocator@D@2@@std@@V12@@std@@@2@$0A@@std@@@std@@KAPAU_Node@?$_Tree_nod@V?$_Tmap_traits@V?$basic_string@DU?$char_traits@D@std@@V?$allocator@D@2@@std@@V12@UStlIniCompareStringNoCase@@V?$allocator@U?$pair@$$CBV?$basic_string@DU?$char_traits@D@std@@V?$allocator@D@2@@std@@V12@@std@@@2@$0A@@std@@@2@PAU342@@Z 0040e820 f i MonitorSchMain.obj
 0001:0000d840       ?_Min@?$_Tree@V?$_Tmap_traits@V?$basic_string@DU?$char_traits@D@std@@V?$allocator@D@2@@std@@V12@UStlIniCompareStringNoCase@@V?$allocator@U?$pair@$$CBV?$basic_string@DU?$char_traits@D@std@@V?$allocator@D@2@@std@@V12@@std@@@2@$0A@@std@@@std@@KAPAU_Node@?$_Tree_nod@V?$_Tmap_traits@V?$basic_string@DU?$char_traits@D@std@@V?$allocator@D@2@@std@@V12@UStlIniCompareStringNoCase@@V?$allocator@U?$pair@$$CBV?$basic_string@DU?$char_traits@D@std@@V?$allocator@D@2@@std@@V12@@std@@@2@$0A@@std@@@2@PAU342@@Z 0040e840 f i MonitorSchMain.obj
 0001:0000d860       ?_Rrotate@?$_Tree@V?$_Tmap_traits@V?$basic_string@DU?$char_traits@D@std@@V?$allocator@D@2@@std@@V12@UStlIniCompareStringNoCase@@V?$allocator@U?$pair@$$CBV?$basic_string@DU?$char_traits@D@std@@V?$allocator@D@2@@std@@V12@@std@@@2@$0A@@std@@@std@@IAEXPAU_Node@?$_Tree_nod@V?$_Tmap_traits@V?$basic_string@DU?$char_traits@D@std@@V?$allocator@D@2@@std@@V12@UStlIniCompareStringNoCase@@V?$allocator@U?$pair@$$CBV?$basic_string@DU?$char_traits@D@std@@V?$allocator@D@2@@std@@V12@@std@@@2@$0A@@std@@@2@@Z 0040e860 f i MonitorSchMain.obj
 0001:0000d8c0       ?_Inc@const_iterator@?$_Tree@V?$_Tmap_traits@V?$basic_string@DU?$char_traits@D@std@@V?$allocator@D@2@@std@@V12@UStlIniCompareStringNoCase@@V?$allocator@U?$pair@$$CBV?$basic_string@DU?$char_traits@D@std@@V?$allocator@D@2@@std@@V12@@std@@@2@$0A@@std@@@std@@QAEXXZ 0040e8c0 f i MonitorSchMain.obj
 0001:0000d920       ??1?$pair@$$CBV?$basic_string@DU?$char_traits@D@std@@V?$allocator@D@2@@std@@V12@@std@@QAE@XZ 0040e920 f i MonitorSchMain.obj
 0001:0000d970       ?SerialMonitorData@MonitorSchMain@@QAE_N_N@Z 0040e970 f   MonitorSchMain.obj
 0001:0000da70       ?findnode@?$sorttree@V?$hashelement@Vword@svutil@@PAVTask@@@svutil@@@svutil@@QAEPAV?$treenode@V?$hashelement@Vword@svutil@@PAVTask@@@svutil@@@2@ABV?$hashelement@Vword@svutil@@PAVTask@@@2@PAV32@@Z 0040ea70 f i MonitorSchMain.obj
 0001:0000dae0       ?_Lrotate@?$_Tree@V?$_Tmap_traits@V?$basic_string@DU?$char_traits@D@std@@V?$allocator@D@2@@std@@V?$map@V?$basic_string@DU?$char_traits@D@std@@V?$allocator@D@2@@std@@V12@UStlIniCompareStringNoCase@@V?$allocator@U?$pair@$$CBV?$basic_string@DU?$char_traits@D@std@@V?$allocator@D@2@@std@@V12@@std@@@2@@2@UStlIniCompareStringNoCase@@V?$allocator@U?$pair@$$CBV?$basic_string@DU?$char_traits@D@std@@V?$allocator@D@2@@std@@V?$map@V?$basic_string@DU?$char_traits@D@std@@V?$allocator@D@2@@std@@V12@UStlIniCompareStringNoCase@@V?$allocator@U?$pair@$$CBV?$basic_string@DU?$char_traits@D@std@@V?$allocator@D@2@@std@@V12@@std@@@2@@2@@std@@@2@$0A@@std@@@std@@IAEXPAU_Node@?$_Tree_nod@V?$_Tmap_traits@V?$basic_string@DU?$char_traits@D@std@@V?$allocator@D@2@@std@@V?$map@V?$basic_string@DU?$char_traits@D@std@@V?$allocator@D@2@@std@@V12@UStlIniCompareStringNoCase@@V?$allocator@U?$pair@$$CBV?$basic_string@DU?$char_traits@D@std@@V?$allocator@D@2@@std@@V12@@std@@@2@@2@UStlIniCompareStringNoCase@@V?$allocator@U?$pair@$$CBV?$basic_string@DU?$char_traits@D@std@@V?$allocator@D@2@@std@@V?$map@V?$basic_string@DU?$char_traits@D@std@@V?$allocator@D@2@@std@@V12@UStlIniCompareStringNoCase@@V?$allocator@U?$pair@$$CBV?$basic_string@DU?$char_traits@D@std@@V?$allocator@D@2@@std@@V12@@std@@@2@@2@@std@@@2@$0A@@std@@@2@@Z 0040eae0 f i MonitorSchMain.obj
 0001:0000db40       ?_Lrotate@?$_Tree@V?$_Tmap_traits@V?$basic_string@DU?$char_traits@D@std@@V?$allocator@D@2@@std@@V12@UStlIniCompareStringNoCase@@V?$allocator@U?$pair@$$CBV?$basic_string@DU?$char_traits@D@std@@V?$allocator@D@2@@std@@V12@@std@@@2@$0A@@std@@@std@@IAEXPAU_Node@?$_Tree_nod@V?$_Tmap_traits@V?$basic_string@DU?$char_traits@D@std@@V?$allocator@D@2@@std@@V12@UStlIniCompareStringNoCase@@V?$allocator@U?$pair@$$CBV?$basic_string@DU?$char_traits@D@std@@V?$allocator@D@2@@std@@V12@@std@@@2@$0A@@std@@@2@@Z 0040eb40 f i MonitorSchMain.obj
 0001:0000dba0       ??1_Node@?$_Tree_nod@V?$_Tmap_traits@V?$basic_string@DU?$char_traits@D@std@@V?$allocator@D@2@@std@@V12@UStlIniCompareStringNoCase@@V?$allocator@U?$pair@$$CBV?$basic_string@DU?$char_traits@D@std@@V?$allocator@D@2@@std@@V12@@std@@@2@$0A@@std@@@std@@QAE@XZ 0040eba0 f i MonitorSchMain.obj
 0001:0000dbb0       ?Init@MonitorSchMain@@QAEHXZ 0040ebb0 f   MonitorSchMain.obj
 0001:0000e090       ?find@?$hashnode@Vword@svutil@@PAVTask@@@svutil@@QAE_NABVword@2@PAPAV?$hashelement@Vword@svutil@@PAVTask@@@2@@Z 0040f090 f i MonitorSchMain.obj
 0001:0000e160       ?GetMonitorByID@MonitorSchMain@@QAEPAVMonitor@@PBD@Z 0040f160 f   MonitorSchMain.obj
 0001:0000e1f0       ?InitGroupDependByMonitorChangeV70@MonitorSchMain@@IAE_NPAVMonitor@@0_N@Z 0040f1f0 f   MonitorSchMain.obj
 0001:0000e260       ?EntityChangeV70@MonitorSchMain@@IAE_NPAVEntity@@0_N@Z 0040f260 f   MonitorSchMain.obj
 0001:0000e2c0       ?erase@?$list@PAVEntity@@V?$allocator@PAVEntity@@@std@@@std@@QAE?AViterator@12@V312@@Z 0040f2c0 f i MonitorSchMain.obj
 0001:0000e2c0       ?erase@?$list@PAVGroupsItem@@V?$allocator@PAVGroupsItem@@@std@@@std@@QAE?AViterator@12@V312@@Z 0040f2c0 f i MonitorSchMain.obj
 0001:0000e300       ?find@?$hashnode@Vword@svutil@@PAVTask@@@svutil@@QAE_NABVword@2@PAPAPAVTask@@@Z 0040f300 f i MonitorSchMain.obj
 0001:0000e360       ?CheckGroupDependState@MonitorSchMain@@QAEHPAVMonitor@@AAVTString@@@Z 0040f360 f   MonitorSchMain.obj
 0001:0000e6c0       ?DeleteMonitorV70@MonitorSchMain@@QAE_NV?$basic_string@DU?$char_traits@D@std@@V?$allocator@D@2@@std@@@Z 0040f6c0 f   MonitorSchMain.obj
 0001:0000e7c0       ?find@?$hashtable@Vword@svutil@@PAVTask@@@svutil@@QAEPAPAVTask@@ABVword@2@@Z 0040f7c0 f i MonitorSchMain.obj
 0001:0000e830       ?CheckTask@MonitorSchMain@@QAE_NPAVMonitor@@VTTime@svutil@@AAH@Z 0040f830 f   MonitorSchMain.obj
 0001:0000ec60       ?AddMonitorV70@MonitorSchMain@@IAE_NV?$basic_string@DU?$char_traits@D@std@@V?$allocator@D@2@@std@@_N@Z 0040fc60 f   MonitorSchMain.obj
 0001:0000efd0       ?erase@?$_Tree@V?$_Tmap_traits@V?$basic_string@DU?$char_traits@D@std@@V?$allocator@D@2@@std@@V12@UStlIniCompareStringNoCase@@V?$allocator@U?$pair@$$CBV?$basic_string@DU?$char_traits@D@std@@V?$allocator@D@2@@std@@V12@@std@@@2@$0A@@std@@@std@@QAE?AViterator@12@V312@@Z 0040ffd0 f i MonitorSchMain.obj
 0001:0000f2d0       ??0out_of_range@std@@QAE@ABV01@@Z 004102d0 f i MonitorSchMain.obj
 0001:0000f2f0       ?_Erase@?$_Tree@V?$_Tmap_traits@V?$basic_string@DU?$char_traits@D@std@@V?$allocator@D@2@@std@@V12@UStlIniCompareStringNoCase@@V?$allocator@U?$pair@$$CBV?$basic_string@DU?$char_traits@D@std@@V?$allocator@D@2@@std@@V12@@std@@@2@$0A@@std@@@std@@IAEXPAU_Node@?$_Tree_nod@V?$_Tmap_traits@V?$basic_string@DU?$char_traits@D@std@@V?$allocator@D@2@@std@@V12@UStlIniCompareStringNoCase@@V?$allocator@U?$pair@$$CBV?$basic_string@DU?$char_traits@D@std@@V?$allocator@D@2@@std@@V12@@std@@@2@$0A@@std@@@2@@Z 004102f0 f i MonitorSchMain.obj
 0001:0000f330       ??1MonitorSchMain@@UAE@XZ  00410330 f   MonitorSchMain.obj
 0001:0000f460       ?ReLoadTaskV70@MonitorSchMain@@IAE_NXZ 00410460 f   MonitorSchMain.obj
 0001:0000f530       ??0MonitorSchMain@@QAE@XZ  00410530 f   MonitorSchMain.obj
 0001:0000f5e0       ??_GMonitorSchMain@@UAEPAXI@Z 004105e0 f i MonitorSchMain.obj
 0001:0000f5e0       ??_EMonitorSchMain@@UAEPAXI@Z 004105e0 f i MonitorSchMain.obj
 0001:0000f600       ?ReLoadMonitorsV70@MonitorSchMain@@IAE_NV?$basic_string@DU?$char_traits@D@std@@V?$allocator@D@2@@std@@@Z 00410600 f   MonitorSchMain.obj
 0001:0000f7b0       ?InitMonitorsGroupDependV70@MonitorSchMain@@IAE_NV?$basic_string@DU?$char_traits@D@std@@V?$allocator@D@2@@std@@@Z 004107b0 f   MonitorSchMain.obj
 0001:0000f8a0       ?AddGroupV70@MonitorSchMain@@IAE_NV?$basic_string@DU?$char_traits@D@std@@V?$allocator@D@2@@std@@_N@Z 004108a0 f   MonitorSchMain.obj
 0001:0000fb20       ?erase@?$_Tree@V?$_Tmap_traits@V?$basic_string@DU?$char_traits@D@std@@V?$allocator@D@2@@std@@V12@UStlIniCompareStringNoCase@@V?$allocator@U?$pair@$$CBV?$basic_string@DU?$char_traits@D@std@@V?$allocator@D@2@@std@@V12@@std@@@2@$0A@@std@@@std@@QAE?AViterator@12@V312@0@Z 00410b20 f i MonitorSchMain.obj
 0001:0000fbe0       ?AddEntityV70@MonitorSchMain@@IAE_NV?$basic_string@DU?$char_traits@D@std@@V?$allocator@D@2@@std@@_N@Z 00410be0 f   MonitorSchMain.obj
 0001:0000fe90       ?ProcessConfigChange@MonitorSchMain@@QAE_NV?$basic_string@DU?$char_traits@D@std@@V?$allocator@D@2@@std@@0@Z 00410e90 f   MonitorSchMain.obj
 0001:00010220       ??1?$map@V?$basic_string@DU?$char_traits@D@std@@V?$allocator@D@2@@std@@V12@UStlIniCompareStringNoCase@@V?$allocator@U?$pair@$$CBV?$basic_string@DU?$char_traits@D@std@@V?$allocator@D@2@@std@@V12@@std@@@2@@std@@QAE@XZ 00411220 f i MonitorSchMain.obj
 0001:00010220       ?_Tidy@?$_Tree@V?$_Tmap_traits@V?$basic_string@DU?$char_traits@D@std@@V?$allocator@D@2@@std@@V12@UStlIniCompareStringNoCase@@V?$allocator@U?$pair@$$CBV?$basic_string@DU?$char_traits@D@std@@V?$allocator@D@2@@std@@V12@@std@@@2@$0A@@std@@@std@@IAEXXZ 00411220 f i MonitorSchMain.obj
 0001:00010250       ??1?$pair@$$CBV?$basic_string@DU?$char_traits@D@std@@V?$allocator@D@2@@std@@V?$map@V?$basic_string@DU?$char_traits@D@std@@V?$allocator@D@2@@std@@V12@UStlIniCompareStringNoCase@@V?$allocator@U?$pair@$$CBV?$basic_string@DU?$char_traits@D@std@@V?$allocator@D@2@@std@@V12@@std@@@2@@2@@std@@QAE@XZ 00411250 f i MonitorSchMain.obj
 0001:000102d0       ??1_Node@?$_Tree_nod@V?$_Tmap_traits@V?$basic_string@DU?$char_traits@D@std@@V?$allocator@D@2@@std@@V?$map@V?$basic_string@DU?$char_traits@D@std@@V?$allocator@D@2@@std@@V12@UStlIniCompareStringNoCase@@V?$allocator@U?$pair@$$CBV?$basic_string@DU?$char_traits@D@std@@V?$allocator@D@2@@std@@V12@@std@@@2@@2@UStlIniCompareStringNoCase@@V?$allocator@U?$pair@$$CBV?$basic_string@DU?$char_traits@D@std@@V?$allocator@D@2@@std@@V?$map@V?$basic_string@DU?$char_traits@D@std@@V?$allocator@D@2@@std@@V12@UStlIniCompareStringNoCase@@V?$allocator@U?$pair@$$CBV?$basic_string@DU?$char_traits@D@std@@V?$allocator@D@2@@std@@V12@@std@@@2@@2@@std@@@2@$0A@@std@@@std@@QAE@XZ 004112d0 f i MonitorSchMain.obj
 0001:000102e0       ?erase@?$_Tree@V?$_Tmap_traits@V?$basic_string@DU?$char_traits@D@std@@V?$allocator@D@2@@std@@V?$map@V?$basic_string@DU?$char_traits@D@std@@V?$allocator@D@2@@std@@V12@UStlIniCompareStringNoCase@@V?$allocator@U?$pair@$$CBV?$basic_string@DU?$char_traits@D@std@@V?$allocator@D@2@@std@@V12@@std@@@2@@2@UStlIniCompareStringNoCase@@V?$allocator@U?$pair@$$CBV?$basic_string@DU?$char_traits@D@std@@V?$allocator@D@2@@std@@V?$map@V?$basic_string@DU?$char_traits@D@std@@V?$allocator@D@2@@std@@V12@UStlIniCompareStringNoCase@@V?$allocator@U?$pair@$$CBV?$basic_string@DU?$char_traits@D@std@@V?$allocator@D@2@@std@@V12@@std@@@2@@2@@std@@@2@$0A@@std@@@std@@QAE?AViterator@12@V312@@Z 004112e0 f i MonitorSchMain.obj
 0001:000105c0       ?_Erase@?$_Tree@V?$_Tmap_traits@V?$basic_string@DU?$char_traits@D@std@@V?$allocator@D@2@@std@@V?$map@V?$basic_string@DU?$char_traits@D@std@@V?$allocator@D@2@@std@@V12@UStlIniCompareStringNoCase@@V?$allocator@U?$pair@$$CBV?$basic_string@DU?$char_traits@D@std@@V?$allocator@D@2@@std@@V12@@std@@@2@@2@UStlIniCompareStringNoCase@@V?$allocator@U?$pair@$$CBV?$basic_string@DU?$char_traits@D@std@@V?$allocator@D@2@@std@@V?$map@V?$basic_string@DU?$char_traits@D@std@@V?$allocator@D@2@@std@@V12@UStlIniCompareStringNoCase@@V?$allocator@U?$pair@$$CBV?$basic_string@DU?$char_traits@D@std@@V?$allocator@D@2@@std@@V12@@std@@@2@@2@@std@@@2@$0A@@std@@@std@@IAEXPAU_Node@?$_Tree_nod@V?$_Tmap_traits@V?$basic_string@DU?$char_traits@D@std@@V?$allocator@D@2@@std@@V?$map@V?$basic_string@DU?$char_traits@D@std@@V?$allocator@D@2@@std@@V12@UStlIniCompareStringNoCase@@V?$allocator@U?$pair@$$CBV?$basic_string@DU?$char_traits@D@std@@V?$allocator@D@2@@std@@V12@@std@@@2@@2@UStlIniCompareStringNoCase@@V?$allocator@U?$pair@$$CBV?$basic_string@DU?$char_traits@D@std@@V?$allocator@D@2@@std@@V?$map@V?$basic_string@DU?$char_traits@D@std@@V?$allocator@D@2@@std@@V12@UStlIniCompareStringNoCase@@V?$allocator@U?$pair@$$CBV?$basic_string@DU?$char_traits@D@std@@V?$allocator@D@2@@std@@V12@@std@@@2@@2@@std@@@2@$0A@@std@@@2@@Z 004115c0 f i MonitorSchMain.obj
 0001:00010600       ?erase@?$_Tree@V?$_Tmap_traits@V?$basic_string@DU?$char_traits@D@std@@V?$allocator@D@2@@std@@V?$map@V?$basic_string@DU?$char_traits@D@std@@V?$allocator@D@2@@std@@V12@UStlIniCompareStringNoCase@@V?$allocator@U?$pair@$$CBV?$basic_string@DU?$char_traits@D@std@@V?$allocator@D@2@@std@@V12@@std@@@2@@2@UStlIniCompareStringNoCase@@V?$allocator@U?$pair@$$CBV?$basic_string@DU?$char_traits@D@std@@V?$allocator@D@2@@std@@V?$map@V?$basic_string@DU?$char_traits@D@std@@V?$allocator@D@2@@std@@V12@UStlIniCompareStringNoCase@@V?$allocator@U?$pair@$$CBV?$basic_string@DU?$char_traits@D@std@@V?$allocator@D@2@@std@@V12@@std@@@2@@2@@std@@@2@$0A@@std@@@std@@QAE?AViterator@12@V312@0@Z 00411600 f i MonitorSchMain.obj
 0001:000106c0       ??1?$map@V?$basic_string@DU?$char_traits@D@std@@V?$allocator@D@2@@std@@V?$map@V?$basic_string@DU?$char_traits@D@std@@V?$allocator@D@2@@std@@V12@UStlIniCompareStringNoCase@@V?$allocator@U?$pair@$$CBV?$basic_string@DU?$char_traits@D@std@@V?$allocator@D@2@@std@@V12@@std@@@2@@2@UStlIniCompareStringNoCase@@V?$allocator@U?$pair@$$CBV?$basic_string@DU?$char_traits@D@std@@V?$allocator@D@2@@std@@V?$map@V?$basic_string@DU?$char_traits@D@std@@V?$allocator@D@2@@std@@V12@UStlIniCompareStringNoCase@@V?$allocator@U?$pair@$$CBV?$basic_string@DU?$char_traits@D@std@@V?$allocator@D@2@@std@@V12@@std@@@2@@2@@std@@@2@@std@@QAE@XZ 004116c0 f i MonitorSchMain.obj
 0001:000106c0       ?_Tidy@?$_Tree@V?$_Tmap_traits@V?$basic_string@DU?$char_traits@D@std@@V?$allocator@D@2@@std@@V?$map@V?$basic_string@DU?$char_traits@D@std@@V?$allocator@D@2@@std@@V12@UStlIniCompareStringNoCase@@V?$allocator@U?$pair@$$CBV?$basic_string@DU?$char_traits@D@std@@V?$allocator@D@2@@std@@V12@@std@@@2@@2@UStlIniCompareStringNoCase@@V?$allocator@U?$pair@$$CBV?$basic_string@DU?$char_traits@D@std@@V?$allocator@D@2@@std@@V?$map@V?$basic_string@DU?$char_traits@D@std@@V?$allocator@D@2@@std@@V12@UStlIniCompareStringNoCase@@V?$allocator@U?$pair@$$CBV?$basic_string@DU?$char_traits@D@std@@V?$allocator@D@2@@std@@V12@@std@@@2@@2@@std@@@2@$0A@@std@@@std@@IAEXXZ 004116c0 f i MonitorSchMain.obj
 0001:000106f0       ??0TString@@QAE@VString@ost@@@Z 004116f0 f i MonitorThread.obj
 0001:00010750       ?Mid@TString@@QAE?AV1@HH@Z 00411750 f i MonitorThread.obj
 0001:00010790       ??4TString@@QAEAAV0@AAV?$basic_string@DU?$char_traits@D@std@@V?$allocator@D@2@@std@@@Z 00411790 f i MonitorThread.obj
 0001:000107d0       ?GetLibrary@Monitor@@QAE?AVTString@@XZ 004117d0 f i MonitorThread.obj
 0001:000107f0       ?GetProcess@Monitor@@QAE?AVTString@@XZ 004117f0 f i MonitorThread.obj
 0001:00010810       ?Judge@MonitorThread@@AAEHPBD00@Z 00411810 f   MonitorThread.obj
 0001:00010a30       ?ExecuteMonitor@MonitorThread@@QAEXPAVMonitor@@@Z 00411a30 f   MonitorThread.obj
 0001:00010a70       ?RunInProcess@MonitorThread@@IAE_NHV?$basic_string@DU?$char_traits@D@std@@V?$allocator@D@2@@std@@0@Z 00411a70 f   MonitorThread.obj
 0001:00011410       ?size@?$vector@V?$basic_string@DU?$char_traits@D@std@@V?$allocator@D@2@@std@@V?$allocator@V?$basic_string@DU?$char_traits@D@std@@V?$allocator@D@2@@std@@@2@@std@@QBEIXZ 00412410 f i MonitorThread.obj
 0001:00011440       ?_Xlen@?$vector@V?$basic_string@DU?$char_traits@D@std@@V?$allocator@D@2@@std@@V?$allocator@V?$basic_string@DU?$char_traits@D@std@@V?$allocator@D@2@@std@@@2@@std@@IBEXXZ 00412440 f i MonitorThread.obj
 0001:000114c0       ?CountNodes@?$sorttree@V?$hashelement@Vword@svutil@@V12@@svutil@@@svutil@@AAEXPAV?$treenode@V?$hashelement@Vword@svutil@@V12@@svutil@@@2@AAK@Z 004124c0 f i MonitorThread.obj
 0001:000114f0       ??$fill@PAV?$basic_string@DU?$char_traits@D@std@@V?$allocator@D@2@@std@@V12@@std@@YAXPAV?$basic_string@DU?$char_traits@D@std@@V?$allocator@D@2@@0@0ABV10@@Z 004124f0 f i MonitorThread.obj
 0001:00011520       ??$_Copy_backward_opt@PAV?$basic_string@DU?$char_traits@D@std@@V?$allocator@D@2@@std@@PAV12@@std@@YAPAV?$basic_string@DU?$char_traits@D@std@@V?$allocator@D@2@@0@PAV10@00U_Nonscalar_ptr_iterator_tag@0@@Z 00412520 f i MonitorThread.obj
 0001:00011560       ?findnextnode@?$sorttree@V?$hashelement@Vword@svutil@@V12@@svutil@@@svutil@@ABEPAV?$treenode@V?$hashelement@Vword@svutil@@V12@@svutil@@@2@AAV?$hashelement@Vword@svutil@@V12@@2@AA_NPAV32@@Z 00412560 f i MonitorThread.obj
 0001:000115d0       ??$_Uninit_copy@PAV?$basic_string@DU?$char_traits@D@std@@V?$allocator@D@2@@std@@PAV12@V?$allocator@V?$basic_string@DU?$char_traits@D@std@@V?$allocator@D@2@@std@@@2@@std@@YAPAV?$basic_string@DU?$char_traits@D@std@@V?$allocator@D@2@@0@PAV10@00AAV?$allocator@V?$basic_string@DU?$char_traits@D@std@@V?$allocator@D@2@@std@@@0@U_Nonscalar_ptr_iterator_tag@0@@Z 004125d0 f i MonitorThread.obj
 0001:00011660       ?_Incsize@?$list@PAVReturnValue@@V?$allocator@PAVReturnValue@@@std@@@std@@IAEXI@Z 00412660 f i MonitorThread.obj
 0001:00011700       ??1?$hashnode@Vword@svutil@@V12@@svutil@@QAE@XZ 00412700 f i MonitorThread.obj
 0001:000117b0       ??$_Uninit_fill_n@PAV?$basic_string@DU?$char_traits@D@std@@V?$allocator@D@2@@std@@IV12@V?$allocator@V?$basic_string@DU?$char_traits@D@std@@V?$allocator@D@2@@std@@@2@@std@@YAXPAV?$basic_string@DU?$char_traits@D@std@@V?$allocator@D@2@@0@IABV10@AAV?$allocator@V?$basic_string@DU?$char_traits@D@std@@V?$allocator@D@2@@std@@@0@U_Nonscalar_ptr_iterator_tag@0@@Z 004127b0 f i MonitorThread.obj
 0001:00011840       ?MakeInBuf@MonitorThread@@AAEHXZ 00412840 f   MonitorThread.obj
 0001:000118f0       ?push_back@?$list@PAVReturnValue@@V?$allocator@PAVReturnValue@@@std@@@std@@QAEXABQAVReturnValue@@@Z 004128f0 f i MonitorThread.obj
 0001:00011930       ?size@?$hashtable@Vword@svutil@@V12@@svutil@@QAEIXZ 00412930 f i MonitorThread.obj
 0001:000119d0       ?clearnodes@?$hashtable@Vword@svutil@@V12@@svutil@@IAEXXZ 004129d0 f i MonitorThread.obj
 0001:00011a40       ??1TaskWeekDay@@QAE@XZ     00412a40 f i Task.obj
 0001:00011a40       ??1?$vector@U?$pair@HH@std@@V?$allocator@U?$pair@HH@std@@@2@@std@@QAE@XZ 00412a40 f i readSVDB.obj
 0001:00011a40       ??1?$vector@PAV?$hashnode@Vword@svutil@@V12@@svutil@@V?$allocator@PAV?$hashnode@Vword@svutil@@V12@@svutil@@@std@@@std@@QAE@XZ 00412a40 f i MonitorThread.obj
 0001:00011a40       ??1?$vector@PAV?$hashnode@Vword@svutil@@PAVTask@@@svutil@@V?$allocator@PAV?$hashnode@Vword@svutil@@PAVTask@@@svutil@@@std@@@std@@QAE@XZ 00412a40 f i MonitorSchedule.obj
 0001:00011a70       ?_Destroy@?$vector@V?$basic_string@DU?$char_traits@D@std@@V?$allocator@D@2@@std@@V?$allocator@V?$basic_string@DU?$char_traits@D@std@@V?$allocator@D@2@@std@@@2@@std@@IAEXPAV?$basic_string@DU?$char_traits@D@std@@V?$allocator@D@2@@2@0@Z 00412a70 f i MonitorThread.obj
 0001:00011aa0       ?_Tidy@?$vector@V?$basic_string@DU?$char_traits@D@std@@V?$allocator@D@2@@std@@V?$allocator@V?$basic_string@DU?$char_traits@D@std@@V?$allocator@D@2@@std@@@2@@std@@IAEXXZ 00412aa0 f i MonitorThread.obj
 0001:00011af0       ?_Ufill@?$vector@V?$basic_string@DU?$char_traits@D@std@@V?$allocator@D@2@@std@@V?$allocator@V?$basic_string@DU?$char_traits@D@std@@V?$allocator@D@2@@std@@@2@@std@@IAEPAV?$basic_string@DU?$char_traits@D@std@@V?$allocator@D@2@@2@PAV32@IABV32@@Z 00412af0 f i MonitorThread.obj
 0001:00011b20       ?findnext@?$hashnode@Vword@svutil@@V12@@svutil@@QAE_NAAV?$hashelement@Vword@svutil@@V12@@2@PAPAV32@@Z 00412b20 f i MonitorThread.obj
 0001:00011bd0       ?_Insert_n@?$vector@V?$basic_string@DU?$char_traits@D@std@@V?$allocator@D@2@@std@@V?$allocator@V?$basic_string@DU?$char_traits@D@std@@V?$allocator@D@2@@std@@@2@@std@@IAEXViterator@12@IABV?$basic_string@DU?$char_traits@D@std@@V?$allocator@D@2@@2@@Z 00412bd0 f i MonitorThread.obj
 0001:00011f00       ?ParserExpression@MonitorThread@@AAEHVTString@@AAV?$list@V?$basic_string@DU?$char_traits@D@std@@V?$allocator@D@2@@std@@V?$allocator@V?$basic_string@DU?$char_traits@D@std@@V?$allocator@D@2@@std@@@2@@std@@1@Z 00412f00 f   MonitorThread.obj
 0001:00012320       ??1?$hashtable@Vword@svutil@@V12@@svutil@@QAE@XZ 00413320 f i MonitorThread.obj
 0001:00012380       ?findnext@?$hashtable@Vword@svutil@@V12@@svutil@@QAE_NAAViterator@12@@Z 00413380 f i MonitorThread.obj
 0001:00012420       ??1?$vector@V?$basic_string@DU?$char_traits@D@std@@V?$allocator@D@2@@std@@V?$allocator@V?$basic_string@DU?$char_traits@D@std@@V?$allocator@D@2@@std@@@2@@std@@QAE@XZ 00413420 f i MonitorThread.obj
 0001:00012430       ?pop_back@?$vector@V?$basic_string@DU?$char_traits@D@std@@V?$allocator@D@2@@std@@V?$allocator@V?$basic_string@DU?$char_traits@D@std@@V?$allocator@D@2@@std@@@2@@std@@QAEXXZ 00413430 f i MonitorThread.obj
 0001:00012480       ?insert@?$vector@V?$basic_string@DU?$char_traits@D@std@@V?$allocator@D@2@@std@@V?$allocator@V?$basic_string@DU?$char_traits@D@std@@V?$allocator@D@2@@std@@@2@@std@@QAE?AViterator@12@V312@ABV?$basic_string@DU?$char_traits@D@std@@V?$allocator@D@2@@2@@Z 00413480 f i MonitorThread.obj
 0001:000124f0       ??1MonitorThread@@UAE@XZ   004134f0 f   MonitorThread.obj
 0001:000125b0       ?InitData@MonitorThread@@AAEXXZ 004135b0 f   MonitorThread.obj
 0001:00012680       ?ClearResult@MonitorThread@@AAEXXZ 00413680 f   MonitorThread.obj
 0001:00012730       ?ProcessResultV70@MonitorThread@@AAEXXZ 00413730 f   MonitorThread.obj
 0001:00012cd0       ??0?$hashtable@Vword@svutil@@V12@@svutil@@QAE@XZ 00413cd0 f i MonitorThread.obj
 0001:00012d20       ?push_back@?$vector@V?$basic_string@DU?$char_traits@D@std@@V?$allocator@D@2@@std@@V?$allocator@V?$basic_string@DU?$char_traits@D@std@@V?$allocator@D@2@@std@@@2@@std@@QAEXABV?$basic_string@DU?$char_traits@D@std@@V?$allocator@D@2@@2@@Z 00413d20 f i MonitorThread.obj
 0001:00012db0       ??_GMonitorThread@@UAEPAXI@Z 00413db0 f i MonitorThread.obj
 0001:00012db0       ??_EMonitorThread@@UAEPAXI@Z 00413db0 f i MonitorThread.obj
 0001:00012dd0       ?String2Array@@YAXAAV?$vector@V?$basic_string@DU?$char_traits@D@std@@V?$allocator@D@2@@std@@V?$allocator@V?$basic_string@DU?$char_traits@D@std@@V?$allocator@D@2@@std@@@2@@std@@V?$basic_string@DU?$char_traits@D@std@@V?$allocator@D@2@@2@1@Z 00413dd0 f   MonitorThread.obj
 0001:00012ed0       ??0MonitorThread@@QAE@XZ   00413ed0 f   MonitorThread.obj
 0001:00012fc0       ?CheckSingleItemState@MonitorThread@@AAEHPAVStateCondition@@H@Z 00413fc0 f   MonitorThread.obj
 0001:000134f0       ?CheckStateByType@MonitorThread@@AAEHH@Z 004144f0 f   MonitorThread.obj
 0001:00013a50       ?BulidStringMap@MonitorThread@@AAE_NAAV?$hashtable@Vword@svutil@@V12@@svutil@@PBD@Z 00414a50 f   MonitorThread.obj
 0001:00013cc0       ?PaserResultV70@MonitorThread@@AAEHXZ 00414cc0 f   MonitorThread.obj
 0001:000141f0       ?ParserMonitorState@MonitorThread@@AAEXXZ 004151f0 f   MonitorThread.obj
 0001:00014290       ?RunMonitor@MonitorThread@@IAEXXZ 00415290 f   MonitorThread.obj
 0001:00014890       ?run@MonitorThread@@UAEXXZ 00415890 f   MonitorThread.obj
 0001:00014b90       ??0MSGQueue@@QAE@XZ        00415b90 f   MSGQueue.obj
 0001:00014c20       ??1MSGQueue@@QAE@XZ        00415c20 f   MSGQueue.obj
 0001:00014ca0       ??1CommunicationThread@@UAE@XZ 00415ca0 f   ommunicationThread.obj
 0001:00014cb0       ?run@CommunicationThread@@UAEXXZ 00415cb0 f   ommunicationThread.obj
 0001:00015010       ??0Option@@QAE@XZ          00416010 f   Option.obj
 0001:000150d0       ?LoadOption@Option@@QAE_NXZ 004160d0 f   Option.obj
 0001:000157d0       ??0ProcessMonitorData@@QAE@XZ 004167d0 f   ProcessMonitorData.obj
 0001:00015860       ??1ProcessMonitorData@@QAE@XZ 00416860 f   ProcessMonitorData.obj
 0001:000158b0       ?GetRawDataSize@ProcessMonitorData@@QAEHXZ 004168b0 f   ProcessMonitorData.obj
 0001:000158c0       ?GetRawData@ProcessMonitorData@@QAE_NPADH@Z 004168c0 f   ProcessMonitorData.obj
 0001:00015980       ?CreateObjectByRawData@ProcessMonitorData@@QAE_NPBDH@Z 00416980 f   ProcessMonitorData.obj
 0001:00015ab0       ?Clear@ProcessMonitorData@@QAEXXZ 00416ab0 f   ProcessMonitorData.obj
 0001:00015ac0       ??1QueueItem@@UAE@XZ       00416ac0 f   QueueItem.obj
 0001:00015b40       ?Push@QueueItem@@QAEXPAVMonitor@@H@Z 00416b40 f   QueueItem.obj
 0001:00015c60       ?Pop@QueueItem@@QAEPAVMonitor@@XZ 00416c60 f   QueueItem.obj
 0001:00015d10       ??_GQueueItem@@UAEPAXI@Z   00416d10 f i QueueItem.obj
 0001:00015d10       ??_EQueueItem@@UAEPAXI@Z   00416d10 f i QueueItem.obj
 0001:00015d30       ?Pop@QueuesManager@@QAEPAVMonitor@@H@Z 00416d30 f   QueuesManager.obj
 0001:00015d50       ??_EQueuesManager@@UAEPAXI@Z 00416d50 f i QueuesManager.obj
 0001:00015d50       ??_GQueuesManager@@UAEPAXI@Z 00416d50 f i QueuesManager.obj
 0001:00015d70       ?ListAllQueueInfo@QueuesManager@@QAEXXZ 00416d70 f   QueuesManager.obj
 0001:00015e20       ?GetQueueIndexByClass@QueuesManager@@QAEHPBD@Z 00416e20 f   QueuesManager.obj
 0001:00015e90       ?Pop@QueuesManager@@QAEPAVMonitor@@PBD@Z 00416e90 f   QueuesManager.obj
 0001:00015ec0       ?Push@QueuesManager@@QAEHPAVMonitor@@PBDH@Z 00416ec0 f   QueuesManager.obj
 0001:00015f20       ?Push@QueuesManager@@QAEHPAVMonitor@@H@Z 00416f20 f   QueuesManager.obj
 0001:00015fe0       ??0QueueItem@@QAE@PBD@Z    00416fe0 f i QueuesManager.obj
 0001:00016050       ?CreateQueueBySubsequent@QueuesManager@@AAEHXZ 00417050 f   QueuesManager.obj
 0001:00016120       ?CreateMainQueue@QueuesManager@@AAEHXZ 00417120 f   QueuesManager.obj
 0001:000161c0       ?Init@QueuesManager@@QAEHXZ 004171c0 f   QueuesManager.obj
 0001:00016220       ??1sv_pair@@QAE@XZ         00417220 f i readSVDB.obj
 0001:00016270       ??0readSVDB@@QAE@XZ        00417270 f   readSVDB.obj
 0001:000162e0       ??1readSVDB@@QAE@XZ        004172e0 f   readSVDB.obj
 0001:00016350       ?GetSGProValue@readSVDB@@QAE_NV?$basic_string@DU?$char_traits@D@std@@V?$allocator@D@2@@std@@0AAV23@@Z 00417350 f   readSVDB.obj
 0001:000164d0       ?_Xlen@?$vector@U?$pair@HH@std@@V?$allocator@U?$pair@HH@std@@@2@@std@@IBEXXZ 004174d0 f i readSVDB.obj
 0001:000164d0       ?_Xlen@?$vector@UPairTime@@V?$allocator@UPairTime@@@std@@@std@@IBEXXZ 004174d0 f i readSVDB.obj
 0001:00016550       ??0?$hashelement@Vword@svutil@@PAVTask@@@svutil@@QAE@ABVword@1@ABQAVTask@@@Z 00417550 f i readSVDB.obj
 0001:000165c0       ?_Min@?$_Tree@V?$_Tmap_traits@HPAXU?$less@H@std@@V?$allocator@U?$pair@$$CBHPAX@std@@@2@$0A@@std@@@std@@KAPAU_Node@?$_Tree_nod@V?$_Tmap_traits@HPAXU?$less@H@std@@V?$allocator@U?$pair@$$CBHPAX@std@@@2@$0A@@std@@@2@PAU342@@Z 004175c0 f i readSVDB.obj
 0001:000165e0       ?_Min@?$_Tree@V?$_Tmap_traits@V?$basic_string@DU?$char_traits@D@std@@V?$allocator@D@2@@std@@PAXU?$less@V?$basic_string@DU?$char_traits@D@std@@V?$allocator@D@2@@std@@@2@V?$allocator@U?$pair@$$CBV?$basic_string@DU?$char_traits@D@std@@V?$allocator@D@2@@std@@PAX@std@@@2@$0A@@std@@@std@@KAPAU_Node@?$_Tree_nod@V?$_Tmap_traits@V?$basic_string@DU?$char_traits@D@std@@V?$allocator@D@2@@std@@PAXU?$less@V?$basic_string@DU?$char_traits@D@std@@V?$allocator@D@2@@std@@@2@V?$allocator@U?$pair@$$CBV?$basic_string@DU?$char_traits@D@std@@V?$allocator@D@2@@std@@PAX@std@@@2@$0A@@std@@@2@PAU342@@Z 004175e0 f i readSVDB.obj
 0001:00016600       ??1?$treenode@V?$hashelement@Vword@svutil@@PAVTask@@@svutil@@@svutil@@UAE@XZ 00417600 f i readSVDB.obj
 0001:00016620       ??_G?$treenode@V?$hashelement@Vword@svutil@@PAVTask@@@svutil@@@svutil@@UAEPAXI@Z 00417620 f i readSVDB.obj
 0001:00016620       ??_E?$treenode@V?$hashelement@Vword@svutil@@PAVTask@@@svutil@@@svutil@@UAEPAXI@Z 00417620 f i readSVDB.obj
 0001:00016640       ?_Max@?$_Tree@V?$_Tmap_traits@HPAXU?$less@H@std@@V?$allocator@U?$pair@$$CBHPAX@std@@@2@$0A@@std@@@std@@KAPAU_Node@?$_Tree_nod@V?$_Tmap_traits@HPAXU?$less@H@std@@V?$allocator@U?$pair@$$CBHPAX@std@@@2@$0A@@std@@@2@PAU342@@Z 00417640 f i readSVDB.obj
 0001:00016660       ?_Max@?$_Tree@V?$_Tmap_traits@V?$basic_string@DU?$char_traits@D@std@@V?$allocator@D@2@@std@@PAXU?$less@V?$basic_string@DU?$char_traits@D@std@@V?$allocator@D@2@@std@@@2@V?$allocator@U?$pair@$$CBV?$basic_string@DU?$char_traits@D@std@@V?$allocator@D@2@@std@@PAX@std@@@2@$0A@@std@@@std@@KAPAU_Node@?$_Tree_nod@V?$_Tmap_traits@V?$basic_string@DU?$char_traits@D@std@@V?$allocator@D@2@@std@@PAXU?$less@V?$basic_string@DU?$char_traits@D@std@@V?$allocator@D@2@@std@@@2@V?$allocator@U?$pair@$$CBV?$basic_string@DU?$char_traits@D@std@@V?$allocator@D@2@@std@@PAX@std@@@2@$0A@@std@@@2@PAU342@@Z 00417660 f i readSVDB.obj
 0001:00016680       ??M?$treenode@V?$hashelement@Vword@svutil@@PAVTask@@@svutil@@@svutil@@QAE_NV01@@Z 00417680 f i readSVDB.obj
 0001:000166f0       ??O?$treenode@V?$hashelement@Vword@svutil@@PAVTask@@@svutil@@@svutil@@QAE_NV01@@Z 004176f0 f i readSVDB.obj
 0001:00016760       ??$fill@PAUPairTime@@U1@@std@@YAXPAUPairTime@@0ABU1@@Z 00417760 f i readSVDB.obj
 0001:000167a0       ??$fill@PAU?$pair@HH@std@@U12@@std@@YAXPAU?$pair@HH@0@0ABU10@@Z 004177a0 f i readSVDB.obj
 0001:000167d0       ??1_Node@?$_Tree_nod@V?$_Tmap_traits@V?$basic_string@DU?$char_traits@D@std@@V?$allocator@D@2@@std@@PAXU?$less@V?$basic_string@DU?$char_traits@D@std@@V?$allocator@D@2@@std@@@2@V?$allocator@U?$pair@$$CBV?$basic_string@DU?$char_traits@D@std@@V?$allocator@D@2@@std@@PAX@std@@@2@$0A@@std@@@std@@QAE@XZ 004177d0 f i readSVDB.obj
 0001:000167e0       ??1_Node@?$_List_nod@Usv_pair@@V?$allocator@Usv_pair@@@std@@@std@@QAE@XZ 004177e0 f i readSVDB.obj
 0001:000167f0       ??0?$treenode@V?$hashelement@Vword@svutil@@PAVTask@@@svutil@@@svutil@@QAE@ABV?$hashelement@Vword@svutil@@PAVTask@@@1@@Z 004177f0 f i readSVDB.obj
 0001:00016870       ??$_Copy_backward_opt@PAUPairTime@@PAU1@@std@@YAPAUPairTime@@PAU1@00U_Nonscalar_ptr_iterator_tag@0@@Z 00417870 f i readSVDB.obj
 0001:000168b0       ?_Lrotate@?$_Tree@V?$_Tmap_traits@HPAXU?$less@H@std@@V?$allocator@U?$pair@$$CBHPAX@std@@@2@$0A@@std@@@std@@IAEXPAU_Node@?$_Tree_nod@V?$_Tmap_traits@HPAXU?$less@H@std@@V?$allocator@U?$pair@$$CBHPAX@std@@@2@$0A@@std@@@2@@Z 004178b0 f i readSVDB.obj
 0001:00016910       ?_Rrotate@?$_Tree@V?$_Tmap_traits@HPAXU?$less@H@std@@V?$allocator@U?$pair@$$CBHPAX@std@@@2@$0A@@std@@@std@@IAEXPAU_Node@?$_Tree_nod@V?$_Tmap_traits@HPAXU?$less@H@std@@V?$allocator@U?$pair@$$CBHPAX@std@@@2@$0A@@std@@@2@@Z 00417910 f i readSVDB.obj
 0001:00016970       ?_Lbound@?$_Tree@V?$_Tmap_traits@V?$basic_string@DU?$char_traits@D@std@@V?$allocator@D@2@@std@@PAXU?$less@V?$basic_string@DU?$char_traits@D@std@@V?$allocator@D@2@@std@@@2@V?$allocator@U?$pair@$$CBV?$basic_string@DU?$char_traits@D@std@@V?$allocator@D@2@@std@@PAX@std@@@2@$0A@@std@@@std@@IBEPAU_Node@?$_Tree_nod@V?$_Tmap_traits@V?$basic_string@DU?$char_traits@D@std@@V?$allocator@D@2@@std@@PAXU?$less@V?$basic_string@DU?$char_traits@D@std@@V?$allocator@D@2@@std@@@2@V?$allocator@U?$pair@$$CBV?$basic_string@DU?$char_traits@D@std@@V?$allocator@D@2@@std@@PAX@std@@@2@$0A@@std@@@2@ABV?$basic_string@DU?$char_traits@D@std@@V?$allocator@D@2@@2@@Z 00417970 f i readSVDB.obj
 0001:000169c0       ?_Lrotate@?$_Tree@V?$_Tmap_traits@V?$basic_string@DU?$char_traits@D@std@@V?$allocator@D@2@@std@@PAXU?$less@V?$basic_string@DU?$char_traits@D@std@@V?$allocator@D@2@@std@@@2@V?$allocator@U?$pair@$$CBV?$basic_string@DU?$char_traits@D@std@@V?$allocator@D@2@@std@@PAX@std@@@2@$0A@@std@@@std@@IAEXPAU_Node@?$_Tree_nod@V?$_Tmap_traits@V?$basic_string@DU?$char_traits@D@std@@V?$allocator@D@2@@std@@PAXU?$less@V?$basic_string@DU?$char_traits@D@std@@V?$allocator@D@2@@std@@@2@V?$allocator@U?$pair@$$CBV?$basic_string@DU?$char_traits@D@std@@V?$allocator@D@2@@std@@PAX@std@@@2@$0A@@std@@@2@@Z 004179c0 f i readSVDB.obj
 0001:00016a20       ?_Rrotate@?$_Tree@V?$_Tmap_traits@V?$basic_string@DU?$char_traits@D@std@@V?$allocator@D@2@@std@@PAXU?$less@V?$basic_string@DU?$char_traits@D@std@@V?$allocator@D@2@@std@@@2@V?$allocator@U?$pair@$$CBV?$basic_string@DU?$char_traits@D@std@@V?$allocator@D@2@@std@@PAX@std@@@2@$0A@@std@@@std@@IAEXPAU_Node@?$_Tree_nod@V?$_Tmap_traits@V?$basic_string@DU?$char_traits@D@std@@V?$allocator@D@2@@std@@PAXU?$less@V?$basic_string@DU?$char_traits@D@std@@V?$allocator@D@2@@std@@@2@V?$allocator@U?$pair@$$CBV?$basic_string@DU?$char_traits@D@std@@V?$allocator@D@2@@std@@PAX@std@@@2@$0A@@std@@@2@@Z 00417a20 f i readSVDB.obj
 0001:00016a80       ?_Inc@const_iterator@?$_Tree@V?$_Tmap_traits@HPAXU?$less@H@std@@V?$allocator@U?$pair@$$CBHPAX@std@@@2@$0A@@std@@@std@@QAEXXZ 00417a80 f i readSVDB.obj
 0001:00016ae0       ?_Inc@const_iterator@?$_Tree@V?$_Tmap_traits@V?$basic_string@DU?$char_traits@D@std@@V?$allocator@D@2@@std@@PAXU?$less@V?$basic_string@DU?$char_traits@D@std@@V?$allocator@D@2@@std@@@2@V?$allocator@U?$pair@$$CBV?$basic_string@DU?$char_traits@D@std@@V?$allocator@D@2@@std@@PAX@std@@@2@$0A@@std@@@std@@QAEXXZ 00417ae0 f i readSVDB.obj
 0001:00016b40       ?_Dec@const_iterator@?$_Tree@V?$_Tmap_traits@HPAXU?$less@H@std@@V?$allocator@U?$pair@$$CBHPAX@std@@@2@$0A@@std@@@std@@QAEXXZ 00417b40 f i readSVDB.obj
 0001:00016ba0       ?_Dec@const_iterator@?$_Tree@V?$_Tmap_traits@V?$basic_string@DU?$char_traits@D@std@@V?$allocator@D@2@@std@@PAXU?$less@V?$basic_string@DU?$char_traits@D@std@@V?$allocator@D@2@@std@@@2@V?$allocator@U?$pair@$$CBV?$basic_string@DU?$char_traits@D@std@@V?$allocator@D@2@@std@@PAX@std@@@2@$0A@@std@@@std@@QAEXXZ 00417ba0 f i readSVDB.obj
 0001:00016c00       ??0?$treenode@V?$hashelement@Vword@svutil@@PAVTask@@@svutil@@@svutil@@QAE@ABV01@@Z 00417c00 f i readSVDB.obj
 0001:00016c80       ??$make_pair@V?$basic_string@DU?$char_traits@D@std@@V?$allocator@D@2@@std@@PAX@std@@YA?AU?$pair@V?$basic_string@DU?$char_traits@D@std@@V?$allocator@D@2@@std@@PAX@0@V?$basic_string@DU?$char_traits@D@std@@V?$allocator@D@2@@0@PAX@Z 00417c80 f i readSVDB.obj
 0001:00016cf0       ??$copy_backward@PAU?$pair@HH@std@@PAU12@@std@@YAPAU?$pair@HH@0@PAU10@00@Z 00417cf0 f i readSVDB.obj
 0001:00016d20       ??$CreateNode@V?$hashelement@Vword@svutil@@PAVTask@@@svutil@@@?$sorttree@V?$hashelement@Vword@svutil@@PAVTask@@@svutil@@@svutil@@SAPAV?$treenode@V?$hashelement@Vword@svutil@@PAVTask@@@svutil@@@1@ABV?$hashelement@Vword@svutil@@PAVTask@@@1@@Z 00417d20 f i readSVDB.obj
 0001:00016d80       ??$_Uninit_copy@PAUPairTime@@PAU1@V?$allocator@UPairTime@@@std@@@std@@YAPAUPairTime@@PAU1@00AAV?$allocator@UPairTime@@@0@U_Nonscalar_ptr_iterator_tag@0@@Z 00417d80 f i readSVDB.obj
 0001:00016dc0       ??$_Uninit_copy@PAU?$pair@HH@std@@PAU12@V?$allocator@U?$pair@HH@std@@@2@@std@@YAPAU?$pair@HH@0@PAU10@00AAV?$allocator@U?$pair@HH@std@@@0@U_Nonscalar_ptr_iterator_tag@0@@Z 00417dc0 f i readSVDB.obj
 0001:00016df0       ?_Erase@?$_Tree@V?$_Tmap_traits@HPAXU?$less@H@std@@V?$allocator@U?$pair@$$CBHPAX@std@@@2@$0A@@std@@@std@@IAEXPAU_Node@?$_Tree_nod@V?$_Tmap_traits@HPAXU?$less@H@std@@V?$allocator@U?$pair@$$CBHPAX@std@@@2@$0A@@std@@@2@@Z 00417df0 f i readSVDB.obj
 0001:00016e30       ?_Buynode@?$list@Usv_pair@@V?$allocator@Usv_pair@@@std@@@std@@IAEPAU_Node@?$_List_nod@Usv_pair@@V?$allocator@Usv_pair@@@std@@@2@XZ 00417e30 f i readSVDB.obj
 0001:00016e50       ?_Incsize@?$list@PAVSubsequentItem@@V?$allocator@PAVSubsequentItem@@@std@@@std@@IAEXI@Z 00417e50 f i readSVDB.obj
 0001:00016ef0       ?_Buynode@?$_Tree@V?$_Tmap_traits@HPAXU?$less@H@std@@V?$allocator@U?$pair@$$CBHPAX@std@@@2@$0A@@std@@@std@@IAEPAU_Node@?$_Tree_nod@V?$_Tmap_traits@HPAXU?$less@H@std@@V?$allocator@U?$pair@$$CBHPAX@std@@@2@$0A@@std@@@2@PAU342@00ABU?$pair@$$CBHPAX@2@D@Z 00417ef0 f i readSVDB.obj
 0001:00016f30       ?_Buynode@?$_Tree@V?$_Tmap_traits@V?$basic_string@DU?$char_traits@D@std@@V?$allocator@D@2@@std@@PAXU?$less@V?$basic_string@DU?$char_traits@D@std@@V?$allocator@D@2@@std@@@2@V?$allocator@U?$pair@$$CBV?$basic_string@DU?$char_traits@D@std@@V?$allocator@D@2@@std@@PAX@std@@@2@$0A@@std@@@std@@IAEPAU_Node@?$_Tree_nod@V?$_Tmap_traits@V?$basic_string@DU?$char_traits@D@std@@V?$allocator@D@2@@std@@PAXU?$less@V?$basic_string@DU?$char_traits@D@std@@V?$allocator@D@2@@std@@@2@V?$allocator@U?$pair@$$CBV?$basic_string@DU?$char_traits@D@std@@V?$allocator@D@2@@std@@PAX@std@@@2@$0A@@std@@@2@PAU342@00ABU?$pair@$$CBV?$basic_string@DU?$char_traits@D@std@@V?$allocator@D@2@@std@@PAX@2@D@Z 00417f30 f i readSVDB.obj
 0001:00016fd0       ?_Buynode@?$_Tree@V?$_Tmap_traits@HPAXU?$less@H@std@@V?$allocator@U?$pair@$$CBHPAX@std@@@2@$0A@@std@@@std@@IAEPAU_Node@?$_Tree_nod@V?$_Tmap_traits@HPAXU?$less@H@std@@V?$allocator@U?$pair@$$CBHPAX@std@@@2@$0A@@std@@@2@XZ 00417fd0 f i readSVDB.obj
 0001:00017010       ?_Buynode@?$_Tree@V?$_Tmap_traits@V?$basic_string@DU?$char_traits@D@std@@V?$allocator@D@2@@std@@PAXU?$less@V?$basic_string@DU?$char_traits@D@std@@V?$allocator@D@2@@std@@@2@V?$allocator@U?$pair@$$CBV?$basic_string@DU?$char_traits@D@std@@V?$allocator@D@2@@std@@PAX@std@@@2@$0A@@std@@@std@@IAEPAU_Node@?$_Tree_nod@V?$_Tmap_traits@V?$basic_string@DU?$char_traits@D@std@@V?$allocator@D@2@@std@@PAXU?$less@V?$basic_string@DU?$char_traits@D@std@@V?$allocator@D@2@@std@@@2@V?$allocator@U?$pair@$$CBV?$basic_string@DU?$char_traits@D@std@@V?$allocator@D@2@@std@@PAX@std@@@2@$0A@@std@@@2@XZ 00418010 f i readSVDB.obj
 0001:00017050       ?InsertNode@?$sorttree@V?$hashelement@Vword@svutil@@PAVTask@@@svutil@@@svutil@@QAEXPAV?$treenode@V?$hashelement@Vword@svutil@@PAVTask@@@svutil@@@2@0@Z 00418050 f i readSVDB.obj
 0001:000170e0       ??$_Uninit_fill_n@PAUPairTime@@IU1@V?$allocator@UPairTime@@@std@@@std@@YAXPAUPairTime@@IABU1@AAV?$allocator@UPairTime@@@0@U_Nonscalar_ptr_iterator_tag@0@@Z 004180e0 f i readSVDB.obj
 0001:00017120       ??$_Uninit_fill_n@PAU?$pair@HH@std@@IU12@V?$allocator@U?$pair@HH@std@@@2@@std@@YAXPAU?$pair@HH@0@IABU10@AAV?$allocator@U?$pair@HH@std@@@0@U_Nonscalar_ptr_iterator_tag@0@@Z 00418120 f i readSVDB.obj
 0001:00017150       ?find@?$_Tree@V?$_Tmap_traits@HPAXU?$less@H@std@@V?$allocator@U?$pair@$$CBHPAX@std@@@2@$0A@@std@@@std@@QAE?AViterator@12@ABH@Z 00418150 f i readSVDB.obj
 0001:000171c0       ?_Insert@?$_Tree@V?$_Tmap_traits@HPAXU?$less@H@std@@V?$allocator@U?$pair@$$CBHPAX@std@@@2@$0A@@std@@@std@@IAE?AViterator@12@_NPAU_Node@?$_Tree_nod@V?$_Tmap_traits@HPAXU?$less@H@std@@V?$allocator@U?$pair@$$CBHPAX@std@@@2@$0A@@std@@@2@ABU?$pair@$$CBHPAX@2@@Z 004181c0 f i readSVDB.obj
 0001:00017380       ?_Insert@?$_Tree@V?$_Tmap_traits@V?$basic_string@DU?$char_traits@D@std@@V?$allocator@D@2@@std@@PAXU?$less@V?$basic_string@DU?$char_traits@D@std@@V?$allocator@D@2@@std@@@2@V?$allocator@U?$pair@$$CBV?$basic_string@DU?$char_traits@D@std@@V?$allocator@D@2@@std@@PAX@std@@@2@$0A@@std@@@std@@IAE?AViterator@12@_NPAU_Node@?$_Tree_nod@V?$_Tmap_traits@V?$basic_string@DU?$char_traits@D@std@@V?$allocator@D@2@@std@@PAXU?$less@V?$basic_string@DU?$char_traits@D@std@@V?$allocator@D@2@@std@@@2@V?$allocator@U?$pair@$$CBV?$basic_string@DU?$char_traits@D@std@@V?$allocator@D@2@@std@@PAX@std@@@2@$0A@@std@@@2@ABU?$pair@$$CBV?$basic_string@DU?$char_traits@D@std@@V?$allocator@D@2@@std@@PAX@2@@Z 00418380 f i readSVDB.obj
 0001:00017540       ?InsertNodeEx@?$sorttree@V?$hashelement@Vword@svutil@@PAVTask@@@svutil@@@svutil@@QAEAAV?$hashelement@Vword@svutil@@PAVTask@@@2@ABV32@@Z 00418540 f i readSVDB.obj
 0001:000175d0       ?erase@?$_Tree@V?$_Tmap_traits@HPAXU?$less@H@std@@V?$allocator@U?$pair@$$CBHPAX@std@@@2@$0A@@std@@@std@@QAE?AViterator@12@V312@@Z 004185d0 f i readSVDB.obj
 0001:000178a0       ?erase@?$_Tree@V?$_Tmap_traits@V?$basic_string@DU?$char_traits@D@std@@V?$allocator@D@2@@std@@PAXU?$less@V?$basic_string@DU?$char_traits@D@std@@V?$allocator@D@2@@std@@@2@V?$allocator@U?$pair@$$CBV?$basic_string@DU?$char_traits@D@std@@V?$allocator@D@2@@std@@PAX@std@@@2@$0A@@std@@@std@@QAE?AViterator@12@V312@@Z 004188a0 f i readSVDB.obj
 0001:00017b80       ?insert@?$_Tree@V?$_Tmap_traits@HPAXU?$less@H@std@@V?$allocator@U?$pair@$$CBHPAX@std@@@2@$0A@@std@@@std@@QAE?AU?$pair@Viterator@?$_Tree@V?$_Tmap_traits@HPAXU?$less@H@std@@V?$allocator@U?$pair@$$CBHPAX@std@@@2@$0A@@std@@@std@@_N@2@ABU?$pair@$$CBHPAX@2@@Z 00418b80 f i readSVDB.obj
 0001:00017c40       ?insert@?$_Tree@V?$_Tmap_traits@V?$basic_string@DU?$char_traits@D@std@@V?$allocator@D@2@@std@@PAXU?$less@V?$basic_string@DU?$char_traits@D@std@@V?$allocator@D@2@@std@@@2@V?$allocator@U?$pair@$$CBV?$basic_string@DU?$char_traits@D@std@@V?$allocator@D@2@@std@@PAX@std@@@2@$0A@@std@@@std@@QAE?AU?$pair@Viterator@?$_Tree@V?$_Tmap_traits@V?$basic_string@DU?$char_traits@D@std@@V?$allocator@D@2@@std@@PAXU?$less@V?$basic_string@DU?$char_traits@D@std@@V?$allocator@D@2@@std@@@2@V?$allocator@U?$pair@$$CBV?$basic_string@DU?$char_traits@D@std@@V?$allocator@D@2@@std@@PAX@std@@@2@$0A@@std@@@std@@_N@2@ABU?$pair@$$CBV?$basic_string@DU?$char_traits@D@std@@V?$allocator@D@2@@std@@PAX@2@@Z 00418c40 f i readSVDB.obj
 0001:00017d20       ??0?$list@Usv_pair@@V?$allocator@Usv_pair@@@std@@@std@@QAE@XZ 00418d20 f i readSVDB.obj
 0001:00017d40       ?_Ufill@?$vector@UPairTime@@V?$allocator@UPairTime@@@std@@@std@@IAEPAUPairTime@@PAU3@IABU3@@Z 00418d40 f i readSVDB.obj
 0001:00017d70       ?_Erase@?$_Tree@V?$_Tmap_traits@V?$basic_string@DU?$char_traits@D@std@@V?$allocator@D@2@@std@@PAXU?$less@V?$basic_string@DU?$char_traits@D@std@@V?$allocator@D@2@@std@@@2@V?$allocator@U?$pair@$$CBV?$basic_string@DU?$char_traits@D@std@@V?$allocator@D@2@@std@@PAX@std@@@2@$0A@@std@@@std@@IAEXPAU_Node@?$_Tree_nod@V?$_Tmap_traits@V?$basic_string@DU?$char_traits@D@std@@V?$allocator@D@2@@std@@PAXU?$less@V?$basic_string@DU?$char_traits@D@std@@V?$allocator@D@2@@std@@@2@V?$allocator@U?$pair@$$CBV?$basic_string@DU?$char_traits@D@std@@V?$allocator@D@2@@std@@PAX@std@@@2@$0A@@std@@@2@@Z 00418d70 f i readSVDB.obj
 0001:00017db0       ?_Ufill@?$vector@U?$pair@HH@std@@V?$allocator@U?$pair@HH@std@@@2@@std@@IAEPAU?$pair@HH@2@PAU32@IABU32@@Z 00418db0 f i readSVDB.obj
 0001:00017de0       ?insert@?$hashnode@Vword@svutil@@PAVTask@@@svutil@@QAEAAV?$hashelement@Vword@svutil@@PAVTask@@@2@ABVword@2@ABQAVTask@@@Z 00418de0 f i readSVDB.obj
 0001:00017ec0       ?erase@?$_Tree@V?$_Tmap_traits@HPAXU?$less@H@std@@V?$allocator@U?$pair@$$CBHPAX@std@@@2@$0A@@std@@@std@@QAE?AViterator@12@V312@0@Z 00418ec0 f i readSVDB.obj
 0001:00017f80       ?clear@?$list@Usv_pair@@V?$allocator@Usv_pair@@@std@@@std@@QAEXXZ 00418f80 f i readSVDB.obj
 0001:00017fc0       ?_Insert_n@?$vector@U?$pair@HH@std@@V?$allocator@U?$pair@HH@std@@@2@@std@@IAEXViterator@12@IABU?$pair@HH@2@@Z 00418fc0 f i readSVDB.obj
 0001:00018210       ?FastGetMonitorTPL@readSVDB@@AAEPAXH@Z 00419210 f   readSVDB.obj
 0001:000182f0       ?FastGetEntityTPL@readSVDB@@AAEPAXV?$basic_string@DU?$char_traits@D@std@@V?$allocator@D@2@@std@@@Z 004192f0 f   readSVDB.obj
 0001:00018490       ?FastGetMonitor@readSVDB@@AAEPAXV?$basic_string@DU?$char_traits@D@std@@V?$allocator@D@2@@std@@@Z 00419490 f   readSVDB.obj
 0001:00018630       ?FastGetEntity@readSVDB@@AAEPAXV?$basic_string@DU?$char_traits@D@std@@V?$allocator@D@2@@std@@@Z 00419630 f   readSVDB.obj
 0001:000187d0       ?GetMonitorParaValueByName@readSVDB@@QAE_NV?$basic_string@DU?$char_traits@D@std@@V?$allocator@D@2@@std@@0AAV23@@Z 004197d0 f   readSVDB.obj
 0001:00018d30       ?GetSMCommon@readSVDB@@QAE_NPAVMonitor@@V?$basic_string@DU?$char_traits@D@std@@V?$allocator@D@2@@std@@@Z 00419d30 f   readSVDB.obj
 0001:00019050       ?GetEntityConfigValue@readSVDB@@QAE_NV?$basic_string@DU?$char_traits@D@std@@V?$allocator@D@2@@std@@0AAV23@@Z 0041a050 f   readSVDB.obj
 0001:00019180       ?GetMLValue@readSVDB@@QAE_NV?$basic_string@DU?$char_traits@D@std@@V?$allocator@D@2@@std@@0AAV23@@Z 0041a180 f   readSVDB.obj
 0001:000192b0       ?GetMLRunParaNames@readSVDB@@QAE_NV?$basic_string@DU?$char_traits@D@std@@V?$allocator@D@2@@std@@AAV?$list@V?$basic_string@DU?$char_traits@D@std@@V?$allocator@D@2@@std@@V?$allocator@V?$basic_string@DU?$char_traits@D@std@@V?$allocator@D@2@@std@@@2@@3@@Z 0041a2b0 f   readSVDB.obj
 0001:00019550       ?GetMLReturnDataList@readSVDB@@QAE_NAAV?$list@PAVReturnData@@V?$allocator@PAVReturnData@@@std@@@std@@H@Z 0041a550 f   readSVDB.obj
 0001:000198a0       ?GetMonitorBaselineFlag@readSVDB@@QAE_NV?$basic_string@DU?$char_traits@D@std@@V?$allocator@D@2@@std@@@Z 0041a8a0 f   readSVDB.obj
 0001:000199b0       ?_Insert_n@?$vector@UPairTime@@V?$allocator@UPairTime@@@std@@@std@@IAEXViterator@12@IABUPairTime@@@Z 0041a9b0 f i readSVDB.obj
 0001:00019c20       ?erase@?$_Tree@V?$_Tmap_traits@V?$basic_string@DU?$char_traits@D@std@@V?$allocator@D@2@@std@@PAXU?$less@V?$basic_string@DU?$char_traits@D@std@@V?$allocator@D@2@@std@@@2@V?$allocator@U?$pair@$$CBV?$basic_string@DU?$char_traits@D@std@@V?$allocator@D@2@@std@@PAX@std@@@2@$0A@@std@@@std@@QAE?AViterator@12@V312@0@Z 0041ac20 f i readSVDB.obj
 0001:00019ce0       ?ReleaseAll@readSVDB@@QAE_NXZ 0041ace0 f   readSVDB.obj
 0001:00019fa0       ?SetSvdbAddr@readSVDB@@QAE_NV?$basic_string@DU?$char_traits@D@std@@V?$allocator@D@2@@std@@@Z 0041afa0 f   readSVDB.obj
 0001:0001a000       ?GetConditionString@readSVDB@@QAE_NV?$basic_string@DU?$char_traits@D@std@@V?$allocator@D@2@@std@@IAAV23@@Z 0041b000 f   readSVDB.obj
 0001:0001a160       ?GetSMStateConditionItemList@readSVDB@@QAE_NV?$basic_string@DU?$char_traits@D@std@@V?$allocator@D@2@@std@@AAV?$list@PAVStateConditionItem@@V?$allocator@PAVStateConditionItem@@@std@@@3@I@Z 0041b160 f   readSVDB.obj
 0001:0001a510       ??1?$list@Usv_pair@@V?$allocator@Usv_pair@@@std@@@std@@QAE@XZ 0041b510 f i readSVDB.obj
 0001:0001a530       ?insert@?$hashtable@Vword@svutil@@PAVTask@@@svutil@@QAEAAPAVTask@@ABVword@2@ABQAV3@@Z 0041b530 f i readSVDB.obj
 0001:0001a620       ??1?$map@HPAXU?$less@H@std@@V?$allocator@U?$pair@$$CBHPAX@std@@@2@@std@@QAE@XZ 0041b620 f i readSVDB.obj
 0001:0001a650       ?GetSubsequentList@readSVDB@@QAEHAAV?$list@PAVSubsequentItem@@V?$allocator@PAVSubsequentItem@@@std@@@std@@@Z 0041b650 f   readSVDB.obj
 0001:0001ab30       ?GetMonitorIDLSTBySE@readSVDB@@QAEJAAV?$list@V?$basic_string@DU?$char_traits@D@std@@V?$allocator@D@2@@std@@V?$allocator@V?$basic_string@DU?$char_traits@D@std@@V?$allocator@D@2@@std@@@2@@std@@H@Z 0041bb30 f   readSVDB.obj
 0001:0001ad40       ?GetEntityList@readSVDB@@QAE_NV?$basic_string@DU?$char_traits@D@std@@V?$allocator@D@2@@std@@AAV?$list@V?$basic_string@DU?$char_traits@D@std@@V?$allocator@D@2@@std@@V?$allocator@V?$basic_string@DU?$char_traits@D@std@@V?$allocator@D@2@@std@@@2@@3@@Z 0041bd40 f   readSVDB.obj
 0001:0001b260       ?GetEntityIDListBySE@readSVDB@@QAE_NAAV?$list@V?$basic_string@DU?$char_traits@D@std@@V?$allocator@D@2@@std@@V?$allocator@V?$basic_string@DU?$char_traits@D@std@@V?$allocator@D@2@@std@@@2@@std@@H@Z 0041c260 f   readSVDB.obj
 0001:0001b450       ?GetGroupIDList@readSVDB@@QAE_NAAV?$list@V?$basic_string@DU?$char_traits@D@std@@V?$allocator@D@2@@std@@V?$allocator@V?$basic_string@DU?$char_traits@D@std@@V?$allocator@D@2@@std@@@2@@std@@@Z 0041c450 f   readSVDB.obj
 0001:0001b5d0       ??0?$map@HPAXU?$less@H@std@@V?$allocator@U?$pair@$$CBHPAX@std@@@2@@std@@QAE@XZ 0041c5d0 f i readSVDB.obj
 0001:0001b600       ??1?$map@V?$basic_string@DU?$char_traits@D@std@@V?$allocator@D@2@@std@@PAXU?$less@V?$basic_string@DU?$char_traits@D@std@@V?$allocator@D@2@@std@@@2@V?$allocator@U?$pair@$$CBV?$basic_string@DU?$char_traits@D@std@@V?$allocator@D@2@@std@@PAX@std@@@2@@std@@QAE@XZ 0041c600 f i readSVDB.obj
 0001:0001b630       ?GetTaskMap@readSVDB@@QAE_NAAV?$hashtable@Vword@svutil@@PAVTask@@@svutil@@@Z 0041c630 f   readSVDB.obj
 0001:0001c270       ??0?$map@V?$basic_string@DU?$char_traits@D@std@@V?$allocator@D@2@@std@@PAXU?$less@V?$basic_string@DU?$char_traits@D@std@@V?$allocator@D@2@@std@@@2@V?$allocator@U?$pair@$$CBV?$basic_string@DU?$char_traits@D@std@@V?$allocator@D@2@@std@@PAX@std@@@2@@std@@QAE@XZ 0041d270 f i readSVDB.obj
 0001:0001c2a0       ??0ReturnData@@QAE@XZ      0041d2a0 f   ReturnData.obj
 0001:0001c2f0       ??1ReturnData@@QAE@XZ      0041d2f0 f   ReturnData.obj
 0001:0001c340       ??1ReturnValue@@UAE@XZ     0041d340 f   ReturnValue.obj
 0001:0001c350       ?Clear@ReturnValue@@QAEXXZ 0041d350 f   ReturnValue.obj
 0001:0001c370       ??0ReturnValue@@QAE@XZ     0041d370 f   ReturnValue.obj
 0001:0001c390       ??_EReturnValue@@UAEPAXI@Z 0041d390 f i ReturnValue.obj
 0001:0001c390       ??_GReturnValue@@UAEPAXI@Z 0041d390 f i ReturnValue.obj
 0001:0001c3c0       ??0TString@@QAE@V?$basic_string@DU?$char_traits@D@std@@V?$allocator@D@2@@std@@@Z 0041d3c0 f i ScheduleThread.obj
 0001:0001c430       ?GetBeginTDTime@Monitor@@QAE?AVTTime@svutil@@XZ 0041d430 f i ScheduleThread.obj
 0001:0001c440       ?GetEndTDTime@Monitor@@QAE?AVTTime@svutil@@XZ 0041d440 f i ScheduleThread.obj
 0001:0001c450       ??1ScheduleThread@@UAE@XZ  0041d450 f   ScheduleThread.obj
 0001:0001c460       ?myPrintLog@@YAXPAD@Z      0041d460 f   ScheduleThread.obj
 0001:0001c4d0       ?InitMonitorTime@ScheduleThread@@IAEHXZ 0041d4d0 f   ScheduleThread.obj
 0001:0001c6e0       ?run@ScheduleThread@@UAEXXZ 0041d6e0 f   ScheduleThread.obj
 0001:0001d390       ??0ThreadContrl@@QAE@PAVMonitorSchMain@@@Z 0041e390 f i ScheduleThread.obj
 0001:0001d430       ??_GThreadContrl@@UAEPAXI@Z 0041e430 f i ScheduleThread.obj
 0001:0001d430       ??_EThreadContrl@@UAEPAXI@Z 0041e430 f i ScheduleThread.obj
 0001:0001d450       ?Init@ScheduleThread@@QAEHXZ 0041e450 f   ScheduleThread.obj
 0001:0001d740       ??1SerialData@@QAE@XZ      0041e740 f   SerialData.obj
 0001:0001d740       ??1?$pair@V?$basic_string@DU?$char_traits@D@std@@V?$allocator@D@2@@std@@PAX@std@@QAE@XZ 0041e740 f   readSVDB.obj
 0001:0001d740       ??1?$pair@$$CBV?$basic_string@DU?$char_traits@D@std@@V?$allocator@D@2@@std@@PAX@std@@QAE@XZ 0041e740 f   readSVDB.obj
 0001:0001d740       ??1SingelRecord@@QAE@XZ    0041e740 f   appendmassrecord.obj
 0001:0001d750       ?SerialStringMap@SerialData@@AAE_NAAV?$hashtable@Vword@svutil@@V12@@svutil@@PAU_iobuf@@@Z 0041e750 f   SerialData.obj
 0001:0001d7c0       ??A?$hashtable@Vword@svutil@@PAVTask@@@svutil@@QAEAAPAVTask@@ABVword@1@@Z 0041e7c0 f i SerialData.obj
 0001:0001d7f0       ?CovertStringToMap@SerialData@@AAE_NV?$basic_string@DU?$char_traits@D@std@@V?$allocator@D@2@@std@@AAV?$hashtable@Vword@svutil@@V12@@svutil@@@Z 0041e7f0 f   SerialData.obj
 0001:0001d9a0       ?Serial@SerialData@@AAEHPAU_iobuf@@AAV?$list@PAVMonitor@@V?$allocator@PAVMonitor@@@std@@@std@@PAVGroups@@PAVSubsequent@@AAV?$hashtable@Vword@svutil@@PAVTask@@@svutil@@_N@Z 0041e9a0 f   SerialData.obj
 0001:0001e400       ?Serial@SerialData@@QAEHAAV?$list@PAVMonitor@@V?$allocator@PAVMonitor@@@std@@@std@@PAVGroups@@PAVSubsequent@@AAV?$hashtable@Vword@svutil@@PAVTask@@@svutil@@_N@Z 0041f400 f   SerialData.obj
 0001:0001e4a0       ??1StateCondition@@QAE@XZ  0041f4a0 f   StateCondition.obj
 0001:0001e580       ??0StateCondition@@QAE@XZ  0041f580 f   StateCondition.obj
 0001:0001e5d0       ??0StateConditionItem@@QAE@XZ 0041f5d0 f   StateConditionItem.obj
 0001:0001e630       ??1StateConditionItem@@QAE@XZ 0041f630 f   StateConditionItem.obj
 0001:0001e680       ??RStlIniCompareStringNoCase@@QBE_NABV?$basic_string@DU?$char_traits@D@std@@V?$allocator@D@2@@std@@0@Z 0041f680 f i stlini.obj
 0001:0001e6d0       ??1?$pair@V?$basic_string@DU?$char_traits@D@std@@V?$allocator@D@2@@std@@V12@@std@@QAE@XZ 0041f6d0 f i stlini.obj
 0001:0001e720       ??0?$pair@V?$basic_string@DU?$char_traits@D@std@@V?$allocator@D@2@@std@@V12@@std@@QAE@ABV?$basic_string@DU?$char_traits@D@std@@V?$allocator@D@2@@1@0@Z 0041f720 f i stlini.obj
 0001:0001e780       ?_Dec@const_iterator@?$_Tree@V?$_Tmap_traits@V?$basic_string@DU?$char_traits@D@std@@V?$allocator@D@2@@std@@V?$map@V?$basic_string@DU?$char_traits@D@std@@V?$allocator@D@2@@std@@V12@UStlIniCompareStringNoCase@@V?$allocator@U?$pair@$$CBV?$basic_string@DU?$char_traits@D@std@@V?$allocator@D@2@@std@@V12@@std@@@2@@2@UStlIniCompareStringNoCase@@V?$allocator@U?$pair@$$CBV?$basic_string@DU?$char_traits@D@std@@V?$allocator@D@2@@std@@V?$map@V?$basic_string@DU?$char_traits@D@std@@V?$allocator@D@2@@std@@V12@UStlIniCompareStringNoCase@@V?$allocator@U?$pair@$$CBV?$basic_string@DU?$char_traits@D@std@@V?$allocator@D@2@@std@@V12@@std@@@2@@2@@std@@@2@$0A@@std@@@std@@QAEXXZ 0041f780 f i stlini.obj
 0001:0001e7e0       ?_Dec@const_iterator@?$_Tree@V?$_Tmap_traits@V?$basic_string@DU?$char_traits@D@std@@V?$allocator@D@2@@std@@V12@UStlIniCompareStringNoCase@@V?$allocator@U?$pair@$$CBV?$basic_string@DU?$char_traits@D@std@@V?$allocator@D@2@@std@@V12@@std@@@2@$0A@@std@@@std@@QAEXXZ 0041f7e0 f i stlini.obj
 0001:0001e840       ??0?$pair@$$CBV?$basic_string@DU?$char_traits@D@std@@V?$allocator@D@2@@std@@V12@@std@@QAE@ABU01@@Z 0041f840 f i stlini.obj
 0001:0001e840       ??$?0V?$basic_string@DU?$char_traits@D@std@@V?$allocator@D@2@@std@@V01@@?$pair@$$CBV?$basic_string@DU?$char_traits@D@std@@V?$allocator@D@2@@std@@V12@@std@@QAE@ABU?$pair@V?$basic_string@DU?$char_traits@D@std@@V?$allocator@D@2@@std@@V12@@1@@Z 0041f840 f i stlini.obj
 0001:0001e8a0       ?_Lbound@?$_Tree@V?$_Tmap_traits@V?$basic_string@DU?$char_traits@D@std@@V?$allocator@D@2@@std@@V?$map@V?$basic_string@DU?$char_traits@D@std@@V?$allocator@D@2@@std@@V12@UStlIniCompareStringNoCase@@V?$allocator@U?$pair@$$CBV?$basic_string@DU?$char_traits@D@std@@V?$allocator@D@2@@std@@V12@@std@@@2@@2@UStlIniCompareStringNoCase@@V?$allocator@U?$pair@$$CBV?$basic_string@DU?$char_traits@D@std@@V?$allocator@D@2@@std@@V?$map@V?$basic_string@DU?$char_traits@D@std@@V?$allocator@D@2@@std@@V12@UStlIniCompareStringNoCase@@V?$allocator@U?$pair@$$CBV?$basic_string@DU?$char_traits@D@std@@V?$allocator@D@2@@std@@V12@@std@@@2@@2@@std@@@2@$0A@@std@@@std@@IBEPAU_Node@?$_Tree_nod@V?$_Tmap_traits@V?$basic_string@DU?$char_traits@D@std@@V?$allocator@D@2@@std@@V?$map@V?$basic_string@DU?$char_traits@D@std@@V?$allocator@D@2@@std@@V12@UStlIniCompareStringNoCase@@V?$allocator@U?$pair@$$CBV?$basic_string@DU?$char_traits@D@std@@V?$allocator@D@2@@std@@V12@@std@@@2@@2@UStlIniCompareStringNoCase@@V?$allocator@U?$pair@$$CBV?$basic_string@DU?$char_traits@D@std@@V?$allocator@D@2@@std@@V?$map@V?$basic_string@DU?$char_traits@D@std@@V?$allocator@D@2@@std@@V12@UStlIniCompareStringNoCase@@V?$allocator@U?$pair@$$CBV?$basic_string@DU?$char_traits@D@std@@V?$allocator@D@2@@std@@V12@@std@@@2@@2@@std@@@2@$0A@@std@@@2@ABV?$basic_string@DU?$char_traits@D@std@@V?$allocator@D@2@@2@@Z 0041f8a0 f i stlini.obj
 0001:0001e910       ?_Lbound@?$_Tree@V?$_Tmap_traits@V?$basic_string@DU?$char_traits@D@std@@V?$allocator@D@2@@std@@V12@UStlIniCompareStringNoCase@@V?$allocator@U?$pair@$$CBV?$basic_string@DU?$char_traits@D@std@@V?$allocator@D@2@@std@@V12@@std@@@2@$0A@@std@@@std@@IBEPAU_Node@?$_Tree_nod@V?$_Tmap_traits@V?$basic_string@DU?$char_traits@D@std@@V?$allocator@D@2@@std@@V12@UStlIniCompareStringNoCase@@V?$allocator@U?$pair@$$CBV?$basic_string@DU?$char_traits@D@std@@V?$allocator@D@2@@std@@V12@@std@@@2@$0A@@std@@@2@ABV?$basic_string@DU?$char_traits@D@std@@V?$allocator@D@2@@2@@Z 0041f910 f i stlini.obj
 0001:0001e980       ?_Buynode@?$_Tree@V?$_Tmap_traits@V?$basic_string@DU?$char_traits@D@std@@V?$allocator@D@2@@std@@V?$map@V?$basic_string@DU?$char_traits@D@std@@V?$allocator@D@2@@std@@V12@UStlIniCompareStringNoCase@@V?$allocator@U?$pair@$$CBV?$basic_string@DU?$char_traits@D@std@@V?$allocator@D@2@@std@@V12@@std@@@2@@2@UStlIniCompareStringNoCase@@V?$allocator@U?$pair@$$CBV?$basic_string@DU?$char_traits@D@std@@V?$allocator@D@2@@std@@V?$map@V?$basic_string@DU?$char_traits@D@std@@V?$allocator@D@2@@std@@V12@UStlIniCompareStringNoCase@@V?$allocator@U?$pair@$$CBV?$basic_string@DU?$char_traits@D@std@@V?$allocator@D@2@@std@@V12@@std@@@2@@2@@std@@@2@$0A@@std@@@std@@IAEPAU_Node@?$_Tree_nod@V?$_Tmap_traits@V?$basic_string@DU?$char_traits@D@std@@V?$allocator@D@2@@std@@V?$map@V?$basic_string@DU?$char_traits@D@std@@V?$allocator@D@2@@std@@V12@UStlIniCompareStringNoCase@@V?$allocator@U?$pair@$$CBV?$basic_string@DU?$char_traits@D@std@@V?$allocator@D@2@@std@@V12@@std@@@2@@2@UStlIniCompareStringNoCase@@V?$allocator@U?$pair@$$CBV?$basic_string@DU?$char_traits@D@std@@V?$allocator@D@2@@std@@V?$map@V?$basic_string@DU?$char_traits@D@std@@V?$allocator@D@2@@std@@V12@UStlIniCompareStringNoCase@@V?$allocator@U?$pair@$$CBV?$basic_string@DU?$char_traits@D@std@@V?$allocator@D@2@@std@@V12@@std@@@2@@2@@std@@@2@$0A@@std@@@2@XZ 0041f980 f i stlini.obj
 0001:0001e9c0       ?_Buynode@?$_Tree@V?$_Tmap_traits@V?$basic_string@DU?$char_traits@D@std@@V?$allocator@D@2@@std@@V12@UStlIniCompareStringNoCase@@V?$allocator@U?$pair@$$CBV?$basic_string@DU?$char_traits@D@std@@V?$allocator@D@2@@std@@V12@@std@@@2@$0A@@std@@@std@@IAEPAU_Node@?$_Tree_nod@V?$_Tmap_traits@V?$basic_string@DU?$char_traits@D@std@@V?$allocator@D@2@@std@@V12@UStlIniCompareStringNoCase@@V?$allocator@U?$pair@$$CBV?$basic_string@DU?$char_traits@D@std@@V?$allocator@D@2@@std@@V12@@std@@@2@$0A@@std@@@2@PAU342@00ABU?$pair@$$CBV?$basic_string@DU?$char_traits@D@std@@V?$allocator@D@2@@std@@V12@@2@D@Z 0041f9c0 f i stlini.obj
 0001:0001ea60       ?_Buynode@?$_Tree@V?$_Tmap_traits@V?$basic_string@DU?$char_traits@D@std@@V?$allocator@D@2@@std@@V12@UStlIniCompareStringNoCase@@V?$allocator@U?$pair@$$CBV?$basic_string@DU?$char_traits@D@std@@V?$allocator@D@2@@std@@V12@@std@@@2@$0A@@std@@@std@@IAEPAU_Node@?$_Tree_nod@V?$_Tmap_traits@V?$basic_string@DU?$char_traits@D@std@@V?$allocator@D@2@@std@@V12@UStlIniCompareStringNoCase@@V?$allocator@U?$pair@$$CBV?$basic_string@DU?$char_traits@D@std@@V?$allocator@D@2@@std@@V12@@std@@@2@$0A@@std@@@2@XZ 0041fa60 f i stlini.obj
 0001:0001eaa0       ?find@?$_Tree@V?$_Tmap_traits@V?$basic_string@DU?$char_traits@D@std@@V?$allocator@D@2@@std@@V12@UStlIniCompareStringNoCase@@V?$allocator@U?$pair@$$CBV?$basic_string@DU?$char_traits@D@std@@V?$allocator@D@2@@std@@V12@@std@@@2@$0A@@std@@@std@@QAE?AViterator@12@ABV?$basic_string@DU?$char_traits@D@std@@V?$allocator@D@2@@2@@Z 0041faa0 f i stlini.obj
 0001:0001eb00       ?_Insert@?$_Tree@V?$_Tmap_traits@V?$basic_string@DU?$char_traits@D@std@@V?$allocator@D@2@@std@@V12@UStlIniCompareStringNoCase@@V?$allocator@U?$pair@$$CBV?$basic_string@DU?$char_traits@D@std@@V?$allocator@D@2@@std@@V12@@std@@@2@$0A@@std@@@std@@IAE?AViterator@12@_NPAU_Node@?$_Tree_nod@V?$_Tmap_traits@V?$basic_string@DU?$char_traits@D@std@@V?$allocator@D@2@@std@@V12@UStlIniCompareStringNoCase@@V?$allocator@U?$pair@$$CBV?$basic_string@DU?$char_traits@D@std@@V?$allocator@D@2@@std@@V12@@std@@@2@$0A@@std@@@2@ABU?$pair@$$CBV?$basic_string@DU?$char_traits@D@std@@V?$allocator@D@2@@std@@V12@@2@@Z 0041fb00 f i stlini.obj
 0001:0001ecc0       ?GetIniSetting@@YA?AV?$basic_string@DU?$char_traits@D@std@@V?$allocator@D@2@@std@@AAV?$map@V?$basic_string@DU?$char_traits@D@std@@V?$allocator@D@2@@std@@V?$map@V?$basic_string@DU?$char_traits@D@std@@V?$allocator@D@2@@std@@V12@UStlIniCompareStringNoCase@@V?$allocator@U?$pair@$$CBV?$basic_string@DU?$char_traits@D@std@@V?$allocator@D@2@@std@@V12@@std@@@2@@2@UStlIniCompareStringNoCase@@V?$allocator@U?$pair@$$CBV?$basic_string@DU?$char_traits@D@std@@V?$allocator@D@2@@std@@V?$map@V?$basic_string@DU?$char_traits@D@std@@V?$allocator@D@2@@std@@V12@UStlIniCompareStringNoCase@@V?$allocator@U?$pair@$$CBV?$basic_string@DU?$char_traits@D@std@@V?$allocator@D@2@@std@@V12@@std@@@2@@2@@std@@@2@@2@PBD11@Z 0041fcc0 f   stlini.obj
 0001:0001edf0       ?insert@?$_Tree@V?$_Tmap_traits@V?$basic_string@DU?$char_traits@D@std@@V?$allocator@D@2@@std@@V12@UStlIniCompareStringNoCase@@V?$allocator@U?$pair@$$CBV?$basic_string@DU?$char_traits@D@std@@V?$allocator@D@2@@std@@V12@@std@@@2@$0A@@std@@@std@@QAE?AU?$pair@Viterator@?$_Tree@V?$_Tmap_traits@V?$basic_string@DU?$char_traits@D@std@@V?$allocator@D@2@@std@@V12@UStlIniCompareStringNoCase@@V?$allocator@U?$pair@$$CBV?$basic_string@DU?$char_traits@D@std@@V?$allocator@D@2@@std@@V12@@std@@@2@$0A@@std@@@std@@_N@2@ABU?$pair@$$CBV?$basic_string@DU?$char_traits@D@std@@V?$allocator@D@2@@std@@V12@@2@@Z 0041fdf0 f i stlini.obj
 0001:0001eee0       ?_Copy@?$_Tree@V?$_Tmap_traits@V?$basic_string@DU?$char_traits@D@std@@V?$allocator@D@2@@std@@V12@UStlIniCompareStringNoCase@@V?$allocator@U?$pair@$$CBV?$basic_string@DU?$char_traits@D@std@@V?$allocator@D@2@@std@@V12@@std@@@2@$0A@@std@@@std@@IAEPAU_Node@?$_Tree_nod@V?$_Tmap_traits@V?$basic_string@DU?$char_traits@D@std@@V?$allocator@D@2@@std@@V12@UStlIniCompareStringNoCase@@V?$allocator@U?$pair@$$CBV?$basic_string@DU?$char_traits@D@std@@V?$allocator@D@2@@std@@V12@@std@@@2@$0A@@std@@@2@PAU342@0@Z 0041fee0 f i stlini.obj
 0001:0001ef90       ?_Copy@?$_Tree@V?$_Tmap_traits@V?$basic_string@DU?$char_traits@D@std@@V?$allocator@D@2@@std@@V12@UStlIniCompareStringNoCase@@V?$allocator@U?$pair@$$CBV?$basic_string@DU?$char_traits@D@std@@V?$allocator@D@2@@std@@V12@@std@@@2@$0A@@std@@@std@@IAEXABV12@@Z 0041ff90 f i stlini.obj
 0001:0001f020       ??0?$_Tree@V?$_Tmap_traits@V?$basic_string@DU?$char_traits@D@std@@V?$allocator@D@2@@std@@V12@UStlIniCompareStringNoCase@@V?$allocator@U?$pair@$$CBV?$basic_string@DU?$char_traits@D@std@@V?$allocator@D@2@@std@@V12@@std@@@2@$0A@@std@@@std@@QAE@ABV01@@Z 00420020 f i stlini.obj
 0001:0001f0b0       ??1?$pair@V?$basic_string@DU?$char_traits@D@std@@V?$allocator@D@2@@std@@V?$map@V?$basic_string@DU?$char_traits@D@std@@V?$allocator@D@2@@std@@V12@UStlIniCompareStringNoCase@@V?$allocator@U?$pair@$$CBV?$basic_string@DU?$char_traits@D@std@@V?$allocator@D@2@@std@@V12@@std@@@2@@2@@std@@QAE@XZ 004200b0 f i stlini.obj
 0001:0001f130       ??$?0V?$basic_string@DU?$char_traits@D@std@@V?$allocator@D@2@@std@@V?$map@V?$basic_string@DU?$char_traits@D@std@@V?$allocator@D@2@@std@@V12@UStlIniCompareStringNoCase@@V?$allocator@U?$pair@$$CBV?$basic_string@DU?$char_traits@D@std@@V?$allocator@D@2@@std@@V12@@std@@@2@@1@@?$pair@$$CBV?$basic_string@DU?$char_traits@D@std@@V?$allocator@D@2@@std@@V?$map@V?$basic_string@DU?$char_traits@D@std@@V?$allocator@D@2@@std@@V12@UStlIniCompareStringNoCase@@V?$allocator@U?$pair@$$CBV?$basic_string@DU?$char_traits@D@std@@V?$allocator@D@2@@std@@V12@@std@@@2@@2@@std@@QAE@ABU?$pair@V?$basic_string@DU?$char_traits@D@std@@V?$allocator@D@2@@std@@V?$map@V?$basic_string@DU?$char_traits@D@std@@V?$allocator@D@2@@std@@V12@UStlIniCompareStringNoCase@@V?$allocator@U?$pair@$$CBV?$basic_string@DU?$char_traits@D@std@@V?$allocator@D@2@@std@@V12@@std@@@2@@2@@1@@Z 00420130 f i stlini.obj
 0001:0001f130       ??0?$pair@$$CBV?$basic_string@DU?$char_traits@D@std@@V?$allocator@D@2@@std@@V?$map@V?$basic_string@DU?$char_traits@D@std@@V?$allocator@D@2@@std@@V12@UStlIniCompareStringNoCase@@V?$allocator@U?$pair@$$CBV?$basic_string@DU?$char_traits@D@std@@V?$allocator@D@2@@std@@V12@@std@@@2@@2@@std@@QAE@ABU01@@Z 00420130 f i stlini.obj
 0001:0001f190       ??0?$pair@V?$basic_string@DU?$char_traits@D@std@@V?$allocator@D@2@@std@@V?$map@V?$basic_string@DU?$char_traits@D@std@@V?$allocator@D@2@@std@@V12@UStlIniCompareStringNoCase@@V?$allocator@U?$pair@$$CBV?$basic_string@DU?$char_traits@D@std@@V?$allocator@D@2@@std@@V12@@std@@@2@@2@@std@@QAE@ABV?$basic_string@DU?$char_traits@D@std@@V?$allocator@D@2@@1@ABV?$map@V?$basic_string@DU?$char_traits@D@std@@V?$allocator@D@2@@std@@V12@UStlIniCompareStringNoCase@@V?$allocator@U?$pair@$$CBV?$basic_string@DU?$char_traits@D@std@@V?$allocator@D@2@@std@@V12@@std@@@2@@1@@Z 00420190 f i stlini.obj
 0001:0001f1f0       ?_Buynode@?$_Tree@V?$_Tmap_traits@V?$basic_string@DU?$char_traits@D@std@@V?$allocator@D@2@@std@@V?$map@V?$basic_string@DU?$char_traits@D@std@@V?$allocator@D@2@@std@@V12@UStlIniCompareStringNoCase@@V?$allocator@U?$pair@$$CBV?$basic_string@DU?$char_traits@D@std@@V?$allocator@D@2@@std@@V12@@std@@@2@@2@UStlIniCompareStringNoCase@@V?$allocator@U?$pair@$$CBV?$basic_string@DU?$char_traits@D@std@@V?$allocator@D@2@@std@@V?$map@V?$basic_string@DU?$char_traits@D@std@@V?$allocator@D@2@@std@@V12@UStlIniCompareStringNoCase@@V?$allocator@U?$pair@$$CBV?$basic_string@DU?$char_traits@D@std@@V?$allocator@D@2@@std@@V12@@std@@@2@@2@@std@@@2@$0A@@std@@@std@@IAEPAU_Node@?$_Tree_nod@V?$_Tmap_traits@V?$basic_string@DU?$char_traits@D@std@@V?$allocator@D@2@@std@@V?$map@V?$basic_string@DU?$char_traits@D@std@@V?$allocator@D@2@@std@@V12@UStlIniCompareStringNoCase@@V?$allocator@U?$pair@$$CBV?$basic_string@DU?$char_traits@D@std@@V?$allocator@D@2@@std@@V12@@std@@@2@@2@UStlIniCompareStringNoCase@@V?$allocator@U?$pair@$$CBV?$basic_string@DU?$char_traits@D@std@@V?$allocator@D@2@@std@@V?$map@V?$basic_string@DU?$char_traits@D@std@@V?$allocator@D@2@@std@@V12@UStlIniCompareStringNoCase@@V?$allocator@U?$pair@$$CBV?$basic_string@DU?$char_traits@D@std@@V?$allocator@D@2@@std@@V12@@std@@@2@@2@@std@@@2@$0A@@std@@@2@PAU342@00ABU?$pair@$$CBV?$basic_string@DU?$char_traits@D@std@@V?$allocator@D@2@@std@@V?$map@V?$basic_string@DU?$char_traits@D@std@@V?$allocator@D@2@@std@@V12@UStlIniCompareStringNoCase@@V?$allocator@U?$pair@$$CBV?$basic_string@DU?$char_traits@D@std@@V?$allocator@D@2@@std@@V12@@std@@@2@@2@@2@D@Z 004201f0 f i stlini.obj
 0001:0001f290       ?_Insert@?$_Tree@V?$_Tmap_traits@V?$basic_string@DU?$char_traits@D@std@@V?$allocator@D@2@@std@@V?$map@V?$basic_string@DU?$char_traits@D@std@@V?$allocator@D@2@@std@@V12@UStlIniCompareStringNoCase@@V?$allocator@U?$pair@$$CBV?$basic_string@DU?$char_traits@D@std@@V?$allocator@D@2@@std@@V12@@std@@@2@@2@UStlIniCompareStringNoCase@@V?$allocator@U?$pair@$$CBV?$basic_string@DU?$char_traits@D@std@@V?$allocator@D@2@@std@@V?$map@V?$basic_string@DU?$char_traits@D@std@@V?$allocator@D@2@@std@@V12@UStlIniCompareStringNoCase@@V?$allocator@U?$pair@$$CBV?$basic_string@DU?$char_traits@D@std@@V?$allocator@D@2@@std@@V12@@std@@@2@@2@@std@@@2@$0A@@std@@@std@@IAE?AViterator@12@_NPAU_Node@?$_Tree_nod@V?$_Tmap_traits@V?$basic_string@DU?$char_traits@D@std@@V?$allocator@D@2@@std@@V?$map@V?$basic_string@DU?$char_traits@D@std@@V?$allocator@D@2@@std@@V12@UStlIniCompareStringNoCase@@V?$allocator@U?$pair@$$CBV?$basic_string@DU?$char_traits@D@std@@V?$allocator@D@2@@std@@V12@@std@@@2@@2@UStlIniCompareStringNoCase@@V?$allocator@U?$pair@$$CBV?$basic_string@DU?$char_traits@D@std@@V?$allocator@D@2@@std@@V?$map@V?$basic_string@DU?$char_traits@D@std@@V?$allocator@D@2@@std@@V12@UStlIniCompareStringNoCase@@V?$allocator@U?$pair@$$CBV?$basic_string@DU?$char_traits@D@std@@V?$allocator@D@2@@std@@V12@@std@@@2@@2@@std@@@2@$0A@@std@@@2@ABU?$pair@$$CBV?$basic_string@DU?$char_traits@D@std@@V?$allocator@D@2@@std@@V?$map@V?$basic_string@DU?$char_traits@D@std@@V?$allocator@D@2@@std@@V12@UStlIniCompareStringNoCase@@V?$allocator@U?$pair@$$CBV?$basic_string@DU?$char_traits@D@std@@V?$allocator@D@2@@std@@V12@@std@@@2@@2@@2@@Z 00420290 f i stlini.obj
 0001:0001f450       ?insert@?$_Tree@V?$_Tmap_traits@V?$basic_string@DU?$char_traits@D@std@@V?$allocator@D@2@@std@@V?$map@V?$basic_string@DU?$char_traits@D@std@@V?$allocator@D@2@@std@@V12@UStlIniCompareStringNoCase@@V?$allocator@U?$pair@$$CBV?$basic_string@DU?$char_traits@D@std@@V?$allocator@D@2@@std@@V12@@std@@@2@@2@UStlIniCompareStringNoCase@@V?$allocator@U?$pair@$$CBV?$basic_string@DU?$char_traits@D@std@@V?$allocator@D@2@@std@@V?$map@V?$basic_string@DU?$char_traits@D@std@@V?$allocator@D@2@@std@@V12@UStlIniCompareStringNoCase@@V?$allocator@U?$pair@$$CBV?$basic_string@DU?$char_traits@D@std@@V?$allocator@D@2@@std@@V12@@std@@@2@@2@@std@@@2@$0A@@std@@@std@@QAE?AU?$pair@Viterator@?$_Tree@V?$_Tmap_traits@V?$basic_string@DU?$char_traits@D@std@@V?$allocator@D@2@@std@@V?$map@V?$basic_string@DU?$char_traits@D@std@@V?$allocator@D@2@@std@@V12@UStlIniCompareStringNoCase@@V?$allocator@U?$pair@$$CBV?$basic_string@DU?$char_traits@D@std@@V?$allocator@D@2@@std@@V12@@std@@@2@@2@UStlIniCompareStringNoCase@@V?$allocator@U?$pair@$$CBV?$basic_string@DU?$char_traits@D@std@@V?$allocator@D@2@@std@@V?$map@V?$basic_string@DU?$char_traits@D@std@@V?$allocator@D@2@@std@@V12@UStlIniCompareStringNoCase@@V?$allocator@U?$pair@$$CBV?$basic_string@DU?$char_traits@D@std@@V?$allocator@D@2@@std@@V12@@std@@@2@@2@@std@@@2@$0A@@std@@@std@@_N@2@ABU?$pair@$$CBV?$basic_string@DU?$char_traits@D@std@@V?$allocator@D@2@@std@@V?$map@V?$basic_string@DU?$char_traits@D@std@@V?$allocator@D@2@@std@@V12@UStlIniCompareStringNoCase@@V?$allocator@U?$pair@$$CBV?$basic_string@DU?$char_traits@D@std@@V?$allocator@D@2@@std@@V12@@std@@@2@@2@@2@@Z 00420450 f i stlini.obj
 0001:0001f540       ?PutIniSetting@@YAXAAV?$map@V?$basic_string@DU?$char_traits@D@std@@V?$allocator@D@2@@std@@V?$map@V?$basic_string@DU?$char_traits@D@std@@V?$allocator@D@2@@std@@V12@UStlIniCompareStringNoCase@@V?$allocator@U?$pair@$$CBV?$basic_string@DU?$char_traits@D@std@@V?$allocator@D@2@@std@@V12@@std@@@2@@2@UStlIniCompareStringNoCase@@V?$allocator@U?$pair@$$CBV?$basic_string@DU?$char_traits@D@std@@V?$allocator@D@2@@std@@V?$map@V?$basic_string@DU?$char_traits@D@std@@V?$allocator@D@2@@std@@V12@UStlIniCompareStringNoCase@@V?$allocator@U?$pair@$$CBV?$basic_string@DU?$char_traits@D@std@@V?$allocator@D@2@@std@@V12@@std@@@2@@2@@std@@@2@@std@@PBD11@Z 00420540 f   stlini.obj
 0001:0001f8b0       ?_Copy@?$_Tree@V?$_Tmap_traits@V?$basic_string@DU?$char_traits@D@std@@V?$allocator@D@2@@std@@V?$map@V?$basic_string@DU?$char_traits@D@std@@V?$allocator@D@2@@std@@V12@UStlIniCompareStringNoCase@@V?$allocator@U?$pair@$$CBV?$basic_string@DU?$char_traits@D@std@@V?$allocator@D@2@@std@@V12@@std@@@2@@2@UStlIniCompareStringNoCase@@V?$allocator@U?$pair@$$CBV?$basic_string@DU?$char_traits@D@std@@V?$allocator@D@2@@std@@V?$map@V?$basic_string@DU?$char_traits@D@std@@V?$allocator@D@2@@std@@V12@UStlIniCompareStringNoCase@@V?$allocator@U?$pair@$$CBV?$basic_string@DU?$char_traits@D@std@@V?$allocator@D@2@@std@@V12@@std@@@2@@2@@std@@@2@$0A@@std@@@std@@IAEPAU_Node@?$_Tree_nod@V?$_Tmap_traits@V?$basic_string@DU?$char_traits@D@std@@V?$allocator@D@2@@std@@V?$map@V?$basic_string@DU?$char_traits@D@std@@V?$allocator@D@2@@std@@V12@UStlIniCompareStringNoCase@@V?$allocator@U?$pair@$$CBV?$basic_string@DU?$char_traits@D@std@@V?$allocator@D@2@@std@@V12@@std@@@2@@2@UStlIniCompareStringNoCase@@V?$allocator@U?$pair@$$CBV?$basic_string@DU?$char_traits@D@std@@V?$allocator@D@2@@std@@V?$map@V?$basic_string@DU?$char_traits@D@std@@V?$allocator@D@2@@std@@V12@UStlIniCompareStringNoCase@@V?$allocator@U?$pair@$$CBV?$basic_string@DU?$char_traits@D@std@@V?$allocator@D@2@@std@@V12@@std@@@2@@2@@std@@@2@$0A@@std@@@2@PAU342@0@Z 004208b0 f i stlini.obj
 0001:0001f960       ?_Copy@?$_Tree@V?$_Tmap_traits@V?$basic_string@DU?$char_traits@D@std@@V?$allocator@D@2@@std@@V?$map@V?$basic_string@DU?$char_traits@D@std@@V?$allocator@D@2@@std@@V12@UStlIniCompareStringNoCase@@V?$allocator@U?$pair@$$CBV?$basic_string@DU?$char_traits@D@std@@V?$allocator@D@2@@std@@V12@@std@@@2@@2@UStlIniCompareStringNoCase@@V?$allocator@U?$pair@$$CBV?$basic_string@DU?$char_traits@D@std@@V?$allocator@D@2@@std@@V?$map@V?$basic_string@DU?$char_traits@D@std@@V?$allocator@D@2@@std@@V12@UStlIniCompareStringNoCase@@V?$allocator@U?$pair@$$CBV?$basic_string@DU?$char_traits@D@std@@V?$allocator@D@2@@std@@V12@@std@@@2@@2@@std@@@2@$0A@@std@@@std@@IAEXABV12@@Z 00420960 f i stlini.obj
 0001:0001f9f0       ??0?$_Tree@V?$_Tmap_traits@V?$basic_string@DU?$char_traits@D@std@@V?$allocator@D@2@@std@@V?$map@V?$basic_string@DU?$char_traits@D@std@@V?$allocator@D@2@@std@@V12@UStlIniCompareStringNoCase@@V?$allocator@U?$pair@$$CBV?$basic_string@DU?$char_traits@D@std@@V?$allocator@D@2@@std@@V12@@std@@@2@@2@UStlIniCompareStringNoCase@@V?$allocator@U?$pair@$$CBV?$basic_string@DU?$char_traits@D@std@@V?$allocator@D@2@@std@@V?$map@V?$basic_string@DU?$char_traits@D@std@@V?$allocator@D@2@@std@@V12@UStlIniCompareStringNoCase@@V?$allocator@U?$pair@$$CBV?$basic_string@DU?$char_traits@D@std@@V?$allocator@D@2@@std@@V12@@std@@@2@@2@@std@@@2@$0A@@std@@@std@@QAE@ABV01@@Z 004209f0 f i stlini.obj
 0001:0001fa80       ?LoadIni@@YA?AV?$map@V?$basic_string@DU?$char_traits@D@std@@V?$allocator@D@2@@std@@V?$map@V?$basic_string@DU?$char_traits@D@std@@V?$allocator@D@2@@std@@V12@UStlIniCompareStringNoCase@@V?$allocator@U?$pair@$$CBV?$basic_string@DU?$char_traits@D@std@@V?$allocator@D@2@@std@@V12@@std@@@2@@2@UStlIniCompareStringNoCase@@V?$allocator@U?$pair@$$CBV?$basic_string@DU?$char_traits@D@std@@V?$allocator@D@2@@std@@V?$map@V?$basic_string@DU?$char_traits@D@std@@V?$allocator@D@2@@std@@V12@UStlIniCompareStringNoCase@@V?$allocator@U?$pair@$$CBV?$basic_string@DU?$char_traits@D@std@@V?$allocator@D@2@@std@@V12@@std@@@2@@2@@std@@@2@@std@@PBD@Z 00420a80 f   stlini.obj
 0001:0001fd20       ?GetValueByMonitor@Subsequent@@QAEHPAVMonitor@@AAH1@Z 00420d20 f   Subsequent.obj
 0001:0001fe00       ??1Subsequent@@UAE@XZ      00420e00 f   Subsequent.obj
 0001:0001fee0       ??0Subsequent@@QAE@XZ      00420ee0 f   Subsequent.obj
 0001:0001ff10       ??_ESubsequent@@UAEPAXI@Z  00420f10 f i Subsequent.obj
 0001:0001ff10       ??_GSubsequent@@UAEPAXI@Z  00420f10 f i Subsequent.obj
 0001:0001ff30       ?FromTextMap@Subsequent@@QAE_NAAV?$hashtable@Vword@svutil@@V12@@svutil@@@Z 00420f30 f   Subsequent.obj
 0001:00020230       ?ToTextMap@Subsequent@@QAE_NAAV?$hashtable@Vword@svutil@@V12@@svutil@@@Z 00421230 f   Subsequent.obj
 0001:000204a0       ??0SubsequentItem@@QAE@XZ  004214a0 f   SubsequentItem.obj
 0001:00020500       ??1SubsequentItem@@QAE@XZ  00421500 f   SubsequentItem.obj
 0001:00020550       ??$_Copy_opt@PAUPairTime@@PAU1@@std@@YAPAUPairTime@@PAU1@00U_Nonscalar_ptr_iterator_tag@0@@Z 00421550 f i Task.obj
 0001:00020590       ?resize@?$vector@UPairTime@@V?$allocator@UPairTime@@@std@@@std@@QAEXIUPairTime@@@Z 00421590 f i Task.obj
 0001:00020610       ??0TaskWeekDay@@QAE@XZ     00421610 f i Task.obj
 0001:00020620       ??1Task@@QAE@XZ            00421620 f   Task.obj
 0001:00020680       ??0Task@@QAE@XZ            00421680 f   Task.obj
 0001:000206e0       ?ToTextMap@Task@@QAE_NAAV?$hashtable@Vword@svutil@@V12@@svutil@@@Z 004216e0 f   Task.obj
 0001:00020be0       ?FromTextMap@Task@@QAE_NAAV?$hashtable@Vword@svutil@@V12@@svutil@@@Z 00421be0 f   Task.obj
 0001:00021100       ?CheckSubsequent@ThreadContrl@@IAE_NPAVMonitor@@AA_N1@Z 00422100 f   ThreadContrl.obj
 0001:000212b0       ?CheckSubsequent@ThreadContrl@@IAEHPAVMonitor@@@Z 004222b0 f   ThreadContrl.obj
 0001:000214a0       ?CheckTaskQueueByMonitor@ThreadContrl@@QAEXPAVMonitor@@@Z 004224a0 f   ThreadContrl.obj
 0001:000214c0       ?AdjustRetByMonitor@ThreadContrl@@QAEXPAVMonitor@@H@Z 004224c0 f   ThreadContrl.obj
 0001:000215b0       ?PrintTaskQueueInfo@ThreadContrl@@QAEXXZ 004225b0 f   ThreadContrl.obj
 0001:00021640       ?_Incsize@?$list@PAVThreadEx@@V?$allocator@PAVThreadEx@@@std@@@std@@IAEXI@Z 00422640 f i ThreadContrl.obj
 0001:000216e0       ??0ThreadContrl@@QAE@XZ    004226e0 f   ThreadContrl.obj
 0001:00021780       ??1ThreadContrl@@UAE@XZ    00422780 f   ThreadContrl.obj
 0001:00021810       ?AddNewThreads@ThreadContrl@@AAEHH@Z 00422810 f   ThreadContrl.obj
 0001:00021990       ?GetIdleThread@ThreadContrl@@AAEPAVThreadEx@@XZ 00422990 f   ThreadContrl.obj
 0001:00021a90       ?StartMonitor@ThreadContrl@@QAEXPAVMonitor@@@Z 00422a90 f   ThreadContrl.obj
 0001:00021ad0       ?ProcessSingleTaskQueueByIndex@ThreadContrl@@IAEHH@Z 00422ad0 f   ThreadContrl.obj
 0001:00021b50       ?CheckAllTaskQueue@ThreadContrl@@IAEXXZ 00422b50 f   ThreadContrl.obj
 0001:00021b80       ?AddToIdleThread@ThreadContrl@@QAEXPAVThreadEx@@@Z 00422b80 f   ThreadContrl.obj
 0001:00021c10       ?ExecuteMonitor@ThreadContrl@@QAEXPAVMonitor@@@Z 00422c10 f   ThreadContrl.obj
 0001:00021ce0       ?InitRefresh@ThreadContrl@@QAE_NH@Z 00422ce0 f   ThreadContrl.obj
 0001:00021d30       ?RefreshMonitors@ThreadContrl@@QAEXAAV?$list@PAVMonitor@@V?$allocator@PAVMonitor@@@std@@@std@@@Z 00422d30 f   ThreadContrl.obj
 0001:00021e40       ?Init@ThreadContrl@@QAEHXZ 00422e40 f   ThreadContrl.obj
 0001:00021f00       ?AddTask@ThreadContrl@@QAEHPAVMonitor@@@Z 00422f00 f   ThreadContrl.obj
 0001:00022130       ?ProcessSingleTaskEx@ThreadContrl@@IAEHPAVMonitor@@@Z 00423130 f   ThreadContrl.obj
 0001:000222a0       ?run@ThreadContrl@@UAEXXZ  004232a0 f   ThreadContrl.obj
 0001:000223e0       ??0ThreadEx@@QAE@XZ        004233e0 f   ThreadEx.obj
 0001:00022410       ??1ThreadEx@@UAE@XZ        00423410 f   ThreadEx.obj
 0001:00022420       ??_GThreadEx@@UAEPAXI@Z    00423420 f i ThreadEx.obj
 0001:00022420       ??_EThreadEx@@UAEPAXI@Z    00423420 f i ThreadEx.obj
 0001:00022440       ??0TString@@QAE@XZ         00423440 f   TString.obj
 0001:00022460       ??1TString@@UAE@XZ         00423460 f   TString.obj
 0001:00022470       ?Format@TString@@QAAHPBDZZ 00423470 f   TString.obj
 0001:00022570       ?Format@TString@@QAAHHPBDZZ 00423570 f   TString.obj
 0001:000225e0       ?Right@TString@@QAE?AV1@H@Z 004235e0 f   TString.obj
 0001:00022670       ?CompareNoCase@TString@@QAEHPBD@Z 00423670 f   TString.obj
 0001:00022690       ?_Buynode@?$list@VSingelRecord@@V?$allocator@VSingelRecord@@@std@@@std@@IAEPAU_Node@?$_List_nod@VSingelRecord@@V?$allocator@VSingelRecord@@@std@@@2@PAU342@0ABVSingelRecord@@@Z 00423690 f i Util.obj
 0001:00022730       ?_Incsize@?$list@VSingelRecord@@V?$allocator@VSingelRecord@@@std@@@std@@IAEXI@Z 00423730 f i Util.obj
 0001:000227d0       ?CacheRecords@Util@@CA_NV?$basic_string@DU?$char_traits@D@std@@V?$allocator@D@2@@std@@PBDH@Z 004237d0 f   Util.obj
 0001:000228e0       ?InsertSvdb@Util@@SA_NV?$basic_string@DU?$char_traits@D@std@@V?$allocator@D@2@@std@@PBDH0@Z 004238e0 f   Util.obj
 0001:00022ae0       ?InsertSvdb@Util@@SA_NV?$basic_string@DU?$char_traits@D@std@@V?$allocator@D@2@@std@@PBDH@Z 00423ae0 f   Util.obj
 0001:00022c70       ?FreeStringList@Util@@SAXAAV?$list@V?$basic_string@DU?$char_traits@D@std@@V?$allocator@D@2@@std@@V?$allocator@V?$basic_string@DU?$char_traits@D@std@@V?$allocator@D@2@@std@@@2@@std@@@Z 00423c70 f   Util.obj
 0001:00022c80       ?AppendThenClearAllRecords@Util@@SAHAAV?$list@VSingelRecord@@V?$allocator@VSingelRecord@@@std@@@std@@@Z 00423c80 f   Util.obj
 0001:00022de0       ?GetRootPath@Util@@SA?AVTString@@XZ 00423de0 f   Util.obj
 0001:00022e70       ?SendMsgToWsServer@Util@@SA_NV?$basic_string@DU?$char_traits@D@std@@V?$allocator@D@2@@std@@0@Z 00423e70 f   Util.obj
 0001:000231e0       ?GetSVMQAddress@Util@@SA?AVTString@@XZ 004241e0 f   Util.obj
 0001:000233a0       ??0Util@@QAE@XZ            004243a0 f   Util.obj
 0001:00023400       ?notify@Thread@ost@@MAEXPAV12@@Z 00424400 f   ccgnu2:ccgnu2.dll
 0001:00023406       ?getExtended@Thread@ost@@MAEPAXXZ 00424406 f   ccgnu2:ccgnu2.dll
 0001:0002340c       ?initial@Thread@ost@@MAEXXZ 0042440c f   ccgnu2:ccgnu2.dll
 0001:00023412       ?final@Thread@ost@@MAEXXZ  00424412 f   ccgnu2:ccgnu2.dll
 0001:00023418       ?compare@String@ost@@MBEHPBDII@Z 00424418 f   ccgnu2:ccgnu2.dll
 0001:00023420       ??0word@svutil@@QAE@PBD@Z  00424420 f   libutil:strkey.obj
 0001:00023460       ??0word@svutil@@QAE@ABV?$basic_string@DU?$char_traits@D@std@@V?$allocator@D@2@@std@@@Z 00424460 f   libutil:strkey.obj
 0001:000234b0       ??4word@svutil@@QAEAAV01@PBD@Z 004244b0 f   libutil:strkey.obj
 0001:00023500       ??4word@svutil@@QAEAAV01@ABV01@@Z 00424500 f   libutil:strkey.obj
 0001:00023550       ??8word@svutil@@QBE_NABV01@@Z 00424550 f   libutil:strkey.obj
 0001:000235c0       ??Mword@svutil@@QBE_NABV01@@Z 004245c0 f   libutil:strkey.obj
 0001:00023640       ??Oword@svutil@@QBE_NABV01@@Z 00424640 f   libutil:strkey.obj
 0001:000236c0       ??0buffer@svutil@@QAE@XZ   004246c0 f   libutil:buffer.obj
 0001:000236d0       ??1buffer@svutil@@QAE@XZ   004246d0 f   libutil:buffer.obj
 0001:000236e0       ?checksize@buffer@svutil@@QAE_NI@Z 004246e0 f   libutil:buffer.obj
 0001:00023740       ??2@YAPAXI@Z               00424740 f   msvcprt:newop_s.obj
 0001:00023765       ??_U@YAPAXI@Z              00424765 f   msvcprt:newaop_s.obj
 0001:0002376a       ??3@YAXPAX@Z               0042476a f   MSVCRT:MSVCR71.dll
 0001:00023770       ??0exception@@QAE@ABV0@@Z  00424770 f   MSVCRT:MSVCR71.dll
 0001:00023776       ??0bad_cast@@QAE@ABV0@@Z   00424776 f   MSVCRT:MSVCR71.dll
 0001:0002377c       ??_Etype_info@@UAEPAXI@Z   0042477c f i MSVCRT:ti_inst.obj
 0001:000237c8       ??1bad_cast@@UAE@XZ        004247c8 f   MSVCRT:MSVCR71.dll
 0001:000237ce       ___CxxFrameHandler         004247ce f   MSVCRT:MSVCR71.dll
 0001:000237e0       __CxxThrowException@8      004247e0 f   MSVCRT:MSVCR71.dll
 0001:00023817       @__security_check_cookie@4 00424817 f   MSVCRT:secchk.obj
 0001:00023830       __chkstk                   00424830 f   MSVCRT:chkstk.obj
 0001:00023830       __alloca_probe             00424830     MSVCRT:chkstk.obj
 0001:0002386e       ??_V@YAXPAX@Z              0042486e f   MSVCRT:MSVCR71.dll
 0001:00023874       __onexit                   00424874 f   MSVCRT:atonexit.obj
 0001:0002389a       _atexit                    0042489a f   MSVCRT:atonexit.obj
 0001:000238ac       __except_handler3          004248ac f   MSVCRT:MSVCR71.dll
 0001:000238b2       ?__ArrayUnwind@@YGXPAXIHP6EX0@Z@Z 004248b2 f   MSVCRT:ehvecdtr.obj
 0001:00023910       ??_M@YGXPAXIHP6EX0@Z@Z     00424910 f   MSVCRT:ehvecdtr.obj
 0001:00023970       ??_L@YGXPAXIHP6EX0@Z1@Z    00424970 f   MSVCRT:ehvecctr.obj
 0001:000239d2       __purecall                 004249d2 f   MSVCRT:MSVCR71.dll
 0001:000239d8       _mainCRTStartup            004249d8 f   MSVCRT:crtexe.obj
 0001:00023b70       _malloc                    00424b70 f   MSVCRT:MSVCR71.dll
 0001:00023b76       __callnewh                 00424b76 f   MSVCRT:MSVCR71.dll
 0001:00023b7c       ??1type_info@@UAE@XZ       00424b7c f   MSVCRT:MSVCR71.dll
 0001:00023b82       ___security_init_cookie    00424b82 f   MSVCRT:seccinit.obj
 0001:00023be8       ___security_error_handler  00424be8 f   MSVCRT:MSVCR71.dll
 0001:00023bf0       __SEH_prolog               00424bf0 f   MSVCRT:sehprolg.obj
 0001:00023c2b       __SEH_epilog               00424c2b f   MSVCRT:sehprolg.obj
 0001:00023c3c       ___dllonexit               00424c3c f   MSVCRT:MSVCR71.dll
 0001:00023c42       ?terminate@@YAXXZ          00424c42 f   MSVCRT:MSVCR71.dll
 0001:00023c48       __XcptFilter               00424c48 f   MSVCRT:MSVCR71.dll
 0001:00023c4e       __amsg_exit                00424c4e f   MSVCRT:MSVCR71.dll
 0001:00023c54       __RTC_Initialize           00424c54 f   MSVCRT:initsect.obj
 0001:00023c98       __RTC_Terminate            00424c98 f   MSVCRT:initsect.obj
 0001:00023cdc       __initterm                 00424cdc f   MSVCRT:MSVCR71.dll
 0001:00023ce2       __setdefaultprecision      00424ce2 f   MSVCRT:fp8.obj
 0001:00023cf4       __matherr                  00424cf4 f   MSVCRT:merr.obj
 0001:00023cf4       __setargv                  00424cf4 f   MSVCRT:dllargv.obj
 0001:00023cf8       __controlfp                00424cf8 f   MSVCRT:MSVCR71.dll
 0002:00000000       __imp__OutputDebugStringA@4 00428000     kernel32:KERNEL32.dll
 0002:00000004       __imp__GetSystemTimeAsFileTime@4 00428004     kernel32:KERNEL32.dll
 0002:00000008       __imp__GetCurrentProcessId@0 00428008     kernel32:KERNEL32.dll
 0002:0000000c       __imp__GetTickCount@0      0042800c     kernel32:KERNEL32.dll
 0002:00000010       __imp__QueryPerformanceCounter@4 00428010     kernel32:KERNEL32.dll
 0002:00000014       __imp__GetModuleHandleA@4  00428014     kernel32:KERNEL32.dll
 0002:00000018       __imp__FreeLibrary@4       00428018     kernel32:KERNEL32.dll
 0002:0000001c       __imp__GetProcAddress@8    0042801c     kernel32:KERNEL32.dll
 0002:00000020       __imp__LoadLibraryA@4      00428020     kernel32:KERNEL32.dll
 0002:00000024       __imp__ResetEvent@4        00428024     kernel32:KERNEL32.dll
 0002:00000028       __imp__SetLastError@4      00428028     kernel32:KERNEL32.dll
 0002:0000002c       __imp__GetLastError@0      0042802c     kernel32:KERNEL32.dll
 0002:00000030       __imp__CreateEventA@16     00428030     kernel32:KERNEL32.dll
 0002:00000034       __imp__Sleep@4             00428034     kernel32:KERNEL32.dll
 0002:00000038       __imp__WaitForSingleObject@8 00428038     kernel32:KERNEL32.dll
 0002:0000003c       __imp__CreateProcessA@40   0042803c     kernel32:KERNEL32.dll
 0002:00000040       __imp__GetCurrentThreadId@0 00428040     kernel32:KERNEL32.dll
 0002:00000044       __imp__ExitProcess@4       00428044     kernel32:KERNEL32.dll
 0002:00000048       \177KERNEL32_NULL_THUNK_DATA 00428048     kernel32:KERNEL32.dll
 0002:0000004c       __imp_??Y?$basic_string@DU?$char_traits@D@std@@V?$allocator@D@2@@std@@QAEAAV01@PBD@Z 0042804c     msvcprt:MSVCP71.dll
 0002:00000050       __imp_??0?$basic_string@DU?$char_traits@D@std@@V?$allocator@D@2@@std@@QAE@PBD@Z 00428050     msvcprt:MSVCP71.dll
 0002:00000054       __imp_??Y?$basic_string@DU?$char_traits@D@std@@V?$allocator@D@2@@std@@QAEAAV01@ABV01@@Z 00428054     msvcprt:MSVCP71.dll
 0002:00000058       __imp_?uncaught_exception@std@@YA_NXZ 00428058     msvcprt:MSVCP71.dll
 0002:0000005c       __imp_??0_Lockit@std@@QAE@H@Z 0042805c     msvcprt:MSVCP71.dll
 0002:00000060       __imp_?id@?$ctype@D@std@@2V0locale@2@A 00428060     msvcprt:MSVCP71.dll
 0002:00000064       __imp_??1_Lockit@std@@QAE@XZ 00428064     msvcprt:MSVCP71.dll
 0002:00000068       __imp_?_Id_cnt@id@locale@std@@0HA 00428068     msvcprt:MSVCP71.dll
 0002:0000006c       __imp_?_Getfacet@locale@std@@QBEPBVfacet@12@I@Z 0042806c     msvcprt:MSVCP71.dll
 0002:00000070       __imp_?_Getcat@?$ctype@D@std@@SAIPAPBVfacet@locale@2@@Z 00428070     msvcprt:MSVCP71.dll
 0002:00000074       __imp_?_Incref@facet@locale@std@@QAEXXZ 00428074     msvcprt:MSVCP71.dll
 0002:00000078       __imp_?_Register@facet@locale@std@@QAEXXZ 00428078     msvcprt:MSVCP71.dll
 0002:0000007c       __imp_?_Lock@_Mutex@std@@QAEXXZ 0042807c     msvcprt:MSVCP71.dll
 0002:00000080       __imp_?_Unlock@_Mutex@std@@QAEXXZ 00428080     msvcprt:MSVCP71.dll
 0002:00000084       __imp_??1?$basic_string@DU?$char_traits@D@std@@V?$allocator@D@2@@std@@QAE@XZ 00428084     msvcprt:MSVCP71.dll
 0002:00000088       __imp_?sputc@?$basic_streambuf@DU?$char_traits@D@std@@@std@@QAEHD@Z 00428088     msvcprt:MSVCP71.dll
 0002:0000008c       __imp_?_Ipfx@?$basic_istream@DU?$char_traits@D@std@@@std@@QAE_N_N@Z 0042808c     msvcprt:MSVCP71.dll
 0002:00000090       __imp_?flush@?$basic_ostream@DU?$char_traits@D@std@@@std@@QAEAAV12@XZ 00428090     msvcprt:MSVCP71.dll
 0002:00000094       __imp_?_Osfx@?$basic_ostream@DU?$char_traits@D@std@@@std@@QAEXXZ 00428094     msvcprt:MSVCP71.dll
 0002:00000098       __imp_?clear@ios_base@std@@QAEXH_N@Z 00428098     msvcprt:MSVCP71.dll
 0002:0000009c       __imp_?snextc@?$basic_streambuf@DU?$char_traits@D@std@@@std@@QAEHXZ 0042809c     msvcprt:MSVCP71.dll
 0002:000000a0       __imp_?append@?$basic_string@DU?$char_traits@D@std@@V?$allocator@D@2@@std@@QAEAAV12@ID@Z 004280a0     msvcprt:MSVCP71.dll
 0002:000000a4       __imp_?sgetc@?$basic_streambuf@DU?$char_traits@D@std@@@std@@QAEHXZ 004280a4     msvcprt:MSVCP71.dll
 0002:000000a8       __imp_?max_size@?$basic_string@DU?$char_traits@D@std@@V?$allocator@D@2@@std@@QBEIXZ 004280a8     msvcprt:MSVCP71.dll
 0002:000000ac       __imp_?erase@?$basic_string@DU?$char_traits@D@std@@V?$allocator@D@2@@std@@QAEAAV12@II@Z 004280ac     msvcprt:MSVCP71.dll
 0002:000000b0       __imp_?npos@?$basic_string@DU?$char_traits@D@std@@V?$allocator@D@2@@std@@2IB 004280b0     msvcprt:MSVCP71.dll
 0002:000000b4       __imp_??1locale@std@@QAE@XZ 004280b4     msvcprt:MSVCP71.dll
 0002:000000b8       __imp_?getloc@ios_base@std@@QBE?AVlocale@2@XZ 004280b8     msvcprt:MSVCP71.dll
 0002:000000bc       __imp_??0?$basic_string@DU?$char_traits@D@std@@V?$allocator@D@2@@std@@QAE@ABV01@@Z 004280bc     msvcprt:MSVCP71.dll
 0002:000000c0       __imp_?_Nomemory@std@@YAXXZ 004280c0     msvcprt:MSVCP71.dll
 0002:000000c4       __imp_?getline@?$basic_istream@DU?$char_traits@D@std@@@std@@QAEAAV12@PADH@Z 004280c4     msvcprt:MSVCP71.dll
 0002:000000c8       __imp_??0?$basic_fstream@DU?$char_traits@D@std@@@std@@QAE@PBDHH@Z 004280c8     msvcprt:MSVCP71.dll
 0002:000000cc       __imp_??_D?$basic_fstream@DU?$char_traits@D@std@@@std@@QAEXXZ 004280cc     msvcprt:MSVCP71.dll
 0002:000000d0       __imp_?rfind@?$basic_string@DU?$char_traits@D@std@@V?$allocator@D@2@@std@@QBEIPBDII@Z 004280d0     msvcprt:MSVCP71.dll
 0002:000000d4       __imp_?find_first_of@?$basic_string@DU?$char_traits@D@std@@V?$allocator@D@2@@std@@QBEIPBDII@Z 004280d4     msvcprt:MSVCP71.dll
 0002:000000d8       __imp_?replace@?$basic_string@DU?$char_traits@D@std@@V?$allocator@D@2@@std@@QAEAAV12@IIPBD@Z 004280d8     msvcprt:MSVCP71.dll
 0002:000000dc       __imp_??0?$basic_istringstream@DU?$char_traits@D@std@@V?$allocator@D@2@@std@@QAE@ABV?$basic_string@DU?$char_traits@D@std@@V?$allocator@D@2@@1@H@Z 004280dc     msvcprt:MSVCP71.dll
 0002:000000e0       __imp_??_D?$basic_istringstream@DU?$char_traits@D@std@@V?$allocator@D@2@@std@@QAEXXZ 004280e0     msvcprt:MSVCP71.dll
 0002:000000e4       __imp_??$?8DU?$char_traits@D@std@@V?$allocator@D@1@@std@@YA_NABV?$basic_string@DU?$char_traits@D@std@@V?$allocator@D@2@@0@0@Z 004280e4     msvcprt:MSVCP71.dll
 0002:000000e8       __imp_??$?MDU?$char_traits@D@std@@V?$allocator@D@1@@std@@YA_NABV?$basic_string@DU?$char_traits@D@std@@V?$allocator@D@2@@0@0@Z 004280e8     msvcprt:MSVCP71.dll
 0002:000000ec       __imp_??$?8DU?$char_traits@D@std@@V?$allocator@D@1@@std@@YA_NABV?$basic_string@DU?$char_traits@D@std@@V?$allocator@D@2@@0@PBD@Z 004280ec     msvcprt:MSVCP71.dll
 0002:000000f0       __imp_?clear@?$basic_string@DU?$char_traits@D@std@@V?$allocator@D@2@@std@@QAEXXZ 004280f0     msvcprt:MSVCP71.dll
 0002:000000f4       __imp_?compare@?$basic_string@DU?$char_traits@D@std@@V?$allocator@D@2@@std@@QBEHABV12@@Z 004280f4     msvcprt:MSVCP71.dll
 0002:000000f8       __imp_?find@?$basic_string@DU?$char_traits@D@std@@V?$allocator@D@2@@std@@QBEIPBDII@Z 004280f8     msvcprt:MSVCP71.dll
 0002:000000fc       __imp_?substr@?$basic_string@DU?$char_traits@D@std@@V?$allocator@D@2@@std@@QBE?AV12@II@Z 004280fc     msvcprt:MSVCP71.dll
 0002:00000100       __imp_??0?$basic_string@DU?$char_traits@D@std@@V?$allocator@D@2@@std@@QAE@XZ 00428100     msvcprt:MSVCP71.dll
 0002:00000104       __imp_??4?$basic_string@DU?$char_traits@D@std@@V?$allocator@D@2@@std@@QAEAAV01@PBD@Z 00428104     msvcprt:MSVCP71.dll
 0002:00000108       __imp_?compare@?$basic_string@DU?$char_traits@D@std@@V?$allocator@D@2@@std@@QBEHIIPBDI@Z 00428108     msvcprt:MSVCP71.dll
 0002:0000010c       __imp_??0?$basic_ostringstream@DU?$char_traits@D@std@@V?$allocator@D@2@@std@@QAE@H@Z 0042810c     msvcprt:MSVCP71.dll
 0002:00000110       __imp_?str@?$basic_ostringstream@DU?$char_traits@D@std@@V?$allocator@D@2@@std@@QBE?AV?$basic_string@DU?$char_traits@D@std@@V?$allocator@D@2@@2@XZ 00428110     msvcprt:MSVCP71.dll
 0002:00000114       __imp_??_D?$basic_ostringstream@DU?$char_traits@D@std@@V?$allocator@D@2@@std@@QAEXXZ 00428114     msvcprt:MSVCP71.dll
 0002:00000118       __imp_??4?$basic_string@DU?$char_traits@D@std@@V?$allocator@D@2@@std@@QAEAAV01@ABV01@@Z 00428118     msvcprt:MSVCP71.dll
 0002:0000011c       __imp_??$?6U?$char_traits@D@std@@@std@@YAAAV?$basic_ostream@DU?$char_traits@D@std@@@0@AAV10@PBD@Z 0042811c     msvcprt:MSVCP71.dll
 0002:00000120       __imp_?endl@std@@YAAAV?$basic_ostream@DU?$char_traits@D@std@@@1@AAV21@@Z 00428120     msvcprt:MSVCP71.dll
 0002:00000124       __imp_?cout@std@@3V?$basic_ostream@DU?$char_traits@D@std@@@1@A 00428124     msvcprt:MSVCP71.dll
 0002:00000128       __imp_??6?$basic_ostream@DU?$char_traits@D@std@@@std@@QAEAAV01@H@Z 00428128     msvcprt:MSVCP71.dll
 0002:0000012c       __imp_??6?$basic_ostream@DU?$char_traits@D@std@@@std@@QAEAAV01@P6AAAV01@AAV01@@Z@Z 0042812c     msvcprt:MSVCP71.dll
 0002:00000130       \177MSVCP71_NULL_THUNK_DATA 00428130     msvcprt:MSVCP71.dll
 0002:00000134       __imp_??0exception@@QAE@ABV0@@Z 00428134     MSVCRT:MSVCR71.dll
 0002:00000138       __imp_??0bad_cast@@QAE@ABV0@@Z 00428138     MSVCRT:MSVCR71.dll
 0002:0000013c       __imp_??1bad_cast@@UAE@XZ  0042813c     MSVCRT:MSVCR71.dll
 0002:00000140       __imp_??0bad_cast@@QAE@PBD@Z 00428140     MSVCRT:MSVCR71.dll
 0002:00000144       __imp____CxxFrameHandler   00428144     MSVCRT:MSVCR71.dll
 0002:00000148       __imp___CxxThrowException@8 00428148     MSVCRT:MSVCR71.dll
 0002:0000014c       __imp__sprintf             0042814c     MSVCRT:MSVCR71.dll
 0002:00000150       __imp__time                00428150     MSVCRT:MSVCR71.dll
 0002:00000154       __imp_??_V@YAXPAX@Z        00428154     MSVCRT:MSVCR71.dll
 0002:00000158       __imp_??1exception@@UAE@XZ 00428158     MSVCRT:MSVCR71.dll
 0002:0000015c       __imp_??0exception@@QAE@XZ 0042815c     MSVCRT:MSVCR71.dll
 0002:00000160       __imp___strdup             00428160     MSVCRT:MSVCR71.dll
 0002:00000160       __imp__strdup              00428160     MSVCRT:MSVCR71.dll
 0002:00000164       __imp__free                00428164     MSVCRT:MSVCR71.dll
 0002:00000168       __imp__memmove             00428168     MSVCRT:MSVCR71.dll
 0002:0000016c       __imp__atoi                0042816c     MSVCRT:MSVCR71.dll
 0002:00000170       __imp___i64toa             00428170     MSVCRT:MSVCR71.dll
 0002:00000174       __imp__puts                00428174     MSVCRT:MSVCR71.dll
 0002:00000178       __imp__printf              00428178     MSVCRT:MSVCR71.dll
 0002:0000017c       __imp__mktime              0042817c     MSVCRT:MSVCR71.dll
 0002:00000180       __imp___atoi64             00428180     MSVCRT:MSVCR71.dll
 0002:00000184       __imp__localtime           00428184     MSVCRT:MSVCR71.dll
 0002:00000188       __imp__fprintf             00428188     MSVCRT:MSVCR71.dll
 0002:0000018c       __imp__fopen               0042818c     MSVCRT:MSVCR71.dll
 0002:00000190       __imp__fclose              00428190     MSVCRT:MSVCR71.dll
 0002:00000194       __imp___stat               00428194     MSVCRT:MSVCR71.dll
 0002:00000198       __imp___strdate            00428198     MSVCRT:MSVCR71.dll
 0002:0000019c       __imp___strtime            0042819c     MSVCRT:MSVCR71.dll
 0002:000001a0       __imp___tzset              004281a0     MSVCRT:MSVCR71.dll
 0002:000001a4       __imp__fgets               004281a4     MSVCRT:MSVCR71.dll
 0002:000001a8       __imp__stricmp             004281a8     MSVCRT:MSVCR71.dll
 0002:000001a8       __imp___stricmp            004281a8     MSVCRT:MSVCR71.dll
 0002:000001ac       __imp___except_handler3    004281ac     MSVCRT:MSVCR71.dll
 0002:000001b0       __imp__atof                004281b0     MSVCRT:MSVCR71.dll
 0002:000001b4       __imp__strstr              004281b4     MSVCRT:MSVCR71.dll
 0002:000001b8       __imp__strtod              004281b8     MSVCRT:MSVCR71.dll
 0002:000001bc       __imp__sscanf              004281bc     MSVCRT:MSVCR71.dll
 0002:000001c0       __imp__fwrite              004281c0     MSVCRT:MSVCR71.dll
 0002:000001c4       __imp__fputs               004281c4     MSVCRT:MSVCR71.dll
 0002:000001c8       __imp__itoa                004281c8     MSVCRT:MSVCR71.dll
 0002:000001c8       __imp___itoa               004281c8     MSVCRT:MSVCR71.dll
 0002:000001cc       __imp__strrchr             004281cc     MSVCRT:MSVCR71.dll
 0002:000001d0       __imp__strchr              004281d0     MSVCRT:MSVCR71.dll
 0002:000001d4       __imp___purecall           004281d4     MSVCRT:MSVCR71.dll
 0002:000001d8       __imp___vsnprintf          004281d8     MSVCRT:MSVCR71.dll
 0002:000001dc       __imp__malloc              004281dc     MSVCRT:MSVCR71.dll
 0002:000001e0       __imp___callnewh           004281e0     MSVCRT:MSVCR71.dll
 0002:000001e4       __imp_??1type_info@@UAE@XZ 004281e4     MSVCRT:MSVCR71.dll
 0002:000001e8       __imp____security_error_handler 004281e8     MSVCRT:MSVCR71.dll
 0002:000001ec       __imp____dllonexit         004281ec     MSVCRT:MSVCR71.dll
 0002:000001f0       __imp___onexit             004281f0     MSVCRT:MSVCR71.dll
 0002:000001f4       __imp_?terminate@@YAXXZ    004281f4     MSVCRT:MSVCR71.dll
 0002:000001f8       __imp___c_exit             004281f8     MSVCRT:MSVCR71.dll
 0002:000001fc       __imp___exit               004281fc     MSVCRT:MSVCR71.dll
 0002:00000200       __imp___XcptFilter         00428200     MSVCRT:MSVCR71.dll
 0002:00000204       __imp___cexit              00428204     MSVCRT:MSVCR71.dll
 0002:00000208       __imp__exit                00428208     MSVCRT:MSVCR71.dll
 0002:0000020c       __imp____p___initenv       0042820c     MSVCRT:MSVCR71.dll
 0002:00000210       __imp___amsg_exit          00428210     MSVCRT:MSVCR71.dll
 0002:00000214       __imp____getmainargs       00428214     MSVCRT:MSVCR71.dll
 0002:00000218       __imp___initterm           00428218     MSVCRT:MSVCR71.dll
 0002:0000021c       __imp____setusermatherr    0042821c     MSVCRT:MSVCR71.dll
 0002:00000220       __imp___adjust_fdiv        00428220     MSVCRT:MSVCR71.dll
 0002:00000224       __imp____p__commode        00428224     MSVCRT:MSVCR71.dll
 0002:00000228       __imp____p__fmode          00428228     MSVCRT:MSVCR71.dll
 0002:0000022c       __imp____set_app_type      0042822c     MSVCRT:MSVCR71.dll
 0002:00000230       __imp___controlfp          00428230     MSVCRT:MSVCR71.dll
 0002:00000234       __imp_??3@YAXPAX@Z         00428234     MSVCRT:MSVCR71.dll
 0002:00000238       \177MSVCR71_NULL_THUNK_DATA 00428238     MSVCRT:MSVCR71.dll
 0002:0000023c       __imp__GetMessageA@16      0042823c     user32:USER32.dll
 0002:00000240       __imp__TranslateMessage@4  00428240     user32:USER32.dll
 0002:00000244       __imp__PeekMessageA@20     00428244     user32:USER32.dll
 0002:00000248       __imp__WaitMessage@0       00428248     user32:USER32.dll
 0002:0000024c       __imp__PostThreadMessageA@16 0042824c     user32:USER32.dll
 0002:00000250       __imp__DispatchMessageA@4  00428250     user32:USER32.dll
 0002:00000254       \177USER32_NULL_THUNK_DATA 00428254     user32:USER32.dll
 0002:00000258       __imp_?notify@Thread@ost@@MAEXPAV12@@Z 00428258     ccgnu2:ccgnu2.dll
 0002:0000025c       __imp_?getExtended@Thread@ost@@MAEPAXXZ 0042825c     ccgnu2:ccgnu2.dll
 0002:00000260       __imp_?initial@Thread@ost@@MAEXXZ 00428260     ccgnu2:ccgnu2.dll
 0002:00000264       __imp_?final@Thread@ost@@MAEXXZ 00428264     ccgnu2:ccgnu2.dll
 0002:00000268       __imp_?sleep@Thread@ost@@SAXK@Z 00428268     ccgnu2:ccgnu2.dll
 0002:0000026c       __imp_??0Mutex@ost@@QAE@PBD@Z 0042826c     ccgnu2:ccgnu2.dll
 0002:00000270       __imp_??1Mutex@ost@@UAE@XZ 00428270     ccgnu2:ccgnu2.dll
 0002:00000274       __imp_?leaveMutex@Mutex@ost@@QAEXXZ 00428274     ccgnu2:ccgnu2.dll
 0002:00000278       __imp_?enterMutex@Mutex@ost@@QAEXXZ 00428278     ccgnu2:ccgnu2.dll
 0002:0000027c       __imp_??1String@ost@@UAE@XZ 0042827c     ccgnu2:ccgnu2.dll
 0002:00000280       __imp_??0String@ost@@QAE@XZ 00428280     ccgnu2:ccgnu2.dll
 0002:00000284       __imp_?set@String@ost@@IAEPBDPBDI@Z 00428284     ccgnu2:ccgnu2.dll
 0002:00000288       __imp_?getText@String@ost@@QBEPADXZ 00428288     ccgnu2:ccgnu2.dll
 0002:0000028c       __imp_?compare@String@ost@@MBEHPBDII@Z 0042828c     ccgnu2:ccgnu2.dll
 0002:00000290       __imp_??0String@ost@@QAE@PBD@Z 00428290     ccgnu2:ccgnu2.dll
 0002:00000294       __imp_?set@String@ost@@IAEXABV12@@Z 00428294     ccgnu2:ccgnu2.dll
 0002:00000298       __imp_?init@String@ost@@IAEXXZ 00428298     ccgnu2:ccgnu2.dll
 0002:0000029c       __imp_?find@String@ost@@QBEIPBDIII@Z 0042829c     ccgnu2:ccgnu2.dll
 0002:000002a0       __imp_?replace@String@ost@@QAEXIIPBDI@Z 004282a0     ccgnu2:ccgnu2.dll
 0002:000002a4       __imp_?isEmpty@String@ost@@QBE_NXZ 004282a4     ccgnu2:ccgnu2.dll
 0002:000002a8       __imp_?wait@Event@ost@@QAE_NXZ 004282a8     ccgnu2:ccgnu2.dll
 0002:000002ac       __imp_??1MutexLock@ost@@QAE@XZ 004282ac     ccgnu2:ccgnu2.dll
 0002:000002b0       __imp_?start@Thread@ost@@QAEHPAVSemaphore@2@@Z 004282b0     ccgnu2:ccgnu2.dll
 0002:000002b4       __imp_??0String@ost@@QAE@ABV01@@Z 004282b4     ccgnu2:ccgnu2.dll
 0002:000002b8       __imp_?rfind@String@ost@@QBEIPBDII@Z 004282b8     ccgnu2:ccgnu2.dll
 0002:000002bc       __imp_?substr@String@ost@@QBE?AV12@II@Z 004282bc     ccgnu2:ccgnu2.dll
 0002:000002c0       __imp_?getLength@String@ost@@QBE?BIXZ 004282c0     ccgnu2:ccgnu2.dll
 0002:000002c4       __imp_?signal@Event@ost@@QAEXXZ 004282c4     ccgnu2:ccgnu2.dll
 0002:000002c8       __imp_?append@String@ost@@QAEXPBDI@Z 004282c8     ccgnu2:ccgnu2.dll
 0002:000002cc       __imp_?clear@String@ost@@QAEXXZ 004282cc     ccgnu2:ccgnu2.dll
 0002:000002d0       __imp_??1Event@ost@@UAE@XZ 004282d0     ccgnu2:ccgnu2.dll
 0002:000002d4       __imp_??0Event@ost@@QAE@XZ 004282d4     ccgnu2:ccgnu2.dll
 0002:000002d8       __imp_??8String@ost@@QBE_NABV01@@Z 004282d8     ccgnu2:ccgnu2.dll
 0002:000002dc       __imp_?getValue@String@ost@@QBEJJ@Z 004282dc     ccgnu2:ccgnu2.dll
 0002:000002e0       __imp_??Host@@YA?AVString@0@PBDABV10@@Z 004282e0     ccgnu2:ccgnu2.dll
 0002:000002e4       __imp_?reset@Event@ost@@QAEXXZ 004282e4     ccgnu2:ccgnu2.dll
 0002:000002e8       __imp_??0String@ost@@QAE@V?$basic_string@DU?$char_traits@D@std@@V?$allocator@D@2@@std@@@Z 004282e8     ccgnu2:ccgnu2.dll
 0002:000002ec       __imp_??0Thread@ost@@QAE@HI@Z 004282ec     ccgnu2:ccgnu2.dll
 0002:000002f0       __imp_??1Thread@ost@@UAE@XZ 004282f0     ccgnu2:ccgnu2.dll
 0002:000002f4       __imp_?setLength@String@ost@@IAEXI@Z 004282f4     ccgnu2:ccgnu2.dll
 0002:000002f8       __imp_?resize@String@ost@@QAEXI@Z 004282f8     ccgnu2:ccgnu2.dll
 0002:000002fc       \177ccgnu2_NULL_THUNK_DATA 004282fc     ccgnu2:ccgnu2.dll
 0002:00000300       __imp__CoInitialize@4      00428300     ole32:ole32.dll
 0002:00000304       \177ole32_NULL_THUNK_DATA  00428304     ole32:ole32.dll
 0002:00000308       __imp_?DeleteQueue@@YA_NV?$basic_string@DU?$char_traits@D@std@@V?$allocator@D@2@@std@@00@Z 00428308     svapi:svapi.dll
 0002:0000030c       __imp_?GetSVDYNNODisplayString@@YA_NV?$basic_string@DU?$char_traits@D@std@@V?$allocator@D@2@@std@@AAUsv_dyn@@00@Z 0042830c     svapi:svapi.dll
 0002:00000310       __imp_?SetSvdbAddrByFile@@YA_NV?$basic_string@DU?$char_traits@D@std@@V?$allocator@D@2@@std@@@Z 00428310     svapi:svapi.dll
 0002:00000314       __imp_?PopMessage@@YAPAXV?$basic_string@DU?$char_traits@D@std@@V?$allocator@D@2@@std@@I00@Z 00428314     svapi:svapi.dll
 0002:00000318       __imp_?GetMessageData@@YA_NPAXAAV?$basic_string@DU?$char_traits@D@std@@V?$allocator@D@2@@std@@AAVTTime@svutil@@PADAAI@Z 00428318     svapi:svapi.dll
 0002:0000031c       __imp_?CloseMQRecord@@YA_NAAPAX@Z 0042831c     svapi:svapi.dll
 0002:00000320       __imp_?PushMessage@@YA_NV?$basic_string@DU?$char_traits@D@std@@V?$allocator@D@2@@std@@0PBDI00@Z 00428320     svapi:svapi.dll
 0002:00000324       __imp_?GetSiteViewRootPath@@YA?AV?$basic_string@DU?$char_traits@D@std@@V?$allocator@D@2@@std@@XZ 00428324     svapi:svapi.dll
 0002:00000328       __imp_?FindSEID@@YA?AV?$basic_string@DU?$char_traits@D@std@@V?$allocator@D@2@@std@@V12@@Z 00428328     svapi:svapi.dll
 0002:0000032c       __imp_?FindParentID@@YA?AV?$basic_string@DU?$char_traits@D@std@@V?$allocator@D@2@@std@@V12@@Z 0042832c     svapi:svapi.dll
 0002:00000330       __imp_?CreateQueue@@YA_NV?$basic_string@DU?$char_traits@D@std@@V?$allocator@D@2@@std@@H00@Z 00428330     svapi:svapi.dll
 0002:00000334       __imp_?BlockPopMessage@@YAPAXV?$basic_string@DU?$char_traits@D@std@@V?$allocator@D@2@@std@@00@Z 00428334     svapi:svapi.dll
 0002:00000338       __imp_?GetSvdbAddr@@YA?AV?$basic_string@DU?$char_traits@D@std@@V?$allocator@D@2@@std@@XZ 00428338     svapi:svapi.dll
 0002:0000033c       __imp_?CloseResource@@YA_NAAPAX@Z 0042833c     svapi:svapi.dll
 0002:00000340       __imp_?CloseGroup@@YA_NAAPAX@Z 00428340     svapi:svapi.dll
 0002:00000344       __imp_?FindNodeValue@@YA_NPAXV?$basic_string@DU?$char_traits@D@std@@V?$allocator@D@2@@std@@AAV12@@Z 00428344     svapi:svapi.dll
 0002:00000348       __imp_?GetGroupMainAttribNode@@YAPAXPAX@Z 00428348     svapi:svapi.dll
 0002:0000034c       __imp_?GetGroup@@YAPAXV?$basic_string@DU?$char_traits@D@std@@V?$allocator@D@2@@std@@00@Z 0042834c     svapi:svapi.dll
 0002:00000350       __imp_?GetMonitorTemplet@@YAPAXHV?$basic_string@DU?$char_traits@D@std@@V?$allocator@D@2@@std@@0@Z 00428350     svapi:svapi.dll
 0002:00000354       __imp_?GetEntityTemplet@@YAPAXV?$basic_string@DU?$char_traits@D@std@@V?$allocator@D@2@@std@@00@Z 00428354     svapi:svapi.dll
 0002:00000358       __imp_?GetMonitor@@YAPAXV?$basic_string@DU?$char_traits@D@std@@V?$allocator@D@2@@std@@00@Z 00428358     svapi:svapi.dll
 0002:0000035c       __imp_?GetEntity@@YAPAXV?$basic_string@DU?$char_traits@D@std@@V?$allocator@D@2@@std@@00@Z 0042835c     svapi:svapi.dll
 0002:00000360       __imp_?FindMTAdvanceParameterFirst@@YA_NPAXAAUsv_list@@@Z 00428360     svapi:svapi.dll
 0002:00000364       __imp_?ReleaseItemList@@YAXABUsv_list@@@Z 00428364     svapi:svapi.dll
 0002:00000368       __imp_?FindNext@@YAPAXABUsv_list@@@Z 00428368     svapi:svapi.dll
 0002:0000036c       __imp_?FindMTParameterFirst@@YA_NPAXAAUsv_list@@@Z 0042836c     svapi:svapi.dll
 0002:00000370       __imp_?GetMonitorMainAttribNode@@YAPAXPAX@Z 00428370     svapi:svapi.dll
 0002:00000374       __imp_?GetMonitorAdvanceParameterNode@@YAPAXPAX@Z 00428374     svapi:svapi.dll
 0002:00000378       __imp_?GetMonitorParameter@@YAPAXPAX@Z 00428378     svapi:svapi.dll
 0002:0000037c       __imp_?GetEntityMainAttribNode@@YAPAXPAX@Z 0042837c     svapi:svapi.dll
 0002:00000380       __imp_?FindETContrlFirst@@YA_NPAXAAUsv_list@@@Z 00428380     svapi:svapi.dll
 0002:00000384       __imp_?GetMTMainAttribNode@@YAPAXPAX@Z 00428384     svapi:svapi.dll
 0002:00000388       __imp_?FindMTReturnFirst@@YA_NPAXAAUsv_list@@@Z 00428388     svapi:svapi.dll
 0002:0000038c       __imp_?GetResourceNode@@YAPAXPAX@Z 0042838c     svapi:svapi.dll
 0002:00000390       __imp_?LoadResource@@YAPAXV?$basic_string@DU?$char_traits@D@std@@V?$allocator@D@2@@std@@0@Z 00428390     svapi:svapi.dll
 0002:00000394       __imp_?GetMonitorErrorAlertCondition@@YAPAXPAX@Z 00428394     svapi:svapi.dll
 0002:00000398       __imp_?CloseEntity@@YA_NAAPAX@Z 00428398     svapi:svapi.dll
 0002:0000039c       __imp_?CloseMonitor@@YAXAAPAX@Z 0042839c     svapi:svapi.dll
 0002:000003a0       __imp_?CloseEntityTemplet@@YA_NAAPAX@Z 004283a0     svapi:svapi.dll
 0002:000003a4       __imp_?CloseMonitorTemplet@@YAXAAPAX@Z 004283a4     svapi:svapi.dll
 0002:000003a8       __imp_?GetMonitorGoodAlertCondition@@YAPAXPAX@Z 004283a8     svapi:svapi.dll
 0002:000003ac       __imp_?GetMonitorWarningAlertCondition@@YAPAXPAX@Z 004283ac     svapi:svapi.dll
 0002:000003b0       __imp_?GetIniFileString@@YA?AV?$basic_string@DU?$char_traits@D@std@@V?$allocator@D@2@@std@@V12@00000@Z 004283b0     svapi:svapi.dll
 0002:000003b4       __imp_?GetIniFileSections@@YA_NAAV?$list@V?$basic_string@DU?$char_traits@D@std@@V?$allocator@D@2@@std@@V?$allocator@V?$basic_string@DU?$char_traits@D@std@@V?$allocator@D@2@@std@@@2@@std@@V?$basic_string@DU?$char_traits@D@std@@V?$allocator@D@2@@2@11@Z 004283b4     svapi:svapi.dll
 0002:000003b8       __imp_?GetMonitorsInfoBySE@@YA_NV?$basic_string@DU?$char_traits@D@std@@V?$allocator@D@2@@std@@AAV?$list@Usv_pair@@V?$allocator@Usv_pair@@@std@@@2@000@Z 004283b8     svapi:svapi.dll
 0002:000003bc       __imp_?EnumNodeAttrib@@YA_NPAXAAV?$list@Usv_pair@@V?$allocator@Usv_pair@@@std@@@std@@@Z 004283bc     svapi:svapi.dll
 0002:000003c0       __imp_?GetAllEntitysInfo@@YA_NAAV?$list@Usv_pair@@V?$allocator@Usv_pair@@@std@@@std@@V?$basic_string@DU?$char_traits@D@std@@V?$allocator@D@2@@2@11@Z 004283c0     svapi:svapi.dll
 0002:000003c4       __imp_?GetAllGroupsInfo@@YA_NAAV?$list@Usv_pair@@V?$allocator@Usv_pair@@@std@@@std@@V?$basic_string@DU?$char_traits@D@std@@V?$allocator@D@2@@2@11@Z 004283c4     svapi:svapi.dll
 0002:000003c8       __imp_?CloseTask@@YAXAAPAX@Z 004283c8     svapi:svapi.dll
 0002:000003cc       __imp_?GetTaskValue@@YA?AV?$basic_string@DU?$char_traits@D@std@@V?$allocator@D@2@@std@@V12@PAX@Z 004283cc     svapi:svapi.dll
 0002:000003d0       __imp_?GetTask@@YAPAXV?$basic_string@DU?$char_traits@D@std@@V?$allocator@D@2@@std@@00@Z 004283d0     svapi:svapi.dll
 0002:000003d4       __imp_?GetAllTaskName@@YA_NAAV?$list@V?$basic_string@DU?$char_traits@D@std@@V?$allocator@D@2@@std@@V?$allocator@V?$basic_string@DU?$char_traits@D@std@@V?$allocator@D@2@@std@@@2@@std@@V?$basic_string@DU?$char_traits@D@std@@V?$allocator@D@2@@2@1@Z 004283d4     svapi:svapi.dll
 0002:000003d8       __imp_?AppendRecord@@YA_NV?$basic_string@DU?$char_traits@D@std@@V?$allocator@D@2@@std@@PBDI00@Z 004283d8     svapi:svapi.dll
 0002:000003dc       __imp_?AppendMassRecord@@YA_NAAV?$list@VSingelRecord@@V?$allocator@VSingelRecord@@@std@@@std@@V?$basic_string@DU?$char_traits@D@std@@V?$allocator@D@2@@2@1@Z 004283dc     svapi:svapi.dll
 0002:000003e0       __imp_?ClearQueueMessage@@YA_NV?$basic_string@DU?$char_traits@D@std@@V?$allocator@D@2@@std@@00@Z 004283e0     svapi:svapi.dll
 0002:000003e4       \177svapi_NULL_THUNK_DATA  004283e4     svapi:svapi.dll
 0002:0000040c       ??_7CAppendMassRecord@@6B@ 0042840c     appendmassrecord.obj
 0002:00000424       ??_C@_08EPJLHIJG@bad?5cast?$AA@ 00428424     appendmassrecord.obj
 0002:00000430       ??_C@_0BK@DMJNBOOE@AppendMassRecord?5failed?$CB?6?$AA@ 00428430     appendmassrecord.obj
 0002:0000044c       ??_C@_0BJ@HOCPNMDK@AppendMassRecord?5failed?$CB?$AA@ 0042844c     appendmassrecord.obj
 0002:00000468       ??_C@_0CK@OOEGADDJ@AppendMass?5?$CFd?5records?5done?0?5slep@ 00428468     appendmassrecord.obj
 0002:00000494       ??_C@_0M@CGMGLBGG@AppendMass?5?$AA@ 00428494     appendmassrecord.obj
 0002:000004a0       ??_C@_0P@BOFGGFEC@?5records?5done?0?$AA@ 004284a0     appendmassrecord.obj
 0002:000004b0       ??_C@_07DNIMPLNI@?5slept?5?$AA@ 004284b0     appendmassrecord.obj
 0002:000004b8       ??_C@_04GMOANHBN@?5ms?4?$AA@ 004284b8     appendmassrecord.obj
 0002:00000cc0       ??_7Des@@6B@               00428cc0     Des.obj
 0002:00000ee8       ??_C@_02DKCKIIND@?$CFs?$AA@ 00428ee8     Des.obj
 0002:00000eec       ??_7logic_error@std@@6B@   00428eec     Groups.obj
 0002:00000ef4       ??_7length_error@std@@6B@  00428ef4     Groups.obj
 0002:00000efc       ??_C@_0M@IGBDGEOL@MSException?$AA@ 00428efc     Groups.obj
 0002:00000f08       ??_C@_09FBNMMHMJ@Exception?$AA@ 00428f08     Groups.obj
 0002:00000f14       ??_7MSException@@6B@       00428f14     Groups.obj
 0002:00000f20       ??_7exception@svutil@@6B@  00428f20     Groups.obj
 0002:00000f2c       ??_7word@svutil@@6B@       00428f2c     Groups.obj
 0002:00000f30       ??_C@_00CNPNBAHC@?$AA@     00428f30     Groups.obj
 0002:00000f34       ??_C@_0BN@NKJIKKBC@Invalid?5parameter?5?$DMEntityID?$DO?$AA@ 00428f34     Groups.obj
 0002:00000f54       ??_C@_0BP@CECHBOBE@Invalid?5parameter?5?$DMSystemType?$DO?$AA@ 00428f54     Groups.obj
 0002:00000f74       ??_C@_0BL@NKDFBEPA@Invalid?5parameter?5?$DMDepend?$DO?$AA@ 00428f74     Groups.obj
 0002:00000f90       ??_C@_0BN@EHFGBPEL@Invalid?5parameter?5?$DMIPAdress?$DO?$AA@ 00428f90     Groups.obj
 0002:00000fb0       ??_C@_0BM@PFPPIFLI@Invalid?5parameter?5?$DMGroupID?$DO?$AA@ 00428fb0     Groups.obj
 0002:00000fcc       ??_C@_0BN@JPLEKJNA@Invalid?5parameter?5?$DMParentID?$DO?$AA@ 00428fcc     Groups.obj
 0002:00000fec       ??_C@_0BO@MMLCMJIC@Invalid?5parameter?5?$DMDependSon?$DO?$AA@ 00428fec     Groups.obj
 0002:0000100c       ??_7?$sorttree@V?$hashelement@Vword@svutil@@V12@@svutil@@@svutil@@6B@ 0042900c     Groups.obj
 0002:00001010       ??_7?$treenode@V?$hashelement@Vword@svutil@@V12@@svutil@@@svutil@@6B@ 00429010     Groups.obj
 0002:00001014       ??_C@_0BD@OLBABOEK@vector?$DMT?$DO?5too?5long?$AA@ 00429014     Groups.obj
 0002:00001028       ??_C@_0BB@MOGOBHAF@list?$DMT?$DO?5too?5long?$AA@ 00429028     Groups.obj
 0002:0000103c       ??_C@_0BD@JEAHJBKA@Create?5node?5failed?$AA@ 0042903c     Groups.obj
 0002:00001050       ??_7Groups@@6B@            00429050     Groups.obj
 0002:00001054       ??_C@_0CB@GAEFAOHM@Entitys_Item_DependsCondition_?$CFd@ 00429054     Groups.obj
 0002:00001078       ??_C@_0BH@KBGGFLBK@Entitys_Item_Depend_?$CFd?$AA@ 00429078     Groups.obj
 0002:00001090       ??_C@_0BJ@EJCPENMK@Entitys_Item_IPAdress_?$CFd?$AA@ 00429090     Groups.obj
 0002:000010ac       ??_C@_0BL@HAKPDGFG@Entitys_Item_SystemType_?$CFd?$AA@ 004290ac     Groups.obj
 0002:000010c8       ??_C@_0BJ@JJFNHBBK@Entitys_Item_EntityID_?$CFd?$AA@ 004290c8     Groups.obj
 0002:000010e4       ??_C@_0CB@FIHKPOBH@Entitys_Item_MonitorTypeCount_?$CFd@ 004290e4     Groups.obj
 0002:00001108       ??_C@_0P@NPEHJNPL@EntityListSize?$AA@ 00429108     Groups.obj
 0002:00001118       ??_C@_0CA@NHLGKIAC@Groups_Item_DependsCondition_?$CFd?$AA@ 00429118     Groups.obj
 0002:00001138       ??_C@_0BJ@OFKMGMMG@Groups_Item_DependSon_?$CFd?$AA@ 00429138     Groups.obj
 0002:00001154       ??_C@_0BI@DCOLEJA@Groups_Item_ParentID_?$CFd?$AA@ 00429154     Groups.obj
 0002:0000116c       ??_C@_0BH@PIGADCGA@Groups_Item_GroupID_?$CFd?$AA@ 0042916c     Groups.obj
 0002:00001184       ??_C@_0O@DBCCCLIC@GroupListSize?$AA@ 00429184     Groups.obj
 0002:00001194       ??_C@_04MNMAMLMA@seid?$AA@ 00429194     Groups.obj
 0002:0000119c       ??_7GroupsItem@@6B@        0042919c     GroupsItem.obj
 0002:000011a0       ??_7LoadConfig@@6B@        004291a0     LoadConfig.obj
 0002:000011a4       ??_C@_0BF@HINMIOOM@Create?5config?5failed?$AA@ 004291a4     LoadConfig.obj
 0002:000011bc       ??_C@_0BE@OBGFNBGK@Config?5already?5load?$AA@ 004291bc     LoadConfig.obj
 0002:000011d0       ??_C@_07PACLKGJM@sv_plan?$AA@ 004291d0     LoadConfig.obj
 0002:000011d8       ??_C@_0DJ@PFNMPLK@MonitorLibaray?9Get?5?$DMsv_class?$DO?5pa@ 004291d8     LoadConfig.obj
 0002:00001214       ??_C@_08GMOHJOOK@sv_class?$AA@ 00429214     LoadConfig.obj
 0002:00001220       ??_C@_05LAPONLG@false?$AA@ 00429220     LoadConfig.obj
 0002:00001228       ??_C@_04LOAJBDKD@true?$AA@ 00429228     LoadConfig.obj
 0002:00001230       ??_C@_0M@BABONBBP@sv_checkerr?$AA@ 00429230     LoadConfig.obj
 0002:0000123c       ??_C@_0L@KPGOGJAI@sv_errfreq?$AA@ 0042923c     LoadConfig.obj
 0002:00001248       ??_C@_0CD@HHDJCACO@Frequency?5is?5zero?5error?4MonitorI@ 00429248     LoadConfig.obj
 0002:0000126c       ??_C@_0DF@DCKNPJGI@Moniotor?9Get?5?8_frequency?8?5parame@ 0042926c     LoadConfig.obj
 0002:000012a4       ??_C@_0L@MKCONOGM@_frequency?$AA@ 004292a4     LoadConfig.obj
 0002:000012b0       ??_C@_0DD@INKJNDOK@Moniotor?9Get?5moniotor?5common?5par@ 004292b0     LoadConfig.obj
 0002:000012e4       ??_C@_0CM@ONDGMBMO@Entity?9Get?5common?5parameter?5erro@ 004292e4     LoadConfig.obj
 0002:00001310       ??_C@_0L@CEPMLCGK@MonitorID?3?$AA@ 00429310     LoadConfig.obj
 0002:0000131c       ??_C@_0DH@PGLIJNFM@MoniotorLibrary?9Get?5ReturnData?5l@ 0042931c     LoadConfig.obj
 0002:00001354       ??_C@_0BE@DMLELPDP@sv_dependscondition?$AA@ 00429354     LoadConfig.obj
 0002:00001368       ??_C@_0N@PDJBEMBD@sv_dependson?$AA@ 00429368     LoadConfig.obj
 0002:00001378       ??_C@_0DE@IKEHINJM@Entity?9Get?5parameter?5?$DM_MachineNa@ 00429378     LoadConfig.obj
 0002:000013ac       ??_C@_0N@EMEEJLAO@_MachineName?$AA@ 004293ac     LoadConfig.obj
 0002:000013bc       ??_C@_0DF@PCCOCNCH@Entity?9Get?5parameter?5?$DMsv_devicet@ 004293bc     LoadConfig.obj
 0002:000013f4       ??_C@_0O@MDBDMLPJ@sv_devicetype?$AA@ 004293f4     LoadConfig.obj
 0002:00001404       ??_C@_0DE@JCAFDBEA@Subsequent?9Get?5parameter?5?$DMSubseq@ 00429404     LoadConfig.obj
 0002:00001438       ??_C@_0DN@HABCADCA@Monitor?9Get?5?$DM?5Normal?5StateCondit@ 00429438     LoadConfig.obj
 0002:00001478       ??_C@_0DI@EJMEGOO@Monitor?9Get?5?$DM?5Normal?5StateCondit@ 00429478     LoadConfig.obj
 0002:000014b0       ??_C@_0DO@DMFOJBAD@Monitor?9Get?5?$DM?5Warning?5StateCondi@ 004294b0     LoadConfig.obj
 0002:000014f0       ??_C@_0DJ@PIJAOJFD@Monitor?9Get?5?$DM?5Warning?5StateCondi@ 004294f0     LoadConfig.obj
 0002:0000152c       ??_C@_0DM@HGCNHHG@Monitor?9Get?5?$DM?5Error?5StateConditi@ 0042952c     LoadConfig.obj
 0002:00001568       ??_C@_0DG@DGDEJGHI@Monitor?9Get?5?$DM?5Error?5StateConditi@ 00429568     LoadConfig.obj
 0002:000015a0       ??_C@_0BA@MGPMAEBD@sv_RunInProcess?$AA@ 004295a0     LoadConfig.obj
 0002:000015b0       ??_C@_06PAGNDDEB@?0MLID?3?$AA@ 004295b0     LoadConfig.obj
 0002:000015b8       ??_C@_0BB@OKBJNAJH@error?0MonitorID?3?$AA@ 004295b8     LoadConfig.obj
 0002:000015cc       ??_C@_0BP@JOFBNLMM@MonitorLibrary?9Get?5parameter?5?$DM?$AA@ 004295cc     LoadConfig.obj
 0002:000015ec       ??_C@_0M@DFAAJGFD@_MonitorID?$DN?$AA@ 004295ec     LoadConfig.obj
 0002:000015f8       ??_C@_0N@IELGHDHP@_TemplateID?$DN?$AA@ 004295f8     LoadConfig.obj
 0002:00001608       ??_C@_07IMGIOFNL@sv_func?$AA@ 00429608     LoadConfig.obj
 0002:00001610       ??_C@_06OEOKCKEK@sv_dll?$AA@ 00429610     LoadConfig.obj
 0002:00001618       ??_C@_0O@BHPIBBCC@N_ExecuteFunc?$AA@ 00429618     LoadConfig.obj
 0002:00001628       ??_C@_0BG@MIMMHCPG@N_ExecuteAssemblyName?$AA@ 00429628     LoadConfig.obj
 0002:00001640       ??_C@_0BD@OGCGEDOB@?$DO?5error?3MonitorID?3?$AA@ 00429640     LoadConfig.obj
 0002:00001654       ??_C@_0BI@PKCIHLB@Monitor?9Get?5parameter?5?$DM?$AA@ 00429654     LoadConfig.obj
 0002:0000166c       ??_C@_0L@BCKPHCDG@?0EntityID?3?$AA@ 0042966c     LoadConfig.obj
 0002:00001678       ??_C@_0DG@EAIAJFEE@Entity?9Get?5parameter?5?$DMsv_systemt@ 00429678     LoadConfig.obj
 0002:000016b0       ??_C@_01NEMOKFLO@?$DN?$AA@ 004296b0     LoadConfig.obj
 0002:000016b4       ??_C@_0DD@NFNJDPCP@MonitorLibaray?9Get?5parameter?5lis@ 004296b4     LoadConfig.obj
 0002:000016e8       ??_C@_0BH@GCAEPELM@Monitors?5count?5is?5?3?$CFd?6?$AA@ 004296e8     LoadConfig.obj
 0002:00001700       ??_C@_0BF@GBOKHCBC@Config?5file?5not?5load?$AA@ 00429700     LoadConfig.obj
 0002:00001718       ??_C@_0CL@OMKPCHHB@Entity?9Get?5parameter?5?$DMEntityID?5l@ 00429718     LoadConfig.obj
 0002:00001744       ??_C@_0BE@OHOKBJLJ@Toatal?5groupid?5?3?$CFd?6?$AA@ 00429744     LoadConfig.obj
 0002:00001758       ??_C@_0CJ@IEDCIDHF@Group?9Get?5parameter?5?$DMGroupID?5lis@ 00429758     LoadConfig.obj
 0002:00001784       ??_C@_06ENNEIMBA@String?$AA@ 00429784     MakeRecord.obj
 0002:0000178c       ??_C@_05KKPNNHNB@Float?$AA@ 0042978c     MakeRecord.obj
 0002:00001794       ??_C@_03DBLNGNIM@Int?$AA@  00429794     MakeRecord.obj
 0002:00001798       ??_C@_0BC@HMPPKDEN@ParamList_Item_?$CFd?$AA@ 00429798     Monitor.obj
 0002:000017ac       ??_C@_0P@IOGPDDKM@ParamList_Size?$AA@ 004297ac     Monitor.obj
 0002:000017bc       ??_C@_0BE@GKGINBKG@ReturnItem_?$CFd_Label?$AA@ 004297bc     Monitor.obj
 0002:000017d0       ??_C@_0BD@ONGJGNDP@ReturnItem_?$CFd_Name?$AA@ 004297d0     Monitor.obj
 0002:000017e4       ??_C@_0BD@PGOKFADG@ReturnItem_?$CFd_Unit?$AA@ 004297e4     Monitor.obj
 0002:000017f8       ??_C@_0BD@EGGKKNEP@ReturnItem_?$CFd_Type?$AA@ 004297f8     Monitor.obj
 0002:0000180c       ??_C@_0BA@HINIIEBH@ReturnList_Size?$AA@ 0042980c     Monitor.obj
 0002:0000181c       ??_C@_0CJ@DAJMJBB@StateCondition_Normal_Item_?$CFd_Pa@ 0042981c     Monitor.obj
 0002:00001848       ??_C@_0CH@COFEOHOE@StateCondition_Normal_Item_?$CFd_Op@ 00429848     Monitor.obj
 0002:00001870       ??_C@_0CI@JJGDCMHA@StateCondition_Normal_Item_?$CFd_Pa@ 00429870     Monitor.obj
 0002:00001898       ??_C@_0CF@PLKCAOPP@StateCondition_Normal_Item_?$CFd_It@ 00429898     Monitor.obj
 0002:000018c0       ??_C@_0BP@FJBKJKF@StateCondition_Normal_ItemSize?$AA@ 004298c0     Monitor.obj
 0002:000018e0       ??_C@_0CB@LJFNKGOJ@StateCondition_Normal_Expression@ 004298e0     Monitor.obj
 0002:00001904       ??_C@_0BL@BJAIFNAC@StateCondition_Normal_Type?$AA@ 00429904     Monitor.obj
 0002:00001920       ??_C@_0CK@OACOBDNF@StateCondition_Warning_Item_?$CFd_P@ 00429920     Monitor.obj
 0002:0000194c       ??_C@_0CI@PLKPBMII@StateCondition_Warning_Item_?$CFd_O@ 0042994c     Monitor.obj
 0002:00001974       ??_C@_0CJ@NNLCPKPI@StateCondition_Warning_Item_?$CFd_P@ 00429974     Monitor.obj
 0002:000019a0       ??_C@_0CG@CFOIJMDP@StateCondition_Warning_Item_?$CFd_I@ 004299a0     Monitor.obj
 0002:000019c8       ??_C@_0CA@EGKBADGJ@StateCondition_Warning_ItemSize?$AA@ 004299c8     Monitor.obj
 0002:000019e8       ??_C@_0CC@OIBBDHGN@StateCondition_Warning_Expressio@ 004299e8     Monitor.obj
 0002:00001a0c       ??_C@_0BM@JBALEJIL@StateCondition_Warning_Type?$AA@ 00429a0c     Monitor.obj
 0002:00001a28       ??_C@_0CI@EDHHHBHD@StateCondition_Error_Item_?$CFd_Par@ 00429a28     Monitor.obj
 0002:00001a50       ??_C@_0CG@EMMDHDEF@StateCondition_Error_Item_?$CFd_Ope@ 00429a50     Monitor.obj
 0002:00001a78       ??_C@_0CH@DINACIJK@StateCondition_Error_Item_?$CFd_Par@ 00429a78     Monitor.obj
 0002:00001aa0       ??_C@_0CE@KNHJBDJL@StateCondition_Error_Item_?$CFd_Ite@ 00429aa0     Monitor.obj
 0002:00001ac4       ??_C@_0BO@EFCEKJGC@StateCondition_Error_ItemSize?$AA@ 00429ac4     Monitor.obj
 0002:00001ae4       ??_C@_0CA@DNOGKHNF@StateCondition_Error_Expression?$AA@ 00429ae4     Monitor.obj
 0002:00001b04       ??_C@_0BK@CDNDAEBJ@StateCondition_Error_Type?$AA@ 00429b04     Monitor.obj
 0002:00001b20       ??_C@_08KJGGNPPO@TaskName?$AA@ 00429b20     Monitor.obj
 0002:00001b2c       ??_C@_0N@KEPOEGEN@MonitorClass?$AA@ 00429b2c     Monitor.obj
 0002:00001b3c       ??_C@_0L@JLPANJNL@CheckError?$AA@ 00429b3c     Monitor.obj
 0002:00001b48       ??_C@_09BGPDCJH@ErrorFreq?$AA@ 00429b48     Monitor.obj
 0002:00001b54       ??_C@_09OGDICNME@Frequency?$AA@ 00429b54     Monitor.obj
 0002:00001b60       ??_C@_0L@DNHHDPKK@EntityType?$AA@ 00429b60     Monitor.obj
 0002:00001b6c       ??_C@_07MNGBFJEN@Process?$AA@ 00429b6c     Monitor.obj
 0002:00001b74       ??_C@_07BGPNANBL@Library?$AA@ 00429b74     Monitor.obj
 0002:00001b7c       ??_C@_0M@FCPFJAEP@MonitorType?$AA@ 00429b7c     Monitor.obj
 0002:00001b88       ??_C@_0M@HMLPEDLP@NextRunTime?$AA@ 00429b88     Monitor.obj
 0002:00001b94       ??_C@_09KKNMDBLO@isDisable?$AA@ 00429b94     Monitor.obj
 0002:00001ba0       ??_C@_0O@JDMAIHJK@isTempDisable?$AA@ 00429ba0     Monitor.obj
 0002:00001bb0       ??_C@_09HLNADPAH@endTDTime?$AA@ 00429bb0     Monitor.obj
 0002:00001bbc       ??_C@_0M@PHDBPIMP@beginTDTime?$AA@ 00429bbc     Monitor.obj
 0002:00001bc8       ??_C@_09KHLDHEFF@LastState?$AA@ 00429bc8     Monitor.obj
 0002:00001bd4       ??_C@_08CGFBPIO@TaskType?$AA@ 00429bd4     Monitor.obj
 0002:00001be0       ??_C@_0N@IGKEHPBK@RunInProcess?$AA@ 00429be0     Monitor.obj
 0002:00001bf0       ??_C@_09IOBNBFEB@MonitorID?$AA@ 00429bf0     Monitor.obj
 0002:00001bfc       ??_7Monitor@@6B@           00429bfc     Monitor.obj
 0002:00001c00       ??_7TString@@6B@           00429c00     MonitorSchedule.obj
 0002:00001c08       ??_C@_0BM@DAFDJKHJ@?$CFd?9?$CF02d?9?$CF02d?5?$CF02d?3?$CF02d?3?$CF02d?$AA@ 00429c08     MonitorSchedule.obj
 0002:00001c24       ??_C@_0L@KBCCHBPC@?$CFs?5?$CFs?5?7?$CFs?6?$AA@ 00429c24     MonitorSchedule.obj
 0002:00001c30       ??_C@_02DPNLHKJD@a?$CL?$AA@ 00429c30     MonitorSchedule.obj
 0002:00001c34       ??_C@_01NOFIACDB@w?$AA@    00429c34     MonitorSchedule.obj
 0002:00001c38       ??_C@_0BC@IAJAFDG@?2temp?2mserror?4log?$AA@ 00429c38     MonitorSchedule.obj
 0002:00001c4c       ??_C@_0P@FDDDHPEK@Run?5failed?5?3?$CFs?$AA@ 00429c4c     MonitorSchedule.obj
 0002:00001c5c       ??_C@_0BE@KJIBIAAE@Root?5path?5is?5empty?$CB?$AA@ 00429c5c     MonitorSchedule.obj
 0002:00001c70       ??_C@_05JAAEJFKK@run?$CI?$CJ?$AA@ 00429c70     MonitorSchedule.obj
 0002:00001c78       ??_C@_0CM@LLPGHKEN@RunMonitor?9Execute?5monitor?5happe@ 00429c78     MonitorSchedule.obj
 0002:00001ca4       ??_C@_0DD@MIDNHJJE@Push?5message?5failed?5in?5Run_Proce@ 00429ca4     MonitorSchedule.obj
 0002:00001cd8       ??_C@_0BA@OBJIJCHB@SiteView_Return?$AA@ 00429cd8     MonitorSchedule.obj
 0002:00001ce8       ??_C@_0DD@IDPLGFOF@Return?5result?5error?5in?5Run_Proce@ 00429ce8     MonitorSchedule.obj
 0002:00001d1c       ??_C@_0CB@MEACFEKE@RunMonitor?9GetProcAddress?5failed@ 00429d1c     MonitorSchedule.obj
 0002:00001d40       ??_C@_0CL@MPNDFCGM@RunMonitor?9Load?5library?5failed?0D@ 00429d40     MonitorSchedule.obj
 0002:00001d6c       ??_C@_0DE@FEIJPGCO@Create?5object?5failed?5in?5Run_Proc@ 00429d6c     MonitorSchedule.obj
 0002:00001da0       ??_C@_0DJ@NDDLCMKI@Get?5Message?5failed?5failed?5in?5Run@ 00429da0     MonitorSchedule.obj
 0002:00001ddc       ??_C@_0DJ@JGDPEGMD@Pop?5Message?5failed?5failed?5in?5Run@ 00429ddc     MonitorSchedule.obj
 0002:00001e18       ??_C@_07DLHCIBDH@default?$AA@ 00429e18     MonitorSchedule.obj
 0002:00001e20       ??_C@_09IPAEKDAI@localhost?$AA@ 00429e20     MonitorSchedule.obj
 0002:00001e2c       ??_7?$sorttree@V?$hashelement@Vword@svutil@@PAVTask@@@svutil@@@svutil@@6B@ 00429e2c     MonitorSchedule.obj
 0002:00001e30       ??_C@_03OFAPEBGM@?$CFs?6?$AA@ 00429e30     MonitorSchedule.obj
 0002:00001e34       ??_C@_0BB@LOANPNJH@Open?5file?5failed?$AA@ 00429e34     MonitorSchedule.obj
 0002:00001e48       ??_C@_0O@HJCOBDKN@Create?5failed?$AA@ 00429e48     MonitorSchedule.obj
 0002:00001e58       ??_C@_07MJJJJMCG@push?5ok?$AA@ 00429e58     MonitorSchedule.obj
 0002:00001e60       ??_C@_09KGLGAPFC@Create?5ok?$AA@ 00429e60     MonitorSchedule.obj
 0002:00001e6c       ??_C@_01EEMJAFIK@?6?$AA@   00429e6c     MonitorSchedule.obj
 0002:00001e70       ??_C@_01LIIJDEN@?$AN?$AA@  00429e70     MonitorSchedule.obj
 0002:00001e74       ??_C@_02CBLLGHLK@r?$CL?$AA@ 00429e74     MonitorSchedule.obj
 0002:00001e78       ??_C@_0BJ@IDJBHEIG@?$CFs?1MonitorManager?1?$CFs?4txt?$AA@ 00429e78     MonitorSchedule.obj
 0002:00001e94       ??_C@_0BB@EOLFOCDC@Create?5exception?$AA@ 00429e94     MonitorSchedule.obj
 0002:00001ea8       ??_C@_08COMDHBON@len?5?3?$CFd?6?$AA@ 00429ea8     MonitorSchedule.obj
 0002:00001eb4       ??_C@_0L@IBJCMAFA@label?5?3?$CFs?6?$AA@ 00429eb4     MonitorSchedule.obj
 0002:00001ec0       ??_C@_0BN@NIILEHFI@?5Self?9exit?5MonitorSchedule?$CB?5?$AA@ 00429ec0     MonitorSchedule.obj
 0002:00001ee0       ??_C@_0CL@JKPFCIHB@?$EA?$EA?$EA?$EA?5COMMUNICATION?0?5min?3?$CFd?5?0?$CFs?5?9@ 00429ee0     MonitorSchedule.obj
 0002:00001f0c       ??_C@_0BL@NJEBMHAC@Parent?5process?5isn?8t?5exist?$AA@ 00429f0c     MonitorSchedule.obj
 0002:00001f28       ??_C@_0CG@EPCAALMK@Create?5event?5of?5communication?5?5f@ 00429f28     MonitorSchedule.obj
 0002:00001f50       ??_C@_0BO@GKBOFLJB@Global?2Siteview?9Communictions?$AA@ 00429f50     MonitorSchedule.obj
 0002:00001f70       ??_C@_0M@COPBGLJN@Refresh_END?$AA@ 00429f70     MonitorSchedule.obj
 0002:00001f7c       ??_C@_0M@FIIINBPP@Refresh?5end?$AA@ 00429f7c     MonitorSchedule.obj
 0002:00001f88       ??_C@_08BNACBFOL@eeeeeeee?$AA@ 00429f88     MonitorSchedule.obj
 0002:00001f94       ??_C@_0BE@ODKJPBLG@Parameter?3?$CFs?0?$CFs?0?$CFs?6?$AA@ 00429f94     MonitorSchedule.obj
 0002:00001fa8       ??_C@_0BH@CPLBAGDL@Monitor?5counts?5is?5?3?$CFd?6?$AA@ 00429fa8     MonitorSchedule.obj
 0002:00001fc0       ??_C@_02CIKBGMLM@?9e?$AA@  00429fc0     MonitorSchedule.obj
 0002:00001fc4       ??_C@_0BG@OHEKBIGI@Create?5Monitor?5failed?$AA@ 00429fc4     MonitorSchedule.obj
 0002:00001fdc       ??_C@_0O@DKOMNNKD@Begin?5refresh?$AA@ 00429fdc     MonitorSchedule.obj
 0002:00001fec       ??_C@_0BA@ODMDFNCK@Parameter?5error?$AA@ 00429fec     MonitorSchedule.obj
 0002:00001ffc       ??_C@_09KHHHFCIH@mc?4config?$AA@ 00429ffc     MonitorSchedule.obj
 0002:00002008       ??_C@_04OELPMFKG@?$CFs?5?5?$AA@ 0042a008     MonitorSchedule.obj
 0002:00002010       ??_C@_0BD@HECHCOFD@?6?5Process?5arg?5?$CFd?3?5?$AA@ 0042a010     MonitorSchedule.obj
 0002:00002024       ??_C@_06DKODENEM@D?3?2v70?$AA@ 0042a024     MonitorSchedule.obj
 0002:0000202c       ??_C@_0BH@OCJGEBAB@SiteView70?9ConfigTrack?$AA@ 0042a02c     MonitorSchedule.obj
 0002:00002044       ??_7out_of_range@std@@6B@  0042a044     MonitorSchMain.obj
 0002:0000204c       ??_7CommunicationThread@@6B@ 0042a04c     MonitorSchMain.obj
 0002:00002064       ??_7ScheduleThread@@6B@    0042a064     MonitorSchMain.obj
 0002:0000207c       ??_C@_0M@HGDNMOCL@PreLoad?3?$CFs?6?$AA@ 0042a07c     MonitorSchMain.obj
 0002:00002088       ??_C@_0P@OJKKMJNH@?$CFs?1fcgi?9bin?1?$CFs?$AA@ 0042a088     MonitorSchMain.obj
 0002:00002098       ??_C@_0CG@POBFDFOL@?$CFs?1temp?1MonitorScheduleSerialDat@ 0042a098     MonitorSchMain.obj
 0002:000020c0       ??_C@_0CJ@EELDDAKD@Create?5append?5mass?5records?5threa@ 0042a0c0     MonitorSchMain.obj
 0002:000020ec       ??_C@_0CD@LINIEKLA@Create?5communication?5thread?5fail@ 0042a0ec     MonitorSchMain.obj
 0002:00002110       ??_C@_0BN@LAHKCMAL@Create?5schdule?5thread?5failed?$AA@ 0042a110     MonitorSchMain.obj
 0002:00002130       ??_C@_0BG@PLMGMAEI@Monitor?5list?5is?5empty?$AA@ 0042a130     MonitorSchMain.obj
 0002:00002148       ??_C@_01KDCPPGHE@r?$AA@    0042a148     MonitorSchMain.obj
 0002:0000214c       ??_C@_0BM@INHHDILN@Create?5option?5object?5failed?$AA@ 0042a14c     MonitorSchMain.obj
 0002:00002168       ??_C@_0P@EBHJPAIL@Add?5Monitor?5Ok?$AA@ 0042a168     MonitorSchMain.obj
 0002:00002178       ??_C@_0BB@NMJODGP@Get?5edit?5monitor?$AA@ 0042a178     MonitorSchMain.obj
 0002:0000218c       ??_C@_0CK@PHKPLIGE@Create?5monitor?5failed?5while?5upda@ 0042a18c     MonitorSchMain.obj
 0002:000021b8       ??_C@_0BG@GPIPCGPG@Create?5monitor?5failed?$AA@ 0042a1b8     MonitorSchMain.obj
 0002:000021d0       ??_C@_0P@KCMOAJFO@In?5Add?5Monitor?$AA@ 0042a1d0     MonitorSchMain.obj
 0002:000021e0       ??_C@_0BM@PAPJHAGI@invalid?5map?1set?$DMT?$DO?5iterator?$AA@ 0042a1e0     MonitorSchMain.obj
 0002:000021fc       ??_7MonitorSchMain@@6B@    0042a1fc     MonitorSchMain.obj
 0002:00002200       ??_C@_0N@HIJAOLDA@Add?5group?5ok?$AA@ 0042a200     MonitorSchMain.obj
 0002:00002210       ??_C@_0CI@KMELCGME@Create?5group?5failed?5while?5update@ 0042a210     MonitorSchMain.obj
 0002:00002238       ??_C@_0M@JKBGGIP@In?5AddGroup?$AA@ 0042a238     MonitorSchMain.obj
 0002:00002244       ??_C@_0O@EKLHKEHP@Add?5Entity?5ok?$AA@ 0042a244     MonitorSchMain.obj
 0002:00002254       ??_C@_0CJ@PENADMNH@Create?5entity?5failed?5while?5updat@ 0042a254     MonitorSchMain.obj
 0002:00002280       ??_C@_0O@NJAIJLAF@In?5Add?5Entity?$AA@ 0042a280     MonitorSchMain.obj
 0002:00002290       ??_C@_04KKJBFIJG@TASK?$AA@ 0042a290     MonitorSchMain.obj
 0002:00002298       ??_C@_05NAIABEH@GROUP?$AA@ 0042a298     MonitorSchMain.obj
 0002:000022a0       ??_C@_06GKLBAPIO@ENTITY?$AA@ 0042a2a0     MonitorSchMain.obj
 0002:000022a8       ??_C@_06FKDAMKFP@DELETE?$AA@ 0042a2a8     MonitorSchMain.obj
 0002:000022b0       ??_C@_06HHJABCJL@UPDATE?$AA@ 0042a2b0     MonitorSchMain.obj
 0002:000022b8       ??_C@_06EBDFEDAJ@ADDNEW?$AA@ 0042a2b8     MonitorSchMain.obj
 0002:000022c0       ??_C@_07ENJDMOMA@MONITOR?$AA@ 0042a2c0     MonitorSchMain.obj
 0002:000022c8       ??_C@_0BG@LMGENGAM@InProcessConfigChange?$AA@ 0042a2c8     MonitorSchMain.obj
 0002:000022e0       ??_C@_01HIHLOKLC@1?$AA@    0042a2e0     MonitorSchMain.obj
 0002:000022e4       ??_C@_04GPMDFGEJ@type?$AA@ 0042a2e4     MonitorSchMain.obj
 0002:000022ec       ??_C@_01EPMOAMKG@$?$AA@    0042a2ec     MonitorThread.obj
 0002:000022f0       ??_C@_09DPNCKCBF@?$CBcontains?$AA@ 0042a2f0     MonitorThread.obj
 0002:000022fc       ??_C@_08JKMOLGCD@contains?$AA@ 0042a2fc     MonitorThread.obj
 0002:00002308       ??_C@_02EHCHHCKH@?$DM?$DN?$AA@ 0042a308     MonitorThread.obj
 0002:0000230c       ??_C@_02EEKDKGMJ@?$DO?$DN?$AA@ 0042a30c     MonitorThread.obj
 0002:00002310       ??_C@_01MNNFJEPP@?$DM?$AA@ 0042a310     MonitorThread.obj
 0002:00002314       ??_C@_01PPODPGHN@?$DO?$AA@ 0042a314     MonitorThread.obj
 0002:00002318       ??_C@_02FDNJECIE@?$CB?$DN?$AA@ 0042a318     MonitorThread.obj
 0002:0000231c       ??_C@_02EGOFBIJA@?$DN?$DN?$AA@ 0042a31c     MonitorThread.obj
 0002:00002320       ??_C@_0DA@LHLAIABH@GetMessageData?5failed2?5in?5RunInP@ 0042a320     MonitorThread.obj
 0002:00002350       ??_C@_0CN@DCFBGIDL@Return?5data?5too?5big?5in?5RunInProc@ 0042a350     MonitorThread.obj
 0002:00002380       ??_C@_0CL@NJMKJCHL@Return?5data?5error?5in?5RunInProces@ 0042a380     MonitorThread.obj
 0002:000023ac       ??_C@_0CP@EKBANMBJ@GetMessageData?5failed?5in?5RunInPr@ 0042a3ac     MonitorThread.obj
 0002:000023dc       ??_C@_0DA@MKCJNPGI@Receive?5messgae?5failed?5in?5RunInP@ 0042a3dc     MonitorThread.obj
 0002:0000240c       ??_C@_0CP@GMCAPNHE@Create?5process?5failed?5in?5RunInPr@ 0042a40c     MonitorThread.obj
 0002:0000243c       ??_C@_09OJMDMBJI@error?3?$CFd?6?$AA@ 0042a43c     MonitorThread.obj
 0002:00002448       ??_C@_08HLKDIFPF@dir?5?3?$CFs?6?$AA@ 0042a448     MonitorThread.obj
 0002:00002454       ??_C@_0BB@EHFLIOOB@CommandLine?5?3?$CFs?6?$AA@ 0042a454     MonitorThread.obj
 0002:00002468       ??_C@_0N@EIBEEKIA@?$CFs?2fcgi?9bin?2?$AA@ 0042a468     MonitorThread.obj
 0002:00002478       ??_C@_0CG@NHIMFGNN@?$CFs?2fcgi?9bin?2MonitorSchedule?4exe?5@ 0042a478     MonitorThread.obj
 0002:000024a0       ??_C@_0CK@NCGHLLJB@Get?5data?5failed2?5in?5RunInProcess@ 0042a4a0     MonitorThread.obj
 0002:000024cc       ??_C@_0CP@HNBAPGGM@Malloc?5memmory?5failed?5in?5RunInPr@ 0042a4cc     MonitorThread.obj
 0002:000024fc       ??_C@_0CM@LPGCBDMF@PushMessage?5failed?5in?5RunInProce@ 0042a4fc     MonitorThread.obj
 0002:00002528       ??_C@_06IAAJIKIE@InData?$AA@ 0042a528     MonitorThread.obj
 0002:00002530       ??_C@_0CJ@CNPCJMEB@Get?5data?5failed?5in?5RunInProcess?5@ 0042a530     MonitorThread.obj
 0002:0000255c       ??_C@_0BH@IGJPFBMJ@SiteView_RunMonitor_?$CFd?$AA@ 0042a55c     MonitorThread.obj
 0002:00002574       ??_C@_0CK@DONCMLPK@Monitor?5is?5empty?5in?5RunInProcess@ 0042a574     MonitorThread.obj
 0002:000025a0       ??_C@_0CA@LDKDPKBK@Malloc?5memmory?5failed?5for?5inbuf?$AA@ 0042a5a0     MonitorThread.obj
 0002:000025c0       ??_C@_07JKFHKGEB@?$CFs?$DN?$CFs?0?5?$AA@ 0042a5c0     MonitorThread.obj
 0002:000025c8       ??_C@_0L@OEJPABKB@?$CFs?$DN?$CF0?42f?0?5?$AA@ 0042a5c8     MonitorThread.obj
 0002:000025d4       ??_C@_07FHJJMJGH@?$CFs?$DN?$CFd?0?5?$AA@ 0042a5d4     MonitorThread.obj
 0002:000025dc       ??_C@_0BG@ELBFGNJG@Return?5value?5is?5empty?$AA@ 0042a5dc     MonitorThread.obj
 0002:000025f4       ??_7MonitorThread@@6B@     0042a5f4     MonitorThread.obj
 0002:0000260c       ??_C@_0L@EEDHOIGH@Refresh_OK?$AA@ 0042a60c     MonitorThread.obj
 0002:00002618       ??_C@_01BJJEKLCA@?$CC?$AA@ 0042a618     MonitorThread.obj
 0002:0000261c       ??_C@_0BK@FMBLJDOJ@Refresh?5?0PushMessage?5f?3?5?$CC?$AA@ 0042a61c     MonitorThread.obj
 0002:00002638       ??_C@_0O@GJADFFLG@Send?5to?5Ws?3?$CFs?$AA@ 0042a638     MonitorThread.obj
 0002:00002648       ??_C@_0CO@CPHJELHI@MonitorId?3?$CFs?0MonitorType?3?$CFd?0stat@ 0042a648     MonitorThread.obj
 0002:00002678       ??_C@_0BD@FFBGGDBK@Make?5record?5failed?$AA@ 0042a678     MonitorThread.obj
 0002:0000268c       ??_C@_0BD@IAPAOBID@Make?5result?5failed?$AA@ 0042a68c     MonitorThread.obj
 0002:000026a0       ??_C@_0BF@IBAAHGOJ@Return?5value?5is?5NULL?$AA@ 0042a6a0     MonitorThread.obj
 0002:000026b8       ??_C@_0CB@FLKOHBGO@Process?5result?5?9?9?5string?5too?5big@ 0042a6b8     MonitorThread.obj
 0002:000026dc       ??_C@_0M@OBPHACEC@Work?5thread?$AA@ 0042a6dc     MonitorThread.obj
 0002:000026e8       ??_C@_0BL@NHKELIEI@baseline?5compare?5value?3?$CFs?6?$AA@ 0042a6e8     MonitorThread.obj
 0002:00002704       ??_C@_04GANEPBPG@?$CF?44f?$AA@ 0042a704     MonitorThread.obj
 0002:0000270c       ??_C@_02PGHGPEOM@?91?$AA@  0042a70c     MonitorThread.obj
 0002:00002710       ??_C@_0L@MDMGLDID@nIndex?3?$CFd?6?$AA@ 0042a710     MonitorThread.obj
 0002:0000271c       ??_C@_0BI@IANADNEN@baseline?5data?5is?5empty?6?$AA@ 0042a71c     MonitorThread.obj
 0002:00002734       ??_C@_0BK@ILOEJHAB@get?5baseline?5data?5error?4?6?$AA@ 0042a734     MonitorThread.obj
 0002:00002750       ??_C@_01IHBHIGKO@?0?$AA@   0042a750     MonitorThread.obj
 0002:00002754       ??_C@_0BD@KABPLKME@baseline?5value?3?$CFs?6?$AA@ 0042a754     MonitorThread.obj
 0002:00002768       ??_C@_05OMNIFHIN@?$CF0?42f?$AA@ 0042a768     MonitorThread.obj
 0002:00002770       ??_C@_02DPKJAMEF@?$CFd?$AA@ 0042a770     MonitorThread.obj
 0002:00002774       ??_C@_04CGFJFPFD@none?$AA@ 0042a774     MonitorThread.obj
 0002:0000277c       ??_C@_06KHDOHNKC@always?$AA@ 0042a77c     MonitorThread.obj
 0002:00002784       ??_C@_03BOPJPIAM@and?$AA@  0042a784     MonitorThread.obj
 0002:00002788       ??_C@_02FODMLBIE@or?$AA@   0042a788     MonitorThread.obj
 0002:0000278c       ??_C@_05KHAAJFEE@dddd2?$AA@ 0042a78c     MonitorThread.obj
 0002:00002794       ??_C@_0CG@JCPBNBJ@ParserResult?5error?0?5unknown?5type@ 0042a794     MonitorThread.obj
 0002:000027bc       ??_C@_0BM@DJALOLKD@Return?5string?5value?5too?5big?$AA@ 0042a7bc     MonitorThread.obj
 0002:000027d8       ??_C@_0CO@JFPPND@ParserResult?5return?5value?5is?5bad@ 0042a7d8     MonitorThread.obj
 0002:00002808       ??_C@_09NNKKCEBL@name?5?3?$CFs?6?$AA@ 0042a808     MonitorThread.obj
 0002:00002814       ??_C@_05KKCIMGE@error?$AA@ 0042a814     MonitorThread.obj
 0002:0000281c       ??_C@_0DO@KOBGHNKJ@?9?9?9?9?9?9?9?9?9?9?9?9?9?9?9?9?9?9?9?9?9?9?9?9?9End?5ret@ 0042a81c     MonitorThread.obj
 0002:0000285c       ??_C@_06BAKFFEGN@?$CFs?$DN?$CFs?6?$AA@ 0042a85c     MonitorThread.obj
 0002:00002864       ??_C@_0DN@PHDDFDJC@?6?9?9?9?9?9?9?9?9?9?9?9?9?9?9?9?9?9?9?9?9?9?9?9?9Return?5@ 0042a864     MonitorThread.obj
 0002:000028a4       ??_C@_0BJ@LDLKKICI@Build?5return?5data?5failed?$AA@ 0042a8a4     MonitorThread.obj
 0002:000028c0       ??_C@_0BL@CCPCOPBL@Parser?5monitor?5state?5error?$AA@ 0042a8c0     MonitorThread.obj
 0002:000028dc       ??_C@_0BC@NBPKJOIJ@No?5state?5be?5match?$AA@ 0042a8dc     MonitorThread.obj
 0002:000028f0       ??_C@_0BG@LNJMHBDP@Error?3Set?5state?5error?$AA@ 0042a8f0     MonitorThread.obj
 0002:00002908       ??_C@_0O@KLOAMOGB@?4?4?4?4?4?$CFs?4?4?4?4?4?6?$AA@ 0042a908     MonitorThread.obj
 0002:00002918       ??_C@_0BL@DPOKEHDI@monitorID?3?$CFs?0returnBuffer?3?$AA@ 0042a918     MonitorThread.obj
 0002:00002934       ??_C@_0CA@IHAKOAJP@RunMonitor?5happened?5exception_2?$AA@ 0042a934     MonitorThread.obj
 0002:00002954       ??_C@_05IKNCFNAN@demo?$CB?$AA@ 0042a954     MonitorThread.obj
 0002:0000295c       ??_C@_0DH@MCIGBLIO@?9?9?9?9?9?9?9?9?9?9?9?9?9?9?9?9End?5input?5parame@ 0042a95c     MonitorThread.obj
 0002:00002994       ??_C@_0DI@LANHKPNL@?6?9?9?9?9?9?9?9?9?9?9?9?9?9?9?9?9?9Input?5paramete@ 0042a994     MonitorThread.obj
 0002:000029cc       ??_C@_0DH@NMAEPFAK@?9?9?9?9?9?9?9?9?9?9?9?9?9?9?9?9?9End?5load?5librar@ 0042a9cc     MonitorThread.obj
 0002:00002a04       ??_C@_0BC@HBIOKDBG@Function?5name?3?$CFs?6?$AA@ 0042aa04     MonitorThread.obj
 0002:00002a18       ??_C@_0BB@MAHGPIEF@Library?5name?3?$CFs?6?$AA@ 0042aa18     MonitorThread.obj
 0002:00002a2c       ??_C@_0DH@ECHEPDHL@?9?9?9?9?9?9?9?9?9?9?9?9?9?9?9?9?9Load?5library?9?9?9@ 0042aa2c     MonitorThread.obj
 0002:00002a64       ??_C@_0CC@EBGODKGI@RunMonitor?9Function?5name?5is?5empt@ 0042aa64     MonitorThread.obj
 0002:00002a88       ??_C@_0DE@CKEBKLBI@?$DN?$DN?$DN?$DN?$DN?$DN?$DN?$DN?$DN?$DN?$DN?$DN?$DN?$DN?$DN?$DN?$DNDemo?5mode?$DN?$DN?$DN?$DN?$DN?$DN@ 0042aa88     MonitorThread.obj
 0002:00002abc       ??_C@_0BA@FDBPJKBO@Monitor?5is?5NULL?$AA@ 0042aabc     MonitorThread.obj
 0002:00002acc       ??_C@_0DD@CIEGNDLM@Thread?5?5exit?5by?5exception?0?5threa@ 0042aacc     MonitorThread.obj
 0002:00002b00       ??_C@_0EC@FININCLD@Executent?5monitor?5exception?0Moni@ 0042ab00     MonitorThread.obj
 0002:00002b44       ??_C@_0CE@NPMHNIJ@?$CFs?0?$CFs?0MonitorID?3?$CFs?0?5SkipCount?3?5?$CF@ 0042ab44     MonitorThread.obj
 0002:00002b68       ??_C@_0BK@OGJDDKA@MonitorThread?5wait?5failed?$AA@ 0042ab68     MonitorThread.obj
 0002:00002b84       ??_C@_0P@OFIOIKFL@In?5Thread?5?3?$CFs?6?$AA@ 0042ab84     MonitorThread.obj
 0002:00002b94       ??_C@_0CK@NDPCMGE@CoInitialize?5failed?5when?5create?5@ 0042ab94     MonitorThread.obj
 0002:00002bc0       ??_C@_0DH@IFDEAPCF@?9?9?9?9?9?9?9?9?9?9?9?9Config?5update?3OPT?3?$CFs@ 0042abc0     ommunicationThread.obj
 0002:00002bf8       ??_C@_0BH@PPHCKACI@configtq?3?$CFs?0scaddr?3?$CFs?6?$AA@ 0042abf8     ommunicationThread.obj
 0002:00002c10       ??_C@_03HCMCBFLP@_?$CFd?$AA@ 0042ac10     ommunicationThread.obj
 0002:00002c14       ??_C@_0BG@IPBNEDAD@GetMonitorRandomValue?$AA@ 0042ac14     Option.obj
 0002:00002c2c       ??_C@_0BD@BGPFHAHE@GetRandomValue?4dll?$AA@ 0042ac2c     Option.obj
 0002:00002c40       ??_C@_0EN@OAOPOKND@Monitor?4dll?0AimParser?4dll?0NTPerf@ 0042ac40     Option.obj
 0002:00002c90       ??_C@_0BE@NANPOADH@PreLoadLibrary?3?5?$CFs?6?$AA@ 0042ac90     Option.obj
 0002:00002ca4       ??_C@_0BB@FHMPAEII@SvdbHostAddr?3?$CFs?6?$AA@ 0042aca4     Option.obj
 0002:00002cb8       ??_C@_0P@IMMBEGNC@ServerHost?3?$CFs?6?$AA@ 0042acb8     Option.obj
 0002:00002cc8       ??_C@_0L@HPMGBIOI@ServerHost?$AA@ 0042acc8     Option.obj
 0002:00002cd4       ??_C@_0BD@IBGILBHJ@UseLocalBuffer?3?$CFd?6?$AA@ 0042acd4     Option.obj
 0002:00002ce8       ??_C@_0P@MDHIJODC@UseLocalBuffer?$AA@ 0042ace8     Option.obj
 0002:00002cf8       ??_C@_0O@IMKCCFPM@CheckTime?3?$CFd?6?$AA@ 0042acf8     Option.obj
 0002:00002d08       ??_C@_0M@FJGFLLPA@information?$AA@ 0042ad08     Option.obj
 0002:00002d14       ??_C@_09BNBNBJLL@CheckTime?$AA@ 0042ad14     Option.obj
 0002:00002d20       ??_C@_0BN@LIPFGMK@Monitor?5Tread?5Plus?5Count?3?$CFd?6?$AA@ 0042ad20     Option.obj
 0002:00002d40       ??_C@_0BG@FONIDPNA@MonitorTreadPlusCount?$AA@ 0042ad40     Option.obj
 0002:00002d58       ??_C@_0CD@JOPCOBKP@MilliSecond?5Between?5AppendMass?3?$CF@ 0042ad58     Option.obj
 0002:00002d7c       ??_C@_0BJ@JDGJNGLI@MilliSecondBetweenAppend?$AA@ 0042ad7c     Option.obj
 0002:00002d98       ??_C@_0BG@LLMIDADL@Enable?5AppendMass?3?$CFd?6?$AA@ 0042ad98     Option.obj
 0002:00002db0       ??_C@_0BH@BADJGBLK@EnableAppendMassRecord?$AA@ 0042adb0     Option.obj
 0002:00002dc8       ??_C@_08LPECFGOG@SEID?3?$CFd?6?$AA@ 0042adc8     Option.obj
 0002:00002dd4       ??_C@_04BPKCJLI@SEID?$AA@  0042add4     Option.obj
 0002:00002ddc       ??_C@_0N@GILKEGBN@DemoFunction?$AA@ 0042addc     Option.obj
 0002:00002dec       ??_C@_0M@LNCPGDFN@DemoLibrary?$AA@ 0042adec     Option.obj
 0002:00002df8       ??_C@_0P@PLKHAMGL@PreLoadLibrary?$AA@ 0042adf8     Option.obj
 0002:00002e08       ??_C@_0N@EOHIAJJP@DemoMode?3?$CFd?6?$AA@ 0042ae08     Option.obj
 0002:00002e18       ??_C@_0BA@GGPFGLLN@MonitorSchedule?$AA@ 0042ae18     Option.obj
 0002:00002e28       ??_C@_08IFDCAAJM@DemoMode?$AA@ 0042ae28     Option.obj
 0002:00002e34       ??_C@_0BG@BCDLAJLI@?$CFs?1fcgi?9bin?1mc?4config?$AA@ 0042ae34     Option.obj
 0002:00002e4c       ??_7QueueItem@@6B@         0042ae4c     QueueItem.obj
 0002:00002e50       ??_C@_0BB@MDMKLOLD@?$CFs?5has?5in?5queue?6?$AA@ 0042ae50     QueueItem.obj
 0002:00002e64       ??_7QueuesManager@@6B@     0042ae64     QueuesManager.obj
 0002:00002e68       ??_C@_0CB@GOJDKLND@Queue?5name?3?$CFs?9?9Monitor?5count?3?$CFd?6@ 0042ae68     QueuesManager.obj
 0002:00002e8c       ??_C@_0CA@LOGPADMM@Error?5?3?5Create?5main?5queue?5error?$AA@ 0042ae8c     QueuesManager.obj
 0002:00002eac       ??_C@_0O@BCGHPMGH@MainQueueName?$AA@ 0042aeac     QueuesManager.obj
 0002:00002ebc       ??_C@_0DM@JPOBCMBO@Error?5?3?5m_pSchMain?5is?5NULL?5when?5@ 0042aebc     QueuesManager.obj
 0002:00002ef8       ??_7?$treenode@V?$hashelement@Vword@svutil@@PAVTask@@@svutil@@@svutil@@6B@ 0042aef8     readSVDB.obj
 0002:00002efc       ??_C@_0BE@JONHPENG@map?1set?$DMT?$DO?5too?5long?$AA@ 0042aefc     readSVDB.obj
 0002:00002f10       ??_C@_08NLHBPEGP@password?$AA@ 0042af10     readSVDB.obj
 0002:00002f1c       ??_C@_07JMHMLHHN@sv_type?$AA@ 0042af1c     readSVDB.obj
 0002:00002f24       ??_C@_07DHHPHHAN@sv_name?$AA@ 0042af24     readSVDB.obj
 0002:00002f2c       ??_C@_0P@MHFALFJ@sv_monitortype?$AA@ 0042af2c     readSVDB.obj
 0002:00002f3c       ??_C@_0L@GHBKOMKF@sv_endtime?$AA@ 0042af3c     readSVDB.obj
 0002:00002f48       ??_C@_0P@IBIONABC@?$CFd?9?$CFd?9?$CFd?9?$CFd?3?$CFd?$AA@ 0042af48     readSVDB.obj
 0002:00002f58       ??_C@_0N@ICEJBPGE@sv_starttime?$AA@ 0042af58     readSVDB.obj
 0002:00002f68       ??_C@_04CLCEDBPF@time?$AA@ 0042af68     readSVDB.obj
 0002:00002f70       ??_C@_0L@OAHBFFC@sv_disable?$AA@ 0042af70     readSVDB.obj
 0002:00002f7c       ??_C@_06LAFJNIHE@sv_run?$AA@ 0042af7c     readSVDB.obj
 0002:00002f84       ??_C@_07CMPMEKAE@sv_unit?$AA@ 0042af84     readSVDB.obj
 0002:00002f8c       ??_C@_08KCGFJGDM@sv_label?$AA@ 0042af8c     readSVDB.obj
 0002:00002f98       ??_C@_07MOEJHPPH@sv_flag?$AA@ 0042af98     readSVDB.obj
 0002:00002fa0       ??_C@_0O@CCOOCICD@sv_expression?$AA@ 0042afa0     readSVDB.obj
 0002:00002fb0       ??_C@_0BG@DOLADECI@sv_baselineexpression?$AA@ 0042afb0     readSVDB.obj
 0002:00002fc8       ??_C@_0BA@LGICCOFJ@sv_paramvalue?$CFd?$AA@ 0042afc8     readSVDB.obj
 0002:00002fd8       ??_C@_0BI@EBHHLHID@sv_baselineparamvalue?$CFd?$AA@ 0042afd8     readSVDB.obj
 0002:00002ff0       ??_C@_0N@BICCOAFN@sv_operate?$CFd?$AA@ 0042aff0     readSVDB.obj
 0002:00003000       ??_C@_0BF@CKFPIJAM@sv_baselineoperate?$CFd?$AA@ 0042b000     readSVDB.obj
 0002:00003018       ??_C@_0P@OGMJOHM@sv_paramname?$CFd?$AA@ 0042b018     readSVDB.obj
 0002:00003028       ??_C@_0BH@JJKCBJOI@sv_baselineparamname?$CFd?$AA@ 0042b028     readSVDB.obj
 0002:00003040       ??_C@_0BC@FODCJCHA@sv_conditioncount?$AA@ 0042b040     readSVDB.obj
 0002:00003054       ??_C@_0BK@KMDGGDPA@sv_baselineconditioncount?$AA@ 0042b054     readSVDB.obj
 0002:00003070       ??_C@_06KHAHGKPO@Total?3?$AA@ 0042b070     readSVDB.obj
 0002:00003078       ??_C@_05KGEAEGFG@Total?$AA@ 0042b078     readSVDB.obj
 0002:00003080       ??_C@_09JOFEILIG@PerEntity?$AA@ 0042b080     readSVDB.obj
 0002:0000308c       ??_C@_0P@PDBODGCK@subsequent?4ini?$AA@ 0042b08c     readSVDB.obj
 0002:0000309c       ??_C@_05GAOAHFKE@sv_id?$AA@ 0042b09c     readSVDB.obj
 0002:000030a4       ??_C@_0BJ@FDFMDGLH@FindETContrlFirst?5failed?$AA@ 0042b0a4     readSVDB.obj
 0002:000030c0       ??_C@_0BI@BBIPGNJB@FastGetEntityTPL?5failed?$AA@ 0042b0c0     readSVDB.obj
 0002:000030d8       ??_C@_0CE@HIMICJOA@FindNodeValue?9?9sv_devicetype?5fai@ 0042b0d8     readSVDB.obj
 0002:000030fc       ??_C@_0BP@PPHIBCG@GetEntityMainAttribNode?5failed?$AA@ 0042b0fc     readSVDB.obj
 0002:0000311c       ??_C@_0BF@LLGPBLJJ@FastGetEntity?5failed?$AA@ 0042b11c     readSVDB.obj
 0002:00003134       ??_C@_05LLFFEDGF@end?$CFd?$AA@ 0042b134     readSVDB.obj
 0002:0000313c       ??_C@_01JLIPDDHJ@?3?$AA@   0042b13c     readSVDB.obj
 0002:00003140       ??_C@_01CLKCMJKC@?5?$AA@   0042b140     readSVDB.obj
 0002:00003144       ??_C@_07DLNFDAOO@start?$CFd?$AA@ 0042b144     readSVDB.obj
 0002:0000314c       ??_C@_01GBGANLPD@0?$AA@    0042b14c     readSVDB.obj
 0002:00003150       ??_C@_07JOFHFJEE@Allow?$CFd?$AA@ 0042b150     readSVDB.obj
 0002:00003158       ??_C@_04KOACHJEN@Type?$AA@ 0042b158     readSVDB.obj
 0002:00003160       ??_7ReturnValue@@6B@       0042b160     ReturnValue.obj
 0002:00003164       ??_C@_0CJ@PKIBNEF@?$LM?$OA?$LC?b?F?w?$LB?$LL?A?Y?J?$LB?$LN?$PL?V?$LJ?0?F?p?J?$LM?J?$LB?$LM?d?3?$CFs?0?V?U?V@ 0042b164     ScheduleThread.obj
 0002:00003190       ??_C@_0CF@ECDDNBCA@?$LM?$OA?$LC?b?F?w?$LB?$LL?H?N?N?q?$LM?F?$LL?$KO?$LN?$PL?V?$LJ?0?H?N?N?q?$LM?F?$LL?$KO?C?$PL?$LD@ 0042b190     ScheduleThread.obj
 0002:000031b8       ??_C@_0CE@MJLBMCEO@?$LM?$OA?$LC?b?F?w?$LB?$LL?W?i?R?$MA?$LP?$LP?$LN?$PL?V?$LJ?K?y?R?$MA?$LP?$LP?$LM?$OA?$LC?b?F?wID@ 0042b1b8     ScheduleThread.obj
 0002:000031dc       ??_C@_0N@HMAIBABL@?$LM?$OA?$LC?b?F?w?$LB?$LL?$LN?$PL?V?$LJ?$AA@ 0042b1dc     ScheduleThread.obj
 0002:000031ec       ??_C@_02PCIJFNDE@?$AN?6?$AA@ 0042b1ec     ScheduleThread.obj
 0002:000031f0       ??_C@_0O@BIDECNFG@open?5error?5?$AN?6?$AA@ 0042b1f0     ScheduleThread.obj
 0002:00003200       ??_C@_0BG@CLNPDDPE@dyMonitorSchedule?4log?$AA@ 0042b200     ScheduleThread.obj
 0002:00003218       ??_C@_01MCMALHOG@a?$AA@    0042b218     ScheduleThread.obj
 0002:0000321c       ??_C@_0BM@GFMJAPBF@?$LM?$OA?$LC?b?F?w?$LF?DID?$KD?$LK?$CFs?0?K?$KC?P?B?J?$LB?$LM?d?$KD?$LK?$CFs?$AA@ 0042b21c     ScheduleThread.obj
 0002:00003238       ??_C@_0CC@BAAMMHLD@?$LF?Z?R?$LL?$LI?v?$LM?$OA?$LC?b?F?w?$LF?DID?$KD?$LK?$CFs?0?K?$KC?P?B?J?$LB?$LM?d?$KD?$LK?$CF@ 0042b238     ScheduleThread.obj
 0002:0000325c       ??_C@_0DH@LNKBENAH@?$CK?$CK?$CK?$CK?$CK?$CK?$CK?$CK?$CK?$CK?$CK?$CKSchedule?5thread?5exce@ 0042b25c     ScheduleThread.obj
 0002:00003294       ??_C@_0DJ@CNOMCNKI@?$CK?$CK?$CK?$CK?$CK?$CK?$CK?$CK?$CK?$CK?$CK?$CKSchedule?5thread?5erro@ 0042b294     ScheduleThread.obj
 0002:000032d0       ??_C@_0EM@PJKGAEOB@?$DO?$DO?$DO?$DO?$DO?$DO?$DO?$DO?$DO?$DO?$DO?$DO?$DO?$DO?$DO?$DO?$DO?$DO?$DOTotal?5count?5i@ 0042b2d0     ScheduleThread.obj
 0002:0000331c       ??_C@_0BA@BPIDHNMI@Disable?5str?3?$CFs?6?$AA@ 0042b31c     ScheduleThread.obj
 0002:0000332c       ??_C@_0BC@EKDDHHIL@in?5?$LM?l?$LC?i?W?i?R?$MA?$MA?$LF?W?$LE?L?$KM?$AA@ 0042b32c     ScheduleThread.obj
 0002:00003340       ??_C@_0EE@HMBHBFOA@?9?9?9?9?9?9?9?9?9?9?9?9?9?9?9?9?9?9?9?9?9?9?9Disable?5b@ 0042b340     ScheduleThread.obj
 0002:00003384       ??_C@_0M@OOFAMLDL@in?5?$LM?l?$LC?i?$LD?I?$LJ?$KG?$AA@ 0042b384     ScheduleThread.obj
 0002:00003390       ??_C@_0BA@HIDAMCII@in?5?$LM?l?$LC?i?H?N?N?q?$LM?F?$LL?$KO?$AA@ 0042b390     ScheduleThread.obj
 0002:000033a0       ??_C@_0DP@CGCCEOCJ@?9?9?9?9?9?9?9?9?9?9?9?9?9?9?9?9?9?9Disable?5by?5tas@ 0042b3a0     ScheduleThread.obj
 0002:000033e0       ??_C@_0BE@HPLENNE@in?5?E?P?$LG?O?J?G?$LH?q?T?$NN?J?$LB?$LN?$PL?S?C?$AA@ 0042b3e0     ScheduleThread.obj
 0002:000033f4       ??_C@_0DL@JEHCEPA@?$DN?$DN?$DN?$DN?$DN?$DN?$DN?$DN?$DN?$DNmonitorid?3?$CFs?9?9?9?9?9temp?5@ 0042b3f4     ScheduleThread.obj
 0002:00003430       ??_C@_0BC@KALLCJEJ@in?5?E?P?$LG?O?J?G?$LH?q?N?$KK?$LN?$PL?S?C?$AA@ 0042b430     ScheduleThread.obj
 0002:00003444       ??_C@_0DG@HGMHJPKJ@?$DN?$DN?$DN?$DN?$DN?$DN?$DN?$DN?$DN?$DNmonitorid?3?$CFs?9?9?9?9?9disab@ 0042b444     ScheduleThread.obj
 0002:0000347c       ??_C@_0BB@NEGDLBKK@in?5TASK_ABSOLUTE?$AA@ 0042b47c     ScheduleThread.obj
 0002:00003490       ??_C@_0BN@FKEAPNDG@pMonitor?9?$DOGetNextRunTime?$CI?$CJ?$KD?$LK?$AA@ 0042b490     ScheduleThread.obj
 0002:000034b0       ??_C@_0O@LLLONOOE@TaskType?5?$DN?5?$CFd?$AA@ 0042b4b0     ScheduleThread.obj
 0002:000034c0       ??_C@_0BF@OOCCECGP@Current?5time?5is?5?3?$CFs?6?$AA@ 0042b4c0     ScheduleThread.obj
 0002:000034d8       ??_C@_0O@IIGFBMKP@?6?$LF?w?$LG?H?J?$LB?$LM?d?$KD?$LK?$CFs?$AA@ 0042b4d8     ScheduleThread.obj
 0002:000034e8       ??_C@_0L@CBAFFCJH@?$LF?$LB?G?$LA?J?$LB?$LM?d?$KD?$LK?$AA@ 0042b4e8     ScheduleThread.obj
 0002:000034f4       ??_7ThreadContrl@@6B@      0042b4f4     ScheduleThread.obj
 0002:0000350c       ??_C@_0CE@LCGHHEAH@Error?5?3?5Start?5threads?5contrl?5fai@ 0042b50c     ScheduleThread.obj
 0002:00003530       ??_C@_0CJ@GHIKFLMK@Error?5?3?5initialize?5threads?5contr@ 0042b530     ScheduleThread.obj
 0002:0000355c       ??_C@_0BL@LGEOIOEN@IDS_TempDisableMonitorTime?$AA@ 0042b55c     ScheduleThread.obj
 0002:00003578       ??_C@_0BL@IPHPIPPC@IDS_DisableMonitorSchedule?$AA@ 0042b578     ScheduleThread.obj
 0002:00003594       ??_C@_0BH@GGEAELEE@IDS_GroupDependMonitor?$AA@ 0042b594     ScheduleThread.obj
 0002:000035ac       ??_C@_0BE@NDAHHCC@IDS_MonitorDisabled?$AA@ 0042b5ac     ScheduleThread.obj
 0002:000035c0       ??_C@_0BF@NKBLJJHD@Main?5dispatch?5thread?$AA@ 0042b5c0     ScheduleThread.obj
 0002:000035d8       ??_C@_07MMLDEGLO@?$CFs?$DN?$CFs?$AN?6?$AA@ 0042b5d8     SerialData.obj
 0002:000035e0       ??_C@_02CBLDBPFN@?1?1?$AA@ 0042b5e0     SerialData.obj
 0002:000035e4       ??_C@_0L@GJJHIEAE@?$FLTask_End?$FN?$AA@ 0042b5e4     SerialData.obj
 0002:000035f0       ??_C@_0O@FLHJPJCN@?$FLTaskMap_End?$FN?$AA@ 0042b5f0     SerialData.obj
 0002:00003600       ??_C@_0N@FEGMPFPC@?$FLTask_Begin?$FN?$AA@ 0042b600     SerialData.obj
 0002:00003610       ??_C@_0BA@DOJOFFHG@?$FLTaskMap_Begin?$FN?$AA@ 0042b610     SerialData.obj
 0002:00003620       ??_C@_0BB@NFDMFCMN@?$FLSubsequent_End?$FN?$AA@ 0042b620     SerialData.obj
 0002:00003634       ??_C@_0BD@CBOEFCLP@?$FLSubsequent_Begin?$FN?$AA@ 0042b634     SerialData.obj
 0002:00003648       ??_C@_0N@OBIMKLGN@?$FLGroups_End?$FN?$AA@ 0042b648     SerialData.obj
 0002:00003658       ??_C@_0P@ELICJAFO@?$FLGroups_Begin?$FN?$AA@ 0042b658     SerialData.obj
 0002:00003668       ??_C@_0O@OAMKKKGC@?$FLMonitor_End?$FN?$AA@ 0042b668     SerialData.obj
 0002:00003678       ??_C@_0BC@LKAKHPAN@?$FLMonitorList_End?$FN?$AA@ 0042b678     SerialData.obj
 0002:0000368c       ??_C@_0BA@LLBNLNEB@?$FLMonitor_Begin?$FN?$AA@ 0042b68c     SerialData.obj
 0002:0000369c       ??_C@_0BE@KPMBLGLC@?$FLMonitorList_Begin?$FN?$AA@ 0042b69c     SerialData.obj
 0002:000036b0       ??_C@_0BC@GFFAJGOD@Data?5version?57?401?$AA@ 0042b6b0     SerialData.obj
 0002:000036c4       ??_C@_0BO@LKIAPAJI@SiteView?5ECC?5serial?5data?5file?$AA@ 0042b6c4     SerialData.obj
 0002:000036e4       ??_C@_0BA@BGHMDAPH@?$FLTaskMap_End?$FN?$AN?6?$AA@ 0042b6e4     SerialData.obj
 0002:000036f4       ??_C@_0N@HMIOJAHD@?$FLTask_End?$FN?$AN?6?$AA@ 0042b6f4     SerialData.obj
 0002:00003704       ??_C@_0P@BJGKKKBJ@?$FLTask_Begin?$FN?$AN?6?$AA@ 0042b704     SerialData.obj
 0002:00003714       ??_C@_0BC@JAFDDOEM@?$FLTaskMap_Begin?$FN?$AN?6?$AA@ 0042b714     SerialData.obj
 0002:00003728       ??_C@_0BD@JAGDHDO@?$FLSubsequent_End?$FN?$AN?6?$AA@ 0042b728     SerialData.obj
 0002:0000373c       ??_C@_0BF@BEAPNIJC@?$FLSubsequent_Begin?$FN?$AN?6?$AA@ 0042b73c     SerialData.obj
 0002:00003754       ??_C@_0P@GDGAPFNP@?$FLGroups_End?$FN?$AN?6?$AA@ 0042b754     SerialData.obj
 0002:00003764       ??_C@_0BB@CGAANDMF@?$FLGroups_Begin?$FN?$AN?6?$AA@ 0042b764     SerialData.obj
 0002:00003778       ??_C@_0BE@IHCDNDDD@?$FLMonitorList_End?$FN?$AN?6?$AA@ 0042b778     SerialData.obj
 0002:0000378c       ??_C@_0BA@JDPPNIMA@?$FLMonitor_End?$FN?$AN?6?$AA@ 0042b78c     SerialData.obj
 0002:0000379c       ??_C@_0BC@KOIFHBLB@?$FLMonitor_Begin?$FN?$AN?6?$AA@ 0042b79c     SerialData.obj
 0002:000037b0       ??_C@_0BG@GMGAOJL@?$FLMonitorList_Begin?$FN?$AN?6?$AA@ 0042b7b0     SerialData.obj
 0002:000037c8       ??_C@_0BO@CNFKDPCJ@?1?1?$CK?$CK?$CK?$CKData?5version?57?401?$CK?$CK?$CK?$CK?$AN?6?$AA@ 0042b7c8     SerialData.obj
 0002:000037e8       ??_C@_0CK@NBGHNGHE@?1?1?$CK?$CK?$CK?$CKSiteView?5ECC?5serial?5data?5f@ 0042b7e8     SerialData.obj
 0002:00003814       ??_7Subsequent@@6B@        0042b814     Subsequent.obj
 0002:00003818       ??_C@_0O@NFAJKAMD@Item_Total_?$CFd?$AA@ 0042b818     Subsequent.obj
 0002:00003828       ??_C@_0BC@EMFKJGHG@Item_PerEntity_?$CFd?$AA@ 0042b828     Subsequent.obj
 0002:0000383c       ??_C@_0O@KGPJIDC@Item_Class_?$CFd?$AA@ 0042b83c     Subsequent.obj
 0002:0000384c       ??_C@_0N@CKAFJMBL@ItemListSize?$AA@ 0042b84c     Subsequent.obj
 0002:0000385c       ??_C@_0BK@OEOIOMLD@week_?$CFd_task_?$CFd_endminute?$AA@ 0042b85c     Task.obj
 0002:00003878       ??_C@_0BI@KFDFDCPF@week_?$CFd_task_?$CFd_endhour?$AA@ 0042b878     Task.obj
 0002:00003890       ??_C@_0BM@PJDEGFLC@week_?$CFd_task_?$CFd_beginminute?$AA@ 0042b890     Task.obj
 0002:000038ac       ??_C@_0BK@FHABNGKF@week_?$CFd_task_?$CFd_beginhour?$AA@ 0042b8ac     Task.obj
 0002:000038c8       ??_C@_0BB@DCAFICLF@week_?$CFd_tasksize?$AA@ 0042b8c8     Task.obj
 0002:000038dc       ??_C@_07PPGEDGLE@week_?$CFd?$AA@ 0042b8dc     Task.obj
 0002:000038e4       ??_C@_08OKFGHCFJ@taskname?$AA@ 0042b8e4     Task.obj
 0002:000038f0       ??_C@_0BL@DCHDNGMB@eeeeeeeeeeeeeeeeeeeeeeeeee?$AA@ 0042b8f0     ThreadContrl.obj
 0002:0000390c       ??_C@_0L@CDENFONM@eid?5is?3?$CFs?6?$AA@ 0042b90c     ThreadContrl.obj
 0002:00003918       ??_C@_0BE@GMNJCOFO@total?3?$CFd?0?5work?3?$CFd?5?6?$AA@ 0042b918     ThreadContrl.obj
 0002:0000392c       ??_C@_0P@PNNENJOE@Work?5thread?5?$CFd?$AA@ 0042b92c     ThreadContrl.obj
 0002:0000393c       ??_C@_0BC@HCCBKLLK@?$CK?$CK?$CK?$CK?$CKSuccess?$CK?$CK?$CK?$CK?$CK?$AA@ 0042b93c     ThreadContrl.obj
 0002:00003950       ??_C@_0BC@MPMOOLEJ@?$CK?$CK?$CK?$CK?$CKTimeout?$CK?$CK?$CK?$CK?$CK?$AA@ 0042b950     ThreadContrl.obj
 0002:00003964       ??_C@_0BL@CKNCPHPM@?$CK?$CK?$CK?$CK?$CKStart?5monitor?4?4?4?$CK?$CK?$CK?$CK?$CK?$AA@ 0042b964     ThreadContrl.obj
 0002:00003980       ??_C@_0BG@IADFEHLC@Get?5Idle?5thread?5error?$AA@ 0042b980     ThreadContrl.obj
 0002:00003998       ??_C@_0BC@MOLLFNMK@Task?5check?5thread?$AA@ 0042b998     ThreadContrl.obj
 0002:000039ac       ??_C@_05IAOCCJNL@Enter?$AA@ 0042b9ac     ThreadContrl.obj
 0002:000039b4       ??_C@_0CD@DGKGIDJF@Error?5?3?5Create?5QueueManager?5fail@ 0042b9b4     ThreadContrl.obj
 0002:000039d8       ??_C@_0CE@MHDGOAMB@Monitor?5skip?5count?3?$CFd?0Monitor?5ID@ 0042b9d8     ThreadContrl.obj
 0002:000039fc       ??_C@_0DN@MKONPGPB@SkipCount?5?$DO?5?$CFd?0?5MonitorID?3?$CFs?0?5th@ 0042b9fc     ThreadContrl.obj
 0002:00003a3c       ??_C@_0BB@GIBOBFMF@Monitor?5is?5empty?$AA@ 0042ba3c     ThreadContrl.obj
 0002:00003a50       ??_C@_0CJ@DENKKNNJ@ThreadContrl?5dispatch?5thread?5exi@ 0042ba50     ThreadContrl.obj
 0002:00003a7c       ??_C@_0CJ@DBFJCJEP@ThreadContrl?5dispatch?5thread?5exi@ 0042ba7c     ThreadContrl.obj
 0002:00003aa8       ??_C@_0BD@OGAMPDKN@Contrl?5thread?5exit?$AA@ 0042baa8     ThreadContrl.obj
 0002:00003abc       ??_7ThreadEx@@6B@          0042babc     ThreadEx.obj
 0002:00003ad4       ??_C@_09NPPHDNIB@?5is?5done?$CB?$AA@ 0042bad4     Util.obj
 0002:00003ae0       ??_C@_05LKACOLBK@?5?5to?5?$AA@ 0042bae0     Util.obj
 0002:00003ae8       ??_C@_0O@MDINJGAG@AppendRecord?5?$AA@ 0042bae8     Util.obj
 0002:00003af8       ??_C@_0BI@EAIMEEIF@?5?5to?5localhost?5is?5done?$CB?$AA@ 0042baf8     Util.obj
 0002:00003b10       ??_C@_0M@OJLJIJBF@ret?$DN?$DNfalse?6?$AA@ 0042bb10     Util.obj
 0002:00003b1c       ??_C@_0BB@KHOCGCAF@incrd?5is?5empty?$CB?6?$AA@ 0042bb1c     Util.obj
 0002:00003b30       ??_C@_0FI@LJJOLFLA@?5?5?h?$IO?$LH?e?$IP?$JGdll?e?$IH?$LN?f?$JF?$LA?e?$KE?$LB?h?$LE?$KF?0?5Failed?5@ 0042bb30     Util.obj
 0002:00003b88       ??_C@_07NDMDKDNP@SendMsg?$AA@ 0042bb88     Util.obj
 0002:00003b90       ??_C@_0CD@LNOMEKCN@Load?5MonitorScheduleWeb?4dll?5fail@ 0042bb90     Util.obj
 0002:00003bb4       ??_C@_0BA@IMBNEAAC@sendmsg?5failed?6?$AA@ 0042bbb4     Util.obj
 0002:00003bc4       ??_C@_0BA@OLEHDLDB@sendmsg?5sucess?6?$AA@ 0042bbc4     Util.obj
 0002:00003bd4       ??_C@_07BOPMDPAI@WebPort?$AA@ 0042bbd4     Util.obj
 0002:00003bdc       ??_C@_06DKGIMKCM@WebECC?$AA@ 0042bbdc     Util.obj
 0002:00003be4       ??_C@_0L@KGMMJMHC@WebService?$AA@ 0042bbe4     Util.obj
 0002:00003bf0       ??_C@_0BH@GFIOEFED@?$CFs?1fcgi?9bin?1WebECC?4ini?$AA@ 0042bbf0     Util.obj
 0002:00003c08       ??_C@_0CD@OFAEHLFE@?$CFs?1fcgi?9bin?1MonitorScheduleWeb?4d@ 0042bc08     Util.obj
 0002:00003c2c       ??_C@_09PFCHIMEP@127?40?40?41?$AA@ 0042bc2c     Util.obj
 0002:00003c38       ??_C@_0M@PBEHJCJG@InstallPath?$AA@ 0042bc38     Util.obj
 0002:00003c44       ??_C@_0M@IFENNAEF@SVMQAddress?$AA@ 0042bc44     Util.obj
 0002:00003c50       ??_C@_0BP@BBHFKOOO@?$CFs?1MonitorManager?1siteview?4ini?$AA@ 0042bc50     Util.obj
 0002:00003c70       ??_C@_07POIENIBA@Refresh?$AA@ 0042bc70     Util.obj
 0002:00003c7c       ??_7type_info@@6B@         0042bc7c     MSVCRT:ti_inst.obj
 0002:00003cf0       __load_config_used         0042bcf0     MSVCRT:loadcfg.obj
 0002:00003db4       ??_R1A@?0A@A@type_info@@8  0042bdb4     MSVCRT:ti_inst.obj
 0002:00003dcc       ??_R2type_info@@8          0042bdcc     MSVCRT:ti_inst.obj
 0002:00003dd4       ??_R3type_info@@8          0042bdd4     MSVCRT:ti_inst.obj
 0002:00003de4       ??_R4type_info@@6B@        0042bde4     MSVCRT:ti_inst.obj
 0002:00003e00       ___safe_se_handler_table   0042be00     <linker-defined>
 0002:000040fc       ___rtc_iaa                 0042c0fc     MSVCRT:initsect.obj
 0002:00004100       ___rtc_izz                 0042c100     MSVCRT:initsect.obj
 0002:00004104       ___rtc_taa                 0042c104     MSVCRT:initsect.obj
 0002:00004108       ___rtc_tzz                 0042c108     MSVCRT:initsect.obj
 0002:0000410c       __CT??_R0?AVexception@@@8??0exception@@QAE@ABV0@@Z12 0042c10c     appendmassrecord.obj
 0002:00004128       __CT??_R0?AVbad_cast@@@8??0bad_cast@@QAE@ABV0@@Z12 0042c128     appendmassrecord.obj
 0002:00004144       __CTA2?AVbad_cast@@        0042c144     appendmassrecord.obj
 0002:00004150       __TI2?AVbad_cast@@         0042c150     appendmassrecord.obj
 0002:00004308       __CT??_R0?AVMSException@@@8??0MSException@@QAE@ABV0@@Z280 0042c308     Groups.obj
 0002:00004324       __CTA1?AVMSException@@     0042c324     Groups.obj
 0002:0000432c       __TI1?AVMSException@@      0042c32c     Groups.obj
 0002:00004368       __CT??_R0?AVlogic_error@std@@@8??0logic_error@std@@QAE@ABV01@@Z40 0042c368     Groups.obj
 0002:00004384       __CT??_R0?AVlength_error@std@@@8??0length_error@std@@QAE@ABV01@@Z40 0042c384     Groups.obj
 0002:000043a0       __CTA3?AVlength_error@std@@ 0042c3a0     Groups.obj
 0002:000043b0       __TI3?AVlength_error@std@@ 0042c3b0     Groups.obj
 0002:0000447c       __CT??_R0?AVexception@svutil@@@8??0exception@svutil@@QAE@ABV01@@Z280 0042c47c     Groups.obj
 0002:00004498       __CTA1?AVexception@svutil@@ 0042c498     Groups.obj
 0002:000044a0       __TI1?AVexception@svutil@@ 0042c4a0     Groups.obj
 0002:000057e0       __CT??_R0?AVout_of_range@std@@@8??0out_of_range@std@@QAE@ABV01@@Z40 0042d7e0     MonitorSchMain.obj
 0002:000057fc       __CTA3?AVout_of_range@std@@ 0042d7fc     MonitorSchMain.obj
 0002:0000580c       __TI3?AVout_of_range@std@@ 0042d80c     MonitorSchMain.obj
 0002:000078b8       __IMPORT_DESCRIPTOR_ccgnu2 0042f8b8     ccgnu2:ccgnu2.dll
 0002:000078cc       __IMPORT_DESCRIPTOR_svapi  0042f8cc     svapi:svapi.dll
 0002:000078e0       __IMPORT_DESCRIPTOR_KERNEL32 0042f8e0     kernel32:KERNEL32.dll
 0002:000078f4       __IMPORT_DESCRIPTOR_USER32 0042f8f4     user32:USER32.dll
 0002:00007908       __IMPORT_DESCRIPTOR_ole32  0042f908     ole32:ole32.dll
 0002:0000791c       __IMPORT_DESCRIPTOR_MSVCP71 0042f91c     msvcprt:MSVCP71.dll
 0002:00007930       __IMPORT_DESCRIPTOR_MSVCR71 0042f930     MSVCRT:MSVCR71.dll
 0002:00007944       __NULL_IMPORT_DESCRIPTOR   0042f944     ccgnu2:ccgnu2.dll
 0003:00000000       ___xc_a                    00433000     MSVCRT:cinitexe.obj
 0003:0000005c       ___xc_z                    0043305c     MSVCRT:cinitexe.obj
 0003:00000060       ___xi_a                    00433060     MSVCRT:cinitexe.obj
 0003:00000064       ___xi_z                    00433064     MSVCRT:cinitexe.obj
 0003:00000070       ??_R0?AVexception@@@8      00433070     appendmassrecord.obj
 0003:00000088       ??_R0?AVbad_cast@@@8       00433088     appendmassrecord.obj
 0003:000000a0       ?map@@3PAY0BA@DA           004330a0     Des.obj
 0003:000001a0       ?key8@@3PAEA               004331a0     Des.obj
 0003:000001a8       ??_R0?AVMSException@@@8    004331a8     Groups.obj
 0003:000001c4       ??_R0?AVlogic_error@std@@@8 004331c4     Groups.obj
 0003:000001e4       ??_R0?AVlength_error@std@@@8 004331e4     Groups.obj
 0003:00000204       ??_R0?AVexception@svutil@@@8 00433204     Groups.obj
 0003:00000224       ?seid@Univ@@2HA            00433224     MonitorSchedule.obj
 0003:00000228       ?msappend@Univ@@2HA        00433228     MonitorSchedule.obj
 0003:0000022c       ??_R0?AVout_of_range@std@@@8 0043322c     MonitorSchMain.obj
 0003:0000024c       ?str_disable@@3PBDB        0043324c     ScheduleThread.obj
 0003:00000250       ?str_gddisable@@3PBDB      00433250     ScheduleThread.obj
 0003:00000254       ?str_taskplandisable@@3PBDB 00433254     ScheduleThread.obj
 0003:00000258       ?str_tempdisable@@3PBDB    00433258     ScheduleThread.obj
 0003:0000025c       ??_R0?AVtype_info@@@8      0043325c     MSVCRT:ti_inst.obj
 0003:00000280       ___security_cookie         00433280     MSVCRT:seccook.obj
 0003:00000290       ___defaultmatherr          00433290     MSVCRT:merr.obj
 0003:00000298       ?_Psave@?$_Facetptr@V?$ctype@D@std@@@std@@2PBVfacet@locale@2@B 00433298     appendmassrecord.obj
 0003:00000330       ?key@@3PAEA                00433330     Des.obj
 0003:00000348       ?putil@@3PAVUtil@@A        00433348     MonitorSchedule.obj
 0003:0000034c       ?g_pOption@@3PAVOption@@A  0043334c     MonitorSchedule.obj
 0003:00000350       ?pMain@@3PAVMonitorSchMain@@A 00433350     MonitorSchedule.obj
 0003:00000354       ?pluscount@Univ@@2HA       00433354     MonitorSchedule.obj
 0003:00000358       ?enablemass@Univ@@2_NA     00433358     MonitorSchedule.obj
 0003:0000035c       ?g_ServerHost@@3V?$basic_string@DU?$char_traits@D@std@@V?$allocator@D@2@@std@@A 0043335c     MonitorSchedule.obj
 0003:00000378       ?g_strRootPath@@3VTString@@A 00433378     MonitorSchedule.obj
 0003:0000038c       ?g_QueueAddr@@3V?$basic_string@DU?$char_traits@D@std@@V?$allocator@D@2@@std@@A 0043338c     MonitorSchedule.obj
 0003:000003a8       ?g_LastSchTime@@3VTTime@svutil@@A 004333a8     MonitorSchedule.obj
 0003:000003ac       ?g_ConfigTrackQueueName@@3V?$basic_string@DU?$char_traits@D@std@@V?$allocator@D@2@@std@@A 004333ac     MonitorSchedule.obj
 0003:000003c8       ?g_RefreshQueueName@@3V?$basic_string@DU?$char_traits@D@std@@V?$allocator@D@2@@std@@A 004333c8     MonitorSchedule.obj
 0003:000003e4       ?gnTotal@@3HA              004333e4     MonitorSchMain.obj
 0003:000003e8       ?language_obj@readSVDB@@0PAXA 004333e8     readSVDB.obj
 0003:000003ec       ?EntityTPL@readSVDB@@0V?$map@V?$basic_string@DU?$char_traits@D@std@@V?$allocator@D@2@@std@@PAXU?$less@V?$basic_string@DU?$char_traits@D@std@@V?$allocator@D@2@@std@@@2@V?$allocator@U?$pair@$$CBV?$basic_string@DU?$char_traits@D@std@@V?$allocator@D@2@@std@@PAX@std@@@2@@std@@A 004333ec     readSVDB.obj
 0003:000003f8       ?Monitors@readSVDB@@0V?$map@V?$basic_string@DU?$char_traits@D@std@@V?$allocator@D@2@@std@@PAXU?$less@V?$basic_string@DU?$char_traits@D@std@@V?$allocator@D@2@@std@@@2@V?$allocator@U?$pair@$$CBV?$basic_string@DU?$char_traits@D@std@@V?$allocator@D@2@@std@@PAX@std@@@2@@std@@A 004333f8     readSVDB.obj
 0003:00000404       ?MonitorTPL@readSVDB@@0V?$map@HPAXU?$less@H@std@@V?$allocator@U?$pair@$$CBHPAX@std@@@2@@std@@A 00433404     readSVDB.obj
 0003:00000410       ?Entities@readSVDB@@0V?$map@V?$basic_string@DU?$char_traits@D@std@@V?$allocator@D@2@@std@@PAXU?$less@V?$basic_string@DU?$char_traits@D@std@@V?$allocator@D@2@@std@@@2@V?$allocator@U?$pair@$$CBV?$basic_string@DU?$char_traits@D@std@@V?$allocator@D@2@@std@@PAX@std@@@2@@std@@A 00433410     readSVDB.obj
 0003:00000420       ?s_str_tempdisable@@3V?$basic_string@DU?$char_traits@D@std@@V?$allocator@D@2@@std@@A 00433420     ScheduleThread.obj
 0003:0000043c       ?s_str_disable@@3V?$basic_string@DU?$char_traits@D@std@@V?$allocator@D@2@@std@@A 0043343c     ScheduleThread.obj
 0003:00000458       ?s_str_gddisable@@3V?$basic_string@DU?$char_traits@D@std@@V?$allocator@D@2@@std@@A 00433458     ScheduleThread.obj
 0003:00000474       ?s_str_taskplandisable@@3V?$basic_string@DU?$char_traits@D@std@@V?$allocator@D@2@@std@@A 00433474     ScheduleThread.obj
 0003:000004b4       ?g_strSession@Util@@2VTString@@A 004334b4     Util.obj
 0003:000004c8       ?listrcd@Util@@0V?$list@VSingelRecord@@V?$allocator@VSingelRecord@@@std@@@std@@A 004334c8     Util.obj
 0003:000004d4       ?szServer@Util@@0V?$basic_string@DU?$char_traits@D@std@@V?$allocator@D@2@@std@@A 004334d4     Util.obj
 0003:00000524       ?szPort@Util@@0V?$basic_string@DU?$char_traits@D@std@@V?$allocator@D@2@@std@@A 00433524     Util.obj
 0003:00000540       __dowildcard               00433540     MSVCRT:wildcard.obj
 0003:00000544       __newmode                  00433544     MSVCRT:_newmode.obj
 0003:00000548       __commode                  00433548     MSVCRT:xncommod.obj
 0003:0000054c       __fmode                    0043354c     MSVCRT:xtxtmode.obj
 0003:00000550       __adjust_fdiv              00433550     <common>
 0003:00000554       ___onexitend               00433554     <common>
 0003:00000558       ___onexitbegin             00433558     <common>

 entry point at        0001:000239d8

 Static symbols

 0001:0000053f       $L46315                    0040153f f i appendmassrecord.obj
 0001:00000731       $L46684                    00401731 f i appendmassrecord.obj
 0001:00005479       $L50915                    00406479 f   LoadConfig.obj
 0001:00005664       $L50955                    00406664 f   LoadConfig.obj
 0001:00005e0f       $L53478                    00406e0f f i LoadConfig.obj
 0001:00006c9f       $L55761                    00407c9f f   LoadConfig.obj
 0001:00006f0b       $L55851                    00407f0b f   LoadConfig.obj
 0001:000070f1       $L56261                    004080f1 f   LoadConfig.obj
 0001:0000746e       $L56817                    0040846e f   LoadConfig.obj
 0001:0000b272       $L55215                    0040c272 f   MonitorSchedule.obj
 0001:0000b759       $L55324                    0040c759 f   MonitorSchedule.obj
 0001:0000c022       $L61005                    0040d022 f   MonitorSchedule.obj
 0001:0000c222       $L61130                    0040d222 f   MonitorSchedule.obj
 0001:0000cce4       $L62384                    0040dce4 f   MonitorSchedule.obj
 0001:0000d06b       $L62386                    0040e06b f   MonitorSchedule.obj
 0001:0000da47       $L58846                    0040ea47 f   MonitorSchMain.obj
 0001:00011627       $L84819                    00412627 f i MonitorThread.obj
 0001:00011807       $L85975                    00412807 f i MonitorThread.obj
 0001:00011db1       $L88139                    00412db1 f i MonitorThread.obj
 0001:00011e6d       $L88141                    00412e6d f i MonitorThread.obj
 0001:00014625       $L93114                    00415625 f   MonitorThread.obj
 0001:0001465f       $L93115                    0041565f f   MonitorThread.obj
 0001:00014841       $L93117                    00415841 f   MonitorThread.obj
 0001:000149d8       $L93375                    004159d8 f   MonitorThread.obj
 0001:00014a4b       $L93376                    00415a4b f   MonitorThread.obj
 0001:00014b38       $L93377                    00415b38 f   MonitorThread.obj
 0001:00014fe1       $L48819                    00415fe1 f   ommunicationThread.obj
 0001:00014fe7       $L48820                    00415fe7 f   ommunicationThread.obj
 0001:00015a87       $L43113                    00416a87 f   ProcessMonitorData.obj
 0001:00016fb7       $L60194                    00417fb7 f i readSVDB.obj
 0001:0001812e       $L64693                    0041912e f i readSVDB.obj
 0001:0001813a       $L64695                    0041913a f i readSVDB.obj
 0001:00019b2d       $L66777                    0041ab2d f i readSVDB.obj
 0001:00019b39       $L66779                    0041ab39 f i readSVDB.obj
 0001:0001d2e4       $L58284                    0041e2e4 f   ScheduleThread.obj
 0001:0001d346       $L58285                    0041e346 f   ScheduleThread.obj
 0001:0001ea3e       $L22540                    0041fa3e f i stlini.obj
 0001:0001ef78       $L25075                    0041ff78 f i stlini.obj
 0001:0001f091       $L25990                    00420091 f i stlini.obj
 0001:0001f26e       $L26828                    0042026e f i stlini.obj
 0001:0001f948       $L28477                    00420948 f i stlini.obj
 0001:0001fa61       $L29093                    00420a61 f i stlini.obj
 0001:00022376       $L57408                    00423376 f   ThreadContrl.obj
 0001:000223a7       $L57409                    004233a7 f   ThreadContrl.obj
 0001:0002270d       $L49474                    0042370d f i Util.obj
 0001:000228a4       $L50477                    004238a4 f   Util.obj
 0001:00022a8f       $L50582                    00423a8f f   Util.obj
 0001:00022c29       $L50650                    00423c29 f   Util.obj
 0001:000237e6       _report_failure            004247e6 f   MSVCRT:secchk.obj
 0001:00023d00       $L45764                    00424d00 f   appendmassrecord.obj
 0001:00023d09       __ehhandler$??$use_facet@V?$ctype@D@std@@@std@@YAABV?$ctype@D@0@ABVlocale@0@@Z 00424d09 f   appendmassrecord.obj
 0001:00023d20       $L45859                    00424d20 f   appendmassrecord.obj
 0001:00023d20       $L45831                    00424d20 f   appendmassrecord.obj
 0001:00023d20       $L45817                    00424d20 f   appendmassrecord.obj
 0001:00023d29       $L45818                    00424d29 f   appendmassrecord.obj
 0001:00023d29       $L45860                    00424d29 f   appendmassrecord.obj
 0001:00023d29       $L45832                    00424d29 f   appendmassrecord.obj
 0001:00023d43       __ehhandler$??$?HDU?$char_traits@D@std@@V?$allocator@D@1@@std@@YA?AV?$basic_string@DU?$char_traits@D@std@@V?$allocator@D@2@@0@PBDABV10@@Z 00424d43 f   appendmassrecord.obj
 0001:00023d43       __ehhandler$??$?HDU?$char_traits@D@std@@V?$allocator@D@1@@std@@YA?AV?$basic_string@DU?$char_traits@D@std@@V?$allocator@D@2@@0@ABV10@PBD@Z 00424d43 f   appendmassrecord.obj
 0001:00023d43       __ehhandler$??$?HDU?$char_traits@D@std@@V?$allocator@D@1@@std@@YA?AV?$basic_string@DU?$char_traits@D@std@@V?$allocator@D@2@@0@ABV10@0@Z 00424d43 f   appendmassrecord.obj
 0001:00023d50       $L46155                    00424d50 f   appendmassrecord.obj
 0001:00023d50       $L46186                    00424d50 f   appendmassrecord.obj
 0001:00023d50       $L46243                    00424d50 f   appendmassrecord.obj
 0001:00023d58       __ehhandler$??0sentry@?$basic_istream@DU?$char_traits@D@std@@@std@@QAE@AAV12@_N@Z 00424d58 f   appendmassrecord.obj
 0001:00023d58       __ehhandler$??1sentry@?$basic_ostream@DU?$char_traits@D@std@@@std@@QAE@XZ 00424d58 f   appendmassrecord.obj
 0001:00023d58       __ehhandler$??0sentry@?$basic_ostream@DU?$char_traits@D@std@@@std@@QAE@AAV12@@Z 00424d58 f   appendmassrecord.obj
 0001:00023d70       $L46316                    00424d70 f   appendmassrecord.obj
 0001:00023d78       $L46317                    00424d78 f   appendmassrecord.obj
 0001:00023d81       __ehhandler$??$?5DU?$char_traits@D@std@@V?$allocator@D@1@@std@@YAAAV?$basic_istream@DU?$char_traits@D@std@@@0@AAV10@AAV?$basic_string@DU?$char_traits@D@std@@V?$allocator@D@2@@0@@Z 00424d81 f   appendmassrecord.obj
 0001:00023d90       $L46685                    00424d90 f   appendmassrecord.obj
 0001:00023d98       $L46813                    00424d98 f   appendmassrecord.obj
 0001:00023da0       __ehhandler$??$?6DU?$char_traits@D@std@@V?$allocator@D@1@@std@@YAAAV?$basic_ostream@DU?$char_traits@D@std@@@0@AAV10@ABV?$basic_string@DU?$char_traits@D@std@@V?$allocator@D@2@@0@@Z 00424da0 f   appendmassrecord.obj
 0001:00023db0       $L47650                    00424db0 f   appendmassrecord.obj
 0001:00023db8       $L47651                    00424db8 f   appendmassrecord.obj
 0001:00023dc0       __ehhandler$??1CAppendMassRecord@@UAE@XZ 00424dc0 f   appendmassrecord.obj
 0001:00023dd0       $L47777                    00424dd0 f   appendmassrecord.obj
 0001:00023ddb       __ehhandler$?run@CAppendMassRecord@@UAEXXZ 00424ddb f   appendmassrecord.obj
 0001:00023df0       $L46728                    00424df0 f   Groups.obj
 0001:00023df0       $L46746                    00424df0 f   Groups.obj
 0001:00023df8       $L46729                    00424df8 f   Groups.obj
 0001:00023df8       $L46747                    00424df8 f   Groups.obj
 0001:00023e03       __ehhandler$??0?$hashelement@Vword@svutil@@V12@@svutil@@QAE@ABVword@1@0@Z 00424e03 f   Groups.obj
 0001:00023e03       __ehhandler$??0?$hashelement@Vword@svutil@@V12@@svutil@@QAE@ABVword@1@@Z 00424e03 f   Groups.obj
 0001:00023e10       $L46879                    00424e10 f   Groups.obj
 0001:00023e10       $L46278                    00424e10 f   Groups.obj
 0001:00023e19       __ehhandler$??0logic_error@std@@QAE@ABV01@@Z 00424e19 f   Groups.obj
 0001:00023e19       __ehhandler$??1logic_error@std@@UAE@XZ 00424e19 f   Groups.obj
 0001:00023e30       $L46970                    00424e30 f   Groups.obj
 0001:00023e30       $L46922                    00424e30 f   Groups.obj
 0001:00023e38       __ehhandler$??O?$treenode@V?$hashelement@Vword@svutil@@V12@@svutil@@@svutil@@QAE_NV01@@Z 00424e38 f   Groups.obj
 0001:00023e38       __ehhandler$??M?$treenode@V?$hashelement@Vword@svutil@@V12@@svutil@@@svutil@@QAE_NV01@@Z 00424e38 f   Groups.obj
 0001:00023e50       $L47896                    00424e50 f   Groups.obj
 0001:00023e50       $L47275                    00424e50 f   Groups.obj
 0001:00023e5b       __ehhandler$??0?$treenode@V?$hashelement@Vword@svutil@@V12@@svutil@@@svutil@@QAE@ABV?$hashelement@Vword@svutil@@V12@@1@@Z 00424e5b f   Groups.obj
 0001:00023e5b       __ehhandler$??0?$treenode@V?$hashelement@Vword@svutil@@V12@@svutil@@@svutil@@QAE@ABV01@@Z 00424e5b f   Groups.obj
 0001:00023e70       $L52136                    00424e70 f   Groups.obj
 0001:00023e70       $L48988                    00424e70 f   Groups.obj
 0001:00023e7b       __ehhandler$?insert@?$hashtable@Vword@svutil@@V12@@svutil@@QAEAAVword@2@ABV32@0@Z 00424e7b f   Groups.obj
 0001:00023e7b       __ehhandler$??$CreateNode@V?$hashelement@Vword@svutil@@V12@@svutil@@@?$sorttree@V?$hashelement@Vword@svutil@@V12@@svutil@@@svutil@@SAPAV?$treenode@V?$hashelement@Vword@svutil@@V12@@svutil@@@1@ABV?$hashelement@Vword@svutil@@V12@@1@@Z 00424e7b f   Groups.obj
 0001:00023e90       $L49586                    00424e90 f   Groups.obj
 0001:00023e90       $L46856                    00424e90 f   Groups.obj
 0001:00023e90       $L49496                    00424e90 f   Groups.obj
 0001:00023e99       $L46860                    00424e99 f   Groups.obj
 0001:00023e99       $L49606                    00424e99 f   Groups.obj
 0001:00023e99       $L49516                    00424e99 f   Groups.obj
 0001:00023ea2       __ehhandler$?_Incsize@?$list@PAVEntity@@V?$allocator@PAVEntity@@@std@@@std@@IAEXI@Z 00424ea2 f   Groups.obj
 0001:00023ea2       __ehhandler$?_Incsize@?$list@PAVGroupsItem@@V?$allocator@PAVGroupsItem@@@std@@@std@@IAEXI@Z 00424ea2 f   Groups.obj
 0001:00023ea2       __ehhandler$?_Xlen@?$vector@PAV?$hashnode@Vword@svutil@@V12@@svutil@@V?$allocator@PAV?$hashnode@Vword@svutil@@V12@@svutil@@@std@@@std@@IBEXXZ 00424ea2 f   Groups.obj
 0001:00023eb0       $L50521                    00424eb0 f   Groups.obj
 0001:00023ebb       $L50522                    00424ebb f   Groups.obj
 0001:00023ec6       __ehhandler$??1Groups@@UAE@XZ 00424ec6 f   Groups.obj
 0001:00023ed0       $L51334                    00424ed0 f   Groups.obj
 0001:00023ed0       $L49668                    00424ed0 f   Groups.obj
 0001:00023ed8       __ehhandler$?find@?$hashnode@Vword@svutil@@V12@@svutil@@QAE_NABVword@2@PAPAV?$hashelement@Vword@svutil@@V12@@2@@Z 00424ed8 f   Groups.obj
 0001:00023ed8       __ehhandler$?insert@?$hashnode@Vword@svutil@@V12@@svutil@@QAEAAV?$hashelement@Vword@svutil@@V12@@2@ABVword@2@0@Z 00424ed8 f   Groups.obj
 0001:00023ef0       $L51544                    00424ef0 f   Groups.obj
 0001:00023efb       __ehhandler$??0Groups@@QAE@XZ 00424efb f   Groups.obj
 0001:00023f10       $L51805                    00424f10 f   Groups.obj
 0001:00023f1b       $L51806                    00424f1b f   Groups.obj
 0001:00023f26       $L51807                    00424f26 f   Groups.obj
 0001:00023f34       $L51808                    00424f34 f   Groups.obj
 0001:00023f3f       $L51809                    00424f3f f   Groups.obj
 0001:00023f4a       $L51810                    00424f4a f   Groups.obj
 0001:00023f55       $L51811                    00424f55 f   Groups.obj
 0001:00023f60       $L51812                    00424f60 f   Groups.obj
 0001:00023f6b       $L51813                    00424f6b f   Groups.obj
 0001:00023f79       $L51814                    00424f79 f   Groups.obj
 0001:00023f84       $L51815                    00424f84 f   Groups.obj
 0001:00023f8f       $L51816                    00424f8f f   Groups.obj
 0001:00023f9a       $L51817                    00424f9a f   Groups.obj
 0001:00023fa5       $L51818                    00424fa5 f   Groups.obj
 0001:00023fb0       $L51819                    00424fb0 f   Groups.obj
 0001:00023fbb       __ehhandler$?FromTextMap@Groups@@QAE_NAAV?$hashtable@Vword@svutil@@V12@@svutil@@@Z 00424fbb f   Groups.obj
 0001:00023fd0       $L52349                    00424fd0 f   Groups.obj
 0001:00023fd8       __ehhandler$??A?$hashtable@Vword@svutil@@V12@@svutil@@QAEAAVword@1@ABV21@@Z 00424fd8 f   Groups.obj
 0001:00023ff0       $L52386                    00424ff0 f   Groups.obj
 0001:00023ffb       $L52387                    00424ffb f   Groups.obj
 0001:00024006       $L52388                    00425006 f   Groups.obj
 0001:00024011       $L52389                    00425011 f   Groups.obj
 0001:0002401c       $L52390                    0042501c f   Groups.obj
 0001:00024027       $L52391                    00425027 f   Groups.obj
 0001:00024032       $L52392                    00425032 f   Groups.obj
 0001:0002403d       $L52393                    0042503d f   Groups.obj
 0001:00024048       $L52394                    00425048 f   Groups.obj
 0001:00024053       $L52395                    00425053 f   Groups.obj
 0001:0002405e       $L52396                    0042505e f   Groups.obj
 0001:00024069       $L52397                    00425069 f   Groups.obj
 0001:00024074       $L52398                    00425074 f   Groups.obj
 0001:0002407f       __ehhandler$?ToTextMap@Groups@@QAE_NAAV?$hashtable@Vword@svutil@@V12@@svutil@@@Z 0042507f f   Groups.obj
 0001:00024090       $L50259                    00425090 f   LoadConfig.obj
 0001:00024099       __ehhandler$?SetTaskName@Monitor@@QAEXV?$basic_string@DU?$char_traits@D@std@@V?$allocator@D@2@@std@@@Z 00425099 f   LoadConfig.obj
 0001:000240b0       $L50397                    004250b0 f   LoadConfig.obj
 0001:000240be       $L50398                    004250be f   LoadConfig.obj
 0001:000240cc       $L50399                    004250cc f   LoadConfig.obj
 0001:000240da       $L50400                    004250da f   LoadConfig.obj
 0001:000240e8       $L50401                    004250e8 f   LoadConfig.obj
 0001:000240f6       __ehhandler$?LoadAll@LoadConfig@@QAEHXZ 004250f6 f   LoadConfig.obj
 0001:00024100       $L50440                    00425100 f   LoadConfig.obj
 0001:00024109       $L50441                    00425109 f   LoadConfig.obj
 0001:00024112       $L50443                    00425112 f   LoadConfig.obj
 0001:0002411b       $L50444                    0042511b f   LoadConfig.obj
 0001:00024127       $L50446                    00425127 f   LoadConfig.obj
 0001:00024133       $L50448                    00425133 f   LoadConfig.obj
 0001:0002413f       $L50450                    0042513f f   LoadConfig.obj
 0001:00024148       $L50451                    00425148 f   LoadConfig.obj
 0001:00024154       $L50452                    00425154 f   LoadConfig.obj
 0001:00024160       $L50453                    00425160 f   LoadConfig.obj
 0001:0002416c       $L50455                    0042516c f   LoadConfig.obj
 0001:00024178       __ehhandler$?GetMonitorPro@LoadConfig@@AAEHPAVMonitor@@V?$basic_string@DU?$char_traits@D@std@@V?$allocator@D@2@@std@@@Z 00425178 f   LoadConfig.obj
 0001:00024190       $L50671                    00425190 f   LoadConfig.obj
 0001:00024199       $L50672                    00425199 f   LoadConfig.obj
 0001:000241a2       $L50673                    004251a2 f   LoadConfig.obj
 0001:000241ab       __ehhandler$?LoadCommonEntity@LoadConfig@@AAEHV?$basic_string@DU?$char_traits@D@std@@V?$allocator@D@2@@std@@AAV?$list@V?$basic_string@DU?$char_traits@D@std@@V?$allocator@D@2@@std@@V?$allocator@V?$basic_string@DU?$char_traits@D@std@@V?$allocator@D@2@@std@@@2@@3@@Z 004251ab f   LoadConfig.obj
 0001:000241c0       $L50705                    004251c0 f   LoadConfig.obj
 0001:000241c9       $L50706                    004251c9 f   LoadConfig.obj
 0001:000241d5       $L50707                    004251d5 f   LoadConfig.obj
 0001:000241e1       __ehhandler$?GetReturnList@LoadConfig@@AAEHPAVMonitor@@H@Z 004251e1 f   LoadConfig.obj
 0001:000241f0       $L50758                    004251f0 f   LoadConfig.obj
 0001:000241f9       $L50759                    004251f9 f   LoadConfig.obj
 0001:00024202       $L50760                    00425202 f   LoadConfig.obj
 0001:0002420b       $L50761                    0042520b f   LoadConfig.obj
 0001:00024217       $L50763                    00425217 f   LoadConfig.obj
 0001:00024223       $L50765                    00425223 f   LoadConfig.obj
 0001:0002422f       $L50767                    0042522f f   LoadConfig.obj
 0001:0002423b       __ehhandler$?LoadSingleEntity@LoadConfig@@AAEXPAVEntity@@V?$basic_string@DU?$char_traits@D@std@@V?$allocator@D@2@@std@@@Z 0042523b f   LoadConfig.obj
 0001:00024250       $L50916                    00425250 f   LoadConfig.obj
 0001:00024259       __ehhandler$?CreateSingleEntity@LoadConfig@@QAEHPAVEntity@@V?$basic_string@DU?$char_traits@D@std@@V?$allocator@D@2@@std@@@Z 00425259 f   LoadConfig.obj
 0001:00024270       $L50956                    00425270 f   LoadConfig.obj
 0001:00024279       $L50957                    00425279 f   LoadConfig.obj
 0001:00024282       $L50958                    00425282 f   LoadConfig.obj
 0001:0002428b       $L50960                    0042528b f   LoadConfig.obj
 0001:00024294       $L50961                    00425294 f   LoadConfig.obj
 0001:0002429d       $L50963                    0042529d f   LoadConfig.obj
 0001:000242a6       __ehhandler$?CreateSingleGroup@LoadConfig@@QAEHPAVGroupsItem@@V?$basic_string@DU?$char_traits@D@std@@V?$allocator@D@2@@std@@@Z 004252a6 f   LoadConfig.obj
 0001:000242b0       $L51660                    004252b0 f   LoadConfig.obj
 0001:000242b9       $L51661                    004252b9 f   LoadConfig.obj
 0001:000242c2       $L51662                    004252c2 f   LoadConfig.obj
 0001:000242cb       $L51664                    004252cb f   LoadConfig.obj
 0001:000242d9       $L51667                    004252d9 f   LoadConfig.obj
 0001:000242e7       $L51670                    004252e7 f   LoadConfig.obj
 0001:000242f5       __ehhandler$?GetStateCondition@LoadConfig@@AAEHPAVMonitor@@V?$basic_string@DU?$char_traits@D@std@@V?$allocator@D@2@@std@@@Z 004252f5 f   LoadConfig.obj
 0001:00024300       $L53479                    00425300 f   LoadConfig.obj
 0001:00024311       __ehhandler$?_Buynode@?$list@V?$basic_string@DU?$char_traits@D@std@@V?$allocator@D@2@@std@@V?$allocator@V?$basic_string@DU?$char_traits@D@std@@V?$allocator@D@2@@std@@@2@@std@@IAEPAU_Node@?$_List_nod@V?$basic_string@DU?$char_traits@D@std@@V?$allocator@D@2@@std@@V?$allocator@V?$basic_string@DU?$char_traits@D@std@@V?$allocator@D@2@@std@@@2@@2@PAU342@0ABV?$basic_string@DU?$char_traits@D@std@@V?$allocator@D@2@@2@@Z 00425311 f   LoadConfig.obj
 0001:00024320       $L53759                    00425320 f   LoadConfig.obj
 0001:00024320       $L53512                    00425320 f   LoadConfig.obj
 0001:00024329       $L53779                    00425329 f   LoadConfig.obj
 0001:00024329       $L53532                    00425329 f   LoadConfig.obj
 0001:00024332       __ehhandler$?_Incsize@?$list@PAVMonitor@@V?$allocator@PAVMonitor@@@std@@@std@@IAEXI@Z 00425332 f   LoadConfig.obj
 0001:00024332       __ehhandler$?_Incsize@?$list@V?$basic_string@DU?$char_traits@D@std@@V?$allocator@D@2@@std@@V?$allocator@V?$basic_string@DU?$char_traits@D@std@@V?$allocator@D@2@@std@@@2@@std@@IAEXI@Z 00425332 f   LoadConfig.obj
 0001:00024340       $L54299                    00425340 f   LoadConfig.obj
 0001:00024349       $L54300                    00425349 f   LoadConfig.obj
 0001:00024352       $L54301                    00425352 f   LoadConfig.obj
 0001:0002435e       $L54302                    0042535e f   LoadConfig.obj
 0001:0002436a       $L54303                    0042536a f   LoadConfig.obj
 0001:00024376       $L54304                    00425376 f   LoadConfig.obj
 0001:00024382       $L54306                    00425382 f   LoadConfig.obj
 0001:0002438e       $L54307                    0042538e f   LoadConfig.obj
 0001:0002439a       $L54308                    0042539a f   LoadConfig.obj
 0001:000243a6       $L54310                    004253a6 f   LoadConfig.obj
 0001:000243b2       $L54312                    004253b2 f   LoadConfig.obj
 0001:000243be       $L54313                    004253be f   LoadConfig.obj
 0001:000243ca       $L54314                    004253ca f   LoadConfig.obj
 0001:000243d6       $L54315                    004253d6 f   LoadConfig.obj
 0001:000243e2       $L54316                    004253e2 f   LoadConfig.obj
 0001:000243ee       $L54317                    004253ee f   LoadConfig.obj
 0001:000243fa       $L54318                    004253fa f   LoadConfig.obj
 0001:00024406       $L54320                    00425406 f   LoadConfig.obj
 0001:00024412       $L54321                    00425412 f   LoadConfig.obj
 0001:0002441e       $L54322                    0042541e f   LoadConfig.obj
 0001:0002442a       $L54323                    0042542a f   LoadConfig.obj
 0001:00024436       $L54324                    00425436 f   LoadConfig.obj
 0001:00024442       $L54326                    00425442 f   LoadConfig.obj
 0001:0002444e       $L54327                    0042544e f   LoadConfig.obj
 0001:0002445a       $L54328                    0042545a f   LoadConfig.obj
 0001:00024466       $L54330                    00425466 f   LoadConfig.obj
 0001:00024472       $L54331                    00425472 f   LoadConfig.obj
 0001:0002447e       $L54332                    0042547e f   LoadConfig.obj
 0001:0002448a       __ehhandler$?GetParamList@LoadConfig@@AAEHPAVMonitor@@V?$basic_string@DU?$char_traits@D@std@@V?$allocator@D@2@@std@@1@Z 0042548a f   LoadConfig.obj
 0001:000244a0       $L55762                    004254a0 f   LoadConfig.obj
 0001:000244a9       $L55764                    004254a9 f   LoadConfig.obj
 0001:000244b2       __ehhandler$?CreateSingleMonitor@LoadConfig@@QAEHPAVMonitor@@V?$basic_string@DU?$char_traits@D@std@@V?$allocator@D@2@@std@@@Z 004254b2 f   LoadConfig.obj
 0001:000244c0       $L55852                    004254c0 f   LoadConfig.obj
 0001:000244c8       $L55853                    004254c8 f   LoadConfig.obj
 0001:000244d1       $L55854                    004254d1 f   LoadConfig.obj
 0001:000244da       $L55855                    004254da f   LoadConfig.obj
 0001:000244e5       $L55858                    004254e5 f   LoadConfig.obj
 0001:000244ee       __ehhandler$?CreateMonitors@LoadConfig@@QAEHAAV?$list@PAVMonitor@@V?$allocator@PAVMonitor@@@std@@@std@@@Z 004254ee f   LoadConfig.obj
 0001:00024500       $L56262                    00425500 f   LoadConfig.obj
 0001:00024508       $L56263                    00425508 f   LoadConfig.obj
 0001:00024511       $L56264                    00425511 f   LoadConfig.obj
 0001:0002451c       __ehhandler$?LoadEntitys@LoadConfig@@AAEXAAV?$list@PAVEntity@@V?$allocator@PAVEntity@@@std@@@std@@@Z 0042551c f   LoadConfig.obj
 0001:00024530       $L56818                    00425530 f   LoadConfig.obj
 0001:00024538       $L56819                    00425538 f   LoadConfig.obj
 0001:00024541       $L56820                    00425541 f   LoadConfig.obj
 0001:0002454a       $L56821                    0042554a f   LoadConfig.obj
 0001:00024553       $L56822                    00425553 f   LoadConfig.obj
 0001:0002455e       $L56824                    0042555e f   LoadConfig.obj
 0001:0002456a       $L56825                    0042556a f   LoadConfig.obj
 0001:00024573       $L56827                    00425573 f   LoadConfig.obj
 0001:0002457f       __ehhandler$?LoadGroups@LoadConfig@@AAEXAAV?$list@PAVGroupsItem@@V?$allocator@PAVGroupsItem@@@std@@@std@@@Z 0042557f f   LoadConfig.obj
 0001:00024590       $L46241                    00425590 f   MakeRecord.obj
 0001:00024599       __ehhandler$?buildbuffer@MakeRecord@@AAEPADV?$basic_string@DU?$char_traits@D@std@@V?$allocator@D@2@@std@@PADH@Z 00425599 f   MakeRecord.obj
 0001:000245b0       $L46781                    004255b0 f   MakeRecord.obj
 0001:000245b9       __ehhandler$?MakeBuf@MakeRecord@@QAE_NPAVReturnValue@@@Z 004255b9 f   MakeRecord.obj
 0001:000245d0       $L46809                    004255d0 f   MakeRecord.obj
 0001:000245d9       __ehhandler$?MakeError@MakeRecord@@QAE_NHV?$basic_string@DU?$char_traits@D@std@@V?$allocator@D@2@@std@@@Z 004255d9 f   MakeRecord.obj
 0001:000245f0       $L51337                    004255f0 f   Monitor.obj
 0001:000245f0       $L51408                    004255f0 f   Monitor.obj
 0001:000245f9       $L51357                    004255f9 f   Monitor.obj
 0001:000245f9       $L51428                    004255f9 f   Monitor.obj
 0001:00024602       __ehhandler$?_Incsize@?$list@PAVStateConditionItem@@V?$allocator@PAVStateConditionItem@@@std@@@std@@IAEXI@Z 00425602 f   Monitor.obj
 0001:00024602       __ehhandler$?_Incsize@?$list@PAVReturnData@@V?$allocator@PAVReturnData@@@std@@@std@@IAEXI@Z 00425602 f   Monitor.obj
 0001:00024610       $L53744                    00425610 f   Monitor.obj
 0001:0002461b       $L53745                    0042561b f   Monitor.obj
 0001:00024626       $L53746                    00425626 f   Monitor.obj
 0001:00024631       $L53747                    00425631 f   Monitor.obj
 0001:0002463c       $L53748                    0042563c f   Monitor.obj
 0001:00024647       $L53749                    00425647 f   Monitor.obj
 0001:00024652       $L53750                    00425652 f   Monitor.obj
 0001:0002465d       $L53751                    0042565d f   Monitor.obj
 0001:00024668       $L53752                    00425668 f   Monitor.obj
 0001:00024673       $L53753                    00425673 f   Monitor.obj
 0001:0002467e       $L53754                    0042567e f   Monitor.obj
 0001:00024689       $L53755                    00425689 f   Monitor.obj
 0001:00024694       $L53756                    00425694 f   Monitor.obj
 0001:0002469f       $L53757                    0042569f f   Monitor.obj
 0001:000246aa       $L53758                    004256aa f   Monitor.obj
 0001:000246b5       $L53759                    004256b5 f   Monitor.obj
 0001:000246c0       $L53760                    004256c0 f   Monitor.obj
 0001:000246cb       $L53761                    004256cb f   Monitor.obj
 0001:000246d6       $L53762                    004256d6 f   Monitor.obj
 0001:000246e4       $L53763                    004256e4 f   Monitor.obj
 0001:000246ef       $L53764                    004256ef f   Monitor.obj
 0001:000246fa       $L53765                    004256fa f   Monitor.obj
 0001:00024705       $L53766                    00425705 f   Monitor.obj
 0001:00024713       $L53767                    00425713 f   Monitor.obj
 0001:0002471e       $L53768                    0042571e f   Monitor.obj
 0001:00024729       $L53769                    00425729 f   Monitor.obj
 0001:00024734       $L53770                    00425734 f   Monitor.obj
 0001:0002473f       $L53771                    0042573f f   Monitor.obj
 0001:0002474d       $L53772                    0042574d f   Monitor.obj
 0001:00024758       $L53773                    00425758 f   Monitor.obj
 0001:00024763       $L53774                    00425763 f   Monitor.obj
 0001:0002476e       $L53775                    0042576e f   Monitor.obj
 0001:0002477c       $L53776                    0042577c f   Monitor.obj
 0001:00024787       $L53777                    00425787 f   Monitor.obj
 0001:00024792       $L53778                    00425792 f   Monitor.obj
 0001:0002479d       $L53779                    0042579d f   Monitor.obj
 0001:000247a8       $L53780                    004257a8 f   Monitor.obj
 0001:000247b6       $L53781                    004257b6 f   Monitor.obj
 0001:000247c1       $L53782                    004257c1 f   Monitor.obj
 0001:000247cc       $L53783                    004257cc f   Monitor.obj
 0001:000247d7       $L53784                    004257d7 f   Monitor.obj
 0001:000247e5       $L53785                    004257e5 f   Monitor.obj
 0001:000247f0       $L53786                    004257f0 f   Monitor.obj
 0001:000247fb       $L53787                    004257fb f   Monitor.obj
 0001:00024806       $L53788                    00425806 f   Monitor.obj
 0001:00024811       $L53789                    00425811 f   Monitor.obj
 0001:0002481c       $L53790                    0042581c f   Monitor.obj
 0001:0002482a       $L53791                    0042582a f   Monitor.obj
 0001:00024835       $L53792                    00425835 f   Monitor.obj
 0001:00024840       $L53793                    00425840 f   Monitor.obj
 0001:0002484b       $L53794                    0042584b f   Monitor.obj
 0001:00024856       $L53795                    00425856 f   Monitor.obj
 0001:00024861       $L53796                    00425861 f   Monitor.obj
 0001:0002486a       $L53797                    0042586a f   Monitor.obj
 0001:00024875       $L53798                    00425875 f   Monitor.obj
 0001:00024881       __ehhandler$?FromTextMap@Monitor@@QAEHAAV?$hashtable@Vword@svutil@@V12@@svutil@@@Z 00425881 f   Monitor.obj
 0001:00024890       $L54648                    00425890 f   Monitor.obj
 0001:0002489b       $L54649                    0042589b f   Monitor.obj
 0001:000248a6       $L54650                    004258a6 f   Monitor.obj
 0001:000248b1       $L54651                    004258b1 f   Monitor.obj
 0001:000248bc       $L54652                    004258bc f   Monitor.obj
 0001:000248ca       __ehhandler$??0Monitor@@QAE@XZ 004258ca f   Monitor.obj
 0001:000248e0       $L54909                    004258e0 f   Monitor.obj
 0001:000248eb       $L54910                    004258eb f   Monitor.obj
 0001:000248f6       $L54911                    004258f6 f   Monitor.obj
 0001:00024901       $L54912                    00425901 f   Monitor.obj
 0001:0002490c       $L54913                    0042590c f   Monitor.obj
 0001:0002491a       $L54914                    0042591a f   Monitor.obj
 0001:00024929       __ehhandler$??1Monitor@@UAE@XZ 00425929 f   Monitor.obj
 0001:00024940       $L55731                    00425940 f   Monitor.obj
 0001:00024949       $L55732                    00425949 f   Monitor.obj
 0001:00024954       $L55733                    00425954 f   Monitor.obj
 0001:0002495f       $L55734                    0042595f f   Monitor.obj
 0001:0002496a       $L55735                    0042596a f   Monitor.obj
 0001:00024975       $L55736                    00425975 f   Monitor.obj
 0001:00024980       $L55737                    00425980 f   Monitor.obj
 0001:0002498b       $L55738                    0042598b f   Monitor.obj
 0001:00024996       $L55739                    00425996 f   Monitor.obj
 0001:000249a1       $L55740                    004259a1 f   Monitor.obj
 0001:000249ac       $L55741                    004259ac f   Monitor.obj
 0001:000249b7       $L55742                    004259b7 f   Monitor.obj
 0001:000249c2       $L55743                    004259c2 f   Monitor.obj
 0001:000249cd       $L55744                    004259cd f   Monitor.obj
 0001:000249d8       $L55745                    004259d8 f   Monitor.obj
 0001:000249e3       $L55746                    004259e3 f   Monitor.obj
 0001:000249ee       $L55747                    004259ee f   Monitor.obj
 0001:000249f9       $L55748                    004259f9 f   Monitor.obj
 0001:00024a04       $L55749                    00425a04 f   Monitor.obj
 0001:00024a0f       $L55750                    00425a0f f   Monitor.obj
 0001:00024a1a       $L55751                    00425a1a f   Monitor.obj
 0001:00024a25       $L55752                    00425a25 f   Monitor.obj
 0001:00024a30       $L55753                    00425a30 f   Monitor.obj
 0001:00024a3b       $L55754                    00425a3b f   Monitor.obj
 0001:00024a46       $L55755                    00425a46 f   Monitor.obj
 0001:00024a51       $L55756                    00425a51 f   Monitor.obj
 0001:00024a5c       $L55757                    00425a5c f   Monitor.obj
 0001:00024a67       $L55758                    00425a67 f   Monitor.obj
 0001:00024a72       $L55759                    00425a72 f   Monitor.obj
 0001:00024a7d       $L55760                    00425a7d f   Monitor.obj
 0001:00024a88       $L55761                    00425a88 f   Monitor.obj
 0001:00024a93       $L55762                    00425a93 f   Monitor.obj
 0001:00024a9e       $L55763                    00425a9e f   Monitor.obj
 0001:00024aa9       $L55764                    00425aa9 f   Monitor.obj
 0001:00024ab4       $L55765                    00425ab4 f   Monitor.obj
 0001:00024abf       $L55766                    00425abf f   Monitor.obj
 0001:00024aca       $L55767                    00425aca f   Monitor.obj
 0001:00024ad5       $L55768                    00425ad5 f   Monitor.obj
 0001:00024ae0       $L55769                    00425ae0 f   Monitor.obj
 0001:00024aeb       $L55770                    00425aeb f   Monitor.obj
 0001:00024af6       $L55771                    00425af6 f   Monitor.obj
 0001:00024b01       $L55772                    00425b01 f   Monitor.obj
 0001:00024b0c       $L55773                    00425b0c f   Monitor.obj
 0001:00024b17       $L55774                    00425b17 f   Monitor.obj
 0001:00024b22       $L55775                    00425b22 f   Monitor.obj
 0001:00024b2d       $L55776                    00425b2d f   Monitor.obj
 0001:00024b38       $L55777                    00425b38 f   Monitor.obj
 0001:00024b43       $L55778                    00425b43 f   Monitor.obj
 0001:00024b4e       $L55779                    00425b4e f   Monitor.obj
 0001:00024b59       __ehhandler$?ToTextMap@Monitor@@QAEHAAV?$hashtable@Vword@svutil@@V12@@svutil@@@Z 00425b59 f   Monitor.obj
 0001:00024b70       $L54978                    00425b70 f   MonitorSchedule.obj
 0001:00024b79       __ehhandler$??0TString@@QAE@ABV0@@Z 00425b79 f   MonitorSchedule.obj
 0001:00024b90       $L55128                    00425b90 f   MonitorSchedule.obj
 0001:00024b9c       __ehhandler$?WriteLog@@YAXPBD@Z 00425b9c f   MonitorSchedule.obj
 0001:00024bb0       $L55216                    00425bb0 f   MonitorSchedule.obj
 0001:00024bb8       $L55217                    00425bb8 f   MonitorSchedule.obj
 0001:00024bc0       $L55218                    00425bc0 f   MonitorSchedule.obj
 0001:00024bcb       $L55219                    00425bcb f   MonitorSchedule.obj
 0001:00024bd6       $L55220                    00425bd6 f   MonitorSchedule.obj
 0001:00024bdf       __ehhandler$?Run@@YAXXZ    00425bdf f   MonitorSchedule.obj
 0001:00024bf0       $L55325                    00425bf0 f   MonitorSchedule.obj
 0001:00024bf9       $L55326                    00425bf9 f   MonitorSchedule.obj
 0001:00024c01       $L55327                    00425c01 f   MonitorSchedule.obj
 0001:00024c0d       $L55328                    00425c0d f   MonitorSchedule.obj
 0001:00024c19       $L55330                    00425c19 f   MonitorSchedule.obj
 0001:00024c22       $L55331                    00425c22 f   MonitorSchedule.obj
 0001:00024c2d       $L55332                    00425c2d f   MonitorSchedule.obj
 0001:00024c38       $L55333                    00425c38 f   MonitorSchedule.obj
 0001:00024c44       $L55334                    00425c44 f   MonitorSchedule.obj
 0001:00024c50       $L55335                    00425c50 f   MonitorSchedule.obj
 0001:00024c5c       __ehhandler$?Run_ProcessMonitor@@YAXV?$basic_string@DU?$char_traits@D@std@@V?$allocator@D@2@@std@@@Z 00425c5c f   MonitorSchedule.obj
 0001:00024c70       $L55770                    00425c70 f   MonitorSchedule.obj
 0001:00024c79       $L55774                    00425c79 f   MonitorSchedule.obj
 0001:00024c82       __ehhandler$?_Xlen@?$vector@PAV?$hashnode@Vword@svutil@@PAVTask@@@svutil@@V?$allocator@PAV?$hashnode@Vword@svutil@@PAVTask@@@svutil@@@std@@@std@@IBEXXZ 00425c82 f   MonitorSchedule.obj
 0001:00024c90       $L58591                    00425c90 f   MonitorSchedule.obj
 0001:00024c98       __ehhandler$??1?$hashnode@Vword@svutil@@PAVTask@@@svutil@@QAE@XZ 00425c98 f   MonitorSchedule.obj
 0001:00024cb0       $L61006                    00425cb0 f   MonitorSchedule.obj
 0001:00024cb8       $L61007                    00425cb8 f   MonitorSchedule.obj
 0001:00024cc0       $L61008                    00425cc0 f   MonitorSchedule.obj
 0001:00024ccb       $L61009                    00425ccb f   MonitorSchedule.obj
 0001:00024cd9       __ehhandler$?GetMonitorListByFile@@YAHAAV?$list@PAVMonitor@@V?$allocator@PAVMonitor@@@std@@@std@@PBD@Z 00425cd9 f   MonitorSchedule.obj
 0001:00024cf0       $L61131                    00425cf0 f   MonitorSchedule.obj
 0001:00024cf9       $L61132                    00425cf9 f   MonitorSchedule.obj
 0001:00024d01       $L61133                    00425d01 f   MonitorSchedule.obj
 0001:00024d0c       __ehhandler$?MakeMonitorListByBuf@@YA_NAAV?$list@PAVMonitor@@V?$allocator@PAVMonitor@@@std@@@std@@PBD@Z 00425d0c f   MonitorSchedule.obj
 0001:00024d20       $L61256                    00425d20 f   MonitorSchedule.obj
 0001:00024d29       $L61257                    00425d29 f   MonitorSchedule.obj
 0001:00024d32       $L61258                    00425d32 f   MonitorSchedule.obj
 0001:00024d3b       $L61259                    00425d3b f   MonitorSchedule.obj
 0001:00024d44       $L61260                    00425d44 f   MonitorSchedule.obj
 0001:00024d4d       $L61262                    00425d4d f   MonitorSchedule.obj
 0001:00024d56       __ehhandler$?GetMonitorListByPipe@@YA_NAAV?$list@PAVMonitor@@V?$allocator@PAVMonitor@@@std@@@std@@V?$basic_string@DU?$char_traits@D@std@@V?$allocator@D@2@@2@11@Z 00425d56 f   MonitorSchedule.obj
 0001:00024d60       $L61775                    00425d60 f   MonitorSchedule.obj
 0001:00024d60       $L61320                    00425d60 f   MonitorSchedule.obj
 0001:00024d68       __ehhandler$??1?$hashtable@Vword@svutil@@PAVTask@@@svutil@@QAE@XZ 00425d68 f   MonitorSchedule.obj
 0001:00024d68       __ehhandler$??0?$hashtable@Vword@svutil@@PAVTask@@@svutil@@QAE@XZ 00425d68 f   MonitorSchedule.obj
 0001:00024d80       $L62388                    00425d80 f   MonitorSchedule.obj
 0001:00024d8e       $L62389                    00425d8e f   MonitorSchedule.obj
 0001:00024d96       $L62390                    00425d96 f   MonitorSchedule.obj
 0001:00024da4       $L62391                    00425da4 f   MonitorSchedule.obj
 0001:00024db2       $L62392                    00425db2 f   MonitorSchedule.obj
 0001:00024dbd       $L62393                    00425dbd f   MonitorSchedule.obj
 0001:00024dcb       $L62396                    00425dcb f   MonitorSchedule.obj
 0001:00024dd3       $L62397                    00425dd3 f   MonitorSchedule.obj
 0001:00024ddb       $L62398                    00425ddb f   MonitorSchedule.obj
 0001:00024de7       $L62399                    00425de7 f   MonitorSchedule.obj
 0001:00024df3       $L62401                    00425df3 f   MonitorSchedule.obj
 0001:00024dff       $L62402                    00425dff f   MonitorSchedule.obj
 0001:00024e0b       $L62403                    00425e0b f   MonitorSchedule.obj
 0001:00024e17       $L62405                    00425e17 f   MonitorSchedule.obj
 0001:00024e1f       $L62407                    00425e1f f   MonitorSchedule.obj
 0001:00024e2b       $L62410                    00425e2b f   MonitorSchedule.obj
 0001:00024e36       $L62409                    00425e36 f   MonitorSchedule.obj
 0001:00024e3f       __ehhandler$_main          00425e3f f   MonitorSchedule.obj
 0001:00024e50       $L57267                    00425e50 f   MonitorSchMain.obj
 0001:00024e58       $L57268                    00425e58 f   MonitorSchMain.obj
 0001:00024e61       $L57269                    00425e61 f   MonitorSchMain.obj
 0001:00024e6a       __ehhandler$?GetLastState@Monitor@@QAEHXZ 00425e6a f   MonitorSchMain.obj
 0001:00024e80       $L57387                    00425e80 f   MonitorSchMain.obj
 0001:00024e89       __ehhandler$?CopyTempData@Entity@@QAE_NPBV1@@Z 00425e89 f   MonitorSchMain.obj
 0001:00024ea0       $L57443                    00425ea0 f   MonitorSchMain.obj
 0001:00024ea9       $L57444                    00425ea9 f   MonitorSchMain.obj
 0001:00024eb2       __ehhandler$??0SerialData@@QAE@V?$basic_string@DU?$char_traits@D@std@@V?$allocator@D@2@@std@@@Z 00425eb2 f   MonitorSchMain.obj
 0001:00024ec0       $L57478                    00425ec0 f   MonitorSchMain.obj
 0001:00024ec9       $L57479                    00425ec9 f   MonitorSchMain.obj
 0001:00024ed2       $L57480                    00425ed2 f   MonitorSchMain.obj
 0001:00024edb       __ehhandler$?ParseOpt@MonitorSchMain@@KA_NV?$basic_string@DU?$char_traits@D@std@@V?$allocator@D@2@@std@@AAV23@1@Z 00425edb f   MonitorSchMain.obj
 0001:00024ef0       $L57508                    00425ef0 f   MonitorSchMain.obj
 0001:00024efc       $L57509                    00425efc f   MonitorSchMain.obj
 0001:00024f08       __ehhandler$?LoadPreLibrary@MonitorSchMain@@QAE_NXZ 00425f08 f   MonitorSchMain.obj
 0001:00024f20       $L57955                    00425f20 f   MonitorSchMain.obj
 0001:00024f28       __ehhandler$??0?$hashelement@Vword@svutil@@PAVTask@@@svutil@@QAE@ABVword@1@@Z 00425f28 f   MonitorSchMain.obj
 0001:00024f40       $L58743                    00425f40 f   MonitorSchMain.obj
 0001:00024f49       __ehhandler$??1?$pair@$$CBV?$basic_string@DU?$char_traits@D@std@@V?$allocator@D@2@@std@@V12@@std@@QAE@XZ 00425f49 f   MonitorSchMain.obj
 0001:00024f60       $L58848                    00425f60 f   MonitorSchMain.obj
 0001:00024f68       __ehhandler$?SerialMonitorData@MonitorSchMain@@QAE_N_N@Z 00425f68 f   MonitorSchMain.obj
 0001:00024f80       $L60886                    00425f80 f   MonitorSchMain.obj
 0001:00024f8e       $L60887                    00425f8e f   MonitorSchMain.obj
 0001:00024f9c       $L60888                    00425f9c f   MonitorSchMain.obj
 0001:00024faa       $L60889                    00425faa f   MonitorSchMain.obj
 0001:00024fb8       $L60890                    00425fb8 f   MonitorSchMain.obj
 0001:00024fc6       $L60891                    00425fc6 f   MonitorSchMain.obj
 0001:00024fd4       $L60892                    00425fd4 f   MonitorSchMain.obj
 0001:00024fe2       $L60893                    00425fe2 f   MonitorSchMain.obj
 0001:00024ff0       $L60894                    00425ff0 f   MonitorSchMain.obj
 0001:00024ffe       $L60895                    00425ffe f   MonitorSchMain.obj
 0001:0002500c       __ehhandler$?Init@MonitorSchMain@@QAEHXZ 0042600c f   MonitorSchMain.obj
 0001:00025020       $L61930                    00426020 f   MonitorSchMain.obj
 0001:00025028       __ehhandler$?find@?$hashnode@Vword@svutil@@PAVTask@@@svutil@@QAE_NABVword@2@PAPAV?$hashelement@Vword@svutil@@PAVTask@@@2@@Z 00426028 f   MonitorSchMain.obj
 0001:00025040       $L63161                    00426040 f   MonitorSchMain.obj
 0001:00025049       $L63162                    00426049 f   MonitorSchMain.obj
 0001:00025052       $L63163                    00426052 f   MonitorSchMain.obj
 0001:0002505b       __ehhandler$?CheckGroupDependState@MonitorSchMain@@QAEHPAVMonitor@@AAVTString@@@Z 0042605b f   MonitorSchMain.obj
 0001:00025070       $L63348                    00426070 f   MonitorSchMain.obj
 0001:00025079       $L63349                    00426079 f   MonitorSchMain.obj
 0001:00025082       __ehhandler$?DeleteMonitorV70@MonitorSchMain@@QAE_NV?$basic_string@DU?$char_traits@D@std@@V?$allocator@D@2@@std@@@Z 00426082 f   MonitorSchMain.obj
 0001:00025090       $L64401                    00426090 f   MonitorSchMain.obj
 0001:00025099       $L64402                    00426099 f   MonitorSchMain.obj
 0001:000250a2       $L64403                    004260a2 f   MonitorSchMain.obj
 0001:000250aa       __ehhandler$?CheckTask@MonitorSchMain@@QAE_NPAVMonitor@@VTTime@svutil@@AAH@Z 004260aa f   MonitorSchMain.obj
 0001:000250c0       $L65312                    004260c0 f   MonitorSchMain.obj
 0001:000250c9       $L65313                    004260c9 f   MonitorSchMain.obj
 0001:000250d5       $L65314                    004260d5 f   MonitorSchMain.obj
 0001:000250e0       $L65315                    004260e0 f   MonitorSchMain.obj
 0001:000250ee       __ehhandler$?AddMonitorV70@MonitorSchMain@@IAE_NV?$basic_string@DU?$char_traits@D@std@@V?$allocator@D@2@@std@@_N@Z 004260ee f   MonitorSchMain.obj
 0001:00025100       $L66074                    00426100 f   MonitorSchMain.obj
 0001:00025109       $L66084                    00426109 f   MonitorSchMain.obj
 0001:00025112       $L66455                    00426112 f   MonitorSchMain.obj
 0001:0002511b       __ehhandler$?erase@?$_Tree@V?$_Tmap_traits@V?$basic_string@DU?$char_traits@D@std@@V?$allocator@D@2@@std@@V12@UStlIniCompareStringNoCase@@V?$allocator@U?$pair@$$CBV?$basic_string@DU?$char_traits@D@std@@V?$allocator@D@2@@std@@V12@@std@@@2@$0A@@std@@@std@@QAE?AViterator@12@V312@@Z 0042611b f   MonitorSchMain.obj
 0001:00025130       $L66567                    00426130 f   MonitorSchMain.obj
 0001:0002513c       $L66568                    0042613c f   MonitorSchMain.obj
 0001:00025148       $L66569                    00426148 f   MonitorSchMain.obj
 0001:00025153       $L66570                    00426153 f   MonitorSchMain.obj
 0001:0002515e       $L66571                    0042615e f   MonitorSchMain.obj
 0001:0002516c       $L66572                    0042616c f   MonitorSchMain.obj
 0001:0002517b       __ehhandler$??1MonitorSchMain@@UAE@XZ 0042617b f   MonitorSchMain.obj
 0001:00025190       $L66714                    00426190 f   MonitorSchMain.obj
 0001:00025199       __ehhandler$?ReLoadTaskV70@MonitorSchMain@@IAE_NXZ 00426199 f   MonitorSchMain.obj
 0001:000251b0       $L66906                    004261b0 f   MonitorSchMain.obj
 0001:000251bc       $L66907                    004261bc f   MonitorSchMain.obj
 0001:000251c8       $L66908                    004261c8 f   MonitorSchMain.obj
 0001:000251d3       $L66909                    004261d3 f   MonitorSchMain.obj
 0001:000251de       $L66910                    004261de f   MonitorSchMain.obj
 0001:000251ec       __ehhandler$??0MonitorSchMain@@QAE@XZ 004261ec f   MonitorSchMain.obj
 0001:00025200       $L67019                    00426200 f   MonitorSchMain.obj
 0001:00025209       $L67020                    00426209 f   MonitorSchMain.obj
 0001:00025212       $L67021                    00426212 f   MonitorSchMain.obj
 0001:0002521a       $L67022                    0042621a f   MonitorSchMain.obj
 0001:00025223       __ehhandler$?ReLoadMonitorsV70@MonitorSchMain@@IAE_NV?$basic_string@DU?$char_traits@D@std@@V?$allocator@D@2@@std@@@Z 00426223 f   MonitorSchMain.obj
 0001:00025230       $L67579                    00426230 f   MonitorSchMain.obj
 0001:00025239       $L67580                    00426239 f   MonitorSchMain.obj
 0001:00025242       $L67581                    00426242 f   MonitorSchMain.obj
 0001:0002524a       __ehhandler$?InitMonitorsGroupDependV70@MonitorSchMain@@IAE_NV?$basic_string@DU?$char_traits@D@std@@V?$allocator@D@2@@std@@@Z 0042624a f   MonitorSchMain.obj
 0001:00025260       $L67830                    00426260 f   MonitorSchMain.obj
 0001:00025269       $L67831                    00426269 f   MonitorSchMain.obj
 0001:00025271       $L67832                    00426271 f   MonitorSchMain.obj
 0001:0002527f       __ehhandler$?AddGroupV70@MonitorSchMain@@IAE_NV?$basic_string@DU?$char_traits@D@std@@V?$allocator@D@2@@std@@_N@Z 0042627f f   MonitorSchMain.obj
 0001:00025290       $L68372                    00426290 f   MonitorSchMain.obj
 0001:00025299       $L68373                    00426299 f   MonitorSchMain.obj
 0001:000252a1       $L68374                    004262a1 f   MonitorSchMain.obj
 0001:000252af       __ehhandler$?AddEntityV70@MonitorSchMain@@IAE_NV?$basic_string@DU?$char_traits@D@std@@V?$allocator@D@2@@std@@_N@Z 004262af f   MonitorSchMain.obj
 0001:000252c0       $L68572                    004262c0 f   MonitorSchMain.obj
 0001:000252c9       $L68573                    004262c9 f   MonitorSchMain.obj
 0001:000252d2       $L68574                    004262d2 f   MonitorSchMain.obj
 0001:000252db       $L68575                    004262db f   MonitorSchMain.obj
 0001:000252e4       __ehhandler$?ProcessConfigChange@MonitorSchMain@@QAE_NV?$basic_string@DU?$char_traits@D@std@@V?$allocator@D@2@@std@@0@Z 004262e4 f   MonitorSchMain.obj
 0001:000252f0       $L68996                    004262f0 f   MonitorSchMain.obj
 0001:000252f9       __ehhandler$??1?$pair@$$CBV?$basic_string@DU?$char_traits@D@std@@V?$allocator@D@2@@std@@V?$map@V?$basic_string@DU?$char_traits@D@std@@V?$allocator@D@2@@std@@V12@UStlIniCompareStringNoCase@@V?$allocator@U?$pair@$$CBV?$basic_string@DU?$char_traits@D@std@@V?$allocator@D@2@@std@@V12@@std@@@2@@2@@std@@QAE@XZ 004262f9 f   MonitorSchMain.obj
 0001:00025310       $L69201                    00426310 f   MonitorSchMain.obj
 0001:00025319       $L69211                    00426319 f   MonitorSchMain.obj
 0001:00025322       __ehhandler$?erase@?$_Tree@V?$_Tmap_traits@V?$basic_string@DU?$char_traits@D@std@@V?$allocator@D@2@@std@@V?$map@V?$basic_string@DU?$char_traits@D@std@@V?$allocator@D@2@@std@@V12@UStlIniCompareStringNoCase@@V?$allocator@U?$pair@$$CBV?$basic_string@DU?$char_traits@D@std@@V?$allocator@D@2@@std@@V12@@std@@@2@@2@UStlIniCompareStringNoCase@@V?$allocator@U?$pair@$$CBV?$basic_string@DU?$char_traits@D@std@@V?$allocator@D@2@@std@@V?$map@V?$basic_string@DU?$char_traits@D@std@@V?$allocator@D@2@@std@@V12@UStlIniCompareStringNoCase@@V?$allocator@U?$pair@$$CBV?$basic_string@DU?$char_traits@D@std@@V?$allocator@D@2@@std@@V12@@std@@@2@@2@@std@@@2@$0A@@std@@@std@@QAE?AViterator@12@V312@@Z 00426322 f   MonitorSchMain.obj
 0001:00025330       $L81026                    00426330 f   MonitorThread.obj
 0001:00025339       __ehhandler$??0TString@@QAE@VString@ost@@@Z 00426339 f   MonitorThread.obj
 0001:00025350       $L81621                    00426350 f   MonitorThread.obj
 0001:00025359       $L81622                    00426359 f   MonitorThread.obj
 0001:00025362       $L81623                    00426362 f   MonitorThread.obj
 0001:0002536e       $L81624                    0042636e f   MonitorThread.obj
 0001:0002537a       $L81626                    0042637a f   MonitorThread.obj
 0001:00025386       $L81627                    00426386 f   MonitorThread.obj
 0001:00025392       $L81629                    00426392 f   MonitorThread.obj
 0001:0002539d       $L81630                    0042639d f   MonitorThread.obj
 0001:000253a9       $L81631                    004263a9 f   MonitorThread.obj
 0001:000253b5       $L81632                    004263b5 f   MonitorThread.obj
 0001:000253c1       $L81634                    004263c1 f   MonitorThread.obj
 0001:000253cc       $L81635                    004263cc f   MonitorThread.obj
 0001:000253d8       $L81636                    004263d8 f   MonitorThread.obj
 0001:000253e4       $L81638                    004263e4 f   MonitorThread.obj
 0001:000253f0       $L81639                    004263f0 f   MonitorThread.obj
 0001:000253fc       $L81641                    004263fc f   MonitorThread.obj
 0001:00025408       $L81642                    00426408 f   MonitorThread.obj
 0001:00025414       $L81644                    00426414 f   MonitorThread.obj
 0001:00025420       $L81645                    00426420 f   MonitorThread.obj
 0001:0002542c       $L81646                    0042642c f   MonitorThread.obj
 0001:00025438       $L81648                    00426438 f   MonitorThread.obj
 0001:00025444       $L81649                    00426444 f   MonitorThread.obj
 0001:00025450       $L81651                    00426450 f   MonitorThread.obj
 0001:0002545c       $L81652                    0042645c f   MonitorThread.obj
 0001:00025468       $L81654                    00426468 f   MonitorThread.obj
 0001:00025474       $L81655                    00426474 f   MonitorThread.obj
 0001:00025480       $L81657                    00426480 f   MonitorThread.obj
 0001:0002548c       $L81658                    0042648c f   MonitorThread.obj
 0001:00025498       __ehhandler$?RunInProcess@MonitorThread@@IAE_NHV?$basic_string@DU?$char_traits@D@std@@V?$allocator@D@2@@std@@0@Z 00426498 f   MonitorThread.obj
 0001:000254b0       $L81968                    004264b0 f   MonitorThread.obj
 0001:000254b0       $L85573                    004264b0 f   MonitorThread.obj
 0001:000254b9       $L85593                    004264b9 f   MonitorThread.obj
 0001:000254b9       $L81972                    004264b9 f   MonitorThread.obj
 0001:000254c2       __ehhandler$?_Incsize@?$list@PAVReturnValue@@V?$allocator@PAVReturnValue@@@std@@@std@@IAEXI@Z 004264c2 f   MonitorThread.obj
 0001:000254c2       __ehhandler$?_Xlen@?$vector@V?$basic_string@DU?$char_traits@D@std@@V?$allocator@D@2@@std@@V?$allocator@V?$basic_string@DU?$char_traits@D@std@@V?$allocator@D@2@@std@@@2@@std@@IBEXXZ 004264c2 f   MonitorThread.obj
 0001:000254d0       $L84826                    004264d0 f   MonitorThread.obj
 0001:000254e1       __ehhandler$??$_Uninit_copy@PAV?$basic_string@DU?$char_traits@D@std@@V?$allocator@D@2@@std@@PAV12@V?$allocator@V?$basic_string@DU?$char_traits@D@std@@V?$allocator@D@2@@std@@@2@@std@@YAPAV?$basic_string@DU?$char_traits@D@std@@V?$allocator@D@2@@0@PAV10@00AAV?$allocator@V?$basic_string@DU?$char_traits@D@std@@V?$allocator@D@2@@std@@@0@U_Nonscalar_ptr_iterator_tag@0@@Z 004264e1 f   MonitorThread.obj
 0001:000254f0       $L85693                    004264f0 f   MonitorThread.obj
 0001:000254f8       __ehhandler$??1?$hashnode@Vword@svutil@@V12@@svutil@@QAE@XZ 004264f8 f   MonitorThread.obj
 0001:00025510       $L85982                    00426510 f   MonitorThread.obj
 0001:00025521       __ehhandler$??$_Uninit_fill_n@PAV?$basic_string@DU?$char_traits@D@std@@V?$allocator@D@2@@std@@IV12@V?$allocator@V?$basic_string@DU?$char_traits@D@std@@V?$allocator@D@2@@std@@@2@@std@@YAXPAV?$basic_string@DU?$char_traits@D@std@@V?$allocator@D@2@@0@IABV10@AAV?$allocator@V?$basic_string@DU?$char_traits@D@std@@V?$allocator@D@2@@std@@@0@U_Nonscalar_ptr_iterator_tag@0@@Z 00426521 f   MonitorThread.obj
 0001:00025530       $L88142                    00426530 f   MonitorThread.obj
 0001:00025539       __ehhandler$?_Insert_n@?$vector@V?$basic_string@DU?$char_traits@D@std@@V?$allocator@D@2@@std@@V?$allocator@V?$basic_string@DU?$char_traits@D@std@@V?$allocator@D@2@@std@@@2@@std@@IAEXViterator@12@IABV?$basic_string@DU?$char_traits@D@std@@V?$allocator@D@2@@2@@Z 00426539 f   MonitorThread.obj
 0001:00025550       $L88714                    00426550 f   MonitorThread.obj
 0001:00025558       $L88715                    00426558 f   MonitorThread.obj
 0001:00025560       $L88716                    00426560 f   MonitorThread.obj
 0001:00025569       $L88717                    00426569 f   MonitorThread.obj
 0001:00025571       $L88718                    00426571 f   MonitorThread.obj
 0001:0002557a       $L88719                    0042657a f   MonitorThread.obj
 0001:00025582       $L88720                    00426582 f   MonitorThread.obj
 0001:0002558e       $L88721                    0042658e f   MonitorThread.obj
 0001:00025596       $L88722                    00426596 f   MonitorThread.obj
 0001:000255a2       __ehhandler$?ParserExpression@MonitorThread@@AAEHVTString@@AAV?$list@V?$basic_string@DU?$char_traits@D@std@@V?$allocator@D@2@@std@@V?$allocator@V?$basic_string@DU?$char_traits@D@std@@V?$allocator@D@2@@std@@@2@@std@@1@Z 004265a2 f   MonitorThread.obj
 0001:000255b0       $L89216                    004265b0 f   MonitorThread.obj
 0001:000255b0       $L90411                    004265b0 f   MonitorThread.obj
 0001:000255b8       __ehhandler$??0?$hashtable@Vword@svutil@@V12@@svutil@@QAE@XZ 004265b8 f   MonitorThread.obj
 0001:000255b8       __ehhandler$??1?$hashtable@Vword@svutil@@V12@@svutil@@QAE@XZ 004265b8 f   MonitorThread.obj
 0001:000255d0       $L89822                    004265d0 f   MonitorThread.obj
 0001:000255d8       $L89823                    004265d8 f   MonitorThread.obj
 0001:000255e4       $L89824                    004265e4 f   MonitorThread.obj
 0001:000255ef       $L89825                    004265ef f   MonitorThread.obj
 0001:000255fa       $L89826                    004265fa f   MonitorThread.obj
 0001:00025608       $L89827                    00426608 f   MonitorThread.obj
 0001:00025623       __ehhandler$??1MonitorThread@@UAE@XZ 00426623 f   MonitorThread.obj
 0001:00025630       $L90199                    00426630 f   MonitorThread.obj
 0001:0002563b       $L90200                    0042663b f   MonitorThread.obj
 0001:00025646       $L90202                    00426646 f   MonitorThread.obj
 0001:00025651       $L90203                    00426651 f   MonitorThread.obj
 0001:0002565d       $L90206                    0042665d f   MonitorThread.obj
 0001:00025669       $L90207                    00426669 f   MonitorThread.obj
 0001:00025675       $L90208                    00426675 f   MonitorThread.obj
 0001:00025681       $L90209                    00426681 f   MonitorThread.obj
 0001:0002568d       $L90210                    0042668d f   MonitorThread.obj
 0001:00025699       $L90212                    00426699 f   MonitorThread.obj
 0001:000256a5       __ehhandler$?ProcessResultV70@MonitorThread@@AAEXXZ 004266a5 f   MonitorThread.obj
 0001:000256b0       $L90785                    004266b0 f   MonitorThread.obj
 0001:000256b9       $L90786                    004266b9 f   MonitorThread.obj
 0001:000256c2       $L90788                    004266c2 f   MonitorThread.obj
 0001:000256cb       $L90787                    004266cb f   MonitorThread.obj
 0001:000256d4       __ehhandler$?String2Array@@YAXAAV?$vector@V?$basic_string@DU?$char_traits@D@std@@V?$allocator@D@2@@std@@V?$allocator@V?$basic_string@DU?$char_traits@D@std@@V?$allocator@D@2@@std@@@2@@std@@V?$basic_string@DU?$char_traits@D@std@@V?$allocator@D@2@@2@1@Z 004266d4 f   MonitorThread.obj
 0001:000256e0       $L90825                    004266e0 f   MonitorThread.obj
 0001:000256e8       $L90826                    004266e8 f   MonitorThread.obj
 0001:000256f4       $L90827                    004266f4 f   MonitorThread.obj
 0001:000256ff       $L90828                    004266ff f   MonitorThread.obj
 0001:0002570a       $L90829                    0042670a f   MonitorThread.obj
 0001:00025718       $L90830                    00426718 f   MonitorThread.obj
 0001:00025733       $L90831                    00426733 f   MonitorThread.obj
 0001:00025741       __ehhandler$??0MonitorThread@@QAE@XZ 00426741 f   MonitorThread.obj
 0001:00025750       $L90950                    00426750 f   MonitorThread.obj
 0001:0002575b       $L90951                    0042675b f   MonitorThread.obj
 0001:00025763       $L90952                    00426763 f   MonitorThread.obj
 0001:0002576e       $L90953                    0042676e f   MonitorThread.obj
 0001:00025777       $L90954                    00426777 f   MonitorThread.obj
 0001:00025783       __ehhandler$?CheckSingleItemState@MonitorThread@@AAEHPAVStateCondition@@H@Z 00426783 f   MonitorThread.obj
 0001:00025790       $L91509                    00426790 f   MonitorThread.obj
 0001:00025798       $L91510                    00426798 f   MonitorThread.obj
 0001:000257a0       $L91511                    004267a0 f   MonitorThread.obj
 0001:000257a8       $L91689                    004267a8 f   MonitorThread.obj
 0001:000257b1       __ehhandler$?CheckStateByType@MonitorThread@@AAEHH@Z 004267b1 f   MonitorThread.obj
 0001:000257c0       $L92782                    004267c0 f   MonitorThread.obj
 0001:000257c9       $L92783                    004267c9 f   MonitorThread.obj
 0001:000257d2       $L92784                    004267d2 f   MonitorThread.obj
 0001:000257db       $L92785                    004267db f   MonitorThread.obj
 0001:000257e7       $L92786                    004267e7 f   MonitorThread.obj
 0001:000257f3       $L92787                    004267f3 f   MonitorThread.obj
 0001:000257fe       $L92788                    004267fe f   MonitorThread.obj
 0001:00025809       __ehhandler$?BulidStringMap@MonitorThread@@AAE_NAAV?$hashtable@Vword@svutil@@V12@@svutil@@PBD@Z 00426809 f   MonitorThread.obj
 0001:00025820       $L92850                    00426820 f   MonitorThread.obj
 0001:0002582b       $L92851                    0042682b f   MonitorThread.obj
 0001:00025836       $L92852                    00426836 f   MonitorThread.obj
 0001:00025844       $L92853                    00426844 f   MonitorThread.obj
 0001:0002584f       $L92854                    0042684f f   MonitorThread.obj
 0001:0002585b       __ehhandler$?PaserResultV70@MonitorThread@@AAEHXZ 0042685b f   MonitorThread.obj
 0001:00025870       $L93118                    00426870 f   MonitorThread.obj
 0001:00025878       $L93119                    00426878 f   MonitorThread.obj
 0001:00025880       $L93120                    00426880 f   MonitorThread.obj
 0001:00025888       $L93121                    00426888 f   MonitorThread.obj
 0001:00025893       $L93122                    00426893 f   MonitorThread.obj
 0001:0002589e       $L93123                    0042689e f   MonitorThread.obj
 0001:000258aa       __ehhandler$?RunMonitor@MonitorThread@@IAEXXZ 004268aa f   MonitorThread.obj
 0001:000258c0       $L93378                    004268c0 f   MonitorThread.obj
 0001:000258c8       __ehhandler$?run@MonitorThread@@UAEXXZ 004268c8 f   MonitorThread.obj
 0001:000258e0       $L28027                    004268e0 f   MSGQueue.obj
 0001:000258ee       $L28028                    004268ee f   MSGQueue.obj
 0001:000258fd       $L28029                    004268fd f   MSGQueue.obj
 0001:0002590c       __ehhandler$??0MSGQueue@@QAE@XZ 0042690c f   MSGQueue.obj
 0001:00025920       $L28124                    00426920 f   MSGQueue.obj
 0001:0002592e       $L28125                    0042692e f   MSGQueue.obj
 0001:0002593d       __ehhandler$??1MSGQueue@@QAE@XZ 0042693d f   MSGQueue.obj
 0001:00025950       $L48821                    00426950 f   ommunicationThread.obj
 0001:00025959       $L48822                    00426959 f   ommunicationThread.obj
 0001:00025965       $L48823                    00426965 f   ommunicationThread.obj
 0001:00025971       $L48825                    00426971 f   ommunicationThread.obj
 0001:0002597d       $L48826                    0042697d f   ommunicationThread.obj
 0001:00025989       $L48828                    00426989 f   ommunicationThread.obj
 0001:00025995       $L48829                    00426995 f   ommunicationThread.obj
 0001:000259a1       $L48831                    004269a1 f   ommunicationThread.obj
 0001:000259aa       $L48832                    004269aa f   ommunicationThread.obj
 0001:000259b6       __ehhandler$?run@CommunicationThread@@UAEXXZ 004269b6 f   ommunicationThread.obj
 0001:000259c0       $L44911                    004269c0 f   Option.obj
 0001:000259cc       $L44912                    004269cc f   Option.obj
 0001:000259d8       $L44913                    004269d8 f   Option.obj
 0001:000259e4       $L44914                    004269e4 f   Option.obj
 0001:000259f0       __ehhandler$??0Option@@QAE@XZ 004269f0 f   Option.obj
 0001:00025a00       $L49820                    00426a00 f   Option.obj
 0001:00025a0c       $L49821                    00426a0c f   Option.obj
 0001:00025a17       $L49822                    00426a17 f   Option.obj
 0001:00025a23       $L49823                    00426a23 f   Option.obj
 0001:00025a2f       $L49824                    00426a2f f   Option.obj
 0001:00025a3b       $L49825                    00426a3b f   Option.obj
 0001:00025a47       $L49826                    00426a47 f   Option.obj
 0001:00025a53       $L49827                    00426a53 f   Option.obj
 0001:00025a5f       $L49828                    00426a5f f   Option.obj
 0001:00025a6b       $L49829                    00426a6b f   Option.obj
 0001:00025a77       $L49830                    00426a77 f   Option.obj
 0001:00025a83       $L49831                    00426a83 f   Option.obj
 0001:00025a8f       $L49832                    00426a8f f   Option.obj
 0001:00025a9b       $L49833                    00426a9b f   Option.obj
 0001:00025aa7       __ehhandler$?LoadOption@Option@@QAE_NXZ 00426aa7 f   Option.obj
 0001:00025ac0       $L43008                    00426ac0 f   ProcessMonitorData.obj
 0001:00025acc       $L43009                    00426acc f   ProcessMonitorData.obj
 0001:00025ad8       __ehhandler$??0ProcessMonitorData@@QAE@XZ 00426ad8 f   ProcessMonitorData.obj
 0001:00025af0       $L43025                    00426af0 f   ProcessMonitorData.obj
 0001:00025afc       __ehhandler$??1ProcessMonitorData@@QAE@XZ 00426afc f   ProcessMonitorData.obj
 0001:00025b10       __ehhandler$?CreateObjectByRawData@ProcessMonitorData@@QAE_NPBDH@Z 00426b10 f   ProcessMonitorData.obj
 0001:00025b20       $L48466                    00426b20 f   QueueItem.obj
 0001:00025b2b       __ehhandler$??1QueueItem@@UAE@XZ 00426b2b f   QueueItem.obj
 0001:00025b40       $L48510                    00426b40 f   QueueItem.obj
 0001:00025b49       __ehhandler$?Push@QueueItem@@QAEXPAVMonitor@@H@Z 00426b49 f   QueueItem.obj
 0001:00025b60       $L48694                    00426b60 f   QueueItem.obj
 0001:00025b69       __ehhandler$?Pop@QueueItem@@QAEPAVMonitor@@XZ 00426b69 f   QueueItem.obj
 0001:00025b80       $L51492                    00426b80 f   QueuesManager.obj
 0001:00025b88       __ehhandler$?Push@QueuesManager@@QAEHPAVMonitor@@H@Z 00426b88 f   QueuesManager.obj
 0001:00025ba0       $L51595                    00426ba0 f   QueuesManager.obj
 0001:00025bab       __ehhandler$??0QueueItem@@QAE@PBD@Z 00426bab f   QueuesManager.obj
 0001:00025bc0       $L51701                    00426bc0 f   QueuesManager.obj
 0001:00025bcb       __ehhandler$?CreateQueueBySubsequent@QueuesManager@@AAEHXZ 00426bcb f   QueuesManager.obj
 0001:00025be0       $L51804                    00426be0 f   QueuesManager.obj
 0001:00025bee       __ehhandler$?CreateMainQueue@QueuesManager@@AAEHXZ 00426bee f   QueuesManager.obj
 0001:00025c00       $L54817                    00426c00 f   readSVDB.obj
 0001:00025c09       __ehhandler$??1sv_pair@@QAE@XZ 00426c09 f   readSVDB.obj
 0001:00025c20       $L54926                    00426c20 f   readSVDB.obj
 0001:00025c20       $L54915                    00426c20 f   readSVDB.obj
 0001:00025c29       $L54927                    00426c29 f   readSVDB.obj
 0001:00025c29       $L54916                    00426c29 f   readSVDB.obj
 0001:00025c35       __ehhandler$??1readSVDB@@QAE@XZ 00426c35 f   readSVDB.obj
 0001:00025c35       __ehhandler$??0readSVDB@@QAE@XZ 00426c35 f   readSVDB.obj
 0001:00025c40       $L54965                    00426c40 f   readSVDB.obj
 0001:00025c49       $L54966                    00426c49 f   readSVDB.obj
 0001:00025c52       $L54967                    00426c52 f   readSVDB.obj
 0001:00025c5b       $L54968                    00426c5b f   readSVDB.obj
 0001:00025c64       $L54970                    00426c64 f   readSVDB.obj
 0001:00025c6d       __ehhandler$?GetSGProValue@readSVDB@@QAE_NV?$basic_string@DU?$char_traits@D@std@@V?$allocator@D@2@@std@@0AAV23@@Z 00426c6d f   readSVDB.obj
 0001:00025c80       $L55447                    00426c80 f   readSVDB.obj
 0001:00025c88       __ehhandler$??0?$hashelement@Vword@svutil@@PAVTask@@@svutil@@QAE@ABVword@1@ABQAVTask@@@Z 00426c88 f   readSVDB.obj
 0001:00025ca0       $L55820                    00426ca0 f   readSVDB.obj
 0001:00025ca0       $L55783                    00426ca0 f   readSVDB.obj
 0001:00025ca8       __ehhandler$??O?$treenode@V?$hashelement@Vword@svutil@@PAVTask@@@svutil@@@svutil@@QAE_NV01@@Z 00426ca8 f   readSVDB.obj
 0001:00025ca8       __ehhandler$??M?$treenode@V?$hashelement@Vword@svutil@@PAVTask@@@svutil@@@svutil@@QAE_NV01@@Z 00426ca8 f   readSVDB.obj
 0001:00025cc0       $L57842                    00426cc0 f   readSVDB.obj
 0001:00025cc0       $L56213                    00426cc0 f   readSVDB.obj
 0001:00025ccb       __ehhandler$??0?$treenode@V?$hashelement@Vword@svutil@@PAVTask@@@svutil@@@svutil@@QAE@ABV?$hashelement@Vword@svutil@@PAVTask@@@1@@Z 00426ccb f   readSVDB.obj
 0001:00025ccb       __ehhandler$??0?$treenode@V?$hashelement@Vword@svutil@@PAVTask@@@svutil@@@svutil@@QAE@ABV01@@Z 00426ccb f   readSVDB.obj
 0001:00025ce0       $L58906                    00426ce0 f   readSVDB.obj
 0001:00025ce9       $L58907                    00426ce9 f   readSVDB.obj
 0001:00025d02       __ehhandler$??$make_pair@V?$basic_string@DU?$char_traits@D@std@@V?$allocator@D@2@@std@@PAX@std@@YA?AU?$pair@V?$basic_string@DU?$char_traits@D@std@@V?$allocator@D@2@@std@@PAX@0@V?$basic_string@DU?$char_traits@D@std@@V?$allocator@D@2@@0@PAX@Z 00426d02 f   readSVDB.obj
 0001:00025d10       $L68965                    00426d10 f   readSVDB.obj
 0001:00025d10       $L58978                    00426d10 f   readSVDB.obj
 0001:00025d1b       __ehhandler$??$CreateNode@V?$hashelement@Vword@svutil@@PAVTask@@@svutil@@@?$sorttree@V?$hashelement@Vword@svutil@@PAVTask@@@svutil@@@svutil@@SAPAV?$treenode@V?$hashelement@Vword@svutil@@PAVTask@@@svutil@@@1@ABV?$hashelement@Vword@svutil@@PAVTask@@@1@@Z 00426d1b f   readSVDB.obj
 0001:00025d1b       __ehhandler$?insert@?$hashtable@Vword@svutil@@PAVTask@@@svutil@@QAEAAPAVTask@@ABVword@2@ABQAV3@@Z 00426d1b f   readSVDB.obj
 0001:00025d30       $L60195                    00426d30 f   readSVDB.obj
 0001:00025d41       __ehhandler$?_Buynode@?$_Tree@V?$_Tmap_traits@V?$basic_string@DU?$char_traits@D@std@@V?$allocator@D@2@@std@@PAXU?$less@V?$basic_string@DU?$char_traits@D@std@@V?$allocator@D@2@@std@@@2@V?$allocator@U?$pair@$$CBV?$basic_string@DU?$char_traits@D@std@@V?$allocator@D@2@@std@@PAX@std@@@2@$0A@@std@@@std@@IAEPAU_Node@?$_Tree_nod@V?$_Tmap_traits@V?$basic_string@DU?$char_traits@D@std@@V?$allocator@D@2@@std@@PAXU?$less@V?$basic_string@DU?$char_traits@D@std@@V?$allocator@D@2@@std@@@2@V?$allocator@U?$pair@$$CBV?$basic_string@DU?$char_traits@D@std@@V?$allocator@D@2@@std@@PAX@std@@@2@$0A@@std@@@2@PAU342@00ABU?$pair@$$CBV?$basic_string@DU?$char_traits@D@std@@V?$allocator@D@2@@std@@PAX@2@D@Z 00426d41 f   readSVDB.obj
 0001:00025d50       $L60120                    00426d50 f   readSVDB.obj
 0001:00025d50       $L62171                    00426d50 f   readSVDB.obj
 0001:00025d50       $L55363                    00426d50 f   readSVDB.obj
 0001:00025d50       $L61554                    00426d50 f   readSVDB.obj
 0001:00025d50       $L55485                    00426d50 f   readSVDB.obj
 0001:00025d50       $L62575                    00426d50 f   readSVDB.obj
 0001:00025d50       $L61274                    00426d50 f   readSVDB.obj
 0001:00025d59       $L60140                    00426d59 f   readSVDB.obj
 0001:00025d59       $L61294                    00426d59 f   readSVDB.obj
 0001:00025d59       $L62585                    00426d59 f   readSVDB.obj
 0001:00025d59       $L55489                    00426d59 f   readSVDB.obj
 0001:00025d59       $L61574                    00426d59 f   readSVDB.obj
 0001:00025d59       $L62181                    00426d59 f   readSVDB.obj
 0001:00025d59       $L55367                    00426d59 f   readSVDB.obj
 0001:00025d62       __ehhandler$?_Insert@?$_Tree@V?$_Tmap_traits@HPAXU?$less@H@std@@V?$allocator@U?$pair@$$CBHPAX@std@@@2@$0A@@std@@@std@@IAE?AViterator@12@_NPAU_Node@?$_Tree_nod@V?$_Tmap_traits@HPAXU?$less@H@std@@V?$allocator@U?$pair@$$CBHPAX@std@@@2@$0A@@std@@@2@ABU?$pair@$$CBHPAX@2@@Z 00426d62 f   readSVDB.obj
 0001:00025d62       __ehhandler$?_Xlen@?$vector@UPairTime@@V?$allocator@UPairTime@@@std@@@std@@IBEXXZ 00426d62 f   readSVDB.obj
 0001:00025d62       __ehhandler$?_Xlen@?$vector@U?$pair@HH@std@@V?$allocator@U?$pair@HH@std@@@2@@std@@IBEXXZ 00426d62 f   readSVDB.obj
 0001:00025d62       __ehhandler$?erase@?$_Tree@V?$_Tmap_traits@HPAXU?$less@H@std@@V?$allocator@U?$pair@$$CBHPAX@std@@@2@$0A@@std@@@std@@QAE?AViterator@12@V312@@Z 00426d62 f   readSVDB.obj
 0001:00025d62       __ehhandler$?erase@?$_Tree@V?$_Tmap_traits@V?$basic_string@DU?$char_traits@D@std@@V?$allocator@D@2@@std@@PAXU?$less@V?$basic_string@DU?$char_traits@D@std@@V?$allocator@D@2@@std@@@2@V?$allocator@U?$pair@$$CBV?$basic_string@DU?$char_traits@D@std@@V?$allocator@D@2@@std@@PAX@std@@@2@$0A@@std@@@std@@QAE?AViterator@12@V312@@Z 00426d62 f   readSVDB.obj
 0001:00025d62       __ehhandler$?_Insert@?$_Tree@V?$_Tmap_traits@V?$basic_string@DU?$char_traits@D@std@@V?$allocator@D@2@@std@@PAXU?$less@V?$basic_string@DU?$char_traits@D@std@@V?$allocator@D@2@@std@@@2@V?$allocator@U?$pair@$$CBV?$basic_string@DU?$char_traits@D@std@@V?$allocator@D@2@@std@@PAX@std@@@2@$0A@@std@@@std@@IAE?AViterator@12@_NPAU_Node@?$_Tree_nod@V?$_Tmap_traits@V?$basic_string@DU?$char_traits@D@std@@V?$allocator@D@2@@std@@PAXU?$less@V?$basic_string@DU?$char_traits@D@std@@V?$allocator@D@2@@std@@@2@V?$allocator@U?$pair@$$CBV?$basic_string@DU?$char_traits@D@std@@V?$allocator@D@2@@std@@PAX@std@@@2@$0A@@std@@@2@ABU?$pair@$$CBV?$basic_string@DU?$char_traits@D@std@@V?$allocator@D@2@@std@@PAX@2@@Z 00426d62 f   readSVDB.obj
 0001:00025d62       __ehhandler$?_Incsize@?$list@PAVSubsequentItem@@V?$allocator@PAVSubsequentItem@@@std@@@std@@IAEXI@Z 00426d62 f   readSVDB.obj
 0001:00025d70       $L64062                    00426d70 f   readSVDB.obj
 0001:00025d78       __ehhandler$?insert@?$hashnode@Vword@svutil@@PAVTask@@@svutil@@QAEAAV?$hashelement@Vword@svutil@@PAVTask@@@2@ABVword@2@ABQAVTask@@@Z 00426d78 f   readSVDB.obj
 0001:00025d90       __ehhandler$?_Insert_n@?$vector@U?$pair@HH@std@@V?$allocator@U?$pair@HH@std@@@2@@std@@IAEXViterator@12@IABU?$pair@HH@2@@Z 00426d90 f   readSVDB.obj
 0001:00025da0       $L64927                    00426da0 f   readSVDB.obj
 0001:00025da9       __ehhandler$?FastGetMonitorTPL@readSVDB@@AAEPAXH@Z 00426da9 f   readSVDB.obj
 0001:00025dc0       $L65420                    00426dc0 f   readSVDB.obj
 0001:00025dc0       $L65215                    00426dc0 f   readSVDB.obj
 0001:00025dc0       $L65010                    00426dc0 f   readSVDB.obj
 0001:00025dc9       $L65011                    00426dc9 f   readSVDB.obj
 0001:00025dc9       $L65421                    00426dc9 f   readSVDB.obj
 0001:00025dc9       $L65216                    00426dc9 f   readSVDB.obj
 0001:00025dd2       $L65012                    00426dd2 f   readSVDB.obj
 0001:00025dd2       $L65422                    00426dd2 f   readSVDB.obj
 0001:00025dd2       $L65217                    00426dd2 f   readSVDB.obj
 0001:00025ddb       $L65015                    00426ddb f   readSVDB.obj
 0001:00025ddb       $L65425                    00426ddb f   readSVDB.obj
 0001:00025ddb       $L65220                    00426ddb f   readSVDB.obj
 0001:00025de3       $L65426                    00426de3 f   readSVDB.obj
 0001:00025de3       $L65016                    00426de3 f   readSVDB.obj
 0001:00025de3       $L65221                    00426de3 f   readSVDB.obj
 0001:00025deb       __ehhandler$?FastGetMonitor@readSVDB@@AAEPAXV?$basic_string@DU?$char_traits@D@std@@V?$allocator@D@2@@std@@@Z 00426deb f   readSVDB.obj
 0001:00025deb       __ehhandler$?FastGetEntity@readSVDB@@AAEPAXV?$basic_string@DU?$char_traits@D@std@@V?$allocator@D@2@@std@@@Z 00426deb f   readSVDB.obj
 0001:00025deb       __ehhandler$?FastGetEntityTPL@readSVDB@@AAEPAXV?$basic_string@DU?$char_traits@D@std@@V?$allocator@D@2@@std@@@Z 00426deb f   readSVDB.obj
 0001:00025e00       $L65636                    00426e00 f   readSVDB.obj
 0001:00025e09       $L65637                    00426e09 f   readSVDB.obj
 0001:00025e12       $L65639                    00426e12 f   readSVDB.obj
 0001:00025e1e       $L65642                    00426e1e f   readSVDB.obj
 0001:00025e2a       $L65644                    00426e2a f   readSVDB.obj
 0001:00025e36       $L65645                    00426e36 f   readSVDB.obj
 0001:00025e42       $L65650                    00426e42 f   readSVDB.obj
 0001:00025e4d       __ehhandler$?GetMonitorParaValueByName@readSVDB@@QAE_NV?$basic_string@DU?$char_traits@D@std@@V?$allocator@D@2@@std@@0AAV23@@Z 00426e4d f   readSVDB.obj
 0001:00025e60       $L65718                    00426e60 f   readSVDB.obj
 0001:00025e69       $L65720                    00426e69 f   readSVDB.obj
 0001:00025e72       $L65721                    00426e72 f   readSVDB.obj
 0001:00025e7b       __ehhandler$?GetSMCommon@readSVDB@@QAE_NPAVMonitor@@V?$basic_string@DU?$char_traits@D@std@@V?$allocator@D@2@@std@@@Z 00426e7b f   readSVDB.obj
 0001:00025e90       $L65875                    00426e90 f   readSVDB.obj
 0001:00025e90       $L65966                    00426e90 f   readSVDB.obj
 0001:00025e99       $L65876                    00426e99 f   readSVDB.obj
 0001:00025e99       $L65967                    00426e99 f   readSVDB.obj
 0001:00025ea2       $L65968                    00426ea2 f   readSVDB.obj
 0001:00025ea2       $L65878                    00426ea2 f   readSVDB.obj
 0001:00025eab       __ehhandler$?GetEntityConfigValue@readSVDB@@QAE_NV?$basic_string@DU?$char_traits@D@std@@V?$allocator@D@2@@std@@0AAV23@@Z 00426eab f   readSVDB.obj
 0001:00025eab       __ehhandler$?GetMLValue@readSVDB@@QAE_NV?$basic_string@DU?$char_traits@D@std@@V?$allocator@D@2@@std@@0AAV23@@Z 00426eab f   readSVDB.obj
 0001:00025ec0       $L68662                    00426ec0 f   readSVDB.obj
 0001:00025ec0       $L66391                    00426ec0 f   readSVDB.obj
 0001:00025ec0       $L66002                    00426ec0 f   readSVDB.obj
 0001:00025ec9       $L68665                    00426ec9 f   readSVDB.obj
 0001:00025ec9       $L66393                    00426ec9 f   readSVDB.obj
 0001:00025ec9       $L66003                    00426ec9 f   readSVDB.obj
 0001:00025ed2       __ehhandler$?GetConditionString@readSVDB@@QAE_NV?$basic_string@DU?$char_traits@D@std@@V?$allocator@D@2@@std@@IAAV23@@Z 00426ed2 f   readSVDB.obj
 0001:00025ed2       __ehhandler$?GetMLRunParaNames@readSVDB@@QAE_NV?$basic_string@DU?$char_traits@D@std@@V?$allocator@D@2@@std@@AAV?$list@V?$basic_string@DU?$char_traits@D@std@@V?$allocator@D@2@@std@@V?$allocator@V?$basic_string@DU?$char_traits@D@std@@V?$allocator@D@2@@std@@@2@@3@@Z 00426ed2 f   readSVDB.obj
 0001:00025ed2       __ehhandler$?GetMonitorBaselineFlag@readSVDB@@QAE_NV?$basic_string@DU?$char_traits@D@std@@V?$allocator@D@2@@std@@@Z 00426ed2 f   readSVDB.obj
 0001:00025ee0       $L66180                    00426ee0 f   readSVDB.obj
 0001:00025ee9       $L66182                    00426ee9 f   readSVDB.obj
 0001:00025ef2       $L66183                    00426ef2 f   readSVDB.obj
 0001:00025efd       $L66187                    00426efd f   readSVDB.obj
 0001:00025f06       __ehhandler$?GetMLReturnDataList@readSVDB@@QAE_NAAV?$list@PAVReturnData@@V?$allocator@PAVReturnData@@@std@@@std@@H@Z 00426f06 f   readSVDB.obj
 0001:00025f10       __ehhandler$?_Insert_n@?$vector@UPairTime@@V?$allocator@UPairTime@@@std@@@std@@IAEXViterator@12@IABUPairTime@@@Z 00426f10 f   readSVDB.obj
 0001:00025f20       $L68641                    00426f20 f   readSVDB.obj
 0001:00025f29       __ehhandler$?SetSvdbAddr@readSVDB@@QAE_NV?$basic_string@DU?$char_traits@D@std@@V?$allocator@D@2@@std@@@Z 00426f29 f   readSVDB.obj
 0001:00025f40       $L68720                    00426f40 f   readSVDB.obj
 0001:00025f49       $L68723                    00426f49 f   readSVDB.obj
 0001:00025f52       $L68726                    00426f52 f   readSVDB.obj
 0001:00025f5d       __ehhandler$?GetSMStateConditionItemList@readSVDB@@QAE_NV?$basic_string@DU?$char_traits@D@std@@V?$allocator@D@2@@std@@AAV?$list@PAVStateConditionItem@@V?$allocator@PAVStateConditionItem@@@std@@@3@I@Z 00426f5d f   readSVDB.obj
 0001:00025f70       $L69654                    00426f70 f   readSVDB.obj
 0001:00025f7b       $L69655                    00426f7b f   readSVDB.obj
 0001:00025f87       $L69656                    00426f87 f   readSVDB.obj
 0001:00025f93       $L69658                    00426f93 f   readSVDB.obj
 0001:00025fa1       $L69659                    00426fa1 f   readSVDB.obj
 0001:00025faa       $L69660                    00426faa f   readSVDB.obj
 0001:00025fb3       $L69661                    00426fb3 f   readSVDB.obj
 0001:00025fbc       $L69662                    00426fbc f   readSVDB.obj
 0001:00025fc5       $L69663                    00426fc5 f   readSVDB.obj
 0001:00025fce       $L69664                    00426fce f   readSVDB.obj
 0001:00025fd7       $L69666                    00426fd7 f   readSVDB.obj
 0001:00025fe0       $L69667                    00426fe0 f   readSVDB.obj
 0001:00025fe9       $L69668                    00426fe9 f   readSVDB.obj
 0001:00025ff2       $L69669                    00426ff2 f   readSVDB.obj
 0001:00025ffb       $L69670                    00426ffb f   readSVDB.obj
 0001:00026004       $L69671                    00427004 f   readSVDB.obj
 0001:0002600d       $L69673                    0042700d f   readSVDB.obj
 0001:00026016       __ehhandler$?GetSubsequentList@readSVDB@@QAEHAAV?$list@PAVSubsequentItem@@V?$allocator@PAVSubsequentItem@@@std@@@std@@@Z 00427016 f   readSVDB.obj
 0001:00026020       $L70733                    00427020 f   readSVDB.obj
 0001:0002602b       $L70734                    0042702b f   readSVDB.obj
 0001:00026037       $L70735                    00427037 f   readSVDB.obj
 0001:00026040       $L70736                    00427040 f   readSVDB.obj
 0001:00026049       $L71047                    00427049 f   readSVDB.obj
 0001:00026052       __ehhandler$?GetMonitorIDLSTBySE@readSVDB@@QAEJAAV?$list@V?$basic_string@DU?$char_traits@D@std@@V?$allocator@D@2@@std@@V?$allocator@V?$basic_string@DU?$char_traits@D@std@@V?$allocator@D@2@@std@@@2@@std@@H@Z 00427052 f   readSVDB.obj
 0001:00026060       $L71231                    00427060 f   readSVDB.obj
 0001:00026069       $L71233                    00427069 f   readSVDB.obj
 0001:00026075       $L71236                    00427075 f   readSVDB.obj
 0001:00026080       $L71237                    00427080 f   readSVDB.obj
 0001:0002608c       $L71238                    0042708c f   readSVDB.obj
 0001:00026098       $L71241                    00427098 f   readSVDB.obj
 0001:000260a3       $L71242                    004270a3 f   readSVDB.obj
 0001:000260af       $L71243                    004270af f   readSVDB.obj
 0001:000260bb       $L71244                    004270bb f   readSVDB.obj
 0001:000260c6       $L71245                    004270c6 f   readSVDB.obj
 0001:000260d2       $L71246                    004270d2 f   readSVDB.obj
 0001:000260de       __ehhandler$?GetEntityList@readSVDB@@QAE_NV?$basic_string@DU?$char_traits@D@std@@V?$allocator@D@2@@std@@AAV?$list@V?$basic_string@DU?$char_traits@D@std@@V?$allocator@D@2@@std@@V?$allocator@V?$basic_string@DU?$char_traits@D@std@@V?$allocator@D@2@@std@@@2@@3@@Z 004270de f   readSVDB.obj
 0001:000260f0       $L72179                    004270f0 f   readSVDB.obj
 0001:000260f8       $L72180                    004270f8 f   readSVDB.obj
 0001:00026101       $L72181                    00427101 f   readSVDB.obj
 0001:0002610a       $L72521                    0042710a f   readSVDB.obj
 0001:00026113       __ehhandler$?GetEntityIDListBySE@readSVDB@@QAE_NAAV?$list@V?$basic_string@DU?$char_traits@D@std@@V?$allocator@D@2@@std@@V?$allocator@V?$basic_string@DU?$char_traits@D@std@@V?$allocator@D@2@@std@@@2@@std@@H@Z 00427113 f   readSVDB.obj
 0001:00026120       $L72693                    00427120 f   readSVDB.obj
 0001:00026128       $L72694                    00427128 f   readSVDB.obj
 0001:00026131       $L72695                    00427131 f   readSVDB.obj
 0001:0002613a       $L73002                    0042713a f   readSVDB.obj
 0001:00026143       __ehhandler$?GetGroupIDList@readSVDB@@QAE_NAAV?$list@V?$basic_string@DU?$char_traits@D@std@@V?$allocator@D@2@@std@@V?$allocator@V?$basic_string@DU?$char_traits@D@std@@V?$allocator@D@2@@std@@@2@@std@@@Z 00427143 f   readSVDB.obj
 0001:00026150       $L74264                    00427150 f   readSVDB.obj
 0001:0002615b       $L74265                    0042715b f   readSVDB.obj
 0001:00026167       $L74267                    00427167 f   readSVDB.obj
 0001:00026173       $L74268                    00427173 f   readSVDB.obj
 0001:0002617f       $L74270                    0042717f f   readSVDB.obj
 0001:0002618d       $L74271                    0042718d f   readSVDB.obj
 0001:00026198       $L74272                    00427198 f   readSVDB.obj
 0001:000261a4       $L74274                    004271a4 f   readSVDB.obj
 0001:000261b0       $L74275                    004271b0 f   readSVDB.obj
 0001:000261bb       $L74276                    004271bb f   readSVDB.obj
 0001:000261c6       $L74278                    004271c6 f   readSVDB.obj
 0001:000261d2       $L74280                    004271d2 f   readSVDB.obj
 0001:000261de       $L74281                    004271de f   readSVDB.obj
 0001:000261ea       $L74282                    004271ea f   readSVDB.obj
 0001:000261f6       $L74286                    004271f6 f   readSVDB.obj
 0001:00026202       $L74287                    00427202 f   readSVDB.obj
 0001:0002620e       $L74288                    0042720e f   readSVDB.obj
 0001:0002621a       __ehhandler$?GetTaskMap@readSVDB@@QAE_NAAV?$hashtable@Vword@svutil@@PAVTask@@@svutil@@@Z 0042721a f   readSVDB.obj
 0001:00026230       $L42963                    00427230 f   ReturnData.obj
 0001:00026230       $L42946                    00427230 f   ReturnData.obj
 0001:0002623b       __ehhandler$??1ReturnData@@QAE@XZ 0042723b f   ReturnData.obj
 0001:0002623b       __ehhandler$??0ReturnData@@QAE@XZ 0042723b f   ReturnData.obj
 0001:00026250       $L55454                    00427250 f   ScheduleThread.obj
 0001:00026259       __ehhandler$??0TString@@QAE@V?$basic_string@DU?$char_traits@D@std@@V?$allocator@D@2@@std@@@Z 00427259 f   ScheduleThread.obj
 0001:00026270       $L58286                    00427270 f   ScheduleThread.obj
 0001:0002627b       $L58287                    0042727b f   ScheduleThread.obj
 0001:00026286       $L58288                    00427286 f   ScheduleThread.obj
 0001:0002628e       $L58289                    0042728e f   ScheduleThread.obj
 0001:00026296       $L58290                    00427296 f   ScheduleThread.obj
 0001:000262a2       $L58292                    004272a2 f   ScheduleThread.obj
 0001:000262aa       $L58295                    004272aa f   ScheduleThread.obj
 0001:000262b6       $L58297                    004272b6 f   ScheduleThread.obj
 0001:000262be       $L58298                    004272be f   ScheduleThread.obj
 0001:000262ca       $L58300                    004272ca f   ScheduleThread.obj
 0001:000262d2       $L58304                    004272d2 f   ScheduleThread.obj
 0001:000262dd       $L58308                    004272dd f   ScheduleThread.obj
 0001:000262e8       $L58309                    004272e8 f   ScheduleThread.obj
 0001:000262f4       $L58315                    004272f4 f   ScheduleThread.obj
 0001:000262ff       $L58319                    004272ff f   ScheduleThread.obj
 0001:0002630a       $L58323                    0042730a f   ScheduleThread.obj
 0001:00026312       $L58324                    00427312 f   ScheduleThread.obj
 0001:0002631b       $L58327                    0042731b f   ScheduleThread.obj
 0001:00026323       $L58328                    00427323 f   ScheduleThread.obj
 0001:0002632c       __ehhandler$?run@ScheduleThread@@UAEXXZ 0042732c f   ScheduleThread.obj
 0001:00026340       $L59262                    00427340 f   ScheduleThread.obj
 0001:00026348       $L59263                    00427348 f   ScheduleThread.obj
 0001:00026354       $L59264                    00427354 f   ScheduleThread.obj
 0001:00026362       __ehhandler$??0ThreadContrl@@QAE@PAVMonitorSchMain@@@Z 00427362 f   ScheduleThread.obj
 0001:00026370       $L59379                    00427370 f   ScheduleThread.obj
 0001:0002637c       $L59381                    0042737c f   ScheduleThread.obj
 0001:00026385       $L59386                    00427385 f   ScheduleThread.obj
 0001:00026393       __ehhandler$?Init@ScheduleThread@@QAEHXZ 00427393 f   ScheduleThread.obj
 0001:000263a0       $L57037                    004273a0 f   SerialData.obj
 0001:000263a9       $L57038                    004273a9 f   SerialData.obj
 0001:000263b2       $L57039                    004273b2 f   SerialData.obj
 0001:000263bb       $L57040                    004273bb f   SerialData.obj
 0001:000263c3       __ehhandler$?CovertStringToMap@SerialData@@AAE_NV?$basic_string@DU?$char_traits@D@std@@V?$allocator@D@2@@std@@AAV?$hashtable@Vword@svutil@@V12@@svutil@@@Z 004273c3 f   SerialData.obj
 0001:000263d0       $L57153                    004273d0 f   SerialData.obj
 0001:000263db       $L57154                    004273db f   SerialData.obj
 0001:000263e7       $L57156                    004273e7 f   SerialData.obj
 0001:000263f5       $L57160                    004273f5 f   SerialData.obj
 0001:00026403       $L57161                    00427403 f   SerialData.obj
 0001:0002640e       __ehhandler$?Serial@SerialData@@AAEHPAU_iobuf@@AAV?$list@PAVMonitor@@V?$allocator@PAVMonitor@@@std@@@std@@PAVGroups@@PAVSubsequent@@AAV?$hashtable@Vword@svutil@@PAVTask@@@svutil@@_N@Z 0042740e f   SerialData.obj
 0001:00026420       $L45709                    00427420 f   StateCondition.obj
 0001:0002642b       $L45710                    0042742b f   StateCondition.obj
 0001:00026436       __ehhandler$??1StateCondition@@QAE@XZ 00427436 f   StateCondition.obj
 0001:00026440       $L46024                    00427440 f   StateCondition.obj
 0001:0002644b       __ehhandler$??0StateCondition@@QAE@XZ 0042744b f   StateCondition.obj
 0001:00026460       $L42946                    00427460 f   StateConditionItem.obj
 0001:00026460       $L42963                    00427460 f   StateConditionItem.obj
 0001:0002646b       __ehhandler$??0StateConditionItem@@QAE@XZ 0042746b f   StateConditionItem.obj
 0001:0002646b       __ehhandler$??1StateConditionItem@@QAE@XZ 0042746b f   StateConditionItem.obj
 0001:00026480       $L19388                    00427480 f   stlini.obj
 0001:00026480       $L20281                    00427480 f   stlini.obj
 0001:00026480       $L26779                    00427480 f   stlini.obj
 0001:00026480       $L19456                    00427480 f   stlini.obj
 0001:00026480       $L20073                    00427480 f   stlini.obj
 0001:00026480       $L26763                    00427480 f   stlini.obj
 0001:00026480       $L26799                    00427480 f   stlini.obj
 0001:00026489       __ehhandler$??1?$pair@V?$basic_string@DU?$char_traits@D@std@@V?$allocator@D@2@@std@@V12@@std@@QAE@XZ 00427489 f   stlini.obj
 0001:00026489       __ehhandler$??0?$pair@$$CBV?$basic_string@DU?$char_traits@D@std@@V?$allocator@D@2@@std@@V?$map@V?$basic_string@DU?$char_traits@D@std@@V?$allocator@D@2@@std@@V12@UStlIniCompareStringNoCase@@V?$allocator@U?$pair@$$CBV?$basic_string@DU?$char_traits@D@std@@V?$allocator@D@2@@std@@V12@@std@@@2@@2@@std@@QAE@ABU01@@Z 00427489 f   stlini.obj
 0001:00026489       __ehhandler$??0?$pair@$$CBV?$basic_string@DU?$char_traits@D@std@@V?$allocator@D@2@@std@@V12@@std@@QAE@ABU01@@Z 00427489 f   stlini.obj
 0001:00026489       __ehhandler$??0?$pair@V?$basic_string@DU?$char_traits@D@std@@V?$allocator@D@2@@std@@V?$map@V?$basic_string@DU?$char_traits@D@std@@V?$allocator@D@2@@std@@V12@UStlIniCompareStringNoCase@@V?$allocator@U?$pair@$$CBV?$basic_string@DU?$char_traits@D@std@@V?$allocator@D@2@@std@@V12@@std@@@2@@2@@std@@QAE@ABV?$basic_string@DU?$char_traits@D@std@@V?$allocator@D@2@@1@ABV?$map@V?$basic_string@DU?$char_traits@D@std@@V?$allocator@D@2@@std@@V12@UStlIniCompareStringNoCase@@V?$allocator@U?$pair@$$CBV?$basic_string@DU?$char_traits@D@std@@V?$allocator@D@2@@std@@V12@@std@@@2@@1@@Z 00427489 f   stlini.obj
 0001:00026489       __ehhandler$??$?0V?$basic_string@DU?$char_traits@D@std@@V?$allocator@D@2@@std@@V01@@?$pair@$$CBV?$basic_string@DU?$char_traits@D@std@@V?$allocator@D@2@@std@@V12@@std@@QAE@ABU?$pair@V?$basic_string@DU?$char_traits@D@std@@V?$allocator@D@2@@std@@V12@@1@@Z 00427489 f   stlini.obj
 0001:00026489       __ehhandler$??0?$pair@V?$basic_string@DU?$char_traits@D@std@@V?$allocator@D@2@@std@@V12@@std@@QAE@ABV?$basic_string@DU?$char_traits@D@std@@V?$allocator@D@2@@1@0@Z 00427489 f   stlini.obj
 0001:00026489       __ehhandler$??$?0V?$basic_string@DU?$char_traits@D@std@@V?$allocator@D@2@@std@@V?$map@V?$basic_string@DU?$char_traits@D@std@@V?$allocator@D@2@@std@@V12@UStlIniCompareStringNoCase@@V?$allocator@U?$pair@$$CBV?$basic_string@DU?$char_traits@D@std@@V?$allocator@D@2@@std@@V12@@std@@@2@@1@@?$pair@$$CBV?$basic_string@DU?$char_traits@D@std@@V?$allocator@D@2@@std@@V?$map@V?$basic_string@DU?$char_traits@D@std@@V?$allocator@D@2@@std@@V12@UStlIniCompareStringNoCase@@V?$allocator@U?$pair@$$CBV?$basic_string@DU?$char_traits@D@std@@V?$allocator@D@2@@std@@V12@@std@@@2@@2@@std@@QAE@ABU?$pair@V?$basic_string@DU?$char_traits@D@std@@V?$allocator@D@2@@std@@V?$map@V?$basic_string@DU?$char_traits@D@std@@V?$allocator@D@2@@std@@V12@UStlIniCompareStringNoCase@@V?$allocator@U?$pair@$$CBV?$basic_string@DU?$char_traits@D@std@@V?$allocator@D@2@@std@@V12@@std@@@2@@2@@1@@Z 00427489 f   stlini.obj
 0001:000264a0       $L22541                    004274a0 f   stlini.obj
 0001:000264b1       __ehhandler$?_Buynode@?$_Tree@V?$_Tmap_traits@V?$basic_string@DU?$char_traits@D@std@@V?$allocator@D@2@@std@@V12@UStlIniCompareStringNoCase@@V?$allocator@U?$pair@$$CBV?$basic_string@DU?$char_traits@D@std@@V?$allocator@D@2@@std@@V12@@std@@@2@$0A@@std@@@std@@IAEPAU_Node@?$_Tree_nod@V?$_Tmap_traits@V?$basic_string@DU?$char_traits@D@std@@V?$allocator@D@2@@std@@V12@UStlIniCompareStringNoCase@@V?$allocator@U?$pair@$$CBV?$basic_string@DU?$char_traits@D@std@@V?$allocator@D@2@@std@@V12@@std@@@2@$0A@@std@@@2@PAU342@00ABU?$pair@$$CBV?$basic_string@DU?$char_traits@D@std@@V?$allocator@D@2@@std@@V12@@2@D@Z 004274b1 f   stlini.obj
 0001:000264c0       $L23397                    004274c0 f   stlini.obj
 0001:000264c9       $L23400                    004274c9 f   stlini.obj
 0001:000264e3       __ehhandler$?GetIniSetting@@YA?AV?$basic_string@DU?$char_traits@D@std@@V?$allocator@D@2@@std@@AAV?$map@V?$basic_string@DU?$char_traits@D@std@@V?$allocator@D@2@@std@@V?$map@V?$basic_string@DU?$char_traits@D@std@@V?$allocator@D@2@@std@@V12@UStlIniCompareStringNoCase@@V?$allocator@U?$pair@$$CBV?$basic_string@DU?$char_traits@D@std@@V?$allocator@D@2@@std@@V12@@std@@@2@@2@UStlIniCompareStringNoCase@@V?$allocator@U?$pair@$$CBV?$basic_string@DU?$char_traits@D@std@@V?$allocator@D@2@@std@@V?$map@V?$basic_string@DU?$char_traits@D@std@@V?$allocator@D@2@@std@@V12@UStlIniCompareStringNoCase@@V?$allocator@U?$pair@$$CBV?$basic_string@DU?$char_traits@D@std@@V?$allocator@D@2@@std@@V12@@std@@@2@@2@@std@@@2@@2@PBD11@Z 004274e3 f   stlini.obj
 0001:000264f0       __ehhandler$?_Copy@?$_Tree@V?$_Tmap_traits@V?$basic_string@DU?$char_traits@D@std@@V?$allocator@D@2@@std@@V12@UStlIniCompareStringNoCase@@V?$allocator@U?$pair@$$CBV?$basic_string@DU?$char_traits@D@std@@V?$allocator@D@2@@std@@V12@@std@@@2@$0A@@std@@@std@@IAEPAU_Node@?$_Tree_nod@V?$_Tmap_traits@V?$basic_string@DU?$char_traits@D@std@@V?$allocator@D@2@@std@@V12@UStlIniCompareStringNoCase@@V?$allocator@U?$pair@$$CBV?$basic_string@DU?$char_traits@D@std@@V?$allocator@D@2@@std@@V12@@std@@@2@$0A@@std@@@2@PAU342@0@Z 004274f0 f   stlini.obj
 0001:00026500       __ehhandler$??0?$_Tree@V?$_Tmap_traits@V?$basic_string@DU?$char_traits@D@std@@V?$allocator@D@2@@std@@V12@UStlIniCompareStringNoCase@@V?$allocator@U?$pair@$$CBV?$basic_string@DU?$char_traits@D@std@@V?$allocator@D@2@@std@@V12@@std@@@2@$0A@@std@@@std@@QAE@ABV01@@Z 00427500 f   stlini.obj
 0001:00026510       $L26252                    00427510 f   stlini.obj
 0001:00026519       __ehhandler$??1?$pair@V?$basic_string@DU?$char_traits@D@std@@V?$allocator@D@2@@std@@V?$map@V?$basic_string@DU?$char_traits@D@std@@V?$allocator@D@2@@std@@V12@UStlIniCompareStringNoCase@@V?$allocator@U?$pair@$$CBV?$basic_string@DU?$char_traits@D@std@@V?$allocator@D@2@@std@@V12@@std@@@2@@2@@std@@QAE@XZ 00427519 f   stlini.obj
 0001:00026530       $L26829                    00427530 f   stlini.obj
 0001:00026541       __ehhandler$?_Buynode@?$_Tree@V?$_Tmap_traits@V?$basic_string@DU?$char_traits@D@std@@V?$allocator@D@2@@std@@V?$map@V?$basic_string@DU?$char_traits@D@std@@V?$allocator@D@2@@std@@V12@UStlIniCompareStringNoCase@@V?$allocator@U?$pair@$$CBV?$basic_string@DU?$char_traits@D@std@@V?$allocator@D@2@@std@@V12@@std@@@2@@2@UStlIniCompareStringNoCase@@V?$allocator@U?$pair@$$CBV?$basic_string@DU?$char_traits@D@std@@V?$allocator@D@2@@std@@V?$map@V?$basic_string@DU?$char_traits@D@std@@V?$allocator@D@2@@std@@V12@UStlIniCompareStringNoCase@@V?$allocator@U?$pair@$$CBV?$basic_string@DU?$char_traits@D@std@@V?$allocator@D@2@@std@@V12@@std@@@2@@2@@std@@@2@$0A@@std@@@std@@IAEPAU_Node@?$_Tree_nod@V?$_Tmap_traits@V?$basic_string@DU?$char_traits@D@std@@V?$allocator@D@2@@std@@V?$map@V?$basic_string@DU?$char_traits@D@std@@V?$allocator@D@2@@std@@V12@UStlIniCompareStringNoCase@@V?$allocator@U?$pair@$$CBV?$basic_string@DU?$char_traits@D@std@@V?$allocator@D@2@@std@@V12@@std@@@2@@2@UStlIniCompareStringNoCase@@V?$allocator@U?$pair@$$CBV?$basic_string@DU?$char_traits@D@std@@V?$allocator@D@2@@std@@V?$map@V?$basic_string@DU?$char_traits@D@std@@V?$allocator@D@2@@std@@V12@UStlIniCompareStringNoCase@@V?$allocator@U?$pair@$$CBV?$basic_string@DU?$char_traits@D@std@@V?$allocator@D@2@@std@@V12@@std@@@2@@2@@std@@@2@$0A@@std@@@2@PAU342@00ABU?$pair@$$CBV?$basic_string@DU?$char_traits@D@std@@V?$allocator@D@2@@std@@V?$map@V?$basic_string@DU?$char_traits@D@std@@V?$allocator@D@2@@std@@V12@UStlIniCompareStringNoCase@@V?$allocator@U?$pair@$$CBV?$basic_string@DU?$char_traits@D@std@@V?$allocator@D@2@@std@@V12@@std@@@2@@2@@2@D@Z 00427541 f   stlini.obj
 0001:00026550       $L22974                    00427550 f   stlini.obj
 0001:00026550       $L26869                    00427550 f   stlini.obj
 0001:00026559       $L22994                    00427559 f   stlini.obj
 0001:00026559       $L26889                    00427559 f   stlini.obj
 0001:00026562       __ehhandler$?_Insert@?$_Tree@V?$_Tmap_traits@V?$basic_string@DU?$char_traits@D@std@@V?$allocator@D@2@@std@@V12@UStlIniCompareStringNoCase@@V?$allocator@U?$pair@$$CBV?$basic_string@DU?$char_traits@D@std@@V?$allocator@D@2@@std@@V12@@std@@@2@$0A@@std@@@std@@IAE?AViterator@12@_NPAU_Node@?$_Tree_nod@V?$_Tmap_traits@V?$basic_string@DU?$char_traits@D@std@@V?$allocator@D@2@@std@@V12@UStlIniCompareStringNoCase@@V?$allocator@U?$pair@$$CBV?$basic_string@DU?$char_traits@D@std@@V?$allocator@D@2@@std@@V12@@std@@@2@$0A@@std@@@2@ABU?$pair@$$CBV?$basic_string@DU?$char_traits@D@std@@V?$allocator@D@2@@std@@V12@@2@@Z 00427562 f   stlini.obj
 0001:00026562       __ehhandler$?_Insert@?$_Tree@V?$_Tmap_traits@V?$basic_string@DU?$char_traits@D@std@@V?$allocator@D@2@@std@@V?$map@V?$basic_string@DU?$char_traits@D@std@@V?$allocator@D@2@@std@@V12@UStlIniCompareStringNoCase@@V?$allocator@U?$pair@$$CBV?$basic_string@DU?$char_traits@D@std@@V?$allocator@D@2@@std@@V12@@std@@@2@@2@UStlIniCompareStringNoCase@@V?$allocator@U?$pair@$$CBV?$basic_string@DU?$char_traits@D@std@@V?$allocator@D@2@@std@@V?$map@V?$basic_string@DU?$char_traits@D@std@@V?$allocator@D@2@@std@@V12@UStlIniCompareStringNoCase@@V?$allocator@U?$pair@$$CBV?$basic_string@DU?$char_traits@D@std@@V?$allocator@D@2@@std@@V12@@std@@@2@@2@@std@@@2@$0A@@std@@@std@@IAE?AViterator@12@_NPAU_Node@?$_Tree_nod@V?$_Tmap_traits@V?$basic_string@DU?$char_traits@D@std@@V?$allocator@D@2@@std@@V?$map@V?$basic_string@DU?$char_traits@D@std@@V?$allocator@D@2@@std@@V12@UStlIniCompareStringNoCase@@V?$allocator@U?$pair@$$CBV?$basic_string@DU?$char_traits@D@std@@V?$allocator@D@2@@std@@V12@@std@@@2@@2@UStlIniCompareStringNoCase@@V?$allocator@U?$pair@$$CBV?$basic_string@DU?$char_traits@D@std@@V?$allocator@D@2@@std@@V?$map@V?$basic_string@DU?$char_traits@D@std@@V?$allocator@D@2@@std@@V12@UStlIniCompareStringNoCase@@V?$allocator@U?$pair@$$CBV?$basic_string@DU?$char_traits@D@std@@V?$allocator@D@2@@std@@V12@@std@@@2@@2@@std@@@2@$0A@@std@@@2@ABU?$pair@$$CBV?$basic_string@DU?$char_traits@D@std@@V?$allocator@D@2@@std@@V?$map@V?$basic_string@DU?$char_traits@D@std@@V?$allocator@D@2@@std@@V12@UStlIniCompareStringNoCase@@V?$allocator@U?$pair@$$CBV?$basic_string@DU?$char_traits@D@std@@V?$allocator@D@2@@std@@V12@@std@@@2@@2@@2@@Z 00427562 f   stlini.obj
 0001:00026570       $L27820                    00427570 f   stlini.obj
 0001:0002657b       $L27821                    0042757b f   stlini.obj
 0001:00026587       $L27822                    00427587 f   stlini.obj
 0001:00026593       $L27823                    00427593 f   stlini.obj
 0001:0002659e       $L27824                    0042759e f   stlini.obj
 0001:000265a9       $L27825                    004275a9 f   stlini.obj
 0001:000265b5       $L27826                    004275b5 f   stlini.obj
 0001:000265c0       $L27827                    004275c0 f   stlini.obj
 0001:000265cb       $L27829                    004275cb f   stlini.obj
 0001:000265d4       $L27830                    004275d4 f   stlini.obj
 0001:000265dd       $L27831                    004275dd f   stlini.obj
 0001:000265e5       $L27832                    004275e5 f   stlini.obj
 0001:000265f0       __ehhandler$?PutIniSetting@@YAXAAV?$map@V?$basic_string@DU?$char_traits@D@std@@V?$allocator@D@2@@std@@V?$map@V?$basic_string@DU?$char_traits@D@std@@V?$allocator@D@2@@std@@V12@UStlIniCompareStringNoCase@@V?$allocator@U?$pair@$$CBV?$basic_string@DU?$char_traits@D@std@@V?$allocator@D@2@@std@@V12@@std@@@2@@2@UStlIniCompareStringNoCase@@V?$allocator@U?$pair@$$CBV?$basic_string@DU?$char_traits@D@std@@V?$allocator@D@2@@std@@V?$map@V?$basic_string@DU?$char_traits@D@std@@V?$allocator@D@2@@std@@V12@UStlIniCompareStringNoCase@@V?$allocator@U?$pair@$$CBV?$basic_string@DU?$char_traits@D@std@@V?$allocator@D@2@@std@@V12@@std@@@2@@2@@std@@@2@@std@@PBD11@Z 004275f0 f   stlini.obj
 0001:00026600       __ehhandler$?_Copy@?$_Tree@V?$_Tmap_traits@V?$basic_string@DU?$char_traits@D@std@@V?$allocator@D@2@@std@@V?$map@V?$basic_string@DU?$char_traits@D@std@@V?$allocator@D@2@@std@@V12@UStlIniCompareStringNoCase@@V?$allocator@U?$pair@$$CBV?$basic_string@DU?$char_traits@D@std@@V?$allocator@D@2@@std@@V12@@std@@@2@@2@UStlIniCompareStringNoCase@@V?$allocator@U?$pair@$$CBV?$basic_string@DU?$char_traits@D@std@@V?$allocator@D@2@@std@@V?$map@V?$basic_string@DU?$char_traits@D@std@@V?$allocator@D@2@@std@@V12@UStlIniCompareStringNoCase@@V?$allocator@U?$pair@$$CBV?$basic_string@DU?$char_traits@D@std@@V?$allocator@D@2@@std@@V12@@std@@@2@@2@@std@@@2@$0A@@std@@@std@@IAEPAU_Node@?$_Tree_nod@V?$_Tmap_traits@V?$basic_string@DU?$char_traits@D@std@@V?$allocator@D@2@@std@@V?$map@V?$basic_string@DU?$char_traits@D@std@@V?$allocator@D@2@@std@@V12@UStlIniCompareStringNoCase@@V?$allocator@U?$pair@$$CBV?$basic_string@DU?$char_traits@D@std@@V?$allocator@D@2@@std@@V12@@std@@@2@@2@UStlIniCompareStringNoCase@@V?$allocator@U?$pair@$$CBV?$basic_string@DU?$char_traits@D@std@@V?$allocator@D@2@@std@@V?$map@V?$basic_string@DU?$char_traits@D@std@@V?$allocator@D@2@@std@@V12@UStlIniCompareStringNoCase@@V?$allocator@U?$pair@$$CBV?$basic_string@DU?$char_traits@D@std@@V?$allocator@D@2@@std@@V12@@std@@@2@@2@@std@@@2@$0A@@std@@@2@PAU342@0@Z 00427600 f   stlini.obj
 0001:00026610       __ehhandler$??0?$_Tree@V?$_Tmap_traits@V?$basic_string@DU?$char_traits@D@std@@V?$allocator@D@2@@std@@V?$map@V?$basic_string@DU?$char_traits@D@std@@V?$allocator@D@2@@std@@V12@UStlIniCompareStringNoCase@@V?$allocator@U?$pair@$$CBV?$basic_string@DU?$char_traits@D@std@@V?$allocator@D@2@@std@@V12@@std@@@2@@2@UStlIniCompareStringNoCase@@V?$allocator@U?$pair@$$CBV?$basic_string@DU?$char_traits@D@std@@V?$allocator@D@2@@std@@V?$map@V?$basic_string@DU?$char_traits@D@std@@V?$allocator@D@2@@std@@V12@UStlIniCompareStringNoCase@@V?$allocator@U?$pair@$$CBV?$basic_string@DU?$char_traits@D@std@@V?$allocator@D@2@@std@@V12@@std@@@2@@2@@std@@@2@$0A@@std@@@std@@QAE@ABV01@@Z 00427610 f   stlini.obj
 0001:00026620       $L29620                    00427620 f   stlini.obj
 0001:0002662b       $L29621                    0042762b f   stlini.obj
 0001:00026637       $L29622                    00427637 f   stlini.obj
 0001:00026643       $L29623                    00427643 f   stlini.obj
 0001:00026662       __ehhandler$?LoadIni@@YA?AV?$map@V?$basic_string@DU?$char_traits@D@std@@V?$allocator@D@2@@std@@V?$map@V?$basic_string@DU?$char_traits@D@std@@V?$allocator@D@2@@std@@V12@UStlIniCompareStringNoCase@@V?$allocator@U?$pair@$$CBV?$basic_string@DU?$char_traits@D@std@@V?$allocator@D@2@@std@@V12@@std@@@2@@2@UStlIniCompareStringNoCase@@V?$allocator@U?$pair@$$CBV?$basic_string@DU?$char_traits@D@std@@V?$allocator@D@2@@std@@V?$map@V?$basic_string@DU?$char_traits@D@std@@V?$allocator@D@2@@std@@V12@UStlIniCompareStringNoCase@@V?$allocator@U?$pair@$$CBV?$basic_string@DU?$char_traits@D@std@@V?$allocator@D@2@@std@@V12@@std@@@2@@2@@std@@@2@@std@@PBD@Z 00427662 f   stlini.obj
 0001:00026670       $L50363                    00427670 f   Subsequent.obj
 0001:00026678       __ehhandler$?GetValueByMonitor@Subsequent@@QAEHPAVMonitor@@AAH1@Z 00427678 f   Subsequent.obj
 0001:00026690       $L50759                    00427690 f   Subsequent.obj
 0001:0002669b       __ehhandler$??1Subsequent@@UAE@XZ 0042769b f   Subsequent.obj
 0001:000266b0       $L51526                    004276b0 f   Subsequent.obj
 0001:000266bb       $L51527                    004276bb f   Subsequent.obj
 0001:000266c9       $L51528                    004276c9 f   Subsequent.obj
 0001:000266d4       $L51529                    004276d4 f   Subsequent.obj
 0001:000266df       $L51530                    004276df f   Subsequent.obj
 0001:000266ea       __ehhandler$?FromTextMap@Subsequent@@QAE_NAAV?$hashtable@Vword@svutil@@V12@@svutil@@@Z 004276ea f   Subsequent.obj
 0001:00026700       $L52049                    00427700 f   Subsequent.obj
 0001:0002670b       $L52050                    0042770b f   Subsequent.obj
 0001:00026716       $L52051                    00427716 f   Subsequent.obj
 0001:00026721       $L52052                    00427721 f   Subsequent.obj
 0001:0002672c       __ehhandler$?ToTextMap@Subsequent@@QAE_NAAV?$hashtable@Vword@svutil@@V12@@svutil@@@Z 0042772c f   Subsequent.obj
 0001:00026740       $L42984                    00427740 f   SubsequentItem.obj
 0001:00026740       $L42967                    00427740 f   SubsequentItem.obj
 0001:00026748       __ehhandler$??0SubsequentItem@@QAE@XZ 00427748 f   SubsequentItem.obj
 0001:00026748       __ehhandler$??1SubsequentItem@@QAE@XZ 00427748 f   SubsequentItem.obj
 0001:00026760       $L49633                    00427760 f   Task.obj
 0001:00026760       $L49669                    00427760 f   Task.obj
 0001:00026776       __ehhandler$??0Task@@QAE@XZ 00427776 f   Task.obj
 0001:00026776       __ehhandler$??1Task@@QAE@XZ 00427776 f   Task.obj
 0001:00026780       $L49692                    00427780 f   Task.obj
 0001:0002678b       $L49693                    0042778b f   Task.obj
 0001:00026796       $L49694                    00427796 f   Task.obj
 0001:000267a1       $L49695                    004277a1 f   Task.obj
 0001:000267ac       $L49696                    004277ac f   Task.obj
 0001:000267b7       $L49697                    004277b7 f   Task.obj
 0001:000267c2       $L49698                    004277c2 f   Task.obj
 0001:000267cd       $L49699                    004277cd f   Task.obj
 0001:000267d8       $L49700                    004277d8 f   Task.obj
 0001:000267e3       __ehhandler$?ToTextMap@Task@@QAE_NAAV?$hashtable@Vword@svutil@@V12@@svutil@@@Z 004277e3 f   Task.obj
 0001:000267f0       $L49999                    004277f0 f   Task.obj
 0001:000267fb       $L50000                    004277fb f   Task.obj
 0001:00026806       $L50001                    00427806 f   Task.obj
 0001:00026811       $L50002                    00427811 f   Task.obj
 0001:0002681c       $L50003                    0042781c f   Task.obj
 0001:00026827       $L50004                    00427827 f   Task.obj
 0001:00026832       $L50005                    00427832 f   Task.obj
 0001:0002683d       $L50006                    0042783d f   Task.obj
 0001:00026848       __ehhandler$?FromTextMap@Task@@QAE_NAAV?$hashtable@Vword@svutil@@V12@@svutil@@@Z 00427848 f   Task.obj
 0001:00026860       $L52987                    00427860 f   ThreadContrl.obj
 0001:00026860       $L53073                    00427860 f   ThreadContrl.obj
 0001:00026869       $L53074                    00427869 f   ThreadContrl.obj
 0001:00026869       $L52988                    00427869 f   ThreadContrl.obj
 0001:00026871       __ehhandler$?CheckSubsequent@ThreadContrl@@IAE_NPAVMonitor@@AA_N1@Z 00427871 f   ThreadContrl.obj
 0001:00026871       __ehhandler$?CheckSubsequent@ThreadContrl@@IAEHPAVMonitor@@@Z 00427871 f   ThreadContrl.obj
 0001:00026880       $L53202                    00427880 f   ThreadContrl.obj
 0001:00026888       __ehhandler$?AdjustRetByMonitor@ThreadContrl@@QAEXPAVMonitor@@H@Z 00427888 f   ThreadContrl.obj
 0001:000268a0       $L55423                    004278a0 f   ThreadContrl.obj
 0001:000268a9       $L55443                    004278a9 f   ThreadContrl.obj
 0001:000268b2       __ehhandler$?_Incsize@?$list@PAVThreadEx@@V?$allocator@PAVThreadEx@@@std@@@std@@IAEXI@Z 004278b2 f   ThreadContrl.obj
 0001:000268c0       $L56188                    004278c0 f   ThreadContrl.obj
 0001:000268c0       $L56088                    004278c0 f   ThreadContrl.obj
 0001:000268c8       $L56189                    004278c8 f   ThreadContrl.obj
 0001:000268c8       $L56089                    004278c8 f   ThreadContrl.obj
 0001:000268d4       $L56090                    004278d4 f   ThreadContrl.obj
 0001:000268d4       $L56190                    004278d4 f   ThreadContrl.obj
 0001:000268e2       __ehhandler$??0ThreadContrl@@QAE@XZ 004278e2 f   ThreadContrl.obj
 0001:000268e2       __ehhandler$??1ThreadContrl@@UAE@XZ 004278e2 f   ThreadContrl.obj
 0001:000268f0       $L56244                    004278f0 f   ThreadContrl.obj
 0001:000268f8       $L56245                    004278f8 f   ThreadContrl.obj
 0001:00026903       __ehhandler$?AddNewThreads@ThreadContrl@@AAEHH@Z 00427903 f   ThreadContrl.obj
 0001:00026910       $L56608                    00427910 f   ThreadContrl.obj
 0001:00026910       $L56350                    00427910 f   ThreadContrl.obj
 0001:00026919       __ehhandler$?AddToIdleThread@ThreadContrl@@QAEXPAVThreadEx@@@Z 00427919 f   ThreadContrl.obj
 0001:00026919       __ehhandler$?GetIdleThread@ThreadContrl@@AAEPAVThreadEx@@XZ 00427919 f   ThreadContrl.obj
 0001:00026930       $L57187                    00427930 f   ThreadContrl.obj
 0001:00026938       $L57189                    00427938 f   ThreadContrl.obj
 0001:00026941       $L57190                    00427941 f   ThreadContrl.obj
 0001:0002694a       __ehhandler$?AddTask@ThreadContrl@@QAEHPAVMonitor@@@Z 0042794a f   ThreadContrl.obj
 0001:00026960       $L57270                    00427960 f   ThreadContrl.obj
 0001:00026968       $L57271                    00427968 f   ThreadContrl.obj
 0001:00026970       __ehhandler$?ProcessSingleTaskEx@ThreadContrl@@IAEHPAVMonitor@@@Z 00427970 f   ThreadContrl.obj
 0001:00026980       $L57410                    00427980 f   ThreadContrl.obj
 0001:00026988       $L57411                    00427988 f   ThreadContrl.obj
 0001:00026990       __ehhandler$?run@ThreadContrl@@UAEXXZ 00427990 f   ThreadContrl.obj
 0001:000269a0       $L49475                    004279a0 f   Util.obj
 0001:000269b1       __ehhandler$?_Buynode@?$list@VSingelRecord@@V?$allocator@VSingelRecord@@@std@@@std@@IAEPAU_Node@?$_List_nod@VSingelRecord@@V?$allocator@VSingelRecord@@@std@@@2@PAU342@0ABVSingelRecord@@@Z 004279b1 f   Util.obj
 0001:000269c0       $L49515                    004279c0 f   Util.obj
 0001:000269c9       $L49535                    004279c9 f   Util.obj
 0001:000269d2       __ehhandler$?_Incsize@?$list@VSingelRecord@@V?$allocator@VSingelRecord@@@std@@@std@@IAEXI@Z 004279d2 f   Util.obj
 0001:000269e0       $L50478                    004279e0 f   Util.obj
 0001:000269e9       $L50479                    004279e9 f   Util.obj
 0001:000269f1       __ehhandler$?CacheRecords@Util@@CA_NV?$basic_string@DU?$char_traits@D@std@@V?$allocator@D@2@@std@@PBDH@Z 004279f1 f   Util.obj
 0001:00026a00       $L50583                    00427a00 f   Util.obj
 0001:00026a09       $L50584                    00427a09 f   Util.obj
 0001:00026a12       $L50585                    00427a12 f   Util.obj
 0001:00026a1b       $L50587                    00427a1b f   Util.obj
 0001:00026a24       $L50588                    00427a24 f   Util.obj
 0001:00026a2d       __ehhandler$?InsertSvdb@Util@@SA_NV?$basic_string@DU?$char_traits@D@std@@V?$allocator@D@2@@std@@PBDH0@Z 00427a2d f   Util.obj
 0001:00026a40       $L50651                    00427a40 f   Util.obj
 0001:00026a49       $L50652                    00427a49 f   Util.obj
 0001:00026a52       $L50654                    00427a52 f   Util.obj
 0001:00026a5b       $L50655                    00427a5b f   Util.obj
 0001:00026a64       __ehhandler$?InsertSvdb@Util@@SA_NV?$basic_string@DU?$char_traits@D@std@@V?$allocator@D@2@@std@@PBDH@Z 00427a64 f   Util.obj
 0001:00026a70       $L52020                    00427a70 f   Util.obj
 0001:00026a79       $L52021                    00427a79 f   Util.obj
 0001:00026a82       __ehhandler$?AppendThenClearAllRecords@Util@@SAHAAV?$list@VSingelRecord@@V?$allocator@VSingelRecord@@@std@@@std@@@Z 00427a82 f   Util.obj
 0001:00026a90       $L53990                    00427a90 f   Util.obj
 0001:00026a99       __ehhandler$?GetRootPath@Util@@SA?AVTString@@XZ 00427a99 f   Util.obj
 0001:00026ab0       $L54196                    00427ab0 f   Util.obj
 0001:00026ab9       $L54197                    00427ab9 f   Util.obj
 0001:00026ac2       $L54198                    00427ac2 f   Util.obj
 0001:00026ace       $L54199                    00427ace f   Util.obj
 0001:00026ad9       $L54200                    00427ad9 f   Util.obj
 0001:00026ae4       $L54201                    00427ae4 f   Util.obj
 0001:00026aef       $L54202                    00427aef f   Util.obj
 0001:00026afb       $L54203                    00427afb f   Util.obj
 0001:00026b07       $L54204                    00427b07 f   Util.obj
 0001:00026b13       $L54205                    00427b13 f   Util.obj
 0001:00026b1f       $L54206                    00427b1f f   Util.obj
 0001:00026b2b       __ehhandler$?SendMsgToWsServer@Util@@SA_NV?$basic_string@DU?$char_traits@D@std@@V?$allocator@D@2@@std@@0@Z 00427b2b f   Util.obj
 0001:00026b40       $L54396                    00427b40 f   Util.obj
 0001:00026b4b       $L54397                    00427b4b f   Util.obj
 0001:00026b56       $L54398                    00427b56 f   Util.obj
 0001:00026b62       $L54399                    00427b62 f   Util.obj
 0001:00026b81       __ehhandler$?GetSVMQAddress@Util@@SA?AVTString@@XZ 00427b81 f   Util.obj
 0001:00026b90       $L54758                    00427b90 f   Util.obj
 0001:00026b98       __ehhandler$??0Util@@QAE@XZ 00427b98 f   Util.obj
 0001:00026bb0       _$E1                       00427bb0 f   MonitorSchedule.obj
 0001:00026bd0       _$E4                       00427bd0 f   MonitorSchedule.obj
 0001:00026bf0       _$E7                       00427bf0 f   MonitorSchedule.obj
 0001:00026c10       _$E10                      00427c10 f   MonitorSchedule.obj
 0001:00026c30       _$E13                      00427c30 f   MonitorSchedule.obj
 0001:00026c50       _$E16                      00427c50 f   MonitorSchedule.obj
 0001:00026c60       _$E1                       00427c60 f   readSVDB.obj
 0001:00026c80       _$E4                       00427c80 f   readSVDB.obj
 0001:00026ca0       _$E7                       00427ca0 f   readSVDB.obj
 0001:00026cc0       _$E10                      00427cc0 f   readSVDB.obj
 0001:00026ce0       _$E1                       00427ce0 f   ScheduleThread.obj
 0001:00026d00       _$E4                       00427d00 f   ScheduleThread.obj
 0001:00026d20       _$E7                       00427d20 f   ScheduleThread.obj
 0001:00026d40       _$E10                      00427d40 f   ScheduleThread.obj
 0001:00026d60       _$E1                       00427d60 f   Util.obj
 0001:00026d80       _$E4                       00427d80 f   Util.obj
 0001:00026da0       _$E7                       00427da0 f   Util.obj
 0001:00026dc0       _$E10                      00427dc0 f   Util.obj
 0001:00026de0       _$E13                      00427de0 f   Util.obj
 0001:00026e10       _$E16                      00427e10 f   Util.obj
 0001:00026e30       _$E19                      00427e30 f   Util.obj
 0001:00026e50       _$E2                       00427e50 f   MonitorSchedule.obj
 0001:00026e60       _$E5                       00427e60 f   MonitorSchedule.obj
 0001:00026e70       _$E8                       00427e70 f   MonitorSchedule.obj
 0001:00026e80       _$E11                      00427e80 f   MonitorSchedule.obj
 0001:00026e90       _$E14                      00427e90 f   MonitorSchedule.obj
 0001:00026ea0       _$E17                      00427ea0 f   MonitorSchedule.obj
 0001:00026eb0       _$E2                       00427eb0 f   readSVDB.obj
 0001:00026ec0       _$E8                       00427ec0 f   readSVDB.obj
 0001:00026ed0       _$E11                      00427ed0 f   readSVDB.obj
 0001:00026ee0       _$E5                       00427ee0 f   readSVDB.obj
 0001:00026ef0       _$E2                       00427ef0 f   ScheduleThread.obj
 0001:00026f00       _$E5                       00427f00 f   ScheduleThread.obj
 0001:00026f10       _$E8                       00427f10 f   ScheduleThread.obj
 0001:00026f20       _$E11                      00427f20 f   ScheduleThread.obj
 0001:00026f30       _$E2                       00427f30 f   Util.obj
 0001:00026f40       _$E5                       00427f40 f   Util.obj
 0001:00026f50       _$E8                       00427f50 f   Util.obj
 0001:00026f60       _$E11                      00427f60 f   Util.obj
 0001:00026f70       _$E20                      00427f70 f   Util.obj
 0001:00026f80       _$E17                      00427f80 f   Util.obj
 0001:00026f90       _$E14                      00427f90 f   Util.obj
