 svapi

 Timestamp is 4fffd0f6 (Fri Jul 13 15:40:38 2012)

 Preferred load address is 10000000

 Start         Length     Name                   Class
 0001:00000000 00035695H .text                   CODE
 0001:000356a0 00004ad2H .text$x                 CODE
 0001:0003a180 000004ebH .text$yc                CODE
 0001:0003a670 0000026aH .text$yd                CODE
 0002:00000000 000001ecH .idata$5                DATA
 0002:000001f0 00001095H .rdata                  DATA
 0002:00001288 00000070H .rdata$debug            DATA
 0002:000012f8 00000044H .rdata$r                DATA
 0002:0000133c 00000004H .rtc$IAA                DATA
 0002:00001340 00000004H .rtc$IMZ                DATA
 0002:00001344 00000004H .rtc$IZZ                DATA
 0002:00001348 00000004H .rtc$TAA                DATA
 0002:0000134c 00000004H .rtc$TMZ                DATA
 0002:00001350 00000004H .rtc$TZZ                DATA
 0002:00001354 00007d04H .xdata$x                DATA
 0002:00009058 00000078H .idata$2                DATA
 0002:000090d0 00000014H .idata$3                DATA
 0002:000090e4 000001ecH .idata$4                DATA
 0002:000092d0 00001102H .idata$6                DATA
 0002:0000a3e0 00006c96H .edata                  DATA
 0003:00000000 00000004H .CRT$XCA                DATA
 0003:00000004 00000004H .CRT$XCAA               DATA
 0003:00000008 000000a0H .CRT$XCU                DATA
 0003:000000a8 00000004H .CRT$XCZ                DATA
 0003:000000ac 00000004H .CRT$XIA                DATA
 0003:000000b0 00000004H .CRT$XIZ                DATA
 0003:000000c0 00000114H .data                   DATA
 0003:000001d4 000003f8H .bss                    DATA

  Address         Publics by Value              Rva+Base     Lib:Object

 0000:00000000       __except_list              00000000     <absolute>
 0000:00000000       ___safe_se_handler_table   00000000     <absolute>
 0000:00000000       ___safe_se_handler_count   00000000     <absolute>
 0000:00009876       __ldused                   00009876     <absolute>
 0000:00009876       __fltused                  00009876     <absolute>
 0001:00000000       ??1QueryData@@QAE@XZ       10001000 f i QueryData.obj
 0001:00000000       ??1TTime@svutil@@QAE@XZ    10001000 f i MQapi.obj
 0001:00000000       ??3@YAXPAX0@Z              10001000 f i Entity.obj
 0001:00000010       ??1logic_error@std@@UAE@XZ 10001010 f i Entity.obj
 0001:00000070       ?what@logic_error@std@@UBEPBDXZ 10001070 f i Entity.obj
 0001:00000080       ??_Glogic_error@std@@UAEPAXI@Z 10001080 f i Entity.obj
 0001:00000080       ??_Elogic_error@std@@UAEPAXI@Z 10001080 f i Entity.obj
 0001:000000a0       ??_Elength_error@std@@UAEPAXI@Z 100010a0 f i Entity.obj
 0001:000000a0       ??_Glength_error@std@@UAEPAXI@Z 100010a0 f i Entity.obj
 0001:000000c0       ??1length_error@std@@UAE@XZ 100010c0 f i Entity.obj
 0001:000000d0       ??_Eword@svutil@@UAEPAXI@Z 100010d0 f i Entity.obj
 0001:000000d0       ??_Gword@svutil@@UAEPAXI@Z 100010d0 f i Entity.obj
 0001:00000100       ??1_Sentry_base@?$basic_ostream@DU?$char_traits@D@std@@@std@@QAE@XZ 10001100 f i Entity.obj
 0001:00000120       ??$?HDU?$char_traits@D@std@@V?$allocator@D@1@@std@@YA?AV?$basic_string@DU?$char_traits@D@std@@V?$allocator@D@2@@0@ABV10@PBD@Z 10001120 f i Entity.obj
 0001:000001a0       ??1_Node@?$_List_nod@Vword@svutil@@V?$allocator@Vword@svutil@@@std@@@std@@QAE@XZ 100011a0 f i Entity.obj
 0001:000001c0       ??0sentry@?$basic_ostream@DU?$char_traits@D@std@@@std@@QAE@AAV12@@Z 100011c0 f i Entity.obj
 0001:00000250       ??1sentry@?$basic_ostream@DU?$char_traits@D@std@@@std@@QAE@XZ 10001250 f i Entity.obj
 0001:000002c0       ??$?6DU?$char_traits@D@std@@V?$allocator@D@1@@std@@YAAAV?$basic_ostream@DU?$char_traits@D@std@@@0@AAV10@ABV?$basic_string@DU?$char_traits@D@std@@V?$allocator@D@2@@0@@Z 100012c0 f i Entity.obj
 0001:000004c0       ?_Buynode@?$list@Vword@svutil@@V?$allocator@Vword@svutil@@@std@@@std@@IAEPAU_Node@?$_List_nod@Vword@svutil@@V?$allocator@Vword@svutil@@@std@@@2@XZ 100014c0 f i Entity.obj
 0001:000004e0       ?_Buynode@?$list@Vword@svutil@@V?$allocator@Vword@svutil@@@std@@@std@@IAEPAU_Node@?$_List_nod@Vword@svutil@@V?$allocator@Vword@svutil@@@std@@@2@PAU342@0ABVword@svutil@@@Z 100014e0 f i Entity.obj
 0001:00000570       ?_Incsize@?$list@Vword@svutil@@V?$allocator@Vword@svutil@@@std@@@std@@IAEXI@Z 10001570 f i Entity.obj
 0001:00000610       ??0logic_error@std@@QAE@ABV01@@Z 10001610 f i Entity.obj
 0001:00000670       ??0length_error@std@@QAE@ABV01@@Z 10001670 f i Entity.obj
 0001:00000690       ?GetRawDataSize@Entity@@UAEIXZ 10001690 f   Entity.obj
 0001:000006e0       ?GetRawData@Entity@@UAEPADPADI@Z 100016e0 f   Entity.obj
 0001:000007e0       ?clear@?$list@Vword@svutil@@V?$allocator@Vword@svutil@@@std@@@std@@QAEXXZ 100017e0 f i Entity.obj
 0001:00000820       ?push_back@?$list@Vword@svutil@@V?$allocator@Vword@svutil@@@std@@@std@@QAEXABVword@svutil@@@Z 10001820 f i Entity.obj
 0001:00000860       ?_Tidy@?$list@Vword@svutil@@V?$allocator@Vword@svutil@@@std@@@std@@IAEXXZ 10001860 f i Entity.obj
 0001:00000860       ??1?$list@Vword@svutil@@V?$allocator@Vword@svutil@@@std@@@std@@QAE@XZ 10001860 f i Entity.obj
 0001:00000880       ?CreateObjectByRawData@Entity@@UAEHPBDI@Z 10001880 f   Entity.obj
 0001:000009f0       ??0Entity@@QAE@XZ          100019f0 f   Entity.obj
 0001:00000a90       ??1Entity@@QAE@XZ          10001a90 f   Entity.obj
 0001:00000b10       ?GetID@Entity@@QAE?AVword@svutil@@XZ 10001b10 f i EntityAPI.obj
 0001:00000b10       ?GetID@Group@@QAE?AVword@svutil@@XZ 10001b10 f i GroupAPI.obj
 0001:00000b30       ?CacheRefresh_GetEntity@@YAPAXV?$basic_string@DU?$char_traits@D@std@@V?$allocator@D@2@@std@@@Z 10001b30 f   EntityAPI.obj
 0001:00000ba0       ?Cache_GetEntity@@YAPAXV?$basic_string@DU?$char_traits@D@std@@V?$allocator@D@2@@std@@@Z 10001ba0 f   EntityAPI.obj
 0001:00000c10       ?GetEntityWithVer@@YAPAXV?$basic_string@DU?$char_traits@D@std@@V?$allocator@D@2@@std@@00AAI@Z 10001c10 f   EntityAPI.obj
 0001:00000ea0       ?GetEntity@@YAPAXV?$basic_string@DU?$char_traits@D@std@@V?$allocator@D@2@@std@@00@Z 10001ea0 f   EntityAPI.obj
 0001:00000fe0       ?CreateEntity@@YAPAXXZ     10001fe0 f   EntityAPI.obj
 0001:00001050       ?DeleteEntity@@YA_NV?$basic_string@DU?$char_traits@D@std@@V?$allocator@D@2@@std@@00@Z 10002050 f   EntityAPI.obj
 0001:00001280       ?AddNewEntity@@YA?AV?$basic_string@DU?$char_traits@D@std@@V?$allocator@D@2@@std@@PAXV12@11@Z 10002280 f   EntityAPI.obj
 0001:00001530       ?SubmitEntity@@YA_NPAXV?$basic_string@DU?$char_traits@D@std@@V?$allocator@D@2@@std@@1@Z 10002530 f   EntityAPI.obj
 0001:00001740       ??1_Node@?$_List_nod@V?$basic_string@DU?$char_traits@D@std@@V?$allocator@D@2@@std@@V?$allocator@V?$basic_string@DU?$char_traits@D@std@@V?$allocator@D@2@@std@@@2@@std@@QAE@XZ 10002740 f i EntityAPI.obj
 0001:00001740       ??1_Node@?$_List_nod@VSingelRecord@@V?$allocator@VSingelRecord@@@std@@@std@@QAE@XZ 10002740 f i General.obj
 0001:00001750       ?GetAllEntitysInfo@@YA_NAAV?$list@Usv_pair@@V?$allocator@Usv_pair@@@std@@@std@@V?$basic_string@DU?$char_traits@D@std@@V?$allocator@D@2@@2@11@Z 10002750 f   EntityAPI.obj
 0001:000019a0       ?CloseEntity@@YA_NAAPAX@Z  100029a0 f   EntityAPI.obj
 0001:00001a20       ?_Buynode@?$list@V?$basic_string@DU?$char_traits@D@std@@V?$allocator@D@2@@std@@V?$allocator@V?$basic_string@DU?$char_traits@D@std@@V?$allocator@D@2@@std@@@2@@std@@IAEPAU_Node@?$_List_nod@V?$basic_string@DU?$char_traits@D@std@@V?$allocator@D@2@@std@@V?$allocator@V?$basic_string@DU?$char_traits@D@std@@V?$allocator@D@2@@std@@@2@@2@XZ 10002a20 f i EntityAPI.obj
 0001:00001a40       ?_Buynode@?$list@V?$basic_string@DU?$char_traits@D@std@@V?$allocator@D@2@@std@@V?$allocator@V?$basic_string@DU?$char_traits@D@std@@V?$allocator@D@2@@std@@@2@@std@@IAEPAU_Node@?$_List_nod@V?$basic_string@DU?$char_traits@D@std@@V?$allocator@D@2@@std@@V?$allocator@V?$basic_string@DU?$char_traits@D@std@@V?$allocator@D@2@@std@@@2@@2@PAU342@0ABV?$basic_string@DU?$char_traits@D@std@@V?$allocator@D@2@@2@@Z 10002a40 f i EntityAPI.obj
 0001:00001ad0       ?_Incsize@?$list@V?$basic_string@DU?$char_traits@D@std@@V?$allocator@D@2@@std@@V?$allocator@V?$basic_string@DU?$char_traits@D@std@@V?$allocator@D@2@@std@@@2@@std@@IAEXI@Z 10002ad0 f i EntityAPI.obj
 0001:00001b70       ??0?$list@V?$basic_string@DU?$char_traits@D@std@@V?$allocator@D@2@@std@@V?$allocator@V?$basic_string@DU?$char_traits@D@std@@V?$allocator@D@2@@std@@@2@@std@@QAE@XZ 10002b70 f i EntityAPI.obj
 0001:00001b90       ?clear@?$list@VSingelRecord@@V?$allocator@VSingelRecord@@@std@@@std@@QAEXXZ 10002b90 f i General.obj
 0001:00001b90       ?clear@?$list@V?$basic_string@DU?$char_traits@D@std@@V?$allocator@D@2@@std@@V?$allocator@V?$basic_string@DU?$char_traits@D@std@@V?$allocator@D@2@@std@@@2@@std@@QAEXXZ 10002b90 f i EntityAPI.obj
 0001:00001bd0       ?GetSubMonitorsIDByEntity@@YA_NPAXAAV?$list@V?$basic_string@DU?$char_traits@D@std@@V?$allocator@D@2@@std@@V?$allocator@V?$basic_string@DU?$char_traits@D@std@@V?$allocator@D@2@@std@@@2@@std@@@Z 10002bd0 f   EntityAPI.obj
 0001:00001c90       ?EntityCopyGeneral@@YA?AV?$basic_string@DU?$char_traits@D@std@@V?$allocator@D@2@@std@@_NV12@111@Z 10002c90 f   EntityAPI.obj
 0001:00002050       ?EntityCopyAndCreateTable@@YA?AV?$basic_string@DU?$char_traits@D@std@@V?$allocator@D@2@@std@@V12@000@Z 10003050 f   EntityAPI.obj
 0001:00002160       ?EntityCopy@@YA?AV?$basic_string@DU?$char_traits@D@std@@V?$allocator@D@2@@std@@V12@000@Z 10003160 f   EntityAPI.obj
 0001:00002270       ??0?$hashelement@Vword@svutil@@V12@@svutil@@QAE@ABVword@1@@Z 10003270 f i EntityGroup.obj
 0001:000022f0       ??1?$hashelement@Vword@svutil@@V12@@svutil@@QAE@XZ 100032f0 f i EntityGroup.obj
 0001:00002330       ?CountNodes@?$sorttree@V?$hashelement@Vword@svutil@@V12@@svutil@@@svutil@@AAEXPAV?$treenode@V?$hashelement@Vword@svutil@@V12@@svutil@@@2@AAK@Z 10003330 f i EntityGroup.obj
 0001:00002360       ?findnode@?$sorttree@V?$hashelement@Vword@svutil@@V12@@svutil@@@svutil@@QAEPAV?$treenode@V?$hashelement@Vword@svutil@@V12@@svutil@@@2@ABV?$hashelement@Vword@svutil@@V12@@2@PAV32@@Z 10003360 f i EntityGroup.obj
 0001:000023d0       ?findnextnode@?$sorttree@V?$hashelement@Vword@svutil@@V12@@svutil@@@svutil@@ABEPAV?$treenode@V?$hashelement@Vword@svutil@@V12@@svutil@@@2@AAV?$hashelement@Vword@svutil@@V12@@2@AA_NPAV32@@Z 100033d0 f i EntityGroup.obj
 0001:00002440       ?find@?$hashnode@Vword@svutil@@V12@@svutil@@QAE_NABVword@2@PAPAV?$hashelement@Vword@svutil@@V12@@2@@Z 10003440 f i EntityGroup.obj
 0001:00002540       ?GetRawDataSize@EntityGroup@@UAEIXZ 10003540 f   EntityGroup.obj
 0001:00002590       ?GetRawData@EntityGroup@@UAEPADPADI@Z 10003590 f   EntityGroup.obj
 0001:00002680       ?find@?$hashnode@Vword@svutil@@V12@@svutil@@QAE_NABVword@2@PAPAV32@@Z 10003680 f i EntityGroup.obj
 0001:000026e0       ?size@?$hashtable@Vword@svutil@@V12@@svutil@@QAEIXZ 100036e0 f i EntityGroup.obj
 0001:00002780       ?find@?$hashtable@Vword@svutil@@V12@@svutil@@QAEPAVword@2@ABV32@@Z 10003780 f i EntityGroup.obj
 0001:000027f0       ?findnext@?$hashnode@Vword@svutil@@V12@@svutil@@QAE_NAAV?$hashelement@Vword@svutil@@V12@@2@PAPAV32@@Z 100037f0 f i EntityGroup.obj
 0001:000028a0       ?CreateObjectByRawData@EntityGroup@@UAEHPBDI@Z 100038a0 f   EntityGroup.obj
 0001:00002a00       ?findnext@?$hashtable@Vword@svutil@@V12@@svutil@@QAE_NAAViterator@12@@Z 10003a00 f i EntityGroup.obj
 0001:00002aa0       ??0EntityGroup@@QAE@XZ     10003aa0 f   EntityGroup.obj
 0001:00002b30       ??1EntityGroup@@QAE@XZ     10003b30 f   EntityGroup.obj
 0001:00002bb0       ?GetID@TopologyChart@@QAE?AVword@svutil@@XZ 10003bb0 f i TopologyChartAPI.obj
 0001:00002bb0       ?GetID@VirtualGroup@@QAE?AVword@svutil@@XZ 10003bb0 f i VirtualGroupAPI.obj
 0001:00002bb0       ?GetID@EntityGroup@@QAE?AVword@svutil@@XZ 10003bb0 f i EntityGroupAPI.obj
 0001:00002bb0       ?GetID@Port@@QBE?AVword@svutil@@XZ 10003bb0 f i EntityEx.obj
 0001:00002bb0       ?GetID@Monitor@@QAE?AVword@svutil@@XZ 10003bb0 f i MonitorAPI.obj
 0001:00002bb0       ?GetID@EntityTemplet@@QAE?AVword@svutil@@XZ 10003bb0 f i EntityTempletAPI.obj
 0001:00002bb0       ?GetLanguageType@Resource@@QAE?AVword@svutil@@XZ 10003bb0 f i ResourceAPI.obj
 0001:00002bd0       ?PutID@EntityGroup@@QAEXVword@svutil@@@Z 10003bd0 f i EntityGroupAPI.obj
 0001:00002c30       ?Cache_GetEntityGroup@@YAPAXV?$basic_string@DU?$char_traits@D@std@@V?$allocator@D@2@@std@@@Z 10003c30 f   EntityGroupAPI.obj
 0001:00002ca0       ?GetEntityGroup@@YAPAXV?$basic_string@DU?$char_traits@D@std@@V?$allocator@D@2@@std@@00@Z 10003ca0 f   EntityGroupAPI.obj
 0001:00002ee0       ?CreateEntityGroup@@YAPAXV?$basic_string@DU?$char_traits@D@std@@V?$allocator@D@2@@std@@@Z 10003ee0 f   EntityGroupAPI.obj
 0001:00002fb0       ?GetEntityGroupMainAttribNode@@YAPAXPAX@Z 10003fb0 f   EntityGroupAPI.obj
 0001:00002fb0       ?GetMonitorMainAttribNode@@YAPAXPAX@Z 10003fb0 f   MonitorAPI.obj
 0001:00002fb0       ?GetResourceNode@@YAPAXPAX@Z 10003fb0 f   ResourceAPI.obj
 0001:00002fb0       ?GetEntityTempletMainAttribNode@@YAPAXPAX@Z 10003fb0 f   EntityTempletAPI.obj
 0001:00002fc0       ?DeleteEntityGroup@@YA_NV?$basic_string@DU?$char_traits@D@std@@V?$allocator@D@2@@std@@00@Z 10003fc0 f   EntityGroupAPI.obj
 0001:000031f0       ?SubmitEntityGroup@@YA_NPAXV?$basic_string@DU?$char_traits@D@std@@V?$allocator@D@2@@std@@1@Z 100041f0 f   EntityGroupAPI.obj
 0001:00003400       ?CloseEntityGroup@@YA_NAAPAX@Z 10004400 f   EntityGroupAPI.obj
 0001:00003480       ?GetAllEntityGroups@@YA_NAAV?$list@Usv_pair@@V?$allocator@Usv_pair@@@std@@@std@@V?$basic_string@DU?$char_traits@D@std@@V?$allocator@D@2@@2@11@Z 10004480 f   EntityGroupAPI.obj
 0001:000036d0       ?erase@?$list@Vword@svutil@@V?$allocator@Vword@svutil@@@std@@@std@@QAE?AViterator@12@V312@@Z 100046d0 f i EntityGroupAPI.obj
 0001:00003720       ?DeleteSubEntityKindsID@EntityGroup@@QAE_NVword@svutil@@@Z 10004720 f i EntityGroupAPI.obj
 0001:00003810       ?GetSubEntityTempletIDByEG@@YA_NAAV?$list@V?$basic_string@DU?$char_traits@D@std@@V?$allocator@D@2@@std@@V?$allocator@V?$basic_string@DU?$char_traits@D@std@@V?$allocator@D@2@@std@@@2@@std@@PAX@Z 10004810 f   EntityGroupAPI.obj
 0001:000038d0       ?AddSubEntityTempletIDToEG@@YA_NPAXV?$basic_string@DU?$char_traits@D@std@@V?$allocator@D@2@@std@@@Z 100048d0 f   EntityGroupAPI.obj
 0001:000039b0       ?DeleteSubEntityTempletIDInEG@@YA_NPAXV?$basic_string@DU?$char_traits@D@std@@V?$allocator@D@2@@std@@@Z 100049b0 f   EntityGroupAPI.obj
 0001:00003a50       ?CloneEntityGroup@@YAPAXPAXV?$basic_string@DU?$char_traits@D@std@@V?$allocator@D@2@@std@@@Z 10004a50 f   EntityGroupAPI.obj
 0001:00003b80       ?clear@?$list@HV?$allocator@H@std@@@std@@QAEXXZ 10004b80 f i EntityTemplet.obj
 0001:00003b80       ?clear@?$list@PAVEdge@@V?$allocator@PAVEdge@@@std@@@std@@QAEXXZ 10004b80 f i TopologyChart.obj
 0001:00003b80       ?clear@?$list@PAVEntityRelation@@V?$allocator@PAVEntityRelation@@@std@@@std@@QAEXXZ 10004b80 f i EntityEx.obj
 0001:00003b80       ?clear@?$list@PAVStringMap@@V?$allocator@PAVStringMap@@@std@@@std@@QAEXXZ 10004b80 f i EntityTemplet.obj
 0001:00003b80       ?clear@?$list@PAVRecord@@V?$allocator@PAVRecord@@@std@@@std@@QAEXXZ 10004b80 f i RecordSet.obj
 0001:00003bc0       ?_Incsize@?$list@PAVStringMap@@V?$allocator@PAVStringMap@@@std@@@std@@IAEXI@Z 10004bc0 f i EntityTemplet.obj
 0001:00003bc0       ?_Incsize@?$list@HV?$allocator@H@std@@@std@@IAEXI@Z 10004bc0 f i EntityTemplet.obj
 0001:00003c60       ?GetRawDataSize@EntityTemplet@@UAEIXZ 10004c60 f   EntityTemplet.obj
 0001:00003cb0       ?GetRawData@EntityTemplet@@UAEPADPADI@Z 10004cb0 f   EntityTemplet.obj
 0001:00003e00       ?push_back@?$list@HV?$allocator@H@std@@@std@@QAEXABH@Z 10004e00 f i EntityTemplet.obj
 0001:00003e00       ?push_back@?$list@PAVStringMap@@V?$allocator@PAVStringMap@@@std@@@std@@QAEXABQAVStringMap@@@Z 10004e00 f i EntityTemplet.obj
 0001:00003e40       ??0EntityTemplet@@QAE@XZ   10004e40 f   EntityTemplet.obj
 0001:00003ee0       ??1EntityTemplet@@QAE@XZ   10004ee0 f   EntityTemplet.obj
 0001:00003ff0       ?CreateObjectByRawData@EntityTemplet@@UAEHPBDI@Z 10004ff0 f   EntityTemplet.obj
 0001:000041c0       ?PutID@EntityTemplet@@QAEXVword@svutil@@@Z 100051c0 f i EntityTempletAPI.obj
 0001:00004220       ?Cache_GetEntityTemplet@@YAPAXV?$basic_string@DU?$char_traits@D@std@@V?$allocator@D@2@@std@@@Z 10005220 f   EntityTempletAPI.obj
 0001:00004290       ?GetEntityTemplet@@YAPAXV?$basic_string@DU?$char_traits@D@std@@V?$allocator@D@2@@std@@00@Z 10005290 f   EntityTempletAPI.obj
 0001:000044d0       ?CreateEntityTemplet@@YAPAXV?$basic_string@DU?$char_traits@D@std@@V?$allocator@D@2@@std@@@Z 100054d0 f   EntityTempletAPI.obj
 0001:000045a0       ?DeleteEntityTemplet@@YA_NV?$basic_string@DU?$char_traits@D@std@@V?$allocator@D@2@@std@@00@Z 100055a0 f   EntityTempletAPI.obj
 0001:000047d0       ?GetSubMonitorTypeList@@YAAAV?$list@HV?$allocator@H@std@@@std@@PAX@Z 100057d0 f   EntityTempletAPI.obj
 0001:000047e0       ?SubmitEntityTemplet@@YA_NPAXV?$basic_string@DU?$char_traits@D@std@@V?$allocator@D@2@@std@@1@Z 100057e0 f   EntityTempletAPI.obj
 0001:000049f0       ?CloneEntityTemplet@@YAPAXPAXV?$basic_string@DU?$char_traits@D@std@@V?$allocator@D@2@@std@@@Z 100059f0 f   EntityTempletAPI.obj
 0001:00004b20       ?CloseEntityTemplet@@YA_NAAPAX@Z 10005b20 f   EntityTempletAPI.obj
 0001:00004ba0       ?GetAllEntityTemplets@@YA_NAAV?$list@Usv_pair@@V?$allocator@Usv_pair@@@std@@@std@@V?$basic_string@DU?$char_traits@D@std@@V?$allocator@D@2@@2@11@Z 10005ba0 f   EntityTempletAPI.obj
 0001:00004df0       ?FindETContrlFirst@@YA_NPAXAAUsv_list@@@Z 10005df0 f   EntityTempletAPI.obj
 0001:00004e90       ?DeleteMonitorKindsID@EntityTemplet@@QAE_NH@Z 10005e90 f i EntityTempletAPI.obj
 0001:00004ee0       ?DeleteSubMonitorTypeInET@@YA_NPAXH@Z 10005ee0 f   EntityTempletAPI.obj
 0001:00004f00       ?GetSubMonitorTypeByET@@YA_NPAXAAV?$list@HV?$allocator@H@std@@@std@@@Z 10005f00 f   EntityTempletAPI.obj
 0001:00004fa0       ?AddSubMonitorTypeToET@@YA_NPAXH@Z 10005fa0 f   EntityTempletAPI.obj
 0001:00005030       ?GetAllEntityTempletsInProperty@@YA_NV?$basic_string@DU?$char_traits@D@std@@V?$allocator@D@2@@std@@0AAV?$list@V?$basic_string@DU?$char_traits@D@std@@V?$allocator@D@2@@std@@V?$allocator@V?$basic_string@DU?$char_traits@D@std@@V?$allocator@D@2@@std@@@2@@2@00@Z 10006030 f   EntityTempletAPI.obj
 0001:000052f0       ??_Eout_of_range@std@@UAEPAXI@Z 100062f0 f i General.obj
 0001:000052f0       ??_Gout_of_range@std@@UAEPAXI@Z 100062f0 f i General.obj
 0001:00005310       ??1out_of_range@std@@UAE@XZ 10006310 f i General.obj
 0001:00005320       ??0sv_pair@@QAE@ABU0@@Z    10006320 f i General.obj
 0001:00005390       ??0exception@svutil@@QAE@PBD0@Z 10006390 f i General.obj
 0001:00005450       ?GetErrorType@exception@svutil@@UBEPBDXZ 10006450 f i General.obj
 0001:00005460       ?GetDescription@exception@svutil@@UBEPBDXZ 10006460 f i General.obj
 0001:00005470       ??_Eexception@svutil@@UAEPAXI@Z 10006470 f i General.obj
 0001:00005470       ??_Gexception@svutil@@UAEPAXI@Z 10006470 f i General.obj
 0001:00005490       ?GetSvdbAddr@@YA?AV?$basic_string@DU?$char_traits@D@std@@V?$allocator@D@2@@std@@XZ 10006490 f   General.obj
 0001:000054b0       ?GetCgiVersion@@YA?AV?$basic_string@DU?$char_traits@D@std@@V?$allocator@D@2@@std@@XZ 100064b0 f   General.obj
 0001:000054d0       ?SetServerPort@@YAXG@Z     100064d0 f   General.obj
 0001:000054e0       ?GetServerPort@@YAGXZ      100064e0 f   General.obj
 0001:000054f0       ?CreateNewMapNode@@YAPAXXZ 100064f0 f   General.obj
 0001:00005540       ?CreateNewItemList@@YA_NAAUsv_list@@@Z 10006540 f   General.obj
 0001:00005550       ?ReleaseItemList@@YAXABUsv_list@@@Z 10006550 f   General.obj
 0001:00005570       ?GetSiteViewRootPath@@YA?AV?$basic_string@DU?$char_traits@D@std@@V?$allocator@D@2@@std@@XZ 10006570 f   General.obj
 0001:00005590       ?FindParentID@@YA?AV?$basic_string@DU?$char_traits@D@std@@V?$allocator@D@2@@std@@V12@@Z 10006590 f   General.obj
 0001:00005640       ?FindIndexByID@@YAHV?$basic_string@DU?$char_traits@D@std@@V?$allocator@D@2@@std@@@Z 10006640 f   General.obj
 0001:000056a0       ?IsSVSEID@@YA_NV?$basic_string@DU?$char_traits@D@std@@V?$allocator@D@2@@std@@@Z 100066a0 f   General.obj
 0001:00005700       ?FindSEID@@YA?AV?$basic_string@DU?$char_traits@D@std@@V?$allocator@D@2@@std@@V12@@Z 10006700 f   General.obj
 0001:000057b0       ?WriteIniFileString@@YA_NV?$basic_string@DU?$char_traits@D@std@@V?$allocator@D@2@@std@@00000@Z 100067b0 f   General.obj
 0001:00005b80       ?WriteIniFileInt@@YA_NV?$basic_string@DU?$char_traits@D@std@@V?$allocator@D@2@@std@@0H000@Z 10006b80 f   General.obj
 0001:00005f10       ?WriteIniFileStruct@@YA_NV?$basic_string@DU?$char_traits@D@std@@V?$allocator@D@2@@std@@0PAXI000@Z 10006f10 f   General.obj
 0001:000062a0       ?GetIniFileString@@YA?AV?$basic_string@DU?$char_traits@D@std@@V?$allocator@D@2@@std@@V12@00000@Z 100072a0 f   General.obj
 0001:00006680       ?GetIniFileInt@@YAHV?$basic_string@DU?$char_traits@D@std@@V?$allocator@D@2@@std@@0H000@Z 10007680 f   General.obj
 0001:000069e0       ?GetIniFileStruct@@YA_NV?$basic_string@DU?$char_traits@D@std@@V?$allocator@D@2@@std@@0PAXAAI000@Z 100079e0 f   General.obj
 0001:00006d60       ?DeleteIniFileSection@@YA_NV?$basic_string@DU?$char_traits@D@std@@V?$allocator@D@2@@std@@000@Z 10007d60 f   General.obj
 0001:00007040       ?DeleteIniFileKey@@YA_NV?$basic_string@DU?$char_traits@D@std@@V?$allocator@D@2@@std@@0000@Z 10008040 f   General.obj
 0001:00007390       ?GetIniFileValueType@@YAHV?$basic_string@DU?$char_traits@D@std@@V?$allocator@D@2@@std@@0000@Z 10008390 f   General.obj
 0001:000076e0       ?EditIniFileSection@@YA_NV?$basic_string@DU?$char_traits@D@std@@V?$allocator@D@2@@std@@0000@Z 100086e0 f   General.obj
 0001:00007a50       ?EditIniFileKey@@YA_NV?$basic_string@DU?$char_traits@D@std@@V?$allocator@D@2@@std@@00000@Z 10008a50 f   General.obj
 0001:00007e20       ?CloneMapNode@@YAPAXPAX@Z  10008e20 f   General.obj
 0001:00007f00       ??0?$hashelement@Vword@svutil@@V12@@svutil@@QAE@ABVword@1@0@Z 10008f00 f i General.obj
 0001:00007f90       ??1?$treenode@V?$hashelement@Vword@svutil@@V12@@svutil@@@svutil@@UAE@XZ 10008f90 f i General.obj
 0001:00007fd0       ??_E?$treenode@V?$hashelement@Vword@svutil@@V12@@svutil@@@svutil@@UAEPAXI@Z 10008fd0 f i General.obj
 0001:00007fd0       ??_G?$treenode@V?$hashelement@Vword@svutil@@V12@@svutil@@@svutil@@UAEPAXI@Z 10008fd0 f i General.obj
 0001:00007ff0       ?_Xlen@?$vector@PAV?$hashnode@Vword@svutil@@V12@@svutil@@V?$allocator@PAV?$hashnode@Vword@svutil@@V12@@svutil@@@std@@@std@@IBEXXZ 10008ff0 f i General.obj
 0001:00008070       ?_Lrotate@?$_Tree@V?$_Tmap_traits@V?$basic_string@DU?$char_traits@D@std@@V?$allocator@D@2@@std@@V12@UStlIniCompareStringNoCase@@V?$allocator@U?$pair@$$CBV?$basic_string@DU?$char_traits@D@std@@V?$allocator@D@2@@std@@V12@@std@@@2@$0A@@std@@@std@@IAEXPAU_Node@?$_Tree_nod@V?$_Tmap_traits@V?$basic_string@DU?$char_traits@D@std@@V?$allocator@D@2@@std@@V12@UStlIniCompareStringNoCase@@V?$allocator@U?$pair@$$CBV?$basic_string@DU?$char_traits@D@std@@V?$allocator@D@2@@std@@V12@@std@@@2@$0A@@std@@@2@@Z 10009070 f i General.obj
 0001:00008070       ?_Lrotate@?$_Tree@V?$_Tmap_traits@V?$basic_string@DU?$char_traits@D@std@@V?$allocator@D@2@@std@@V12@U?$less@V?$basic_string@DU?$char_traits@D@std@@V?$allocator@D@2@@std@@@2@V?$allocator@U?$pair@$$CBV?$basic_string@DU?$char_traits@D@std@@V?$allocator@D@2@@std@@V12@@std@@@2@$0A@@std@@@std@@IAEXPAU_Node@?$_Tree_nod@V?$_Tmap_traits@V?$basic_string@DU?$char_traits@D@std@@V?$allocator@D@2@@std@@V12@U?$less@V?$basic_string@DU?$char_traits@D@std@@V?$allocator@D@2@@std@@@2@V?$allocator@U?$pair@$$CBV?$basic_string@DU?$char_traits@D@std@@V?$allocator@D@2@@std@@V12@@std@@@2@$0A@@std@@@2@@Z 10009070 f i General.obj
 0001:000080d0       ?_Max@?$_Tree@V?$_Tmap_traits@V?$basic_string@DU?$char_traits@D@std@@V?$allocator@D@2@@std@@V?$map@V?$basic_string@DU?$char_traits@D@std@@V?$allocator@D@2@@std@@V12@UStlIniCompareStringNoCase@@V?$allocator@U?$pair@$$CBV?$basic_string@DU?$char_traits@D@std@@V?$allocator@D@2@@std@@V12@@std@@@2@@2@UStlIniCompareStringNoCase@@V?$allocator@U?$pair@$$CBV?$basic_string@DU?$char_traits@D@std@@V?$allocator@D@2@@std@@V?$map@V?$basic_string@DU?$char_traits@D@std@@V?$allocator@D@2@@std@@V12@UStlIniCompareStringNoCase@@V?$allocator@U?$pair@$$CBV?$basic_string@DU?$char_traits@D@std@@V?$allocator@D@2@@std@@V12@@std@@@2@@2@@std@@@2@$0A@@std@@@std@@KAPAU_Node@?$_Tree_nod@V?$_Tmap_traits@V?$basic_string@DU?$char_traits@D@std@@V?$allocator@D@2@@std@@V?$map@V?$basic_string@DU?$char_traits@D@std@@V?$allocator@D@2@@std@@V12@UStlIniCompareStringNoCase@@V?$allocator@U?$pair@$$CBV?$basic_string@DU?$char_traits@D@std@@V?$allocator@D@2@@std@@V12@@std@@@2@@2@UStlIniCompareStringNoCase@@V?$allocator@U?$pair@$$CBV?$basic_string@DU?$char_traits@D@std@@V?$allocator@D@2@@std@@V?$map@V?$basic_string@DU?$char_traits@D@std@@V?$allocator@D@2@@std@@V12@UStlIniCompareStringNoCase@@V?$allocator@U?$pair@$$CBV?$basic_string@DU?$char_traits@D@std@@V?$allocator@D@2@@std@@V12@@std@@@2@@2@@std@@@2@$0A@@std@@@2@PAU342@@Z 100090d0 f i General.obj
 0001:000080d0       ?_Max@?$_Tree@V?$_Tmap_traits@V?$basic_string@DU?$char_traits@D@std@@V?$allocator@D@2@@std@@V?$map@V?$basic_string@DU?$char_traits@D@std@@V?$allocator@D@2@@std@@V12@U?$less@V?$basic_string@DU?$char_traits@D@std@@V?$allocator@D@2@@std@@@2@V?$allocator@U?$pair@$$CBV?$basic_string@DU?$char_traits@D@std@@V?$allocator@D@2@@std@@V12@@std@@@2@@2@U?$less@V?$basic_string@DU?$char_traits@D@std@@V?$allocator@D@2@@std@@@2@V?$allocator@U?$pair@$$CBV?$basic_string@DU?$char_traits@D@std@@V?$allocator@D@2@@std@@V?$map@V?$basic_string@DU?$char_traits@D@std@@V?$allocator@D@2@@std@@V12@U?$less@V?$basic_string@DU?$char_traits@D@std@@V?$allocator@D@2@@std@@@2@V?$allocator@U?$pair@$$CBV?$basic_string@DU?$char_traits@D@std@@V?$allocator@D@2@@std@@V12@@std@@@2@@2@@std@@@2@$0A@@std@@@std@@KAPAU_Node@?$_Tree_nod@V?$_Tmap_traits@V?$basic_string@DU?$char_traits@D@std@@V?$allocator@D@2@@std@@V?$map@V?$basic_string@DU?$char_traits@D@std@@V?$allocator@D@2@@std@@V12@U?$less@V?$basic_string@DU?$char_traits@D@std@@V?$allocator@D@2@@std@@@2@V?$allocator@U?$pair@$$CBV?$basic_string@DU?$char_traits@D@std@@V?$allocator@D@2@@std@@V12@@std@@@2@@2@U?$less@V?$basic_string@DU?$char_traits@D@std@@V?$allocator@D@2@@std@@@2@V?$allocator@U?$pair@$$CBV?$basic_string@DU?$char_traits@D@std@@V?$allocator@D@2@@std@@V?$map@V?$basic_string@DU?$char_traits@D@std@@V?$allocator@D@2@@std@@V12@U?$less@V?$basic_string@DU?$char_traits@D@std@@V?$allocator@D@2@@std@@@2@V?$allocator@U?$pair@$$CBV?$basic_string@DU?$char_traits@D@std@@V?$allocator@D@2@@std@@V12@@std@@@2@@2@@std@@@2@$0A@@std@@@2@PAU342@@Z 100090d0 f i General.obj
 0001:000080d0       ?_Max@?$_Tree@V?$_Tmap_traits@V?$basic_string@DU?$char_traits@D@std@@V?$allocator@D@2@@std@@V?$map@V?$basic_string@DU?$char_traits@D@std@@V?$allocator@D@2@@std@@PAXU?$less@V?$basic_string@DU?$char_traits@D@std@@V?$allocator@D@2@@std@@@2@V?$allocator@U?$pair@$$CBV?$basic_string@DU?$char_traits@D@std@@V?$allocator@D@2@@std@@PAX@std@@@2@@2@U?$less@V?$basic_string@DU?$char_traits@D@std@@V?$allocator@D@2@@std@@@2@V?$allocator@U?$pair@$$CBV?$basic_string@DU?$char_traits@D@std@@V?$allocator@D@2@@std@@V?$map@V?$basic_string@DU?$char_traits@D@std@@V?$allocator@D@2@@std@@PAXU?$less@V?$basic_string@DU?$char_traits@D@std@@V?$allocator@D@2@@std@@@2@V?$allocator@U?$pair@$$CBV?$basic_string@DU?$char_traits@D@std@@V?$allocator@D@2@@std@@PAX@std@@@2@@2@@std@@@2@$0A@@std@@@std@@KAPAU_Node@?$_Tree_nod@V?$_Tmap_traits@V?$basic_string@DU?$char_traits@D@std@@V?$allocator@D@2@@std@@V?$map@V?$basic_string@DU?$char_traits@D@std@@V?$allocator@D@2@@std@@PAXU?$less@V?$basic_string@DU?$char_traits@D@std@@V?$allocator@D@2@@std@@@2@V?$allocator@U?$pair@$$CBV?$basic_string@DU?$char_traits@D@std@@V?$allocator@D@2@@std@@PAX@std@@@2@@2@U?$less@V?$basic_string@DU?$char_traits@D@std@@V?$allocator@D@2@@std@@@2@V?$allocator@U?$pair@$$CBV?$basic_string@DU?$char_traits@D@std@@V?$allocator@D@2@@std@@V?$map@V?$basic_string@DU?$char_traits@D@std@@V?$allocator@D@2@@std@@PAXU?$less@V?$basic_string@DU?$char_traits@D@std@@V?$allocator@D@2@@std@@@2@V?$allocator@U?$pair@$$CBV?$basic_string@DU?$char_traits@D@std@@V?$allocator@D@2@@std@@PAX@std@@@2@@2@@std@@@2@$0A@@std@@@2@PAU342@@Z 100090d0 f i ObjCache.obj
 0001:000080f0       ??M?$treenode@V?$hashelement@Vword@svutil@@V12@@svutil@@@svutil@@QAE_NV01@@Z 100090f0 f i General.obj
 0001:00008170       ??O?$treenode@V?$hashelement@Vword@svutil@@V12@@svutil@@@svutil@@QAE_NV01@@Z 10009170 f i General.obj
 0001:000081f0       ??0?$treenode@V?$hashelement@Vword@svutil@@V12@@svutil@@@svutil@@QAE@ABV01@@Z 100091f0 f i General.obj
 0001:00008290       ??0?$pair@$$CBV?$basic_string@DU?$char_traits@D@std@@V?$allocator@D@2@@std@@V12@@std@@QAE@ABU01@@Z 10009290 f i General.obj
 0001:000082f0       ??1?$pair@$$CBV?$basic_string@DU?$char_traits@D@std@@V?$allocator@D@2@@std@@V12@@std@@QAE@XZ 100092f0 f i General.obj
 0001:000082f0       ??1sv_pair@@QAE@XZ         100092f0 f i General.obj
 0001:00008340       ?_Inc@const_iterator@?$_Tree@V?$_Tmap_traits@V?$basic_string@DU?$char_traits@D@std@@V?$allocator@D@2@@std@@V?$map@V?$basic_string@DU?$char_traits@D@std@@V?$allocator@D@2@@std@@PAXU?$less@V?$basic_string@DU?$char_traits@D@std@@V?$allocator@D@2@@std@@@2@V?$allocator@U?$pair@$$CBV?$basic_string@DU?$char_traits@D@std@@V?$allocator@D@2@@std@@PAX@std@@@2@@2@U?$less@V?$basic_string@DU?$char_traits@D@std@@V?$allocator@D@2@@std@@@2@V?$allocator@U?$pair@$$CBV?$basic_string@DU?$char_traits@D@std@@V?$allocator@D@2@@std@@V?$map@V?$basic_string@DU?$char_traits@D@std@@V?$allocator@D@2@@std@@PAXU?$less@V?$basic_string@DU?$char_traits@D@std@@V?$allocator@D@2@@std@@@2@V?$allocator@U?$pair@$$CBV?$basic_string@DU?$char_traits@D@std@@V?$allocator@D@2@@std@@PAX@std@@@2@@2@@std@@@2@$0A@@std@@@std@@QAEXXZ 10009340 f i ObjCache.obj
 0001:00008340       ?_Inc@const_iterator@?$_Tree@V?$_Tmap_traits@V?$basic_string@DU?$char_traits@D@std@@V?$allocator@D@2@@std@@V?$map@V?$basic_string@DU?$char_traits@D@std@@V?$allocator@D@2@@std@@V12@U?$less@V?$basic_string@DU?$char_traits@D@std@@V?$allocator@D@2@@std@@@2@V?$allocator@U?$pair@$$CBV?$basic_string@DU?$char_traits@D@std@@V?$allocator@D@2@@std@@V12@@std@@@2@@2@U?$less@V?$basic_string@DU?$char_traits@D@std@@V?$allocator@D@2@@std@@@2@V?$allocator@U?$pair@$$CBV?$basic_string@DU?$char_traits@D@std@@V?$allocator@D@2@@std@@V?$map@V?$basic_string@DU?$char_traits@D@std@@V?$allocator@D@2@@std@@V12@U?$less@V?$basic_string@DU?$char_traits@D@std@@V?$allocator@D@2@@std@@@2@V?$allocator@U?$pair@$$CBV?$basic_string@DU?$char_traits@D@std@@V?$allocator@D@2@@std@@V12@@std@@@2@@2@@std@@@2@$0A@@std@@@std@@QAEXXZ 10009340 f i ObjCache.obj
 0001:00008340       ?_Inc@const_iterator@?$_Tree@V?$_Tmap_traits@V?$basic_string@DU?$char_traits@D@std@@V?$allocator@D@2@@std@@V?$map@V?$basic_string@DU?$char_traits@D@std@@V?$allocator@D@2@@std@@V12@UStlIniCompareStringNoCase@@V?$allocator@U?$pair@$$CBV?$basic_string@DU?$char_traits@D@std@@V?$allocator@D@2@@std@@V12@@std@@@2@@2@UStlIniCompareStringNoCase@@V?$allocator@U?$pair@$$CBV?$basic_string@DU?$char_traits@D@std@@V?$allocator@D@2@@std@@V?$map@V?$basic_string@DU?$char_traits@D@std@@V?$allocator@D@2@@std@@V12@UStlIniCompareStringNoCase@@V?$allocator@U?$pair@$$CBV?$basic_string@DU?$char_traits@D@std@@V?$allocator@D@2@@std@@V12@@std@@@2@@2@@std@@@2@$0A@@std@@@std@@QAEXXZ 10009340 f i General.obj
 0001:000083a0       ??0?$treenode@V?$hashelement@Vword@svutil@@V12@@svutil@@@svutil@@QAE@ABV?$hashelement@Vword@svutil@@V12@@1@@Z 100093a0 f i General.obj
 0001:00008440       ?_Max@?$_Tree@V?$_Tmap_traits@V?$basic_string@DU?$char_traits@D@std@@V?$allocator@D@2@@std@@V12@U?$less@V?$basic_string@DU?$char_traits@D@std@@V?$allocator@D@2@@std@@@2@V?$allocator@U?$pair@$$CBV?$basic_string@DU?$char_traits@D@std@@V?$allocator@D@2@@std@@V12@@std@@@2@$0A@@std@@@std@@KAPAU_Node@?$_Tree_nod@V?$_Tmap_traits@V?$basic_string@DU?$char_traits@D@std@@V?$allocator@D@2@@std@@V12@U?$less@V?$basic_string@DU?$char_traits@D@std@@V?$allocator@D@2@@std@@@2@V?$allocator@U?$pair@$$CBV?$basic_string@DU?$char_traits@D@std@@V?$allocator@D@2@@std@@V12@@std@@@2@$0A@@std@@@2@PAU342@@Z 10009440 f i General.obj
 0001:00008440       ?_Max@?$_Tree@V?$_Tmap_traits@V?$basic_string@DU?$char_traits@D@std@@V?$allocator@D@2@@std@@V12@UStlIniCompareStringNoCase@@V?$allocator@U?$pair@$$CBV?$basic_string@DU?$char_traits@D@std@@V?$allocator@D@2@@std@@V12@@std@@@2@$0A@@std@@@std@@KAPAU_Node@?$_Tree_nod@V?$_Tmap_traits@V?$basic_string@DU?$char_traits@D@std@@V?$allocator@D@2@@std@@V12@UStlIniCompareStringNoCase@@V?$allocator@U?$pair@$$CBV?$basic_string@DU?$char_traits@D@std@@V?$allocator@D@2@@std@@V12@@std@@@2@$0A@@std@@@2@PAU342@@Z 10009440 f i General.obj
 0001:00008460       ?_Min@?$_Tree@V?$_Tmap_traits@V?$basic_string@DU?$char_traits@D@std@@V?$allocator@D@2@@std@@V12@UStlIniCompareStringNoCase@@V?$allocator@U?$pair@$$CBV?$basic_string@DU?$char_traits@D@std@@V?$allocator@D@2@@std@@V12@@std@@@2@$0A@@std@@@std@@KAPAU_Node@?$_Tree_nod@V?$_Tmap_traits@V?$basic_string@DU?$char_traits@D@std@@V?$allocator@D@2@@std@@V12@UStlIniCompareStringNoCase@@V?$allocator@U?$pair@$$CBV?$basic_string@DU?$char_traits@D@std@@V?$allocator@D@2@@std@@V12@@std@@@2@$0A@@std@@@2@PAU342@@Z 10009460 f i General.obj
 0001:00008460       ?_Min@?$_Tree@V?$_Tmap_traits@V?$basic_string@DU?$char_traits@D@std@@V?$allocator@D@2@@std@@V12@U?$less@V?$basic_string@DU?$char_traits@D@std@@V?$allocator@D@2@@std@@@2@V?$allocator@U?$pair@$$CBV?$basic_string@DU?$char_traits@D@std@@V?$allocator@D@2@@std@@V12@@std@@@2@$0A@@std@@@std@@KAPAU_Node@?$_Tree_nod@V?$_Tmap_traits@V?$basic_string@DU?$char_traits@D@std@@V?$allocator@D@2@@std@@V12@U?$less@V?$basic_string@DU?$char_traits@D@std@@V?$allocator@D@2@@std@@@2@V?$allocator@U?$pair@$$CBV?$basic_string@DU?$char_traits@D@std@@V?$allocator@D@2@@std@@V12@@std@@@2@$0A@@std@@@2@PAU342@@Z 10009460 f i General.obj
 0001:00008480       ?_Rrotate@?$_Tree@V?$_Tmap_traits@V?$basic_string@DU?$char_traits@D@std@@V?$allocator@D@2@@std@@V12@U?$less@V?$basic_string@DU?$char_traits@D@std@@V?$allocator@D@2@@std@@@2@V?$allocator@U?$pair@$$CBV?$basic_string@DU?$char_traits@D@std@@V?$allocator@D@2@@std@@V12@@std@@@2@$0A@@std@@@std@@IAEXPAU_Node@?$_Tree_nod@V?$_Tmap_traits@V?$basic_string@DU?$char_traits@D@std@@V?$allocator@D@2@@std@@V12@U?$less@V?$basic_string@DU?$char_traits@D@std@@V?$allocator@D@2@@std@@@2@V?$allocator@U?$pair@$$CBV?$basic_string@DU?$char_traits@D@std@@V?$allocator@D@2@@std@@V12@@std@@@2@$0A@@std@@@2@@Z 10009480 f i General.obj
 0001:00008480       ?_Rrotate@?$_Tree@V?$_Tmap_traits@V?$basic_string@DU?$char_traits@D@std@@V?$allocator@D@2@@std@@V12@UStlIniCompareStringNoCase@@V?$allocator@U?$pair@$$CBV?$basic_string@DU?$char_traits@D@std@@V?$allocator@D@2@@std@@V12@@std@@@2@$0A@@std@@@std@@IAEXPAU_Node@?$_Tree_nod@V?$_Tmap_traits@V?$basic_string@DU?$char_traits@D@std@@V?$allocator@D@2@@std@@V12@UStlIniCompareStringNoCase@@V?$allocator@U?$pair@$$CBV?$basic_string@DU?$char_traits@D@std@@V?$allocator@D@2@@std@@V12@@std@@@2@$0A@@std@@@2@@Z 10009480 f i General.obj
 0001:000084e0       ?_Inc@const_iterator@?$_Tree@V?$_Tmap_traits@V?$basic_string@DU?$char_traits@D@std@@V?$allocator@D@2@@std@@V12@U?$less@V?$basic_string@DU?$char_traits@D@std@@V?$allocator@D@2@@std@@@2@V?$allocator@U?$pair@$$CBV?$basic_string@DU?$char_traits@D@std@@V?$allocator@D@2@@std@@V12@@std@@@2@$0A@@std@@@std@@QAEXXZ 100094e0 f i General.obj
 0001:000084e0       ?_Inc@const_iterator@?$_Tree@V?$_Tmap_traits@V?$basic_string@DU?$char_traits@D@std@@V?$allocator@D@2@@std@@V12@UStlIniCompareStringNoCase@@V?$allocator@U?$pair@$$CBV?$basic_string@DU?$char_traits@D@std@@V?$allocator@D@2@@std@@V12@@std@@@2@$0A@@std@@@std@@QAEXXZ 100094e0 f i General.obj
 0001:00008540       ??1_Node@?$_Tree_nod@V?$_Tmap_traits@V?$basic_string@DU?$char_traits@D@std@@V?$allocator@D@2@@std@@V12@UStlIniCompareStringNoCase@@V?$allocator@U?$pair@$$CBV?$basic_string@DU?$char_traits@D@std@@V?$allocator@D@2@@std@@V12@@std@@@2@$0A@@std@@@std@@QAE@XZ 10009540 f i General.obj
 0001:00008540       ??1_Node@?$_Tree_nod@V?$_Tmap_traits@V?$basic_string@DU?$char_traits@D@std@@V?$allocator@D@2@@std@@V12@U?$less@V?$basic_string@DU?$char_traits@D@std@@V?$allocator@D@2@@std@@@2@V?$allocator@U?$pair@$$CBV?$basic_string@DU?$char_traits@D@std@@V?$allocator@D@2@@std@@V12@@std@@@2@$0A@@std@@@std@@QAE@XZ 10009540 f i General.obj
 0001:00008550       ?GetListItemSize@@YAIABUsv_list@@@Z 10009550 f   General.obj
 0001:00008560       ?CloseMapNodeObject@@YAXAAPAX@Z 10009560 f   General.obj
 0001:000085d0       ?_Lrotate@?$_Tree@V?$_Tmap_traits@V?$basic_string@DU?$char_traits@D@std@@V?$allocator@D@2@@std@@V?$map@V?$basic_string@DU?$char_traits@D@std@@V?$allocator@D@2@@std@@PAXU?$less@V?$basic_string@DU?$char_traits@D@std@@V?$allocator@D@2@@std@@@2@V?$allocator@U?$pair@$$CBV?$basic_string@DU?$char_traits@D@std@@V?$allocator@D@2@@std@@PAX@std@@@2@@2@U?$less@V?$basic_string@DU?$char_traits@D@std@@V?$allocator@D@2@@std@@@2@V?$allocator@U?$pair@$$CBV?$basic_string@DU?$char_traits@D@std@@V?$allocator@D@2@@std@@V?$map@V?$basic_string@DU?$char_traits@D@std@@V?$allocator@D@2@@std@@PAXU?$less@V?$basic_string@DU?$char_traits@D@std@@V?$allocator@D@2@@std@@@2@V?$allocator@U?$pair@$$CBV?$basic_string@DU?$char_traits@D@std@@V?$allocator@D@2@@std@@PAX@std@@@2@@2@@std@@@2@$0A@@std@@@std@@IAEXPAU_Node@?$_Tree_nod@V?$_Tmap_traits@V?$basic_string@DU?$char_traits@D@std@@V?$allocator@D@2@@std@@V?$map@V?$basic_string@DU?$char_traits@D@std@@V?$allocator@D@2@@std@@PAXU?$less@V?$basic_string@DU?$char_traits@D@std@@V?$allocator@D@2@@std@@@2@V?$allocator@U?$pair@$$CBV?$basic_string@DU?$char_traits@D@std@@V?$allocator@D@2@@std@@PAX@std@@@2@@2@U?$less@V?$basic_string@DU?$char_traits@D@std@@V?$allocator@D@2@@std@@@2@V?$allocator@U?$pair@$$CBV?$basic_string@DU?$char_traits@D@std@@V?$allocator@D@2@@std@@V?$map@V?$basic_string@DU?$char_traits@D@std@@V?$allocator@D@2@@std@@PAXU?$less@V?$basic_string@DU?$char_traits@D@std@@V?$allocator@D@2@@std@@@2@V?$allocator@U?$pair@$$CBV?$basic_string@DU?$char_traits@D@std@@V?$allocator@D@2@@std@@PAX@std@@@2@@2@@std@@@2@$0A@@std@@@2@@Z 100095d0 f i ObjCache.obj
 0001:000085d0       ?_Lrotate@?$_Tree@V?$_Tmap_traits@V?$basic_string@DU?$char_traits@D@std@@V?$allocator@D@2@@std@@V?$map@V?$basic_string@DU?$char_traits@D@std@@V?$allocator@D@2@@std@@V12@UStlIniCompareStringNoCase@@V?$allocator@U?$pair@$$CBV?$basic_string@DU?$char_traits@D@std@@V?$allocator@D@2@@std@@V12@@std@@@2@@2@UStlIniCompareStringNoCase@@V?$allocator@U?$pair@$$CBV?$basic_string@DU?$char_traits@D@std@@V?$allocator@D@2@@std@@V?$map@V?$basic_string@DU?$char_traits@D@std@@V?$allocator@D@2@@std@@V12@UStlIniCompareStringNoCase@@V?$allocator@U?$pair@$$CBV?$basic_string@DU?$char_traits@D@std@@V?$allocator@D@2@@std@@V12@@std@@@2@@2@@std@@@2@$0A@@std@@@std@@IAEXPAU_Node@?$_Tree_nod@V?$_Tmap_traits@V?$basic_string@DU?$char_traits@D@std@@V?$allocator@D@2@@std@@V?$map@V?$basic_string@DU?$char_traits@D@std@@V?$allocator@D@2@@std@@V12@UStlIniCompareStringNoCase@@V?$allocator@U?$pair@$$CBV?$basic_string@DU?$char_traits@D@std@@V?$allocator@D@2@@std@@V12@@std@@@2@@2@UStlIniCompareStringNoCase@@V?$allocator@U?$pair@$$CBV?$basic_string@DU?$char_traits@D@std@@V?$allocator@D@2@@std@@V?$map@V?$basic_string@DU?$char_traits@D@std@@V?$allocator@D@2@@std@@V12@UStlIniCompareStringNoCase@@V?$allocator@U?$pair@$$CBV?$basic_string@DU?$char_traits@D@std@@V?$allocator@D@2@@std@@V12@@std@@@2@@2@@std@@@2@$0A@@std@@@2@@Z 100095d0 f i General.obj
 0001:000085d0       ?_Lrotate@?$_Tree@V?$_Tmap_traits@V?$basic_string@DU?$char_traits@D@std@@V?$allocator@D@2@@std@@V?$map@V?$basic_string@DU?$char_traits@D@std@@V?$allocator@D@2@@std@@V12@U?$less@V?$basic_string@DU?$char_traits@D@std@@V?$allocator@D@2@@std@@@2@V?$allocator@U?$pair@$$CBV?$basic_string@DU?$char_traits@D@std@@V?$allocator@D@2@@std@@V12@@std@@@2@@2@U?$less@V?$basic_string@DU?$char_traits@D@std@@V?$allocator@D@2@@std@@@2@V?$allocator@U?$pair@$$CBV?$basic_string@DU?$char_traits@D@std@@V?$allocator@D@2@@std@@V?$map@V?$basic_string@DU?$char_traits@D@std@@V?$allocator@D@2@@std@@V12@U?$less@V?$basic_string@DU?$char_traits@D@std@@V?$allocator@D@2@@std@@@2@V?$allocator@U?$pair@$$CBV?$basic_string@DU?$char_traits@D@std@@V?$allocator@D@2@@std@@V12@@std@@@2@@2@@std@@@2@$0A@@std@@@std@@IAEXPAU_Node@?$_Tree_nod@V?$_Tmap_traits@V?$basic_string@DU?$char_traits@D@std@@V?$allocator@D@2@@std@@V?$map@V?$basic_string@DU?$char_traits@D@std@@V?$allocator@D@2@@std@@V12@U?$less@V?$basic_string@DU?$char_traits@D@std@@V?$allocator@D@2@@std@@@2@V?$allocator@U?$pair@$$CBV?$basic_string@DU?$char_traits@D@std@@V?$allocator@D@2@@std@@V12@@std@@@2@@2@U?$less@V?$basic_string@DU?$char_traits@D@std@@V?$allocator@D@2@@std@@@2@V?$allocator@U?$pair@$$CBV?$basic_string@DU?$char_traits@D@std@@V?$allocator@D@2@@std@@V?$map@V?$basic_string@DU?$char_traits@D@std@@V?$allocator@D@2@@std@@V12@U?$less@V?$basic_string@DU?$char_traits@D@std@@V?$allocator@D@2@@std@@@2@V?$allocator@U?$pair@$$CBV?$basic_string@DU?$char_traits@D@std@@V?$allocator@D@2@@std@@V12@@std@@@2@@2@@std@@@2@$0A@@std@@@2@@Z 100095d0 f i General.obj
 0001:00008630       ?_Rrotate@?$_Tree@V?$_Tmap_traits@V?$basic_string@DU?$char_traits@D@std@@V?$allocator@D@2@@std@@V?$map@V?$basic_string@DU?$char_traits@D@std@@V?$allocator@D@2@@std@@PAXU?$less@V?$basic_string@DU?$char_traits@D@std@@V?$allocator@D@2@@std@@@2@V?$allocator@U?$pair@$$CBV?$basic_string@DU?$char_traits@D@std@@V?$allocator@D@2@@std@@PAX@std@@@2@@2@U?$less@V?$basic_string@DU?$char_traits@D@std@@V?$allocator@D@2@@std@@@2@V?$allocator@U?$pair@$$CBV?$basic_string@DU?$char_traits@D@std@@V?$allocator@D@2@@std@@V?$map@V?$basic_string@DU?$char_traits@D@std@@V?$allocator@D@2@@std@@PAXU?$less@V?$basic_string@DU?$char_traits@D@std@@V?$allocator@D@2@@std@@@2@V?$allocator@U?$pair@$$CBV?$basic_string@DU?$char_traits@D@std@@V?$allocator@D@2@@std@@PAX@std@@@2@@2@@std@@@2@$0A@@std@@@std@@IAEXPAU_Node@?$_Tree_nod@V?$_Tmap_traits@V?$basic_string@DU?$char_traits@D@std@@V?$allocator@D@2@@std@@V?$map@V?$basic_string@DU?$char_traits@D@std@@V?$allocator@D@2@@std@@PAXU?$less@V?$basic_string@DU?$char_traits@D@std@@V?$allocator@D@2@@std@@@2@V?$allocator@U?$pair@$$CBV?$basic_string@DU?$char_traits@D@std@@V?$allocator@D@2@@std@@PAX@std@@@2@@2@U?$less@V?$basic_string@DU?$char_traits@D@std@@V?$allocator@D@2@@std@@@2@V?$allocator@U?$pair@$$CBV?$basic_string@DU?$char_traits@D@std@@V?$allocator@D@2@@std@@V?$map@V?$basic_string@DU?$char_traits@D@std@@V?$allocator@D@2@@std@@PAXU?$less@V?$basic_string@DU?$char_traits@D@std@@V?$allocator@D@2@@std@@@2@V?$allocator@U?$pair@$$CBV?$basic_string@DU?$char_traits@D@std@@V?$allocator@D@2@@std@@PAX@std@@@2@@2@@std@@@2@$0A@@std@@@2@@Z 10009630 f i ObjCache.obj
 0001:00008630       ?_Rrotate@?$_Tree@V?$_Tmap_traits@V?$basic_string@DU?$char_traits@D@std@@V?$allocator@D@2@@std@@V?$map@V?$basic_string@DU?$char_traits@D@std@@V?$allocator@D@2@@std@@V12@UStlIniCompareStringNoCase@@V?$allocator@U?$pair@$$CBV?$basic_string@DU?$char_traits@D@std@@V?$allocator@D@2@@std@@V12@@std@@@2@@2@UStlIniCompareStringNoCase@@V?$allocator@U?$pair@$$CBV?$basic_string@DU?$char_traits@D@std@@V?$allocator@D@2@@std@@V?$map@V?$basic_string@DU?$char_traits@D@std@@V?$allocator@D@2@@std@@V12@UStlIniCompareStringNoCase@@V?$allocator@U?$pair@$$CBV?$basic_string@DU?$char_traits@D@std@@V?$allocator@D@2@@std@@V12@@std@@@2@@2@@std@@@2@$0A@@std@@@std@@IAEXPAU_Node@?$_Tree_nod@V?$_Tmap_traits@V?$basic_string@DU?$char_traits@D@std@@V?$allocator@D@2@@std@@V?$map@V?$basic_string@DU?$char_traits@D@std@@V?$allocator@D@2@@std@@V12@UStlIniCompareStringNoCase@@V?$allocator@U?$pair@$$CBV?$basic_string@DU?$char_traits@D@std@@V?$allocator@D@2@@std@@V12@@std@@@2@@2@UStlIniCompareStringNoCase@@V?$allocator@U?$pair@$$CBV?$basic_string@DU?$char_traits@D@std@@V?$allocator@D@2@@std@@V?$map@V?$basic_string@DU?$char_traits@D@std@@V?$allocator@D@2@@std@@V12@UStlIniCompareStringNoCase@@V?$allocator@U?$pair@$$CBV?$basic_string@DU?$char_traits@D@std@@V?$allocator@D@2@@std@@V12@@std@@@2@@2@@std@@@2@$0A@@std@@@2@@Z 10009630 f i General.obj
 0001:00008630       ?_Rrotate@?$_Tree@V?$_Tmap_traits@V?$basic_string@DU?$char_traits@D@std@@V?$allocator@D@2@@std@@V?$map@V?$basic_string@DU?$char_traits@D@std@@V?$allocator@D@2@@std@@V12@U?$less@V?$basic_string@DU?$char_traits@D@std@@V?$allocator@D@2@@std@@@2@V?$allocator@U?$pair@$$CBV?$basic_string@DU?$char_traits@D@std@@V?$allocator@D@2@@std@@V12@@std@@@2@@2@U?$less@V?$basic_string@DU?$char_traits@D@std@@V?$allocator@D@2@@std@@@2@V?$allocator@U?$pair@$$CBV?$basic_string@DU?$char_traits@D@std@@V?$allocator@D@2@@std@@V?$map@V?$basic_string@DU?$char_traits@D@std@@V?$allocator@D@2@@std@@V12@U?$less@V?$basic_string@DU?$char_traits@D@std@@V?$allocator@D@2@@std@@@2@V?$allocator@U?$pair@$$CBV?$basic_string@DU?$char_traits@D@std@@V?$allocator@D@2@@std@@V12@@std@@@2@@2@@std@@@2@$0A@@std@@@std@@IAEXPAU_Node@?$_Tree_nod@V?$_Tmap_traits@V?$basic_string@DU?$char_traits@D@std@@V?$allocator@D@2@@std@@V?$map@V?$basic_string@DU?$char_traits@D@std@@V?$allocator@D@2@@std@@V12@U?$less@V?$basic_string@DU?$char_traits@D@std@@V?$allocator@D@2@@std@@@2@V?$allocator@U?$pair@$$CBV?$basic_string@DU?$char_traits@D@std@@V?$allocator@D@2@@std@@V12@@std@@@2@@2@U?$less@V?$basic_string@DU?$char_traits@D@std@@V?$allocator@D@2@@std@@@2@V?$allocator@U?$pair@$$CBV?$basic_string@DU?$char_traits@D@std@@V?$allocator@D@2@@std@@V?$map@V?$basic_string@DU?$char_traits@D@std@@V?$allocator@D@2@@std@@V12@U?$less@V?$basic_string@DU?$char_traits@D@std@@V?$allocator@D@2@@std@@@2@V?$allocator@U?$pair@$$CBV?$basic_string@DU?$char_traits@D@std@@V?$allocator@D@2@@std@@V12@@std@@@2@@2@@std@@@2@$0A@@std@@@2@@Z 10009630 f i General.obj
 0001:00008690       ?DeleteTree@?$sorttree@V?$hashelement@Vword@svutil@@V12@@svutil@@@svutil@@QAEXPAV?$treenode@V?$hashelement@Vword@svutil@@V12@@svutil@@@2@@Z 10009690 f i General.obj
 0001:000086e0       ?RomoveNode@?$sorttree@V?$hashelement@Vword@svutil@@V12@@svutil@@@svutil@@QAEXABV?$hashelement@Vword@svutil@@V12@@2@@Z 100096e0 f i General.obj
 0001:00008880       ?_Dec@const_iterator@?$_Tree@V?$_Tmap_traits@V?$basic_string@DU?$char_traits@D@std@@V?$allocator@D@2@@std@@V?$map@V?$basic_string@DU?$char_traits@D@std@@V?$allocator@D@2@@std@@V12@U?$less@V?$basic_string@DU?$char_traits@D@std@@V?$allocator@D@2@@std@@@2@V?$allocator@U?$pair@$$CBV?$basic_string@DU?$char_traits@D@std@@V?$allocator@D@2@@std@@V12@@std@@@2@@2@U?$less@V?$basic_string@DU?$char_traits@D@std@@V?$allocator@D@2@@std@@@2@V?$allocator@U?$pair@$$CBV?$basic_string@DU?$char_traits@D@std@@V?$allocator@D@2@@std@@V?$map@V?$basic_string@DU?$char_traits@D@std@@V?$allocator@D@2@@std@@V12@U?$less@V?$basic_string@DU?$char_traits@D@std@@V?$allocator@D@2@@std@@@2@V?$allocator@U?$pair@$$CBV?$basic_string@DU?$char_traits@D@std@@V?$allocator@D@2@@std@@V12@@std@@@2@@2@@std@@@2@$0A@@std@@@std@@QAEXXZ 10009880 f i General.obj
 0001:00008880       ?_Dec@const_iterator@?$_Tree@V?$_Tmap_traits@V?$basic_string@DU?$char_traits@D@std@@V?$allocator@D@2@@std@@V?$map@V?$basic_string@DU?$char_traits@D@std@@V?$allocator@D@2@@std@@V12@UStlIniCompareStringNoCase@@V?$allocator@U?$pair@$$CBV?$basic_string@DU?$char_traits@D@std@@V?$allocator@D@2@@std@@V12@@std@@@2@@2@UStlIniCompareStringNoCase@@V?$allocator@U?$pair@$$CBV?$basic_string@DU?$char_traits@D@std@@V?$allocator@D@2@@std@@V?$map@V?$basic_string@DU?$char_traits@D@std@@V?$allocator@D@2@@std@@V12@UStlIniCompareStringNoCase@@V?$allocator@U?$pair@$$CBV?$basic_string@DU?$char_traits@D@std@@V?$allocator@D@2@@std@@V12@@std@@@2@@2@@std@@@2@$0A@@std@@@std@@QAEXXZ 10009880 f i stlini.obj
 0001:00008880       ?_Dec@const_iterator@?$_Tree@V?$_Tmap_traits@V?$basic_string@DU?$char_traits@D@std@@V?$allocator@D@2@@std@@V?$map@V?$basic_string@DU?$char_traits@D@std@@V?$allocator@D@2@@std@@PAXU?$less@V?$basic_string@DU?$char_traits@D@std@@V?$allocator@D@2@@std@@@2@V?$allocator@U?$pair@$$CBV?$basic_string@DU?$char_traits@D@std@@V?$allocator@D@2@@std@@PAX@std@@@2@@2@U?$less@V?$basic_string@DU?$char_traits@D@std@@V?$allocator@D@2@@std@@@2@V?$allocator@U?$pair@$$CBV?$basic_string@DU?$char_traits@D@std@@V?$allocator@D@2@@std@@V?$map@V?$basic_string@DU?$char_traits@D@std@@V?$allocator@D@2@@std@@PAXU?$less@V?$basic_string@DU?$char_traits@D@std@@V?$allocator@D@2@@std@@@2@V?$allocator@U?$pair@$$CBV?$basic_string@DU?$char_traits@D@std@@V?$allocator@D@2@@std@@PAX@std@@@2@@2@@std@@@2@$0A@@std@@@std@@QAEXXZ 10009880 f i ObjCache.obj
 0001:000088e0       ?InsertNode@?$sorttree@V?$hashelement@Vword@svutil@@V12@@svutil@@@svutil@@QAEXPAV?$treenode@V?$hashelement@Vword@svutil@@V12@@svutil@@@2@0@Z 100098e0 f i General.obj
 0001:00008970       ??$CreateNode@V?$hashelement@Vword@svutil@@V12@@svutil@@@?$sorttree@V?$hashelement@Vword@svutil@@V12@@svutil@@@svutil@@SAPAV?$treenode@V?$hashelement@Vword@svutil@@V12@@svutil@@@1@ABV?$hashelement@Vword@svutil@@V12@@1@@Z 10009970 f i General.obj
 0001:000089d0       ?WriteIniSectionManyString@@YA_NABV?$map@V?$basic_string@DU?$char_traits@D@std@@V?$allocator@D@2@@std@@V12@U?$less@V?$basic_string@DU?$char_traits@D@std@@V?$allocator@D@2@@std@@@2@V?$allocator@U?$pair@$$CBV?$basic_string@DU?$char_traits@D@std@@V?$allocator@D@2@@std@@V12@@std@@@2@@std@@V?$basic_string@DU?$char_traits@D@std@@V?$allocator@D@2@@2@111@Z 100099d0 f   General.obj
 0001:00008d80       ?_Buynode@?$list@VSingelRecord@@V?$allocator@VSingelRecord@@@std@@@std@@IAEPAU_Node@?$_List_nod@VSingelRecord@@V?$allocator@VSingelRecord@@@std@@@2@XZ 10009d80 f i General.obj
 0001:00008da0       ??_E?$sorttree@V?$hashelement@Vword@svutil@@V12@@svutil@@@svutil@@UAEPAXI@Z 10009da0 f i General.obj
 0001:00008da0       ??_G?$sorttree@V?$hashelement@Vword@svutil@@V12@@svutil@@@svutil@@UAEPAXI@Z 10009da0 f i General.obj
 0001:00008e00       ?_Buynode@?$_Tree@V?$_Tmap_traits@V?$basic_string@DU?$char_traits@D@std@@V?$allocator@D@2@@std@@V12@U?$less@V?$basic_string@DU?$char_traits@D@std@@V?$allocator@D@2@@std@@@2@V?$allocator@U?$pair@$$CBV?$basic_string@DU?$char_traits@D@std@@V?$allocator@D@2@@std@@V12@@std@@@2@$0A@@std@@@std@@IAEPAU_Node@?$_Tree_nod@V?$_Tmap_traits@V?$basic_string@DU?$char_traits@D@std@@V?$allocator@D@2@@std@@V12@U?$less@V?$basic_string@DU?$char_traits@D@std@@V?$allocator@D@2@@std@@@2@V?$allocator@U?$pair@$$CBV?$basic_string@DU?$char_traits@D@std@@V?$allocator@D@2@@std@@V12@@std@@@2@$0A@@std@@@2@XZ 10009e00 f i General.obj
 0001:00008e00       ?_Buynode@?$_Tree@V?$_Tmap_traits@V?$basic_string@DU?$char_traits@D@std@@V?$allocator@D@2@@std@@V12@UStlIniCompareStringNoCase@@V?$allocator@U?$pair@$$CBV?$basic_string@DU?$char_traits@D@std@@V?$allocator@D@2@@std@@V12@@std@@@2@$0A@@std@@@std@@IAEPAU_Node@?$_Tree_nod@V?$_Tmap_traits@V?$basic_string@DU?$char_traits@D@std@@V?$allocator@D@2@@std@@V12@UStlIniCompareStringNoCase@@V?$allocator@U?$pair@$$CBV?$basic_string@DU?$char_traits@D@std@@V?$allocator@D@2@@std@@V12@@std@@@2@$0A@@std@@@2@XZ 10009e00 f i stlini.obj
 0001:00008e40       ?_Buynode@?$list@Usv_pair@@V?$allocator@Usv_pair@@@std@@@std@@IAEPAU_Node@?$_List_nod@Usv_pair@@V?$allocator@Usv_pair@@@std@@@2@PAU342@0ABUsv_pair@@@Z 10009e40 f i General.obj
 0001:00008ed0       ?_Incsize@?$list@Usv_pair@@V?$allocator@Usv_pair@@@std@@@std@@IAEXI@Z 10009ed0 f i General.obj
 0001:00008f70       ?InsertNodeEx@?$sorttree@V?$hashelement@Vword@svutil@@V12@@svutil@@@svutil@@QAEAAV?$hashelement@Vword@svutil@@V12@@2@ABV32@@Z 10009f70 f i General.obj
 0001:00009000       ??1exception@svutil@@UAE@XZ 1000a000 f i General.obj
 0001:00009010       ??0exception@svutil@@QAE@ABV01@@Z 1000a010 f i General.obj
 0001:00009060       ?_Buynode@?$_Tree@V?$_Tmap_traits@V?$basic_string@DU?$char_traits@D@std@@V?$allocator@D@2@@std@@V12@U?$less@V?$basic_string@DU?$char_traits@D@std@@V?$allocator@D@2@@std@@@2@V?$allocator@U?$pair@$$CBV?$basic_string@DU?$char_traits@D@std@@V?$allocator@D@2@@std@@V12@@std@@@2@$0A@@std@@@std@@IAEPAU_Node@?$_Tree_nod@V?$_Tmap_traits@V?$basic_string@DU?$char_traits@D@std@@V?$allocator@D@2@@std@@V12@U?$less@V?$basic_string@DU?$char_traits@D@std@@V?$allocator@D@2@@std@@@2@V?$allocator@U?$pair@$$CBV?$basic_string@DU?$char_traits@D@std@@V?$allocator@D@2@@std@@V12@@std@@@2@$0A@@std@@@2@PAU342@00ABU?$pair@$$CBV?$basic_string@DU?$char_traits@D@std@@V?$allocator@D@2@@std@@V12@@2@D@Z 1000a060 f i General.obj
 0001:00009100       ??$_Ucopy@PAPAVDataType@@@?$vector@PAVDataType@@V?$allocator@PAVDataType@@@std@@@std@@IAEPAPAVDataType@@PAPAV2@00@Z 1000a100 f i RecordType.obj
 0001:00009100       ??$_Ucopy@PAPAV?$hashnode@Vword@svutil@@V12@@svutil@@@?$vector@PAV?$hashnode@Vword@svutil@@V12@@svutil@@V?$allocator@PAV?$hashnode@Vword@svutil@@V12@@svutil@@@std@@@std@@IAEPAPAV?$hashnode@Vword@svutil@@V12@@svutil@@PAPAV23@00@Z 1000a100 f i General.obj
 0001:00009100       ??$_Ucopy@PAPAV?$hashnode@Vword@svutil@@PAVRecordValue@@@svutil@@@?$vector@PAV?$hashnode@Vword@svutil@@PAVRecordValue@@@svutil@@V?$allocator@PAV?$hashnode@Vword@svutil@@PAVRecordValue@@@svutil@@@std@@@std@@IAEPAPAV?$hashnode@Vword@svutil@@PAVRecordValue@@@svutil@@PAPAV23@00@Z 1000a100 f i RecordSet.obj
 0001:00009100       ??$_Ucopy@PAPAV?$hashnode@Vword@svutil@@PAVCommonData@@@svutil@@@?$vector@PAV?$hashnode@Vword@svutil@@PAVCommonData@@@svutil@@V?$allocator@PAV?$hashnode@Vword@svutil@@PAVCommonData@@@svutil@@@std@@@std@@IAEPAPAV?$hashnode@Vword@svutil@@PAVCommonData@@@svutil@@PAPAV23@00@Z 1000a100 f i Section.obj
 0001:00009100       ??$_Ucopy@PAPAV?$hashnode@Vword@svutil@@PAVPort@@@svutil@@@?$vector@PAV?$hashnode@Vword@svutil@@PAVPort@@@svutil@@V?$allocator@PAV?$hashnode@Vword@svutil@@PAVPort@@@svutil@@@std@@@std@@IAEPAPAV?$hashnode@Vword@svutil@@PAVPort@@@svutil@@PAPAV23@00@Z 1000a100 f i EntityEx.obj
 0001:00009130       ?FindNext@@YAPAXABUsv_list@@@Z 1000a130 f   General.obj
 0001:00009130       ?FindNextRecord@@YAPAXAAUsv_list@@@Z 1000a130 f   svdbapi.obj
 0001:00009160       ?ResetListItem@@YA_NABUsv_list@@@Z 1000a160 f   General.obj
 0001:00009160       ?ResetRecordList@@YA_NAAUsv_list@@@Z 1000a160 f   svdbapi.obj
 0001:00009180       ?GetItemNode@@YAPAXABUsv_list@@@Z 1000a180 f   General.obj
 0001:000091a0       ?erase@?$list@PAVStringMap@@V?$allocator@PAVStringMap@@@std@@@std@@QAE?AViterator@12@V312@@Z 1000a1a0 f i General.obj
 0001:000091e0       ??1?$hashnode@Vword@svutil@@V12@@svutil@@QAE@XZ 1000a1e0 f i General.obj
 0001:00009290       ?insert@?$hashnode@Vword@svutil@@V12@@svutil@@QAEAAV?$hashelement@Vword@svutil@@V12@@2@ABVword@2@0@Z 1000a290 f i General.obj
 0001:00009390       ?DeleteItem@@YA_NABUsv_list@@@Z 1000a390 f   General.obj
 0001:000093d0       ??0?$list@VSingelRecord@@V?$allocator@VSingelRecord@@@std@@@std@@QAE@XZ 1000a3d0 f i General.obj
 0001:000093f0       ?clearnodes@?$hashtable@Vword@svutil@@V12@@svutil@@IAEXXZ 1000a3f0 f i General.obj
 0001:00009460       ?erase@?$hashnode@Vword@svutil@@V12@@svutil@@QAE_NABVword@2@@Z 1000a460 f i General.obj
 0001:00009570       ?_Insert_n@?$vector@PAV?$hashnode@Vword@svutil@@V12@@svutil@@V?$allocator@PAV?$hashnode@Vword@svutil@@V12@@svutil@@@std@@@std@@IAEXViterator@12@IABQAV?$hashnode@Vword@svutil@@V12@@svutil@@@Z 1000a570 f i General.obj
 0001:00009760       ?erase@?$_Tree@V?$_Tmap_traits@V?$basic_string@DU?$char_traits@D@std@@V?$allocator@D@2@@std@@V12@UStlIniCompareStringNoCase@@V?$allocator@U?$pair@$$CBV?$basic_string@DU?$char_traits@D@std@@V?$allocator@D@2@@std@@V12@@std@@@2@$0A@@std@@@std@@QAE?AViterator@12@V312@@Z 1000a760 f i General.obj
 0001:00009760       ?erase@?$_Tree@V?$_Tmap_traits@V?$basic_string@DU?$char_traits@D@std@@V?$allocator@D@2@@std@@V12@U?$less@V?$basic_string@DU?$char_traits@D@std@@V?$allocator@D@2@@std@@@2@V?$allocator@U?$pair@$$CBV?$basic_string@DU?$char_traits@D@std@@V?$allocator@D@2@@std@@V12@@std@@@2@$0A@@std@@@std@@QAE?AViterator@12@V312@@Z 1000a760 f i General.obj
 0001:00009a60       ??0out_of_range@std@@QAE@ABV01@@Z 1000aa60 f i General.obj
 0001:00009a80       ?_Erase@?$_Tree@V?$_Tmap_traits@V?$basic_string@DU?$char_traits@D@std@@V?$allocator@D@2@@std@@V12@U?$less@V?$basic_string@DU?$char_traits@D@std@@V?$allocator@D@2@@std@@@2@V?$allocator@U?$pair@$$CBV?$basic_string@DU?$char_traits@D@std@@V?$allocator@D@2@@std@@V12@@std@@@2@$0A@@std@@@std@@IAEXPAU_Node@?$_Tree_nod@V?$_Tmap_traits@V?$basic_string@DU?$char_traits@D@std@@V?$allocator@D@2@@std@@V12@U?$less@V?$basic_string@DU?$char_traits@D@std@@V?$allocator@D@2@@std@@@2@V?$allocator@U?$pair@$$CBV?$basic_string@DU?$char_traits@D@std@@V?$allocator@D@2@@std@@V12@@std@@@2@$0A@@std@@@2@@Z 1000aa80 f i General.obj
 0001:00009ac0       ?_Erase@?$_Tree@V?$_Tmap_traits@V?$basic_string@DU?$char_traits@D@std@@V?$allocator@D@2@@std@@V12@UStlIniCompareStringNoCase@@V?$allocator@U?$pair@$$CBV?$basic_string@DU?$char_traits@D@std@@V?$allocator@D@2@@std@@V12@@std@@@2@$0A@@std@@@std@@IAEXPAU_Node@?$_Tree_nod@V?$_Tmap_traits@V?$basic_string@DU?$char_traits@D@std@@V?$allocator@D@2@@std@@V12@UStlIniCompareStringNoCase@@V?$allocator@U?$pair@$$CBV?$basic_string@DU?$char_traits@D@std@@V?$allocator@D@2@@std@@V12@@std@@@2@$0A@@std@@@2@@Z 1000aac0 f i General.obj
 0001:00009b00       ?GetNodeSize@@YAIPAX@Z     1000ab00 f   General.obj
 0001:00009b60       ?FindNodeValue@@YA_NPAXV?$basic_string@DU?$char_traits@D@std@@V?$allocator@D@2@@std@@AAV12@@Z 1000ab60 f   General.obj
 0001:00009c40       ?InsertItemToList@@YA_NABUsv_list@@QAX@Z 1000ac40 f   General.obj
 0001:00009ce0       ?AddItemToList@@YA_NABUsv_list@@QAX@Z 1000ace0 f   General.obj
 0001:00009d70       ?GetIniFileSections@@YA_NAAV?$list@V?$basic_string@DU?$char_traits@D@std@@V?$allocator@D@2@@std@@V?$allocator@V?$basic_string@DU?$char_traits@D@std@@V?$allocator@D@2@@std@@@2@@std@@V?$basic_string@DU?$char_traits@D@std@@V?$allocator@D@2@@2@11@Z 1000ad70 f   General.obj
 0001:00009fb0       ?GetIniFileKeys@@YA_NV?$basic_string@DU?$char_traits@D@std@@V?$allocator@D@2@@std@@AAV?$list@V?$basic_string@DU?$char_traits@D@std@@V?$allocator@D@2@@std@@V?$allocator@V?$basic_string@DU?$char_traits@D@std@@V?$allocator@D@2@@std@@@2@@2@000@Z 1000afb0 f   General.obj
 0001:0000a250       ?erase@?$hashtable@Vword@svutil@@V12@@svutil@@QAE_NABVword@2@@Z 1000b250 f i General.obj
 0001:0000a2f0       ?resize@?$vector@PAV?$hashnode@Vword@svutil@@V12@@svutil@@V?$allocator@PAV?$hashnode@Vword@svutil@@V12@@svutil@@@std@@@std@@QAEXIPAV?$hashnode@Vword@svutil@@V12@@svutil@@@Z 1000b2f0 f i General.obj
 0001:0000a380       ?_Copy@?$_Tree@V?$_Tmap_traits@V?$basic_string@DU?$char_traits@D@std@@V?$allocator@D@2@@std@@V12@U?$less@V?$basic_string@DU?$char_traits@D@std@@V?$allocator@D@2@@std@@@2@V?$allocator@U?$pair@$$CBV?$basic_string@DU?$char_traits@D@std@@V?$allocator@D@2@@std@@V12@@std@@@2@$0A@@std@@@std@@IAEPAU_Node@?$_Tree_nod@V?$_Tmap_traits@V?$basic_string@DU?$char_traits@D@std@@V?$allocator@D@2@@std@@V12@U?$less@V?$basic_string@DU?$char_traits@D@std@@V?$allocator@D@2@@std@@@2@V?$allocator@U?$pair@$$CBV?$basic_string@DU?$char_traits@D@std@@V?$allocator@D@2@@std@@V12@@std@@@2@$0A@@std@@@2@PAU342@0@Z 1000b380 f i General.obj
 0001:0000a430       ?EnumNodeAttrib@@YA_NPAXAAV?$list@Usv_pair@@V?$allocator@Usv_pair@@@std@@@std@@@Z 1000b430 f   General.obj
 0001:0000a530       ?ClearMapNode@@YA_NPAX@Z   1000b530 f   General.obj
 0001:0000a5a0       ?DeleteNodeAttrib@@YA_NPAXV?$basic_string@DU?$char_traits@D@std@@V?$allocator@D@2@@std@@@Z 1000b5a0 f   General.obj
 0001:0000a660       ?insert@?$hashtable@Vword@svutil@@V12@@svutil@@QAEAAVword@2@ABV32@0@Z 1000b660 f i General.obj
 0001:0000a750       ??1?$list@V?$basic_string@DU?$char_traits@D@std@@V?$allocator@D@2@@std@@V?$allocator@V?$basic_string@DU?$char_traits@D@std@@V?$allocator@D@2@@std@@@2@@std@@QAE@XZ 1000b750 f i EntityAPI.obj
 0001:0000a750       ??1?$list@VSingelRecord@@V?$allocator@VSingelRecord@@@std@@@std@@QAE@XZ 1000b750 f i General.obj
 0001:0000a770       ?_Copy@?$_Tree@V?$_Tmap_traits@V?$basic_string@DU?$char_traits@D@std@@V?$allocator@D@2@@std@@V12@U?$less@V?$basic_string@DU?$char_traits@D@std@@V?$allocator@D@2@@std@@@2@V?$allocator@U?$pair@$$CBV?$basic_string@DU?$char_traits@D@std@@V?$allocator@D@2@@std@@V12@@std@@@2@$0A@@std@@@std@@IAEXABV12@@Z 1000b770 f i General.obj
 0001:0000a800       ?erase@?$_Tree@V?$_Tmap_traits@V?$basic_string@DU?$char_traits@D@std@@V?$allocator@D@2@@std@@V12@U?$less@V?$basic_string@DU?$char_traits@D@std@@V?$allocator@D@2@@std@@@2@V?$allocator@U?$pair@$$CBV?$basic_string@DU?$char_traits@D@std@@V?$allocator@D@2@@std@@V12@@std@@@2@$0A@@std@@@std@@QAE?AViterator@12@V312@0@Z 1000b800 f i General.obj
 0001:0000a8c0       ?erase@?$_Tree@V?$_Tmap_traits@V?$basic_string@DU?$char_traits@D@std@@V?$allocator@D@2@@std@@V12@UStlIniCompareStringNoCase@@V?$allocator@U?$pair@$$CBV?$basic_string@DU?$char_traits@D@std@@V?$allocator@D@2@@std@@V12@@std@@@2@$0A@@std@@@std@@QAE?AViterator@12@V312@0@Z 1000b8c0 f i General.obj
 0001:0000a980       ?AddNodeAttrib@@YA_NPAXABUsv_pair@@@Z 1000b980 f   General.obj
 0001:0000aa60       ?AddNodeAttrib@@YA_NPAXV?$basic_string@DU?$char_traits@D@std@@V?$allocator@D@2@@std@@1@Z 1000ba60 f   General.obj
 0001:0000ab80       ??1?$map@V?$basic_string@DU?$char_traits@D@std@@V?$allocator@D@2@@std@@V12@U?$less@V?$basic_string@DU?$char_traits@D@std@@V?$allocator@D@2@@std@@@2@V?$allocator@U?$pair@$$CBV?$basic_string@DU?$char_traits@D@std@@V?$allocator@D@2@@std@@V12@@std@@@2@@std@@QAE@XZ 1000bb80 f i General.obj
 0001:0000ab80       ?_Tidy@?$_Tree@V?$_Tmap_traits@V?$basic_string@DU?$char_traits@D@std@@V?$allocator@D@2@@std@@V12@U?$less@V?$basic_string@DU?$char_traits@D@std@@V?$allocator@D@2@@std@@@2@V?$allocator@U?$pair@$$CBV?$basic_string@DU?$char_traits@D@std@@V?$allocator@D@2@@std@@V12@@std@@@2@$0A@@std@@@std@@IAEXXZ 1000bb80 f i General.obj
 0001:0000abb0       ?_Tidy@?$_Tree@V?$_Tmap_traits@V?$basic_string@DU?$char_traits@D@std@@V?$allocator@D@2@@std@@V12@UStlIniCompareStringNoCase@@V?$allocator@U?$pair@$$CBV?$basic_string@DU?$char_traits@D@std@@V?$allocator@D@2@@std@@V12@@std@@@2@$0A@@std@@@std@@IAEXXZ 1000bbb0 f i General.obj
 0001:0000abb0       ??1?$map@V?$basic_string@DU?$char_traits@D@std@@V?$allocator@D@2@@std@@V12@UStlIniCompareStringNoCase@@V?$allocator@U?$pair@$$CBV?$basic_string@DU?$char_traits@D@std@@V?$allocator@D@2@@std@@V12@@std@@@2@@std@@QAE@XZ 1000bbb0 f i General.obj
 0001:0000abe0       ??0?$_Tree@V?$_Tmap_traits@V?$basic_string@DU?$char_traits@D@std@@V?$allocator@D@2@@std@@V12@U?$less@V?$basic_string@DU?$char_traits@D@std@@V?$allocator@D@2@@std@@@2@V?$allocator@U?$pair@$$CBV?$basic_string@DU?$char_traits@D@std@@V?$allocator@D@2@@std@@V12@@std@@@2@$0A@@std@@@std@@QAE@ABV01@@Z 1000bbe0 f i General.obj
 0001:0000ac70       ??1?$pair@V?$basic_string@DU?$char_traits@D@std@@V?$allocator@D@2@@std@@V?$map@V?$basic_string@DU?$char_traits@D@std@@V?$allocator@D@2@@std@@V12@U?$less@V?$basic_string@DU?$char_traits@D@std@@V?$allocator@D@2@@std@@@2@V?$allocator@U?$pair@$$CBV?$basic_string@DU?$char_traits@D@std@@V?$allocator@D@2@@std@@V12@@std@@@2@@2@@std@@QAE@XZ 1000bc70 f i General.obj
 0001:0000ac70       ??1?$pair@$$CBV?$basic_string@DU?$char_traits@D@std@@V?$allocator@D@2@@std@@V?$map@V?$basic_string@DU?$char_traits@D@std@@V?$allocator@D@2@@std@@V12@U?$less@V?$basic_string@DU?$char_traits@D@std@@V?$allocator@D@2@@std@@@2@V?$allocator@U?$pair@$$CBV?$basic_string@DU?$char_traits@D@std@@V?$allocator@D@2@@std@@V12@@std@@@2@@2@@std@@QAE@XZ 1000bc70 f i General.obj
 0001:0000acf0       ??0?$map@V?$basic_string@DU?$char_traits@D@std@@V?$allocator@D@2@@std@@V12@U?$less@V?$basic_string@DU?$char_traits@D@std@@V?$allocator@D@2@@std@@@2@V?$allocator@U?$pair@$$CBV?$basic_string@DU?$char_traits@D@std@@V?$allocator@D@2@@std@@V12@@std@@@2@@std@@QAE@XZ 1000bcf0 f i General.obj
 0001:0000ad20       ??$?0V?$basic_string@DU?$char_traits@D@std@@V?$allocator@D@2@@std@@V?$map@V?$basic_string@DU?$char_traits@D@std@@V?$allocator@D@2@@std@@V12@U?$less@V?$basic_string@DU?$char_traits@D@std@@V?$allocator@D@2@@std@@@2@V?$allocator@U?$pair@$$CBV?$basic_string@DU?$char_traits@D@std@@V?$allocator@D@2@@std@@V12@@std@@@2@@1@@?$pair@$$CBV?$basic_string@DU?$char_traits@D@std@@V?$allocator@D@2@@std@@V?$map@V?$basic_string@DU?$char_traits@D@std@@V?$allocator@D@2@@std@@V12@U?$less@V?$basic_string@DU?$char_traits@D@std@@V?$allocator@D@2@@std@@@2@V?$allocator@U?$pair@$$CBV?$basic_string@DU?$char_traits@D@std@@V?$allocator@D@2@@std@@V12@@std@@@2@@2@@std@@QAE@ABU?$pair@V?$basic_string@DU?$char_traits@D@std@@V?$allocator@D@2@@std@@V?$map@V?$basic_string@DU?$char_traits@D@std@@V?$allocator@D@2@@std@@V12@U?$less@V?$basic_string@DU?$char_traits@D@std@@V?$allocator@D@2@@std@@@2@V?$allocator@U?$pair@$$CBV?$basic_string@DU?$char_traits@D@std@@V?$allocator@D@2@@std@@V12@@std@@@2@@2@@1@@Z 1000bd20 f i General.obj
 0001:0000ad20       ??0?$pair@$$CBV?$basic_string@DU?$char_traits@D@std@@V?$allocator@D@2@@std@@V?$map@V?$basic_string@DU?$char_traits@D@std@@V?$allocator@D@2@@std@@V12@U?$less@V?$basic_string@DU?$char_traits@D@std@@V?$allocator@D@2@@std@@@2@V?$allocator@U?$pair@$$CBV?$basic_string@DU?$char_traits@D@std@@V?$allocator@D@2@@std@@V12@@std@@@2@@2@@std@@QAE@ABU01@@Z 1000bd20 f i General.obj
 0001:0000ad80       ??$make_pair@V?$basic_string@DU?$char_traits@D@std@@V?$allocator@D@2@@std@@V?$map@V?$basic_string@DU?$char_traits@D@std@@V?$allocator@D@2@@std@@V12@U?$less@V?$basic_string@DU?$char_traits@D@std@@V?$allocator@D@2@@std@@@2@V?$allocator@U?$pair@$$CBV?$basic_string@DU?$char_traits@D@std@@V?$allocator@D@2@@std@@V12@@std@@@2@@2@@std@@YA?AU?$pair@V?$basic_string@DU?$char_traits@D@std@@V?$allocator@D@2@@std@@V?$map@V?$basic_string@DU?$char_traits@D@std@@V?$allocator@D@2@@std@@V12@U?$less@V?$basic_string@DU?$char_traits@D@std@@V?$allocator@D@2@@std@@@2@V?$allocator@U?$pair@$$CBV?$basic_string@DU?$char_traits@D@std@@V?$allocator@D@2@@std@@V12@@std@@@2@@2@@0@V?$basic_string@DU?$char_traits@D@std@@V?$allocator@D@2@@0@V?$map@V?$basic_string@DU?$char_traits@D@std@@V?$allocator@D@2@@std@@V12@U?$less@V?$basic_string@DU?$char_traits@D@std@@V?$allocator@D@2@@std@@@2@V?$allocator@U?$pair@$$CBV?$basic_string@DU?$char_traits@D@std@@V?$allocator@D@2@@std@@V12@@std@@@2@@0@@Z 1000bd80 f i General.obj
 0001:0000ae20       ??1?$pair@$$CBV?$basic_string@DU?$char_traits@D@std@@V?$allocator@D@2@@std@@V?$map@V?$basic_string@DU?$char_traits@D@std@@V?$allocator@D@2@@std@@V12@UStlIniCompareStringNoCase@@V?$allocator@U?$pair@$$CBV?$basic_string@DU?$char_traits@D@std@@V?$allocator@D@2@@std@@V12@@std@@@2@@2@@std@@QAE@XZ 1000be20 f i General.obj
 0001:0000aea0       ?_Buynode@?$_Tree@V?$_Tmap_traits@V?$basic_string@DU?$char_traits@D@std@@V?$allocator@D@2@@std@@V?$map@V?$basic_string@DU?$char_traits@D@std@@V?$allocator@D@2@@std@@V12@U?$less@V?$basic_string@DU?$char_traits@D@std@@V?$allocator@D@2@@std@@@2@V?$allocator@U?$pair@$$CBV?$basic_string@DU?$char_traits@D@std@@V?$allocator@D@2@@std@@V12@@std@@@2@@2@U?$less@V?$basic_string@DU?$char_traits@D@std@@V?$allocator@D@2@@std@@@2@V?$allocator@U?$pair@$$CBV?$basic_string@DU?$char_traits@D@std@@V?$allocator@D@2@@std@@V?$map@V?$basic_string@DU?$char_traits@D@std@@V?$allocator@D@2@@std@@V12@U?$less@V?$basic_string@DU?$char_traits@D@std@@V?$allocator@D@2@@std@@@2@V?$allocator@U?$pair@$$CBV?$basic_string@DU?$char_traits@D@std@@V?$allocator@D@2@@std@@V12@@std@@@2@@2@@std@@@2@$0A@@std@@@std@@IAEPAU_Node@?$_Tree_nod@V?$_Tmap_traits@V?$basic_string@DU?$char_traits@D@std@@V?$allocator@D@2@@std@@V?$map@V?$basic_string@DU?$char_traits@D@std@@V?$allocator@D@2@@std@@V12@U?$less@V?$basic_string@DU?$char_traits@D@std@@V?$allocator@D@2@@std@@@2@V?$allocator@U?$pair@$$CBV?$basic_string@DU?$char_traits@D@std@@V?$allocator@D@2@@std@@V12@@std@@@2@@2@U?$less@V?$basic_string@DU?$char_traits@D@std@@V?$allocator@D@2@@std@@@2@V?$allocator@U?$pair@$$CBV?$basic_string@DU?$char_traits@D@std@@V?$allocator@D@2@@std@@V?$map@V?$basic_string@DU?$char_traits@D@std@@V?$allocator@D@2@@std@@V12@U?$less@V?$basic_string@DU?$char_traits@D@std@@V?$allocator@D@2@@std@@@2@V?$allocator@U?$pair@$$CBV?$basic_string@DU?$char_traits@D@std@@V?$allocator@D@2@@std@@V12@@std@@@2@@2@@std@@@2@$0A@@std@@@2@PAU342@00ABU?$pair@$$CBV?$basic_string@DU?$char_traits@D@std@@V?$allocator@D@2@@std@@V?$map@V?$basic_string@DU?$char_traits@D@std@@V?$allocator@D@2@@std@@V12@U?$less@V?$basic_string@DU?$char_traits@D@std@@V?$allocator@D@2@@std@@@2@V?$allocator@U?$pair@$$CBV?$basic_string@DU?$char_traits@D@std@@V?$allocator@D@2@@std@@V12@@std@@@2@@2@@2@D@Z 1000bea0 f i General.obj
 0001:0000af40       ??1_Node@?$_Tree_nod@V?$_Tmap_traits@V?$basic_string@DU?$char_traits@D@std@@V?$allocator@D@2@@std@@V?$map@V?$basic_string@DU?$char_traits@D@std@@V?$allocator@D@2@@std@@V12@UStlIniCompareStringNoCase@@V?$allocator@U?$pair@$$CBV?$basic_string@DU?$char_traits@D@std@@V?$allocator@D@2@@std@@V12@@std@@@2@@2@UStlIniCompareStringNoCase@@V?$allocator@U?$pair@$$CBV?$basic_string@DU?$char_traits@D@std@@V?$allocator@D@2@@std@@V?$map@V?$basic_string@DU?$char_traits@D@std@@V?$allocator@D@2@@std@@V12@UStlIniCompareStringNoCase@@V?$allocator@U?$pair@$$CBV?$basic_string@DU?$char_traits@D@std@@V?$allocator@D@2@@std@@V12@@std@@@2@@2@@std@@@2@$0A@@std@@@std@@QAE@XZ 1000bf40 f i General.obj
 0001:0000af50       ?_Insert@?$_Tree@V?$_Tmap_traits@V?$basic_string@DU?$char_traits@D@std@@V?$allocator@D@2@@std@@V?$map@V?$basic_string@DU?$char_traits@D@std@@V?$allocator@D@2@@std@@V12@U?$less@V?$basic_string@DU?$char_traits@D@std@@V?$allocator@D@2@@std@@@2@V?$allocator@U?$pair@$$CBV?$basic_string@DU?$char_traits@D@std@@V?$allocator@D@2@@std@@V12@@std@@@2@@2@U?$less@V?$basic_string@DU?$char_traits@D@std@@V?$allocator@D@2@@std@@@2@V?$allocator@U?$pair@$$CBV?$basic_string@DU?$char_traits@D@std@@V?$allocator@D@2@@std@@V?$map@V?$basic_string@DU?$char_traits@D@std@@V?$allocator@D@2@@std@@V12@U?$less@V?$basic_string@DU?$char_traits@D@std@@V?$allocator@D@2@@std@@@2@V?$allocator@U?$pair@$$CBV?$basic_string@DU?$char_traits@D@std@@V?$allocator@D@2@@std@@V12@@std@@@2@@2@@std@@@2@$0A@@std@@@std@@IAE?AViterator@12@_NPAU_Node@?$_Tree_nod@V?$_Tmap_traits@V?$basic_string@DU?$char_traits@D@std@@V?$allocator@D@2@@std@@V?$map@V?$basic_string@DU?$char_traits@D@std@@V?$allocator@D@2@@std@@V12@U?$less@V?$basic_string@DU?$char_traits@D@std@@V?$allocator@D@2@@std@@@2@V?$allocator@U?$pair@$$CBV?$basic_string@DU?$char_traits@D@std@@V?$allocator@D@2@@std@@V12@@std@@@2@@2@U?$less@V?$basic_string@DU?$char_traits@D@std@@V?$allocator@D@2@@std@@@2@V?$allocator@U?$pair@$$CBV?$basic_string@DU?$char_traits@D@std@@V?$allocator@D@2@@std@@V?$map@V?$basic_string@DU?$char_traits@D@std@@V?$allocator@D@2@@std@@V12@U?$less@V?$basic_string@DU?$char_traits@D@std@@V?$allocator@D@2@@std@@@2@V?$allocator@U?$pair@$$CBV?$basic_string@DU?$char_traits@D@std@@V?$allocator@D@2@@std@@V12@@std@@@2@@2@@std@@@2@$0A@@std@@@2@ABU?$pair@$$CBV?$basic_string@DU?$char_traits@D@std@@V?$allocator@D@2@@std@@V?$map@V?$basic_string@DU?$char_traits@D@std@@V?$allocator@D@2@@std@@V12@U?$less@V?$basic_string@DU?$char_traits@D@std@@V?$allocator@D@2@@std@@@2@V?$allocator@U?$pair@$$CBV?$basic_string@DU?$char_traits@D@std@@V?$allocator@D@2@@std@@V12@@std@@@2@@2@@2@@Z 1000bf50 f i General.obj
 0001:0000b110       ?insert@?$_Tree@V?$_Tmap_traits@V?$basic_string@DU?$char_traits@D@std@@V?$allocator@D@2@@std@@V?$map@V?$basic_string@DU?$char_traits@D@std@@V?$allocator@D@2@@std@@V12@U?$less@V?$basic_string@DU?$char_traits@D@std@@V?$allocator@D@2@@std@@@2@V?$allocator@U?$pair@$$CBV?$basic_string@DU?$char_traits@D@std@@V?$allocator@D@2@@std@@V12@@std@@@2@@2@U?$less@V?$basic_string@DU?$char_traits@D@std@@V?$allocator@D@2@@std@@@2@V?$allocator@U?$pair@$$CBV?$basic_string@DU?$char_traits@D@std@@V?$allocator@D@2@@std@@V?$map@V?$basic_string@DU?$char_traits@D@std@@V?$allocator@D@2@@std@@V12@U?$less@V?$basic_string@DU?$char_traits@D@std@@V?$allocator@D@2@@std@@@2@V?$allocator@U?$pair@$$CBV?$basic_string@DU?$char_traits@D@std@@V?$allocator@D@2@@std@@V12@@std@@@2@@2@@std@@@2@$0A@@std@@@std@@QAE?AU?$pair@Viterator@?$_Tree@V?$_Tmap_traits@V?$basic_string@DU?$char_traits@D@std@@V?$allocator@D@2@@std@@V?$map@V?$basic_string@DU?$char_traits@D@std@@V?$allocator@D@2@@std@@V12@U?$less@V?$basic_string@DU?$char_traits@D@std@@V?$allocator@D@2@@std@@@2@V?$allocator@U?$pair@$$CBV?$basic_string@DU?$char_traits@D@std@@V?$allocator@D@2@@std@@V12@@std@@@2@@2@U?$less@V?$basic_string@DU?$char_traits@D@std@@V?$allocator@D@2@@std@@@2@V?$allocator@U?$pair@$$CBV?$basic_string@DU?$char_traits@D@std@@V?$allocator@D@2@@std@@V?$map@V?$basic_string@DU?$char_traits@D@std@@V?$allocator@D@2@@std@@V12@U?$less@V?$basic_string@DU?$char_traits@D@std@@V?$allocator@D@2@@std@@@2@V?$allocator@U?$pair@$$CBV?$basic_string@DU?$char_traits@D@std@@V?$allocator@D@2@@std@@V12@@std@@@2@@2@@std@@@2@$0A@@std@@@std@@_N@2@ABU?$pair@$$CBV?$basic_string@DU?$char_traits@D@std@@V?$allocator@D@2@@std@@V?$map@V?$basic_string@DU?$char_traits@D@std@@V?$allocator@D@2@@std@@V12@U?$less@V?$basic_string@DU?$char_traits@D@std@@V?$allocator@D@2@@std@@@2@V?$allocator@U?$pair@$$CBV?$basic_string@DU?$char_traits@D@std@@V?$allocator@D@2@@std@@V12@@std@@@2@@2@@2@@Z 1000c110 f i General.obj
 0001:0000b1f0       ?GetSvIniFileBySections@@YA_NAAV?$map@V?$basic_string@DU?$char_traits@D@std@@V?$allocator@D@2@@std@@V?$map@V?$basic_string@DU?$char_traits@D@std@@V?$allocator@D@2@@std@@V12@U?$less@V?$basic_string@DU?$char_traits@D@std@@V?$allocator@D@2@@std@@@2@V?$allocator@U?$pair@$$CBV?$basic_string@DU?$char_traits@D@std@@V?$allocator@D@2@@std@@V12@@std@@@2@@2@U?$less@V?$basic_string@DU?$char_traits@D@std@@V?$allocator@D@2@@std@@@2@V?$allocator@U?$pair@$$CBV?$basic_string@DU?$char_traits@D@std@@V?$allocator@D@2@@std@@V?$map@V?$basic_string@DU?$char_traits@D@std@@V?$allocator@D@2@@std@@V12@U?$less@V?$basic_string@DU?$char_traits@D@std@@V?$allocator@D@2@@std@@@2@V?$allocator@U?$pair@$$CBV?$basic_string@DU?$char_traits@D@std@@V?$allocator@D@2@@std@@V12@@std@@@2@@2@@std@@@2@@std@@V?$basic_string@DU?$char_traits@D@std@@V?$allocator@D@2@@2@111@Z 1000c1f0 f   General.obj
 0001:0000b600       ?erase@?$_Tree@V?$_Tmap_traits@V?$basic_string@DU?$char_traits@D@std@@V?$allocator@D@2@@std@@V?$map@V?$basic_string@DU?$char_traits@D@std@@V?$allocator@D@2@@std@@V12@UStlIniCompareStringNoCase@@V?$allocator@U?$pair@$$CBV?$basic_string@DU?$char_traits@D@std@@V?$allocator@D@2@@std@@V12@@std@@@2@@2@UStlIniCompareStringNoCase@@V?$allocator@U?$pair@$$CBV?$basic_string@DU?$char_traits@D@std@@V?$allocator@D@2@@std@@V?$map@V?$basic_string@DU?$char_traits@D@std@@V?$allocator@D@2@@std@@V12@UStlIniCompareStringNoCase@@V?$allocator@U?$pair@$$CBV?$basic_string@DU?$char_traits@D@std@@V?$allocator@D@2@@std@@V12@@std@@@2@@2@@std@@@2@$0A@@std@@@std@@QAE?AViterator@12@V312@@Z 1000c600 f i General.obj
 0001:0000b8e0       ?_Erase@?$_Tree@V?$_Tmap_traits@V?$basic_string@DU?$char_traits@D@std@@V?$allocator@D@2@@std@@V?$map@V?$basic_string@DU?$char_traits@D@std@@V?$allocator@D@2@@std@@V12@UStlIniCompareStringNoCase@@V?$allocator@U?$pair@$$CBV?$basic_string@DU?$char_traits@D@std@@V?$allocator@D@2@@std@@V12@@std@@@2@@2@UStlIniCompareStringNoCase@@V?$allocator@U?$pair@$$CBV?$basic_string@DU?$char_traits@D@std@@V?$allocator@D@2@@std@@V?$map@V?$basic_string@DU?$char_traits@D@std@@V?$allocator@D@2@@std@@V12@UStlIniCompareStringNoCase@@V?$allocator@U?$pair@$$CBV?$basic_string@DU?$char_traits@D@std@@V?$allocator@D@2@@std@@V12@@std@@@2@@2@@std@@@2@$0A@@std@@@std@@IAEXPAU_Node@?$_Tree_nod@V?$_Tmap_traits@V?$basic_string@DU?$char_traits@D@std@@V?$allocator@D@2@@std@@V?$map@V?$basic_string@DU?$char_traits@D@std@@V?$allocator@D@2@@std@@V12@UStlIniCompareStringNoCase@@V?$allocator@U?$pair@$$CBV?$basic_string@DU?$char_traits@D@std@@V?$allocator@D@2@@std@@V12@@std@@@2@@2@UStlIniCompareStringNoCase@@V?$allocator@U?$pair@$$CBV?$basic_string@DU?$char_traits@D@std@@V?$allocator@D@2@@std@@V?$map@V?$basic_string@DU?$char_traits@D@std@@V?$allocator@D@2@@std@@V12@UStlIniCompareStringNoCase@@V?$allocator@U?$pair@$$CBV?$basic_string@DU?$char_traits@D@std@@V?$allocator@D@2@@std@@V12@@std@@@2@@2@@std@@@2@$0A@@std@@@2@@Z 1000c8e0 f i General.obj
 0001:0000b920       ?erase@?$_Tree@V?$_Tmap_traits@V?$basic_string@DU?$char_traits@D@std@@V?$allocator@D@2@@std@@V?$map@V?$basic_string@DU?$char_traits@D@std@@V?$allocator@D@2@@std@@V12@UStlIniCompareStringNoCase@@V?$allocator@U?$pair@$$CBV?$basic_string@DU?$char_traits@D@std@@V?$allocator@D@2@@std@@V12@@std@@@2@@2@UStlIniCompareStringNoCase@@V?$allocator@U?$pair@$$CBV?$basic_string@DU?$char_traits@D@std@@V?$allocator@D@2@@std@@V?$map@V?$basic_string@DU?$char_traits@D@std@@V?$allocator@D@2@@std@@V12@UStlIniCompareStringNoCase@@V?$allocator@U?$pair@$$CBV?$basic_string@DU?$char_traits@D@std@@V?$allocator@D@2@@std@@V12@@std@@@2@@2@@std@@@2@$0A@@std@@@std@@QAE?AViterator@12@V312@0@Z 1000c920 f i General.obj
 0001:0000b9e0       ?_Tidy@?$_Tree@V?$_Tmap_traits@V?$basic_string@DU?$char_traits@D@std@@V?$allocator@D@2@@std@@V?$map@V?$basic_string@DU?$char_traits@D@std@@V?$allocator@D@2@@std@@V12@UStlIniCompareStringNoCase@@V?$allocator@U?$pair@$$CBV?$basic_string@DU?$char_traits@D@std@@V?$allocator@D@2@@std@@V12@@std@@@2@@2@UStlIniCompareStringNoCase@@V?$allocator@U?$pair@$$CBV?$basic_string@DU?$char_traits@D@std@@V?$allocator@D@2@@std@@V?$map@V?$basic_string@DU?$char_traits@D@std@@V?$allocator@D@2@@std@@V12@UStlIniCompareStringNoCase@@V?$allocator@U?$pair@$$CBV?$basic_string@DU?$char_traits@D@std@@V?$allocator@D@2@@std@@V12@@std@@@2@@2@@std@@@2@$0A@@std@@@std@@IAEXXZ 1000c9e0 f i General.obj
 0001:0000b9e0       ??1?$map@V?$basic_string@DU?$char_traits@D@std@@V?$allocator@D@2@@std@@V?$map@V?$basic_string@DU?$char_traits@D@std@@V?$allocator@D@2@@std@@V12@UStlIniCompareStringNoCase@@V?$allocator@U?$pair@$$CBV?$basic_string@DU?$char_traits@D@std@@V?$allocator@D@2@@std@@V12@@std@@@2@@2@UStlIniCompareStringNoCase@@V?$allocator@U?$pair@$$CBV?$basic_string@DU?$char_traits@D@std@@V?$allocator@D@2@@std@@V?$map@V?$basic_string@DU?$char_traits@D@std@@V?$allocator@D@2@@std@@V12@UStlIniCompareStringNoCase@@V?$allocator@U?$pair@$$CBV?$basic_string@DU?$char_traits@D@std@@V?$allocator@D@2@@std@@V12@@std@@@2@@2@@std@@@2@@std@@QAE@XZ 1000c9e0 f i General.obj
 0001:0000ba10       ?SetCgiVersionByFile@@YA_NV?$basic_string@DU?$char_traits@D@std@@V?$allocator@D@2@@std@@@Z 1000ca10 f   General.obj
 0001:0000bb70       ?SetSvdbAddrByFile@@YA_NV?$basic_string@DU?$char_traits@D@std@@V?$allocator@D@2@@std@@@Z 1000cb70 f   General.obj
 0001:0000bcd0       ?GetRawDataSize@Group@@UAEIXZ 1000ccd0 f   Group.obj
 0001:0000bd50       ?GetRawData@Group@@UAEPADPADI@Z 1000cd50 f   Group.obj
 0001:0000beb0       ?CreateObjectByRawData@Group@@UAEHPBDI@Z 1000ceb0 f   Group.obj
 0001:0000c0b0       ??0Group@@QAE@XZ           1000d0b0 f   Group.obj
 0001:0000c140       ??1Group@@QAE@XZ           1000d140 f   Group.obj
 0001:0000c1e0       ?CreatIdcUser@@YA?AV?$basic_string@DU?$char_traits@D@std@@V?$allocator@D@2@@std@@V12@00@Z 1000d1e0 f   GroupAPI.obj
 0001:0000c430       ?CopyIniFile@@YA_NV?$basic_string@DU?$char_traits@D@std@@V?$allocator@D@2@@std@@00@Z 1000d430 f   GroupAPI.obj
 0001:0000c680       ?Cache_GetGroup@@YAPAXV?$basic_string@DU?$char_traits@D@std@@V?$allocator@D@2@@std@@@Z 1000d680 f   GroupAPI.obj
 0001:0000c6f0       ?GetGroupWithVer@@YAPAXV?$basic_string@DU?$char_traits@D@std@@V?$allocator@D@2@@std@@00AAI@Z 1000d6f0 f   GroupAPI.obj
 0001:0000c980       ?GetGroup@@YAPAXV?$basic_string@DU?$char_traits@D@std@@V?$allocator@D@2@@std@@00@Z 1000d980 f   GroupAPI.obj
 0001:0000cac0       ?CreateGroup@@YAPAXXZ      1000dac0 f   GroupAPI.obj
 0001:0000cb30       ?GetGroupMainAttribNode@@YAPAXPAX@Z 1000db30 f   GroupAPI.obj
 0001:0000cb30       ?GetEntityMainAttribNode@@YAPAXPAX@Z 1000db30 f   EntityAPI.obj
 0001:0000cb40       ?DeleteGroup@@YA_NV?$basic_string@DU?$char_traits@D@std@@V?$allocator@D@2@@std@@00@Z 1000db40 f   GroupAPI.obj
 0001:0000cd70       ?AddNewGroup@@YA?AV?$basic_string@DU?$char_traits@D@std@@V?$allocator@D@2@@std@@PAXV12@11@Z 1000dd70 f   GroupAPI.obj
 0001:0000d020       ?SubmitGroup@@YA_NPAXV?$basic_string@DU?$char_traits@D@std@@V?$allocator@D@2@@std@@1@Z 1000e020 f   GroupAPI.obj
 0001:0000d230       ?GetAllGroupsInfo@@YA_NAAV?$list@Usv_pair@@V?$allocator@Usv_pair@@@std@@@std@@V?$basic_string@DU?$char_traits@D@std@@V?$allocator@D@2@@2@11@Z 1000e230 f   GroupAPI.obj
 0001:0000d480       ?CloseGroup@@YA_NAAPAX@Z   1000e480 f   GroupAPI.obj
 0001:0000d500       ?_Incsize@?$list@PADV?$allocator@PAD@std@@@std@@IAEXI@Z 1000e500 f i GroupAPI.obj
 0001:0000d5a0       ??$_Insert@Vconst_iterator@?$list@Vword@svutil@@V?$allocator@Vword@svutil@@@std@@@std@@@?$list@Vword@svutil@@V?$allocator@Vword@svutil@@@std@@@std@@QAEXViterator@01@Vconst_iterator@01@1Uforward_iterator_tag@1@@Z 1000e5a0 f i GroupAPI.obj
 0001:0000d650       ??0?$list@Vword@svutil@@V?$allocator@Vword@svutil@@@std@@@std@@QAE@ABV01@@Z 1000e650 f i GroupAPI.obj
 0001:0000d6d0       ?GetSubGroupsIDByGroup@@YA_NPAXAAV?$list@V?$basic_string@DU?$char_traits@D@std@@V?$allocator@D@2@@std@@V?$allocator@V?$basic_string@DU?$char_traits@D@std@@V?$allocator@D@2@@std@@@2@@std@@@Z 1000e6d0 f   GroupAPI.obj
 0001:0000d7e0       ?GetSubGroupsIDByGroupEx@@YA_NPAXAAV?$list@PADV?$allocator@PAD@std@@@std@@@Z 1000e7e0 f   GroupAPI.obj
 0001:0000d8e0       ?GetSubEntitysIDByGroup@@YA_NPAXAAV?$list@V?$basic_string@DU?$char_traits@D@std@@V?$allocator@D@2@@std@@V?$allocator@V?$basic_string@DU?$char_traits@D@std@@V?$allocator@D@2@@std@@@2@@std@@@Z 1000e8e0 f   GroupAPI.obj
 0001:0000d9f0       ??0Monitor@@QAE@XZ         1000e9f0 f   Monitor.obj
 0001:0000daa0       ??1Monitor@@QAE@XZ         1000eaa0 f   Monitor.obj
 0001:0000db30       ?GetRawDataSize@Monitor@@UAEIXZ 1000eb30 f   Monitor.obj
 0001:0000db90       ?GetRawData@Monitor@@UAEPADPADI@Z 1000eb90 f   Monitor.obj
 0001:0000dcf0       ?CreateObjectByRawData@Monitor@@UAEHPBDI@Z 1000ecf0 f   Monitor.obj
 0001:0000de80       ?CacheRefresh_GetMonitor@@YAPAXV?$basic_string@DU?$char_traits@D@std@@V?$allocator@D@2@@std@@@Z 1000ee80 f   MonitorAPI.obj
 0001:0000def0       ?Cache_GetMonitor@@YAPAXV?$basic_string@DU?$char_traits@D@std@@V?$allocator@D@2@@std@@@Z 1000eef0 f   MonitorAPI.obj
 0001:0000df60       ?GetMonitorWithVer@@YAPAXV?$basic_string@DU?$char_traits@D@std@@V?$allocator@D@2@@std@@00AAI@Z 1000ef60 f   MonitorAPI.obj
 0001:0000e1e0       ?GetMonitor@@YAPAXV?$basic_string@DU?$char_traits@D@std@@V?$allocator@D@2@@std@@00@Z 1000f1e0 f   MonitorAPI.obj
 0001:0000e320       ?GetMonitorsInfoBySE@@YA_NV?$basic_string@DU?$char_traits@D@std@@V?$allocator@D@2@@std@@AAV?$list@Usv_pair@@V?$allocator@Usv_pair@@@std@@@2@000@Z 1000f320 f   MonitorAPI.obj
 0001:0000e5b0       ?CreateMonitor@@YAPAXXZ    1000f5b0 f   MonitorAPI.obj
 0001:0000e620       ?GetMonitorParameter@@YAPAXPAX@Z 1000f620 f   MonitorAPI.obj
 0001:0000e630       ?GetMonitorAdvanceParameterNode@@YAPAXPAX@Z 1000f630 f   MonitorAPI.obj
 0001:0000e640       ?GetMonitorErrorAlertCondition@@YAPAXPAX@Z 1000f640 f   MonitorAPI.obj
 0001:0000e650       ?GetMonitorWarningAlertCondition@@YAPAXPAX@Z 1000f650 f   MonitorAPI.obj
 0001:0000e660       ?GetMonitorGoodAlertCondition@@YAPAXPAX@Z 1000f660 f   MonitorAPI.obj
 0001:0000e670       ?DeleteSVMonitor@@YA_NV?$basic_string@DU?$char_traits@D@std@@V?$allocator@D@2@@std@@00@Z 1000f670 f   MonitorAPI.obj
 0001:0000e890       ?SubmitMonitor@@YA_NPAXV?$basic_string@DU?$char_traits@D@std@@V?$allocator@D@2@@std@@1@Z 1000f890 f   MonitorAPI.obj
 0001:0000eaa0       ?AddNewMonitor@@YA?AV?$basic_string@DU?$char_traits@D@std@@V?$allocator@D@2@@std@@PAXV12@11@Z 1000faa0 f   MonitorAPI.obj
 0001:0000ed50       ?GetAllMonitorsInfo@@YA_NAAV?$list@Usv_pair@@V?$allocator@Usv_pair@@@std@@@std@@V?$basic_string@DU?$char_traits@D@std@@V?$allocator@D@2@@2@11@Z 1000fd50 f   MonitorAPI.obj
 0001:0000efa0       ?CloseMonitor@@YAXAAPAX@Z  1000ffa0 f   MonitorAPI.obj
 0001:0000f000       ?MonitorCopyGeneral@@YA?AV?$basic_string@DU?$char_traits@D@std@@V?$allocator@D@2@@std@@_NV12@111@Z 10010000 f   MonitorAPI.obj
 0001:0000f310       ?MonitorCopyAndCreateTable@@YA?AV?$basic_string@DU?$char_traits@D@std@@V?$allocator@D@2@@std@@V12@000@Z 10010310 f   MonitorAPI.obj
 0001:0000f420       ?MonitorCopy@@YA?AV?$basic_string@DU?$char_traits@D@std@@V?$allocator@D@2@@std@@V12@000@Z 10010420 f   MonitorAPI.obj
 0001:0000f530       ?GetRawDataSize@MonitorTemplet@@UAEIXZ 10010530 f   MonitorTemplet.obj
 0001:0000f5d0       ?GetRawData@MonitorTemplet@@UAEPADPADI@Z 100105d0 f   MonitorTemplet.obj
 0001:0000f7d0       ??0MonitorTemplet@@QAE@XZ  100107d0 f   MonitorTemplet.obj
 0001:0000f8a0       ??1MonitorTemplet@@QAE@XZ  100108a0 f   MonitorTemplet.obj
 0001:0000fa50       ?CreateObjectByRawData@MonitorTemplet@@UAEHPBDI@Z 10010a50 f   MonitorTemplet.obj
 0001:0000fd90       ?Cache_GetMonitorTemplet@@YAPAXH@Z 10010d90 f   MonitorTempletAPI.obj
 0001:0000fda0       ?GetMonitorTemplet@@YAPAXHV?$basic_string@DU?$char_traits@D@std@@V?$allocator@D@2@@std@@0@Z 10010da0 f   MonitorTempletAPI.obj
 0001:0000ffe0       ?GetMTMainAttribNode@@YAPAXPAX@Z 10010fe0 f   MonitorTempletAPI.obj
 0001:0000fff0       ?GetMTErrorAlertCondition@@YAPAXPAX@Z 10010ff0 f   MonitorTempletAPI.obj
 0001:00010080       ?GetMTWarningAlertCondition@@YAPAXPAX@Z 10011080 f   MonitorTempletAPI.obj
 0001:00010110       ?GetMTGoodAlertCondition@@YAPAXPAX@Z 10011110 f   MonitorTempletAPI.obj
 0001:000101a0       ?CreateMonitorTemplet@@YAPAXH@Z 100111a0 f   MonitorTempletAPI.obj
 0001:00010220       ?DeleteMonitorTemplet@@YA_NHV?$basic_string@DU?$char_traits@D@std@@V?$allocator@D@2@@std@@0@Z 10011220 f   MonitorTempletAPI.obj
 0001:00010440       ?SubmitMonitorTemplet@@YA_NPAXV?$basic_string@DU?$char_traits@D@std@@V?$allocator@D@2@@std@@1@Z 10011440 f   MonitorTempletAPI.obj
 0001:00010650       ?CloneMonitorTemplet@@YAPAXPAXH@Z 10011650 f   MonitorTempletAPI.obj
 0001:00010740       ?GetAllMonitorTempletInfo@@YA_NAAV?$list@Usv_pair@@V?$allocator@Usv_pair@@@std@@@std@@V?$basic_string@DU?$char_traits@D@std@@V?$allocator@D@2@@2@11@Z 10011740 f   MonitorTempletAPI.obj
 0001:00010990       ?CloseMonitorTemplet@@YAXAAPAX@Z 10011990 f   MonitorTempletAPI.obj
 0001:000109f0       ?FindMTParameterFirst@@YA_NPAXAAUsv_list@@@Z 100119f0 f   MonitorTempletAPI.obj
 0001:00010a90       ?FindMTAdvanceParameterFirst@@YA_NPAXAAUsv_list@@@Z 10011a90 f   MonitorTempletAPI.obj
 0001:00010b30       ?FindMTReturnFirst@@YA_NPAXAAUsv_list@@@Z 10011b30 f   MonitorTempletAPI.obj
 0001:00010bd0       ?GetCurrentTimeEx@TTime@svutil@@SA?AV12@XZ 10011bd0 f i MQapi.obj
 0001:00010c00       ?GetLabel@QueueRecord@@QBE?AV?$basic_string@DU?$char_traits@D@std@@V?$allocator@D@2@@std@@XZ 10011c00 f i MQapi.obj
 0001:00010c30       ?GetCreateTime@QueueRecord@@QBE?AVTTime@svutil@@XZ 10011c30 f i MQapi.obj
 0001:00010c40       ?CreateQueue@@YA_NV?$basic_string@DU?$char_traits@D@std@@V?$allocator@D@2@@std@@H00@Z 10011c40 f   MQapi.obj
 0001:00010e70       ?PushMessage@@YA_NV?$basic_string@DU?$char_traits@D@std@@V?$allocator@D@2@@std@@0PBDI00@Z 10011e70 f   MQapi.obj
 0001:000111e0       ?PushStringMessage@@YA_NV?$basic_string@DU?$char_traits@D@std@@V?$allocator@D@2@@std@@0000@Z 100121e0 f   MQapi.obj
 0001:000113e0       ?PopMessage@@YAPAXV?$basic_string@DU?$char_traits@D@std@@V?$allocator@D@2@@std@@I00@Z 100123e0 f   MQapi.obj
 0001:00011650       ?BlockPopMessage@@YAPAXV?$basic_string@DU?$char_traits@D@std@@V?$allocator@D@2@@std@@00@Z 10012650 f   MQapi.obj
 0001:000118b0       ?PeekMQMessage@@YAPAXV?$basic_string@DU?$char_traits@D@std@@V?$allocator@D@2@@std@@I00@Z 100128b0 f   MQapi.obj
 0001:00011b20       ?BlockPeekMQMessage@@YAPAXV?$basic_string@DU?$char_traits@D@std@@V?$allocator@D@2@@std@@00@Z 10012b20 f   MQapi.obj
 0001:00011d80       ?GetMQRecordCount@@YA_NV?$basic_string@DU?$char_traits@D@std@@V?$allocator@D@2@@std@@AAI00@Z 10012d80 f   MQapi.obj
 0001:00012000       ?DeleteQueue@@YA_NV?$basic_string@DU?$char_traits@D@std@@V?$allocator@D@2@@std@@00@Z 10013000 f   MQapi.obj
 0001:00012220       ?ClearQueueMessage@@YA_NV?$basic_string@DU?$char_traits@D@std@@V?$allocator@D@2@@std@@00@Z 10013220 f   MQapi.obj
 0001:00012440       ?PopMessage@@YA_NV?$basic_string@DU?$char_traits@D@std@@V?$allocator@D@2@@std@@AAV12@AAVTTime@svutil@@PADAAII00@Z 10013440 f   MQapi.obj
 0001:00012770       ?BlockPopMessage@@YA_NV?$basic_string@DU?$char_traits@D@std@@V?$allocator@D@2@@std@@AAV12@AAVTTime@svutil@@PADAAI00@Z 10013770 f   MQapi.obj
 0001:00012aa0       ?PeekMQMessage@@YA_NV?$basic_string@DU?$char_traits@D@std@@V?$allocator@D@2@@std@@AAV12@AAVTTime@svutil@@PADAAII00@Z 10013aa0 f   MQapi.obj
 0001:00012dd0       ?BlockPeekMQMessage@@YA_NV?$basic_string@DU?$char_traits@D@std@@V?$allocator@D@2@@std@@AAV12@AAVTTime@svutil@@PADAAI00@Z 10013dd0 f   MQapi.obj
 0001:00013100       ?GetMessageData@@YA_NPAXAAV?$basic_string@DU?$char_traits@D@std@@V?$allocator@D@2@@std@@AAVTTime@svutil@@PADAAI@Z 10014100 f   MQapi.obj
 0001:000131d0       ?CloseMQRecord@@YA_NAAPAX@Z 100141d0 f   MQapi.obj
 0001:00013250       ?GetAllQueueNames@@YA_NAAV?$list@V?$basic_string@DU?$char_traits@D@std@@V?$allocator@D@2@@std@@V?$allocator@V?$basic_string@DU?$char_traits@D@std@@V?$allocator@D@2@@std@@@2@@std@@V?$basic_string@DU?$char_traits@D@std@@V?$allocator@D@2@@2@1@Z 10014250 f   MQapi.obj
 0001:00013420       ?GetAllMessageLabels@@YA_NV?$basic_string@DU?$char_traits@D@std@@V?$allocator@D@2@@std@@AAV?$list@V?$basic_string@DU?$char_traits@D@std@@V?$allocator@D@2@@std@@V?$allocator@V?$basic_string@DU?$char_traits@D@std@@V?$allocator@D@2@@std@@@2@@2@00@Z 10014420 f   MQapi.obj
 0001:00013650       ??0MyTCPStream@@QAE@ABVIPV4Host@ost@@GI@Z 10014650 f   MyTCPStream.obj
 0001:00013680       ??1MyTCPStream@@UAE@XZ     10014680 f   MyTCPStream.obj
 0001:00013690       ??_GMyTCPStream@@UAEPAXI@Z 10014690 f i MyTCPStream.obj
 0001:00013690       ??_EMyTCPStream@@UAEPAXI@Z 10014690 f i MyTCPStream.obj
 0001:000136b0       ?Format@TTime@svutil@@QBE?AV?$basic_string@DU?$char_traits@D@std@@V?$allocator@D@2@@std@@XZ 100146b0 f i ObjCache.obj
 0001:00013740       ??1sv_dyn@@QAE@XZ          10014740 f i ObjCache.obj
 0001:00013750       ??1?$pair@$$CBV?$basic_string@DU?$char_traits@D@std@@V?$allocator@D@2@@std@@PAX@std@@QAE@XZ 10014750 f i ObjCache.obj
 0001:00013750       ??1VerOBJECT@@QAE@XZ       10014750 f i ObjCache.obj
 0001:00013750       ??1?$pair@V?$basic_string@DU?$char_traits@D@std@@V?$allocator@D@2@@std@@PAX@std@@QAE@XZ 10014750 f i ObjCache.obj
 0001:00013750       ??1SingelRecord@@QAE@XZ    10014750 f i General.obj
 0001:00013760       ?CheckLatest@ObjectCache@@CA_NAAVVerOBJECT@@HV?$basic_string@DU?$char_traits@D@std@@V?$allocator@D@2@@std@@@Z 10014760 f   ObjCache.obj
 0001:00013910       ??1?$pair@$$CBV?$basic_string@DU?$char_traits@D@std@@V?$allocator@D@2@@std@@VSingelRecord@@@std@@QAE@XZ 10014910 f i ObjCache.obj
 0001:00013910       ??1?$pair@V?$basic_string@DU?$char_traits@D@std@@V?$allocator@D@2@@std@@V12@@std@@QAE@XZ 10014910 f i ObjCache.obj
 0001:00013910       ??1?$pair@$$CBV?$basic_string@DU?$char_traits@D@std@@V?$allocator@D@2@@std@@VVerOBJECT@@@std@@QAE@XZ 10014910 f i ObjCache.obj
 0001:00013910       ??1?$pair@V?$basic_string@DU?$char_traits@D@std@@V?$allocator@D@2@@std@@VSingelRecord@@@std@@QAE@XZ 10014910 f i ObjCache.obj
 0001:00013910       ??1?$pair@V?$basic_string@DU?$char_traits@D@std@@V?$allocator@D@2@@std@@VVerOBJECT@@@std@@QAE@XZ 10014910 f i ObjCache.obj
 0001:00013960       ??1?$pair@PBDV?$basic_string@DU?$char_traits@D@std@@V?$allocator@D@2@@std@@@std@@QAE@XZ 10014960 f i ObjCache.obj
 0001:00013970       ?_Max@?$_Tree@V?$_Tmap_traits@V?$basic_string@DU?$char_traits@D@std@@V?$allocator@D@2@@std@@VVerOBJECT@@U?$less@V?$basic_string@DU?$char_traits@D@std@@V?$allocator@D@2@@std@@@2@V?$allocator@U?$pair@$$CBV?$basic_string@DU?$char_traits@D@std@@V?$allocator@D@2@@std@@VVerOBJECT@@@std@@@2@$0A@@std@@@std@@KAPAU_Node@?$_Tree_nod@V?$_Tmap_traits@V?$basic_string@DU?$char_traits@D@std@@V?$allocator@D@2@@std@@VVerOBJECT@@U?$less@V?$basic_string@DU?$char_traits@D@std@@V?$allocator@D@2@@std@@@2@V?$allocator@U?$pair@$$CBV?$basic_string@DU?$char_traits@D@std@@V?$allocator@D@2@@std@@VVerOBJECT@@@std@@@2@$0A@@std@@@2@PAU342@@Z 10014970 f i ObjCache.obj
 0001:00013990       ?_Min@?$_Tree@V?$_Tmap_traits@V?$basic_string@DU?$char_traits@D@std@@V?$allocator@D@2@@std@@VVerOBJECT@@U?$less@V?$basic_string@DU?$char_traits@D@std@@V?$allocator@D@2@@std@@@2@V?$allocator@U?$pair@$$CBV?$basic_string@DU?$char_traits@D@std@@V?$allocator@D@2@@std@@VVerOBJECT@@@std@@@2@$0A@@std@@@std@@KAPAU_Node@?$_Tree_nod@V?$_Tmap_traits@V?$basic_string@DU?$char_traits@D@std@@V?$allocator@D@2@@std@@VVerOBJECT@@U?$less@V?$basic_string@DU?$char_traits@D@std@@V?$allocator@D@2@@std@@@2@V?$allocator@U?$pair@$$CBV?$basic_string@DU?$char_traits@D@std@@V?$allocator@D@2@@std@@VVerOBJECT@@@std@@@2@$0A@@std@@@2@PAU342@@Z 10014990 f i ObjCache.obj
 0001:000139b0       ?_Rrotate@?$_Tree@V?$_Tmap_traits@V?$basic_string@DU?$char_traits@D@std@@V?$allocator@D@2@@std@@VVerOBJECT@@U?$less@V?$basic_string@DU?$char_traits@D@std@@V?$allocator@D@2@@std@@@2@V?$allocator@U?$pair@$$CBV?$basic_string@DU?$char_traits@D@std@@V?$allocator@D@2@@std@@VVerOBJECT@@@std@@@2@$0A@@std@@@std@@IAEXPAU_Node@?$_Tree_nod@V?$_Tmap_traits@V?$basic_string@DU?$char_traits@D@std@@V?$allocator@D@2@@std@@VVerOBJECT@@U?$less@V?$basic_string@DU?$char_traits@D@std@@V?$allocator@D@2@@std@@@2@V?$allocator@U?$pair@$$CBV?$basic_string@DU?$char_traits@D@std@@V?$allocator@D@2@@std@@VVerOBJECT@@@std@@@2@$0A@@std@@@2@@Z 100149b0 f i ObjCache.obj
 0001:00013a10       ?_Max@?$_Tree@V?$_Tmap_traits@V?$basic_string@DU?$char_traits@D@std@@V?$allocator@D@2@@std@@PAXU?$less@V?$basic_string@DU?$char_traits@D@std@@V?$allocator@D@2@@std@@@2@V?$allocator@U?$pair@$$CBV?$basic_string@DU?$char_traits@D@std@@V?$allocator@D@2@@std@@PAX@std@@@2@$0A@@std@@@std@@KAPAU_Node@?$_Tree_nod@V?$_Tmap_traits@V?$basic_string@DU?$char_traits@D@std@@V?$allocator@D@2@@std@@PAXU?$less@V?$basic_string@DU?$char_traits@D@std@@V?$allocator@D@2@@std@@@2@V?$allocator@U?$pair@$$CBV?$basic_string@DU?$char_traits@D@std@@V?$allocator@D@2@@std@@PAX@std@@@2@$0A@@std@@@2@PAU342@@Z 10014a10 f i ObjCache.obj
 0001:00013a10       ?_Max@?$_Tree@V?$_Tmap_traits@V?$basic_string@DU?$char_traits@D@std@@V?$allocator@D@2@@std@@KU?$less@V?$basic_string@DU?$char_traits@D@std@@V?$allocator@D@2@@std@@@2@V?$allocator@U?$pair@$$CBV?$basic_string@DU?$char_traits@D@std@@V?$allocator@D@2@@std@@K@std@@@2@$0A@@std@@@std@@KAPAU_Node@?$_Tree_nod@V?$_Tmap_traits@V?$basic_string@DU?$char_traits@D@std@@V?$allocator@D@2@@std@@KU?$less@V?$basic_string@DU?$char_traits@D@std@@V?$allocator@D@2@@std@@@2@V?$allocator@U?$pair@$$CBV?$basic_string@DU?$char_traits@D@std@@V?$allocator@D@2@@std@@K@std@@@2@$0A@@std@@@2@PAU342@@Z 10014a10 f i ShareMemFile.obj
 0001:00013a30       ?_Min@?$_Tree@V?$_Tmap_traits@V?$basic_string@DU?$char_traits@D@std@@V?$allocator@D@2@@std@@PAXU?$less@V?$basic_string@DU?$char_traits@D@std@@V?$allocator@D@2@@std@@@2@V?$allocator@U?$pair@$$CBV?$basic_string@DU?$char_traits@D@std@@V?$allocator@D@2@@std@@PAX@std@@@2@$0A@@std@@@std@@KAPAU_Node@?$_Tree_nod@V?$_Tmap_traits@V?$basic_string@DU?$char_traits@D@std@@V?$allocator@D@2@@std@@PAXU?$less@V?$basic_string@DU?$char_traits@D@std@@V?$allocator@D@2@@std@@@2@V?$allocator@U?$pair@$$CBV?$basic_string@DU?$char_traits@D@std@@V?$allocator@D@2@@std@@PAX@std@@@2@$0A@@std@@@2@PAU342@@Z 10014a30 f i ObjCache.obj
 0001:00013a30       ?_Min@?$_Tree@V?$_Tmap_traits@V?$basic_string@DU?$char_traits@D@std@@V?$allocator@D@2@@std@@KU?$less@V?$basic_string@DU?$char_traits@D@std@@V?$allocator@D@2@@std@@@2@V?$allocator@U?$pair@$$CBV?$basic_string@DU?$char_traits@D@std@@V?$allocator@D@2@@std@@K@std@@@2@$0A@@std@@@std@@KAPAU_Node@?$_Tree_nod@V?$_Tmap_traits@V?$basic_string@DU?$char_traits@D@std@@V?$allocator@D@2@@std@@KU?$less@V?$basic_string@DU?$char_traits@D@std@@V?$allocator@D@2@@std@@@2@V?$allocator@U?$pair@$$CBV?$basic_string@DU?$char_traits@D@std@@V?$allocator@D@2@@std@@K@std@@@2@$0A@@std@@@2@PAU342@@Z 10014a30 f i ShareMemFile.obj
 0001:00013a50       ?_Inc@const_iterator@?$_Tree@V?$_Tmap_traits@V?$basic_string@DU?$char_traits@D@std@@V?$allocator@D@2@@std@@VVerOBJECT@@U?$less@V?$basic_string@DU?$char_traits@D@std@@V?$allocator@D@2@@std@@@2@V?$allocator@U?$pair@$$CBV?$basic_string@DU?$char_traits@D@std@@V?$allocator@D@2@@std@@VVerOBJECT@@@std@@@2@$0A@@std@@@std@@QAEXXZ 10014a50 f i ObjCache.obj
 0001:00013ab0       ?_Min@?$_Tree@V?$_Tmap_traits@HPAXU?$less@H@std@@V?$allocator@U?$pair@$$CBHPAX@std@@@2@$0A@@std@@@std@@KAPAU_Node@?$_Tree_nod@V?$_Tmap_traits@HPAXU?$less@H@std@@V?$allocator@U?$pair@$$CBHPAX@std@@@2@$0A@@std@@@2@PAU342@@Z 10014ab0 f i ObjCache.obj
 0001:00013ad0       ?_Min@?$_Tree@V?$_Tmap_traits@V?$basic_string@DU?$char_traits@D@std@@V?$allocator@D@2@@std@@V?$map@V?$basic_string@DU?$char_traits@D@std@@V?$allocator@D@2@@std@@V12@U?$less@V?$basic_string@DU?$char_traits@D@std@@V?$allocator@D@2@@std@@@2@V?$allocator@U?$pair@$$CBV?$basic_string@DU?$char_traits@D@std@@V?$allocator@D@2@@std@@V12@@std@@@2@@2@U?$less@V?$basic_string@DU?$char_traits@D@std@@V?$allocator@D@2@@std@@@2@V?$allocator@U?$pair@$$CBV?$basic_string@DU?$char_traits@D@std@@V?$allocator@D@2@@std@@V?$map@V?$basic_string@DU?$char_traits@D@std@@V?$allocator@D@2@@std@@V12@U?$less@V?$basic_string@DU?$char_traits@D@std@@V?$allocator@D@2@@std@@@2@V?$allocator@U?$pair@$$CBV?$basic_string@DU?$char_traits@D@std@@V?$allocator@D@2@@std@@V12@@std@@@2@@2@@std@@@2@$0A@@std@@@std@@KAPAU_Node@?$_Tree_nod@V?$_Tmap_traits@V?$basic_string@DU?$char_traits@D@std@@V?$allocator@D@2@@std@@V?$map@V?$basic_string@DU?$char_traits@D@std@@V?$allocator@D@2@@std@@V12@U?$less@V?$basic_string@DU?$char_traits@D@std@@V?$allocator@D@2@@std@@@2@V?$allocator@U?$pair@$$CBV?$basic_string@DU?$char_traits@D@std@@V?$allocator@D@2@@std@@V12@@std@@@2@@2@U?$less@V?$basic_string@DU?$char_traits@D@std@@V?$allocator@D@2@@std@@@2@V?$allocator@U?$pair@$$CBV?$basic_string@DU?$char_traits@D@std@@V?$allocator@D@2@@std@@V?$map@V?$basic_string@DU?$char_traits@D@std@@V?$allocator@D@2@@std@@V12@U?$less@V?$basic_string@DU?$char_traits@D@std@@V?$allocator@D@2@@std@@@2@V?$allocator@U?$pair@$$CBV?$basic_string@DU?$char_traits@D@std@@V?$allocator@D@2@@std@@V12@@std@@@2@@2@@std@@@2@$0A@@std@@@2@PAU342@@Z 10014ad0 f i ObjCache.obj
 0001:00013ad0       ?_Min@?$_Tree@V?$_Tmap_traits@V?$basic_string@DU?$char_traits@D@std@@V?$allocator@D@2@@std@@V?$map@V?$basic_string@DU?$char_traits@D@std@@V?$allocator@D@2@@std@@PAXU?$less@V?$basic_string@DU?$char_traits@D@std@@V?$allocator@D@2@@std@@@2@V?$allocator@U?$pair@$$CBV?$basic_string@DU?$char_traits@D@std@@V?$allocator@D@2@@std@@PAX@std@@@2@@2@U?$less@V?$basic_string@DU?$char_traits@D@std@@V?$allocator@D@2@@std@@@2@V?$allocator@U?$pair@$$CBV?$basic_string@DU?$char_traits@D@std@@V?$allocator@D@2@@std@@V?$map@V?$basic_string@DU?$char_traits@D@std@@V?$allocator@D@2@@std@@PAXU?$less@V?$basic_string@DU?$char_traits@D@std@@V?$allocator@D@2@@std@@@2@V?$allocator@U?$pair@$$CBV?$basic_string@DU?$char_traits@D@std@@V?$allocator@D@2@@std@@PAX@std@@@2@@2@@std@@@2@$0A@@std@@@std@@KAPAU_Node@?$_Tree_nod@V?$_Tmap_traits@V?$basic_string@DU?$char_traits@D@std@@V?$allocator@D@2@@std@@V?$map@V?$basic_string@DU?$char_traits@D@std@@V?$allocator@D@2@@std@@PAXU?$less@V?$basic_string@DU?$char_traits@D@std@@V?$allocator@D@2@@std@@@2@V?$allocator@U?$pair@$$CBV?$basic_string@DU?$char_traits@D@std@@V?$allocator@D@2@@std@@PAX@std@@@2@@2@U?$less@V?$basic_string@DU?$char_traits@D@std@@V?$allocator@D@2@@std@@@2@V?$allocator@U?$pair@$$CBV?$basic_string@DU?$char_traits@D@std@@V?$allocator@D@2@@std@@V?$map@V?$basic_string@DU?$char_traits@D@std@@V?$allocator@D@2@@std@@PAXU?$less@V?$basic_string@DU?$char_traits@D@std@@V?$allocator@D@2@@std@@@2@V?$allocator@U?$pair@$$CBV?$basic_string@DU?$char_traits@D@std@@V?$allocator@D@2@@std@@PAX@std@@@2@@2@@std@@@2@$0A@@std@@@2@PAU342@@Z 10014ad0 f i ObjCache.obj
 0001:00013ad0       ?_Min@?$_Tree@V?$_Tmap_traits@V?$basic_string@DU?$char_traits@D@std@@V?$allocator@D@2@@std@@V?$map@V?$basic_string@DU?$char_traits@D@std@@V?$allocator@D@2@@std@@V12@UStlIniCompareStringNoCase@@V?$allocator@U?$pair@$$CBV?$basic_string@DU?$char_traits@D@std@@V?$allocator@D@2@@std@@V12@@std@@@2@@2@UStlIniCompareStringNoCase@@V?$allocator@U?$pair@$$CBV?$basic_string@DU?$char_traits@D@std@@V?$allocator@D@2@@std@@V?$map@V?$basic_string@DU?$char_traits@D@std@@V?$allocator@D@2@@std@@V12@UStlIniCompareStringNoCase@@V?$allocator@U?$pair@$$CBV?$basic_string@DU?$char_traits@D@std@@V?$allocator@D@2@@std@@V12@@std@@@2@@2@@std@@@2@$0A@@std@@@std@@KAPAU_Node@?$_Tree_nod@V?$_Tmap_traits@V?$basic_string@DU?$char_traits@D@std@@V?$allocator@D@2@@std@@V?$map@V?$basic_string@DU?$char_traits@D@std@@V?$allocator@D@2@@std@@V12@UStlIniCompareStringNoCase@@V?$allocator@U?$pair@$$CBV?$basic_string@DU?$char_traits@D@std@@V?$allocator@D@2@@std@@V12@@std@@@2@@2@UStlIniCompareStringNoCase@@V?$allocator@U?$pair@$$CBV?$basic_string@DU?$char_traits@D@std@@V?$allocator@D@2@@std@@V?$map@V?$basic_string@DU?$char_traits@D@std@@V?$allocator@D@2@@std@@V12@UStlIniCompareStringNoCase@@V?$allocator@U?$pair@$$CBV?$basic_string@DU?$char_traits@D@std@@V?$allocator@D@2@@std@@V12@@std@@@2@@2@@std@@@2@$0A@@std@@@2@PAU342@@Z 10014ad0 f i General.obj
 0001:00013af0       ?_Min@?$_Tree@V?$_Tmap_traits@V?$basic_string@DU?$char_traits@D@std@@V?$allocator@D@2@@std@@VSingelRecord@@U?$less@V?$basic_string@DU?$char_traits@D@std@@V?$allocator@D@2@@std@@@2@V?$allocator@U?$pair@$$CBV?$basic_string@DU?$char_traits@D@std@@V?$allocator@D@2@@std@@VSingelRecord@@@std@@@2@$0A@@std@@@std@@KAPAU_Node@?$_Tree_nod@V?$_Tmap_traits@V?$basic_string@DU?$char_traits@D@std@@V?$allocator@D@2@@std@@VSingelRecord@@U?$less@V?$basic_string@DU?$char_traits@D@std@@V?$allocator@D@2@@std@@@2@V?$allocator@U?$pair@$$CBV?$basic_string@DU?$char_traits@D@std@@V?$allocator@D@2@@std@@VSingelRecord@@@std@@@2@$0A@@std@@@2@PAU342@@Z 10014af0 f i ObjCache.obj
 0001:00013b10       ?_Dec@const_iterator@?$_Tree@V?$_Tmap_traits@V?$basic_string@DU?$char_traits@D@std@@V?$allocator@D@2@@std@@VVerOBJECT@@U?$less@V?$basic_string@DU?$char_traits@D@std@@V?$allocator@D@2@@std@@@2@V?$allocator@U?$pair@$$CBV?$basic_string@DU?$char_traits@D@std@@V?$allocator@D@2@@std@@VVerOBJECT@@@std@@@2@$0A@@std@@@std@@QAEXXZ 10014b10 f i ObjCache.obj
 0001:00013b70       ?_Dec@const_iterator@?$_Tree@V?$_Tmap_traits@V?$basic_string@DU?$char_traits@D@std@@V?$allocator@D@2@@std@@PAXU?$less@V?$basic_string@DU?$char_traits@D@std@@V?$allocator@D@2@@std@@@2@V?$allocator@U?$pair@$$CBV?$basic_string@DU?$char_traits@D@std@@V?$allocator@D@2@@std@@PAX@std@@@2@$0A@@std@@@std@@QAEXXZ 10014b70 f i ObjCache.obj
 0001:00013bd0       ?_Dec@const_iterator@?$_Tree@V?$_Tmap_traits@V?$basic_string@DU?$char_traits@D@std@@V?$allocator@D@2@@std@@V12@U?$less@V?$basic_string@DU?$char_traits@D@std@@V?$allocator@D@2@@std@@@2@V?$allocator@U?$pair@$$CBV?$basic_string@DU?$char_traits@D@std@@V?$allocator@D@2@@std@@V12@@std@@@2@$0A@@std@@@std@@QAEXXZ 10014bd0 f i ObjCache.obj
 0001:00013bd0       ?_Dec@const_iterator@?$_Tree@V?$_Tmap_traits@V?$basic_string@DU?$char_traits@D@std@@V?$allocator@D@2@@std@@V12@UStlIniCompareStringNoCase@@V?$allocator@U?$pair@$$CBV?$basic_string@DU?$char_traits@D@std@@V?$allocator@D@2@@std@@V12@@std@@@2@$0A@@std@@@std@@QAEXXZ 10014bd0 f i stlini.obj
 0001:00013c30       ?_Max@?$_Tree@V?$_Tmap_traits@HPAXU?$less@H@std@@V?$allocator@U?$pair@$$CBHPAX@std@@@2@$0A@@std@@@std@@KAPAU_Node@?$_Tree_nod@V?$_Tmap_traits@HPAXU?$less@H@std@@V?$allocator@U?$pair@$$CBHPAX@std@@@2@$0A@@std@@@2@PAU342@@Z 10014c30 f i ObjCache.obj
 0001:00013c50       ?_Max@?$_Tree@V?$_Tmap_traits@V?$basic_string@DU?$char_traits@D@std@@V?$allocator@D@2@@std@@VSingelRecord@@U?$less@V?$basic_string@DU?$char_traits@D@std@@V?$allocator@D@2@@std@@@2@V?$allocator@U?$pair@$$CBV?$basic_string@DU?$char_traits@D@std@@V?$allocator@D@2@@std@@VSingelRecord@@@std@@@2@$0A@@std@@@std@@KAPAU_Node@?$_Tree_nod@V?$_Tmap_traits@V?$basic_string@DU?$char_traits@D@std@@V?$allocator@D@2@@std@@VSingelRecord@@U?$less@V?$basic_string@DU?$char_traits@D@std@@V?$allocator@D@2@@std@@@2@V?$allocator@U?$pair@$$CBV?$basic_string@DU?$char_traits@D@std@@V?$allocator@D@2@@std@@VSingelRecord@@@std@@@2@$0A@@std@@@2@PAU342@@Z 10014c50 f i ObjCache.obj
 0001:00013c70       ??0?$pair@$$CBV?$basic_string@DU?$char_traits@D@std@@V?$allocator@D@2@@std@@VVerOBJECT@@@std@@QAE@ABU01@@Z 10014c70 f i ObjCache.obj
 0001:00013c70       ??$?0V?$basic_string@DU?$char_traits@D@std@@V?$allocator@D@2@@std@@VVerOBJECT@@@?$pair@$$CBV?$basic_string@DU?$char_traits@D@std@@V?$allocator@D@2@@std@@VVerOBJECT@@@std@@QAE@ABU?$pair@V?$basic_string@DU?$char_traits@D@std@@V?$allocator@D@2@@std@@VVerOBJECT@@@1@@Z 10014c70 f i ObjCache.obj
 0001:00013cd0       ??$?0V?$basic_string@DU?$char_traits@D@std@@V?$allocator@D@2@@std@@V01@@?$pair@$$CBV?$basic_string@DU?$char_traits@D@std@@V?$allocator@D@2@@std@@V12@@std@@QAE@ABU?$pair@V?$basic_string@DU?$char_traits@D@std@@V?$allocator@D@2@@std@@V12@@1@@Z 10014cd0 f i ObjCache.obj
 0001:00013d30       ??$?0PBDPAD@?$pair@$$CBV?$basic_string@DU?$char_traits@D@std@@V?$allocator@D@2@@std@@V12@@std@@QAE@ABU?$pair@PBDPAD@1@@Z 10014d30 f i ObjCache.obj
 0001:00013d90       ??$?0PBDV?$basic_string@DU?$char_traits@D@std@@V?$allocator@D@2@@std@@@?$pair@$$CBV?$basic_string@DU?$char_traits@D@std@@V?$allocator@D@2@@std@@V12@@std@@QAE@ABU?$pair@PBDV?$basic_string@DU?$char_traits@D@std@@V?$allocator@D@2@@std@@@1@@Z 10014d90 f i ObjCache.obj
 0001:00013df0       ??0?$pair@$$CBV?$basic_string@DU?$char_traits@D@std@@V?$allocator@D@2@@std@@VSingelRecord@@@std@@QAE@ABU01@@Z 10014df0 f i ObjCache.obj
 0001:00013df0       ??$?0V?$basic_string@DU?$char_traits@D@std@@V?$allocator@D@2@@std@@VSingelRecord@@@?$pair@$$CBV?$basic_string@DU?$char_traits@D@std@@V?$allocator@D@2@@std@@VSingelRecord@@@std@@QAE@ABU?$pair@V?$basic_string@DU?$char_traits@D@std@@V?$allocator@D@2@@std@@VSingelRecord@@@1@@Z 10014df0 f i ObjCache.obj
 0001:00013e60       ??1_Node@?$_Tree_nod@V?$_Tmap_traits@V?$basic_string@DU?$char_traits@D@std@@V?$allocator@D@2@@std@@VVerOBJECT@@U?$less@V?$basic_string@DU?$char_traits@D@std@@V?$allocator@D@2@@std@@@2@V?$allocator@U?$pair@$$CBV?$basic_string@DU?$char_traits@D@std@@V?$allocator@D@2@@std@@VVerOBJECT@@@std@@@2@$0A@@std@@@std@@QAE@XZ 10014e60 f i ObjCache.obj
 0001:00013e60       ??1_Node@?$_Tree_nod@V?$_Tmap_traits@V?$basic_string@DU?$char_traits@D@std@@V?$allocator@D@2@@std@@VSingelRecord@@U?$less@V?$basic_string@DU?$char_traits@D@std@@V?$allocator@D@2@@std@@@2@V?$allocator@U?$pair@$$CBV?$basic_string@DU?$char_traits@D@std@@V?$allocator@D@2@@std@@VSingelRecord@@@std@@@2@$0A@@std@@@std@@QAE@XZ 10014e60 f i ObjCache.obj
 0001:00013e70       ??1_Node@?$_List_nod@Usv_pair@@V?$allocator@Usv_pair@@@std@@@std@@QAE@XZ 10014e70 f i ObjCache.obj
 0001:00013e80       ??0?$pair@V?$basic_string@DU?$char_traits@D@std@@V?$allocator@D@2@@std@@VVerOBJECT@@@std@@QAE@ABV?$basic_string@DU?$char_traits@D@std@@V?$allocator@D@2@@1@ABVVerOBJECT@@@Z 10014e80 f i ObjCache.obj
 0001:00013ee0       ??0?$pair@V?$basic_string@DU?$char_traits@D@std@@V?$allocator@D@2@@std@@V12@@std@@QAE@ABV?$basic_string@DU?$char_traits@D@std@@V?$allocator@D@2@@1@0@Z 10014ee0 f i ObjCache.obj
 0001:00013f40       ??0?$pair@V?$basic_string@DU?$char_traits@D@std@@V?$allocator@D@2@@std@@VSingelRecord@@@std@@QAE@ABV?$basic_string@DU?$char_traits@D@std@@V?$allocator@D@2@@1@ABVSingelRecord@@@Z 10014f40 f i ObjCache.obj
 0001:00013fb0       ?_Lrotate@?$_Tree@V?$_Tmap_traits@V?$basic_string@DU?$char_traits@D@std@@V?$allocator@D@2@@std@@VVerOBJECT@@U?$less@V?$basic_string@DU?$char_traits@D@std@@V?$allocator@D@2@@std@@@2@V?$allocator@U?$pair@$$CBV?$basic_string@DU?$char_traits@D@std@@V?$allocator@D@2@@std@@VVerOBJECT@@@std@@@2@$0A@@std@@@std@@IAEXPAU_Node@?$_Tree_nod@V?$_Tmap_traits@V?$basic_string@DU?$char_traits@D@std@@V?$allocator@D@2@@std@@VVerOBJECT@@U?$less@V?$basic_string@DU?$char_traits@D@std@@V?$allocator@D@2@@std@@@2@V?$allocator@U?$pair@$$CBV?$basic_string@DU?$char_traits@D@std@@V?$allocator@D@2@@std@@VVerOBJECT@@@std@@@2@$0A@@std@@@2@@Z 10014fb0 f i ObjCache.obj
 0001:00014010       ?_Lbound@?$_Tree@V?$_Tmap_traits@V?$basic_string@DU?$char_traits@D@std@@V?$allocator@D@2@@std@@V12@U?$less@V?$basic_string@DU?$char_traits@D@std@@V?$allocator@D@2@@std@@@2@V?$allocator@U?$pair@$$CBV?$basic_string@DU?$char_traits@D@std@@V?$allocator@D@2@@std@@V12@@std@@@2@$0A@@std@@@std@@IBEPAU_Node@?$_Tree_nod@V?$_Tmap_traits@V?$basic_string@DU?$char_traits@D@std@@V?$allocator@D@2@@std@@V12@U?$less@V?$basic_string@DU?$char_traits@D@std@@V?$allocator@D@2@@std@@@2@V?$allocator@U?$pair@$$CBV?$basic_string@DU?$char_traits@D@std@@V?$allocator@D@2@@std@@V12@@std@@@2@$0A@@std@@@2@ABV?$basic_string@DU?$char_traits@D@std@@V?$allocator@D@2@@2@@Z 10015010 f i ObjCache.obj
 0001:00014060       ?_Lrotate@?$_Tree@V?$_Tmap_traits@HPAXU?$less@H@std@@V?$allocator@U?$pair@$$CBHPAX@std@@@2@$0A@@std@@@std@@IAEXPAU_Node@?$_Tree_nod@V?$_Tmap_traits@HPAXU?$less@H@std@@V?$allocator@U?$pair@$$CBHPAX@std@@@2@$0A@@std@@@2@@Z 10015060 f i ObjCache.obj
 0001:000140c0       ?_Rrotate@?$_Tree@V?$_Tmap_traits@HPAXU?$less@H@std@@V?$allocator@U?$pair@$$CBHPAX@std@@@2@$0A@@std@@@std@@IAEXPAU_Node@?$_Tree_nod@V?$_Tmap_traits@HPAXU?$less@H@std@@V?$allocator@U?$pair@$$CBHPAX@std@@@2@$0A@@std@@@2@@Z 100150c0 f i ObjCache.obj
 0001:00014120       ?_Lbound@?$_Tree@V?$_Tmap_traits@V?$basic_string@DU?$char_traits@D@std@@V?$allocator@D@2@@std@@PAXU?$less@V?$basic_string@DU?$char_traits@D@std@@V?$allocator@D@2@@std@@@2@V?$allocator@U?$pair@$$CBV?$basic_string@DU?$char_traits@D@std@@V?$allocator@D@2@@std@@PAX@std@@@2@$0A@@std@@@std@@IBEPAU_Node@?$_Tree_nod@V?$_Tmap_traits@V?$basic_string@DU?$char_traits@D@std@@V?$allocator@D@2@@std@@PAXU?$less@V?$basic_string@DU?$char_traits@D@std@@V?$allocator@D@2@@std@@@2@V?$allocator@U?$pair@$$CBV?$basic_string@DU?$char_traits@D@std@@V?$allocator@D@2@@std@@PAX@std@@@2@$0A@@std@@@2@ABV?$basic_string@DU?$char_traits@D@std@@V?$allocator@D@2@@2@@Z 10015120 f i ObjCache.obj
 0001:00014170       ?_Lbound@?$_Tree@V?$_Tmap_traits@V?$basic_string@DU?$char_traits@D@std@@V?$allocator@D@2@@std@@V?$map@V?$basic_string@DU?$char_traits@D@std@@V?$allocator@D@2@@std@@PAXU?$less@V?$basic_string@DU?$char_traits@D@std@@V?$allocator@D@2@@std@@@2@V?$allocator@U?$pair@$$CBV?$basic_string@DU?$char_traits@D@std@@V?$allocator@D@2@@std@@PAX@std@@@2@@2@U?$less@V?$basic_string@DU?$char_traits@D@std@@V?$allocator@D@2@@std@@@2@V?$allocator@U?$pair@$$CBV?$basic_string@DU?$char_traits@D@std@@V?$allocator@D@2@@std@@V?$map@V?$basic_string@DU?$char_traits@D@std@@V?$allocator@D@2@@std@@PAXU?$less@V?$basic_string@DU?$char_traits@D@std@@V?$allocator@D@2@@std@@@2@V?$allocator@U?$pair@$$CBV?$basic_string@DU?$char_traits@D@std@@V?$allocator@D@2@@std@@PAX@std@@@2@@2@@std@@@2@$0A@@std@@@std@@IBEPAU_Node@?$_Tree_nod@V?$_Tmap_traits@V?$basic_string@DU?$char_traits@D@std@@V?$allocator@D@2@@std@@V?$map@V?$basic_string@DU?$char_traits@D@std@@V?$allocator@D@2@@std@@PAXU?$less@V?$basic_string@DU?$char_traits@D@std@@V?$allocator@D@2@@std@@@2@V?$allocator@U?$pair@$$CBV?$basic_string@DU?$char_traits@D@std@@V?$allocator@D@2@@std@@PAX@std@@@2@@2@U?$less@V?$basic_string@DU?$char_traits@D@std@@V?$allocator@D@2@@std@@@2@V?$allocator@U?$pair@$$CBV?$basic_string@DU?$char_traits@D@std@@V?$allocator@D@2@@std@@V?$map@V?$basic_string@DU?$char_traits@D@std@@V?$allocator@D@2@@std@@PAXU?$less@V?$basic_string@DU?$char_traits@D@std@@V?$allocator@D@2@@std@@@2@V?$allocator@U?$pair@$$CBV?$basic_string@DU?$char_traits@D@std@@V?$allocator@D@2@@std@@PAX@std@@@2@@2@@std@@@2@$0A@@std@@@2@ABV?$basic_string@DU?$char_traits@D@std@@V?$allocator@D@2@@2@@Z 10015170 f i ObjCache.obj
 0001:000141c0       ?_Lbound@?$_Tree@V?$_Tmap_traits@V?$basic_string@DU?$char_traits@D@std@@V?$allocator@D@2@@std@@VVerOBJECT@@U?$less@V?$basic_string@DU?$char_traits@D@std@@V?$allocator@D@2@@std@@@2@V?$allocator@U?$pair@$$CBV?$basic_string@DU?$char_traits@D@std@@V?$allocator@D@2@@std@@VVerOBJECT@@@std@@@2@$0A@@std@@@std@@IBEPAU_Node@?$_Tree_nod@V?$_Tmap_traits@V?$basic_string@DU?$char_traits@D@std@@V?$allocator@D@2@@std@@VVerOBJECT@@U?$less@V?$basic_string@DU?$char_traits@D@std@@V?$allocator@D@2@@std@@@2@V?$allocator@U?$pair@$$CBV?$basic_string@DU?$char_traits@D@std@@V?$allocator@D@2@@std@@VVerOBJECT@@@std@@@2@$0A@@std@@@2@ABV?$basic_string@DU?$char_traits@D@std@@V?$allocator@D@2@@2@@Z 100151c0 f i ObjCache.obj
 0001:00014210       ?_Lbound@?$_Tree@V?$_Tmap_traits@V?$basic_string@DU?$char_traits@D@std@@V?$allocator@D@2@@std@@VSingelRecord@@U?$less@V?$basic_string@DU?$char_traits@D@std@@V?$allocator@D@2@@std@@@2@V?$allocator@U?$pair@$$CBV?$basic_string@DU?$char_traits@D@std@@V?$allocator@D@2@@std@@VSingelRecord@@@std@@@2@$0A@@std@@@std@@IBEPAU_Node@?$_Tree_nod@V?$_Tmap_traits@V?$basic_string@DU?$char_traits@D@std@@V?$allocator@D@2@@std@@VSingelRecord@@U?$less@V?$basic_string@DU?$char_traits@D@std@@V?$allocator@D@2@@std@@@2@V?$allocator@U?$pair@$$CBV?$basic_string@DU?$char_traits@D@std@@V?$allocator@D@2@@std@@VSingelRecord@@@std@@@2@$0A@@std@@@2@ABV?$basic_string@DU?$char_traits@D@std@@V?$allocator@D@2@@2@@Z 10015210 f i ObjCache.obj
 0001:00014260       ?_Lrotate@?$_Tree@V?$_Tmap_traits@V?$basic_string@DU?$char_traits@D@std@@V?$allocator@D@2@@std@@VSingelRecord@@U?$less@V?$basic_string@DU?$char_traits@D@std@@V?$allocator@D@2@@std@@@2@V?$allocator@U?$pair@$$CBV?$basic_string@DU?$char_traits@D@std@@V?$allocator@D@2@@std@@VSingelRecord@@@std@@@2@$0A@@std@@@std@@IAEXPAU_Node@?$_Tree_nod@V?$_Tmap_traits@V?$basic_string@DU?$char_traits@D@std@@V?$allocator@D@2@@std@@VSingelRecord@@U?$less@V?$basic_string@DU?$char_traits@D@std@@V?$allocator@D@2@@std@@@2@V?$allocator@U?$pair@$$CBV?$basic_string@DU?$char_traits@D@std@@V?$allocator@D@2@@std@@VSingelRecord@@@std@@@2@$0A@@std@@@2@@Z 10015260 f i ObjCache.obj
 0001:000142c0       ?_Rrotate@?$_Tree@V?$_Tmap_traits@V?$basic_string@DU?$char_traits@D@std@@V?$allocator@D@2@@std@@VSingelRecord@@U?$less@V?$basic_string@DU?$char_traits@D@std@@V?$allocator@D@2@@std@@@2@V?$allocator@U?$pair@$$CBV?$basic_string@DU?$char_traits@D@std@@V?$allocator@D@2@@std@@VSingelRecord@@@std@@@2@$0A@@std@@@std@@IAEXPAU_Node@?$_Tree_nod@V?$_Tmap_traits@V?$basic_string@DU?$char_traits@D@std@@V?$allocator@D@2@@std@@VSingelRecord@@U?$less@V?$basic_string@DU?$char_traits@D@std@@V?$allocator@D@2@@std@@@2@V?$allocator@U?$pair@$$CBV?$basic_string@DU?$char_traits@D@std@@V?$allocator@D@2@@std@@VSingelRecord@@@std@@@2@$0A@@std@@@2@@Z 100152c0 f i ObjCache.obj
 0001:00014320       ?_Inc@const_iterator@?$_Tree@V?$_Tmap_traits@HPAXU?$less@H@std@@V?$allocator@U?$pair@$$CBHPAX@std@@@2@$0A@@std@@@std@@QAEXXZ 10015320 f i ObjCache.obj
 0001:00014380       ?_Inc@const_iterator@?$_Tree@V?$_Tmap_traits@V?$basic_string@DU?$char_traits@D@std@@V?$allocator@D@2@@std@@VSingelRecord@@U?$less@V?$basic_string@DU?$char_traits@D@std@@V?$allocator@D@2@@std@@@2@V?$allocator@U?$pair@$$CBV?$basic_string@DU?$char_traits@D@std@@V?$allocator@D@2@@std@@VSingelRecord@@@std@@@2@$0A@@std@@@std@@QAEXXZ 10015380 f i ObjCache.obj
 0001:000143e0       ?_Dec@const_iterator@?$_Tree@V?$_Tmap_traits@HPAXU?$less@H@std@@V?$allocator@U?$pair@$$CBHPAX@std@@@2@$0A@@std@@@std@@QAEXXZ 100153e0 f i ObjCache.obj
 0001:00014440       ?_Dec@const_iterator@?$_Tree@V?$_Tmap_traits@V?$basic_string@DU?$char_traits@D@std@@V?$allocator@D@2@@std@@VSingelRecord@@U?$less@V?$basic_string@DU?$char_traits@D@std@@V?$allocator@D@2@@std@@@2@V?$allocator@U?$pair@$$CBV?$basic_string@DU?$char_traits@D@std@@V?$allocator@D@2@@std@@VSingelRecord@@@std@@@2@$0A@@std@@@std@@QAEXXZ 10015440 f i ObjCache.obj
 0001:000144a0       ??$make_pair@V?$basic_string@DU?$char_traits@D@std@@V?$allocator@D@2@@std@@VVerOBJECT@@@std@@YA?AU?$pair@V?$basic_string@DU?$char_traits@D@std@@V?$allocator@D@2@@std@@VVerOBJECT@@@0@V?$basic_string@DU?$char_traits@D@std@@V?$allocator@D@2@@0@VVerOBJECT@@@Z 100154a0 f i ObjCache.obj
 0001:00014520       ??$make_pair@V?$basic_string@DU?$char_traits@D@std@@V?$allocator@D@2@@std@@PAX@std@@YA?AU?$pair@V?$basic_string@DU?$char_traits@D@std@@V?$allocator@D@2@@std@@PAX@0@V?$basic_string@DU?$char_traits@D@std@@V?$allocator@D@2@@0@PAX@Z 10015520 f i ObjCache.obj
 0001:00014590       ??$make_pair@V?$basic_string@DU?$char_traits@D@std@@V?$allocator@D@2@@std@@V12@@std@@YA?AU?$pair@V?$basic_string@DU?$char_traits@D@std@@V?$allocator@D@2@@std@@V12@@0@V?$basic_string@DU?$char_traits@D@std@@V?$allocator@D@2@@0@0@Z 10015590 f i ObjCache.obj
 0001:00014620       ??$make_pair@PBDV?$basic_string@DU?$char_traits@D@std@@V?$allocator@D@2@@std@@@std@@YA?AU?$pair@PBDV?$basic_string@DU?$char_traits@D@std@@V?$allocator@D@2@@std@@@0@PBDV?$basic_string@DU?$char_traits@D@std@@V?$allocator@D@2@@0@@Z 10015620 f i ObjCache.obj
 0001:00014690       ??$make_pair@V?$basic_string@DU?$char_traits@D@std@@V?$allocator@D@2@@std@@VSingelRecord@@@std@@YA?AU?$pair@V?$basic_string@DU?$char_traits@D@std@@V?$allocator@D@2@@std@@VSingelRecord@@@0@V?$basic_string@DU?$char_traits@D@std@@V?$allocator@D@2@@0@VSingelRecord@@@Z 10015690 f i ObjCache.obj
 0001:00014710       ?_Erase@?$_Tree@V?$_Tmap_traits@HPAXU?$less@H@std@@V?$allocator@U?$pair@$$CBHPAX@std@@@2@$0A@@std@@@std@@IAEXPAU_Node@?$_Tree_nod@V?$_Tmap_traits@HPAXU?$less@H@std@@V?$allocator@U?$pair@$$CBHPAX@std@@@2@$0A@@std@@@2@@Z 10015710 f i ObjCache.obj
 0001:00014750       ?_Buynode@?$list@Usv_pair@@V?$allocator@Usv_pair@@@std@@@std@@IAEPAU_Node@?$_List_nod@Usv_pair@@V?$allocator@Usv_pair@@@std@@@2@XZ 10015750 f i ObjCache.obj
 0001:00014770       ?_Buynode@?$_Tree@V?$_Tmap_traits@HPAXU?$less@H@std@@V?$allocator@U?$pair@$$CBHPAX@std@@@2@$0A@@std@@@std@@IAEPAU_Node@?$_Tree_nod@V?$_Tmap_traits@HPAXU?$less@H@std@@V?$allocator@U?$pair@$$CBHPAX@std@@@2@$0A@@std@@@2@PAU342@00ABU?$pair@$$CBHPAX@2@D@Z 10015770 f i ObjCache.obj
 0001:000147b0       ?_Buynode@?$_Tree@V?$_Tmap_traits@V?$basic_string@DU?$char_traits@D@std@@V?$allocator@D@2@@std@@KU?$less@V?$basic_string@DU?$char_traits@D@std@@V?$allocator@D@2@@std@@@2@V?$allocator@U?$pair@$$CBV?$basic_string@DU?$char_traits@D@std@@V?$allocator@D@2@@std@@K@std@@@2@$0A@@std@@@std@@IAEPAU_Node@?$_Tree_nod@V?$_Tmap_traits@V?$basic_string@DU?$char_traits@D@std@@V?$allocator@D@2@@std@@KU?$less@V?$basic_string@DU?$char_traits@D@std@@V?$allocator@D@2@@std@@@2@V?$allocator@U?$pair@$$CBV?$basic_string@DU?$char_traits@D@std@@V?$allocator@D@2@@std@@K@std@@@2@$0A@@std@@@2@XZ 100157b0 f i ShareMemFile.obj
 0001:000147b0       ?_Buynode@?$_Tree@V?$_Tmap_traits@V?$basic_string@DU?$char_traits@D@std@@V?$allocator@D@2@@std@@PAXU?$less@V?$basic_string@DU?$char_traits@D@std@@V?$allocator@D@2@@std@@@2@V?$allocator@U?$pair@$$CBV?$basic_string@DU?$char_traits@D@std@@V?$allocator@D@2@@std@@PAX@std@@@2@$0A@@std@@@std@@IAEPAU_Node@?$_Tree_nod@V?$_Tmap_traits@V?$basic_string@DU?$char_traits@D@std@@V?$allocator@D@2@@std@@PAXU?$less@V?$basic_string@DU?$char_traits@D@std@@V?$allocator@D@2@@std@@@2@V?$allocator@U?$pair@$$CBV?$basic_string@DU?$char_traits@D@std@@V?$allocator@D@2@@std@@PAX@std@@@2@$0A@@std@@@2@XZ 100157b0 f i ObjCache.obj
 0001:000147f0       ?_Buynode@?$_Tree@V?$_Tmap_traits@V?$basic_string@DU?$char_traits@D@std@@V?$allocator@D@2@@std@@PAXU?$less@V?$basic_string@DU?$char_traits@D@std@@V?$allocator@D@2@@std@@@2@V?$allocator@U?$pair@$$CBV?$basic_string@DU?$char_traits@D@std@@V?$allocator@D@2@@std@@PAX@std@@@2@$0A@@std@@@std@@IAEPAU_Node@?$_Tree_nod@V?$_Tmap_traits@V?$basic_string@DU?$char_traits@D@std@@V?$allocator@D@2@@std@@PAXU?$less@V?$basic_string@DU?$char_traits@D@std@@V?$allocator@D@2@@std@@@2@V?$allocator@U?$pair@$$CBV?$basic_string@DU?$char_traits@D@std@@V?$allocator@D@2@@std@@PAX@std@@@2@$0A@@std@@@2@PAU342@00ABU?$pair@$$CBV?$basic_string@DU?$char_traits@D@std@@V?$allocator@D@2@@std@@PAX@2@D@Z 100157f0 f i ObjCache.obj
 0001:00014890       ?_Buynode@?$_Tree@V?$_Tmap_traits@V?$basic_string@DU?$char_traits@D@std@@V?$allocator@D@2@@std@@VVerOBJECT@@U?$less@V?$basic_string@DU?$char_traits@D@std@@V?$allocator@D@2@@std@@@2@V?$allocator@U?$pair@$$CBV?$basic_string@DU?$char_traits@D@std@@V?$allocator@D@2@@std@@VVerOBJECT@@@std@@@2@$0A@@std@@@std@@IAEPAU_Node@?$_Tree_nod@V?$_Tmap_traits@V?$basic_string@DU?$char_traits@D@std@@V?$allocator@D@2@@std@@VVerOBJECT@@U?$less@V?$basic_string@DU?$char_traits@D@std@@V?$allocator@D@2@@std@@@2@V?$allocator@U?$pair@$$CBV?$basic_string@DU?$char_traits@D@std@@V?$allocator@D@2@@std@@VVerOBJECT@@@std@@@2@$0A@@std@@@2@PAU342@00ABU?$pair@$$CBV?$basic_string@DU?$char_traits@D@std@@V?$allocator@D@2@@std@@VVerOBJECT@@@2@D@Z 10015890 f i ObjCache.obj
 0001:00014930       ?_Buynode@?$_Tree@V?$_Tmap_traits@V?$basic_string@DU?$char_traits@D@std@@V?$allocator@D@2@@std@@VSingelRecord@@U?$less@V?$basic_string@DU?$char_traits@D@std@@V?$allocator@D@2@@std@@@2@V?$allocator@U?$pair@$$CBV?$basic_string@DU?$char_traits@D@std@@V?$allocator@D@2@@std@@VSingelRecord@@@std@@@2@$0A@@std@@@std@@IAEPAU_Node@?$_Tree_nod@V?$_Tmap_traits@V?$basic_string@DU?$char_traits@D@std@@V?$allocator@D@2@@std@@VSingelRecord@@U?$less@V?$basic_string@DU?$char_traits@D@std@@V?$allocator@D@2@@std@@@2@V?$allocator@U?$pair@$$CBV?$basic_string@DU?$char_traits@D@std@@V?$allocator@D@2@@std@@VSingelRecord@@@std@@@2@$0A@@std@@@2@PAU342@00ABU?$pair@$$CBV?$basic_string@DU?$char_traits@D@std@@V?$allocator@D@2@@std@@VSingelRecord@@@2@D@Z 10015930 f i ObjCache.obj
 0001:000149d0       ?_Buynode@?$list@VSingelRecord@@V?$allocator@VSingelRecord@@@std@@@std@@IAEPAU_Node@?$_List_nod@VSingelRecord@@V?$allocator@VSingelRecord@@@std@@@2@PAU342@0ABVSingelRecord@@@Z 100159d0 f i ObjCache.obj
 0001:00014a70       ?_Incsize@?$list@VSingelRecord@@V?$allocator@VSingelRecord@@@std@@@std@@IAEXI@Z 10015a70 f i ObjCache.obj
 0001:00014b10       ?_Buynode@?$_Tree@V?$_Tmap_traits@HPAXU?$less@H@std@@V?$allocator@U?$pair@$$CBHPAX@std@@@2@$0A@@std@@@std@@IAEPAU_Node@?$_Tree_nod@V?$_Tmap_traits@HPAXU?$less@H@std@@V?$allocator@U?$pair@$$CBHPAX@std@@@2@$0A@@std@@@2@XZ 10015b10 f i ObjCache.obj
 0001:00014b50       ?_Buynode@?$_Tree@V?$_Tmap_traits@V?$basic_string@DU?$char_traits@D@std@@V?$allocator@D@2@@std@@V?$map@V?$basic_string@DU?$char_traits@D@std@@V?$allocator@D@2@@std@@V12@UStlIniCompareStringNoCase@@V?$allocator@U?$pair@$$CBV?$basic_string@DU?$char_traits@D@std@@V?$allocator@D@2@@std@@V12@@std@@@2@@2@UStlIniCompareStringNoCase@@V?$allocator@U?$pair@$$CBV?$basic_string@DU?$char_traits@D@std@@V?$allocator@D@2@@std@@V?$map@V?$basic_string@DU?$char_traits@D@std@@V?$allocator@D@2@@std@@V12@UStlIniCompareStringNoCase@@V?$allocator@U?$pair@$$CBV?$basic_string@DU?$char_traits@D@std@@V?$allocator@D@2@@std@@V12@@std@@@2@@2@@std@@@2@$0A@@std@@@std@@IAEPAU_Node@?$_Tree_nod@V?$_Tmap_traits@V?$basic_string@DU?$char_traits@D@std@@V?$allocator@D@2@@std@@V?$map@V?$basic_string@DU?$char_traits@D@std@@V?$allocator@D@2@@std@@V12@UStlIniCompareStringNoCase@@V?$allocator@U?$pair@$$CBV?$basic_string@DU?$char_traits@D@std@@V?$allocator@D@2@@std@@V12@@std@@@2@@2@UStlIniCompareStringNoCase@@V?$allocator@U?$pair@$$CBV?$basic_string@DU?$char_traits@D@std@@V?$allocator@D@2@@std@@V?$map@V?$basic_string@DU?$char_traits@D@std@@V?$allocator@D@2@@std@@V12@UStlIniCompareStringNoCase@@V?$allocator@U?$pair@$$CBV?$basic_string@DU?$char_traits@D@std@@V?$allocator@D@2@@std@@V12@@std@@@2@@2@@std@@@2@$0A@@std@@@2@XZ 10015b50 f i stlini.obj
 0001:00014b50       ?_Buynode@?$_Tree@V?$_Tmap_traits@V?$basic_string@DU?$char_traits@D@std@@V?$allocator@D@2@@std@@V?$map@V?$basic_string@DU?$char_traits@D@std@@V?$allocator@D@2@@std@@PAXU?$less@V?$basic_string@DU?$char_traits@D@std@@V?$allocator@D@2@@std@@@2@V?$allocator@U?$pair@$$CBV?$basic_string@DU?$char_traits@D@std@@V?$allocator@D@2@@std@@PAX@std@@@2@@2@U?$less@V?$basic_string@DU?$char_traits@D@std@@V?$allocator@D@2@@std@@@2@V?$allocator@U?$pair@$$CBV?$basic_string@DU?$char_traits@D@std@@V?$allocator@D@2@@std@@V?$map@V?$basic_string@DU?$char_traits@D@std@@V?$allocator@D@2@@std@@PAXU?$less@V?$basic_string@DU?$char_traits@D@std@@V?$allocator@D@2@@std@@@2@V?$allocator@U?$pair@$$CBV?$basic_string@DU?$char_traits@D@std@@V?$allocator@D@2@@std@@PAX@std@@@2@@2@@std@@@2@$0A@@std@@@std@@IAEPAU_Node@?$_Tree_nod@V?$_Tmap_traits@V?$basic_string@DU?$char_traits@D@std@@V?$allocator@D@2@@std@@V?$map@V?$basic_string@DU?$char_traits@D@std@@V?$allocator@D@2@@std@@PAXU?$less@V?$basic_string@DU?$char_traits@D@std@@V?$allocator@D@2@@std@@@2@V?$allocator@U?$pair@$$CBV?$basic_string@DU?$char_traits@D@std@@V?$allocator@D@2@@std@@PAX@std@@@2@@2@U?$less@V?$basic_string@DU?$char_traits@D@std@@V?$allocator@D@2@@std@@@2@V?$allocator@U?$pair@$$CBV?$basic_string@DU?$char_traits@D@std@@V?$allocator@D@2@@std@@V?$map@V?$basic_string@DU?$char_traits@D@std@@V?$allocator@D@2@@std@@PAXU?$less@V?$basic_string@DU?$char_traits@D@std@@V?$allocator@D@2@@std@@@2@V?$allocator@U?$pair@$$CBV?$basic_string@DU?$char_traits@D@std@@V?$allocator@D@2@@std@@PAX@std@@@2@@2@@std@@@2@$0A@@std@@@2@XZ 10015b50 f i ObjCache.obj
 0001:00014b50       ?_Buynode@?$_Tree@V?$_Tmap_traits@V?$basic_string@DU?$char_traits@D@std@@V?$allocator@D@2@@std@@V?$map@V?$basic_string@DU?$char_traits@D@std@@V?$allocator@D@2@@std@@V12@U?$less@V?$basic_string@DU?$char_traits@D@std@@V?$allocator@D@2@@std@@@2@V?$allocator@U?$pair@$$CBV?$basic_string@DU?$char_traits@D@std@@V?$allocator@D@2@@std@@V12@@std@@@2@@2@U?$less@V?$basic_string@DU?$char_traits@D@std@@V?$allocator@D@2@@std@@@2@V?$allocator@U?$pair@$$CBV?$basic_string@DU?$char_traits@D@std@@V?$allocator@D@2@@std@@V?$map@V?$basic_string@DU?$char_traits@D@std@@V?$allocator@D@2@@std@@V12@U?$less@V?$basic_string@DU?$char_traits@D@std@@V?$allocator@D@2@@std@@@2@V?$allocator@U?$pair@$$CBV?$basic_string@DU?$char_traits@D@std@@V?$allocator@D@2@@std@@V12@@std@@@2@@2@@std@@@2@$0A@@std@@@std@@IAEPAU_Node@?$_Tree_nod@V?$_Tmap_traits@V?$basic_string@DU?$char_traits@D@std@@V?$allocator@D@2@@std@@V?$map@V?$basic_string@DU?$char_traits@D@std@@V?$allocator@D@2@@std@@V12@U?$less@V?$basic_string@DU?$char_traits@D@std@@V?$allocator@D@2@@std@@@2@V?$allocator@U?$pair@$$CBV?$basic_string@DU?$char_traits@D@std@@V?$allocator@D@2@@std@@V12@@std@@@2@@2@U?$less@V?$basic_string@DU?$char_traits@D@std@@V?$allocator@D@2@@std@@@2@V?$allocator@U?$pair@$$CBV?$basic_string@DU?$char_traits@D@std@@V?$allocator@D@2@@std@@V?$map@V?$basic_string@DU?$char_traits@D@std@@V?$allocator@D@2@@std@@V12@U?$less@V?$basic_string@DU?$char_traits@D@std@@V?$allocator@D@2@@std@@@2@V?$allocator@U?$pair@$$CBV?$basic_string@DU?$char_traits@D@std@@V?$allocator@D@2@@std@@V12@@std@@@2@@2@@std@@@2@$0A@@std@@@2@XZ 10015b50 f i ObjCache.obj
 0001:00014b90       ?_Buynode@?$_Tree@V?$_Tmap_traits@V?$basic_string@DU?$char_traits@D@std@@V?$allocator@D@2@@std@@VVerOBJECT@@U?$less@V?$basic_string@DU?$char_traits@D@std@@V?$allocator@D@2@@std@@@2@V?$allocator@U?$pair@$$CBV?$basic_string@DU?$char_traits@D@std@@V?$allocator@D@2@@std@@VVerOBJECT@@@std@@@2@$0A@@std@@@std@@IAEPAU_Node@?$_Tree_nod@V?$_Tmap_traits@V?$basic_string@DU?$char_traits@D@std@@V?$allocator@D@2@@std@@VVerOBJECT@@U?$less@V?$basic_string@DU?$char_traits@D@std@@V?$allocator@D@2@@std@@@2@V?$allocator@U?$pair@$$CBV?$basic_string@DU?$char_traits@D@std@@V?$allocator@D@2@@std@@VVerOBJECT@@@std@@@2@$0A@@std@@@2@XZ 10015b90 f i ObjCache.obj
 0001:00014bd0       ?_Buynode@?$_Tree@V?$_Tmap_traits@V?$basic_string@DU?$char_traits@D@std@@V?$allocator@D@2@@std@@VSingelRecord@@U?$less@V?$basic_string@DU?$char_traits@D@std@@V?$allocator@D@2@@std@@@2@V?$allocator@U?$pair@$$CBV?$basic_string@DU?$char_traits@D@std@@V?$allocator@D@2@@std@@VSingelRecord@@@std@@@2@$0A@@std@@@std@@IAEPAU_Node@?$_Tree_nod@V?$_Tmap_traits@V?$basic_string@DU?$char_traits@D@std@@V?$allocator@D@2@@std@@VSingelRecord@@U?$less@V?$basic_string@DU?$char_traits@D@std@@V?$allocator@D@2@@std@@@2@V?$allocator@U?$pair@$$CBV?$basic_string@DU?$char_traits@D@std@@V?$allocator@D@2@@std@@VSingelRecord@@@std@@@2@$0A@@std@@@2@XZ 10015bd0 f i ObjCache.obj
 0001:00014c10       ?find@?$_Tree@V?$_Tmap_traits@HPAXU?$less@H@std@@V?$allocator@U?$pair@$$CBHPAX@std@@@2@$0A@@std@@@std@@QAE?AViterator@12@ABH@Z 10015c10 f i ObjCache.obj
 0001:00014c80       ?find@?$_Tree@V?$_Tmap_traits@V?$basic_string@DU?$char_traits@D@std@@V?$allocator@D@2@@std@@PAXU?$less@V?$basic_string@DU?$char_traits@D@std@@V?$allocator@D@2@@std@@@2@V?$allocator@U?$pair@$$CBV?$basic_string@DU?$char_traits@D@std@@V?$allocator@D@2@@std@@PAX@std@@@2@$0A@@std@@@std@@QAE?AViterator@12@ABV?$basic_string@DU?$char_traits@D@std@@V?$allocator@D@2@@2@@Z 10015c80 f i ObjCache.obj
 0001:00014ce0       ?find@?$_Tree@V?$_Tmap_traits@V?$basic_string@DU?$char_traits@D@std@@V?$allocator@D@2@@std@@V?$map@V?$basic_string@DU?$char_traits@D@std@@V?$allocator@D@2@@std@@PAXU?$less@V?$basic_string@DU?$char_traits@D@std@@V?$allocator@D@2@@std@@@2@V?$allocator@U?$pair@$$CBV?$basic_string@DU?$char_traits@D@std@@V?$allocator@D@2@@std@@PAX@std@@@2@@2@U?$less@V?$basic_string@DU?$char_traits@D@std@@V?$allocator@D@2@@std@@@2@V?$allocator@U?$pair@$$CBV?$basic_string@DU?$char_traits@D@std@@V?$allocator@D@2@@std@@V?$map@V?$basic_string@DU?$char_traits@D@std@@V?$allocator@D@2@@std@@PAXU?$less@V?$basic_string@DU?$char_traits@D@std@@V?$allocator@D@2@@std@@@2@V?$allocator@U?$pair@$$CBV?$basic_string@DU?$char_traits@D@std@@V?$allocator@D@2@@std@@PAX@std@@@2@@2@@std@@@2@$0A@@std@@@std@@QAE?AViterator@12@ABV?$basic_string@DU?$char_traits@D@std@@V?$allocator@D@2@@2@@Z 10015ce0 f i ObjCache.obj
 0001:00014d40       ?find@?$_Tree@V?$_Tmap_traits@V?$basic_string@DU?$char_traits@D@std@@V?$allocator@D@2@@std@@VVerOBJECT@@U?$less@V?$basic_string@DU?$char_traits@D@std@@V?$allocator@D@2@@std@@@2@V?$allocator@U?$pair@$$CBV?$basic_string@DU?$char_traits@D@std@@V?$allocator@D@2@@std@@VVerOBJECT@@@std@@@2@$0A@@std@@@std@@QAE?AViterator@12@ABV?$basic_string@DU?$char_traits@D@std@@V?$allocator@D@2@@2@@Z 10015d40 f i ObjCache.obj
 0001:00014da0       ?find@?$_Tree@V?$_Tmap_traits@V?$basic_string@DU?$char_traits@D@std@@V?$allocator@D@2@@std@@VSingelRecord@@U?$less@V?$basic_string@DU?$char_traits@D@std@@V?$allocator@D@2@@std@@@2@V?$allocator@U?$pair@$$CBV?$basic_string@DU?$char_traits@D@std@@V?$allocator@D@2@@std@@VSingelRecord@@@std@@@2@$0A@@std@@@std@@QAE?AViterator@12@ABV?$basic_string@DU?$char_traits@D@std@@V?$allocator@D@2@@2@@Z 10015da0 f i ObjCache.obj
 0001:00014e00       ?_Insert@?$_Tree@V?$_Tmap_traits@V?$basic_string@DU?$char_traits@D@std@@V?$allocator@D@2@@std@@V12@U?$less@V?$basic_string@DU?$char_traits@D@std@@V?$allocator@D@2@@std@@@2@V?$allocator@U?$pair@$$CBV?$basic_string@DU?$char_traits@D@std@@V?$allocator@D@2@@std@@V12@@std@@@2@$0A@@std@@@std@@IAE?AViterator@12@_NPAU_Node@?$_Tree_nod@V?$_Tmap_traits@V?$basic_string@DU?$char_traits@D@std@@V?$allocator@D@2@@std@@V12@U?$less@V?$basic_string@DU?$char_traits@D@std@@V?$allocator@D@2@@std@@@2@V?$allocator@U?$pair@$$CBV?$basic_string@DU?$char_traits@D@std@@V?$allocator@D@2@@std@@V12@@std@@@2@$0A@@std@@@2@ABU?$pair@$$CBV?$basic_string@DU?$char_traits@D@std@@V?$allocator@D@2@@std@@V12@@2@@Z 10015e00 f i ObjCache.obj
 0001:00014fc0       ?_Insert@?$_Tree@V?$_Tmap_traits@HPAXU?$less@H@std@@V?$allocator@U?$pair@$$CBHPAX@std@@@2@$0A@@std@@@std@@IAE?AViterator@12@_NPAU_Node@?$_Tree_nod@V?$_Tmap_traits@HPAXU?$less@H@std@@V?$allocator@U?$pair@$$CBHPAX@std@@@2@$0A@@std@@@2@ABU?$pair@$$CBHPAX@2@@Z 10015fc0 f i ObjCache.obj
 0001:00015180       ?_Insert@?$_Tree@V?$_Tmap_traits@V?$basic_string@DU?$char_traits@D@std@@V?$allocator@D@2@@std@@PAXU?$less@V?$basic_string@DU?$char_traits@D@std@@V?$allocator@D@2@@std@@@2@V?$allocator@U?$pair@$$CBV?$basic_string@DU?$char_traits@D@std@@V?$allocator@D@2@@std@@PAX@std@@@2@$0A@@std@@@std@@IAE?AViterator@12@_NPAU_Node@?$_Tree_nod@V?$_Tmap_traits@V?$basic_string@DU?$char_traits@D@std@@V?$allocator@D@2@@std@@PAXU?$less@V?$basic_string@DU?$char_traits@D@std@@V?$allocator@D@2@@std@@@2@V?$allocator@U?$pair@$$CBV?$basic_string@DU?$char_traits@D@std@@V?$allocator@D@2@@std@@PAX@std@@@2@$0A@@std@@@2@ABU?$pair@$$CBV?$basic_string@DU?$char_traits@D@std@@V?$allocator@D@2@@std@@PAX@2@@Z 10016180 f i ObjCache.obj
 0001:00015340       ?_Insert@?$_Tree@V?$_Tmap_traits@V?$basic_string@DU?$char_traits@D@std@@V?$allocator@D@2@@std@@VVerOBJECT@@U?$less@V?$basic_string@DU?$char_traits@D@std@@V?$allocator@D@2@@std@@@2@V?$allocator@U?$pair@$$CBV?$basic_string@DU?$char_traits@D@std@@V?$allocator@D@2@@std@@VVerOBJECT@@@std@@@2@$0A@@std@@@std@@IAE?AViterator@12@_NPAU_Node@?$_Tree_nod@V?$_Tmap_traits@V?$basic_string@DU?$char_traits@D@std@@V?$allocator@D@2@@std@@VVerOBJECT@@U?$less@V?$basic_string@DU?$char_traits@D@std@@V?$allocator@D@2@@std@@@2@V?$allocator@U?$pair@$$CBV?$basic_string@DU?$char_traits@D@std@@V?$allocator@D@2@@std@@VVerOBJECT@@@std@@@2@$0A@@std@@@2@ABU?$pair@$$CBV?$basic_string@DU?$char_traits@D@std@@V?$allocator@D@2@@std@@VVerOBJECT@@@2@@Z 10016340 f i ObjCache.obj
 0001:00015500       ?_Insert@?$_Tree@V?$_Tmap_traits@V?$basic_string@DU?$char_traits@D@std@@V?$allocator@D@2@@std@@VSingelRecord@@U?$less@V?$basic_string@DU?$char_traits@D@std@@V?$allocator@D@2@@std@@@2@V?$allocator@U?$pair@$$CBV?$basic_string@DU?$char_traits@D@std@@V?$allocator@D@2@@std@@VSingelRecord@@@std@@@2@$0A@@std@@@std@@IAE?AViterator@12@_NPAU_Node@?$_Tree_nod@V?$_Tmap_traits@V?$basic_string@DU?$char_traits@D@std@@V?$allocator@D@2@@std@@VSingelRecord@@U?$less@V?$basic_string@DU?$char_traits@D@std@@V?$allocator@D@2@@std@@@2@V?$allocator@U?$pair@$$CBV?$basic_string@DU?$char_traits@D@std@@V?$allocator@D@2@@std@@VSingelRecord@@@std@@@2@$0A@@std@@@2@ABU?$pair@$$CBV?$basic_string@DU?$char_traits@D@std@@V?$allocator@D@2@@std@@VSingelRecord@@@2@@Z 10016500 f i ObjCache.obj
 0001:000156c0       ?erase@?$_Tree@V?$_Tmap_traits@HPAXU?$less@H@std@@V?$allocator@U?$pair@$$CBHPAX@std@@@2@$0A@@std@@@std@@QAE?AViterator@12@V312@@Z 100166c0 f i ObjCache.obj
 0001:00015990       ?erase@?$_Tree@V?$_Tmap_traits@V?$basic_string@DU?$char_traits@D@std@@V?$allocator@D@2@@std@@PAXU?$less@V?$basic_string@DU?$char_traits@D@std@@V?$allocator@D@2@@std@@@2@V?$allocator@U?$pair@$$CBV?$basic_string@DU?$char_traits@D@std@@V?$allocator@D@2@@std@@PAX@std@@@2@$0A@@std@@@std@@QAE?AViterator@12@V312@@Z 10016990 f i ObjCache.obj
 0001:00015c70       ?erase@?$_Tree@V?$_Tmap_traits@V?$basic_string@DU?$char_traits@D@std@@V?$allocator@D@2@@std@@VSingelRecord@@U?$less@V?$basic_string@DU?$char_traits@D@std@@V?$allocator@D@2@@std@@@2@V?$allocator@U?$pair@$$CBV?$basic_string@DU?$char_traits@D@std@@V?$allocator@D@2@@std@@VSingelRecord@@@std@@@2@$0A@@std@@@std@@QAE?AViterator@12@V312@@Z 10016c70 f i ObjCache.obj
 0001:00015f70       ?insert@?$_Tree@V?$_Tmap_traits@V?$basic_string@DU?$char_traits@D@std@@V?$allocator@D@2@@std@@V12@U?$less@V?$basic_string@DU?$char_traits@D@std@@V?$allocator@D@2@@std@@@2@V?$allocator@U?$pair@$$CBV?$basic_string@DU?$char_traits@D@std@@V?$allocator@D@2@@std@@V12@@std@@@2@$0A@@std@@@std@@QAE?AU?$pair@Viterator@?$_Tree@V?$_Tmap_traits@V?$basic_string@DU?$char_traits@D@std@@V?$allocator@D@2@@std@@V12@U?$less@V?$basic_string@DU?$char_traits@D@std@@V?$allocator@D@2@@std@@@2@V?$allocator@U?$pair@$$CBV?$basic_string@DU?$char_traits@D@std@@V?$allocator@D@2@@std@@V12@@std@@@2@$0A@@std@@@std@@_N@2@ABU?$pair@$$CBV?$basic_string@DU?$char_traits@D@std@@V?$allocator@D@2@@std@@V12@@2@@Z 10016f70 f i ObjCache.obj
 0001:00016050       ?insert@?$_Tree@V?$_Tmap_traits@HPAXU?$less@H@std@@V?$allocator@U?$pair@$$CBHPAX@std@@@2@$0A@@std@@@std@@QAE?AU?$pair@Viterator@?$_Tree@V?$_Tmap_traits@HPAXU?$less@H@std@@V?$allocator@U?$pair@$$CBHPAX@std@@@2@$0A@@std@@@std@@_N@2@ABU?$pair@$$CBHPAX@2@@Z 10017050 f i ObjCache.obj
 0001:00016110       ?insert@?$_Tree@V?$_Tmap_traits@V?$basic_string@DU?$char_traits@D@std@@V?$allocator@D@2@@std@@PAXU?$less@V?$basic_string@DU?$char_traits@D@std@@V?$allocator@D@2@@std@@@2@V?$allocator@U?$pair@$$CBV?$basic_string@DU?$char_traits@D@std@@V?$allocator@D@2@@std@@PAX@std@@@2@$0A@@std@@@std@@QAE?AU?$pair@Viterator@?$_Tree@V?$_Tmap_traits@V?$basic_string@DU?$char_traits@D@std@@V?$allocator@D@2@@std@@PAXU?$less@V?$basic_string@DU?$char_traits@D@std@@V?$allocator@D@2@@std@@@2@V?$allocator@U?$pair@$$CBV?$basic_string@DU?$char_traits@D@std@@V?$allocator@D@2@@std@@PAX@std@@@2@$0A@@std@@@std@@_N@2@ABU?$pair@$$CBV?$basic_string@DU?$char_traits@D@std@@V?$allocator@D@2@@std@@PAX@2@@Z 10017110 f i ObjCache.obj
 0001:000161f0       ?insert@?$_Tree@V?$_Tmap_traits@V?$basic_string@DU?$char_traits@D@std@@V?$allocator@D@2@@std@@VVerOBJECT@@U?$less@V?$basic_string@DU?$char_traits@D@std@@V?$allocator@D@2@@std@@@2@V?$allocator@U?$pair@$$CBV?$basic_string@DU?$char_traits@D@std@@V?$allocator@D@2@@std@@VVerOBJECT@@@std@@@2@$0A@@std@@@std@@QAE?AU?$pair@Viterator@?$_Tree@V?$_Tmap_traits@V?$basic_string@DU?$char_traits@D@std@@V?$allocator@D@2@@std@@VVerOBJECT@@U?$less@V?$basic_string@DU?$char_traits@D@std@@V?$allocator@D@2@@std@@@2@V?$allocator@U?$pair@$$CBV?$basic_string@DU?$char_traits@D@std@@V?$allocator@D@2@@std@@VVerOBJECT@@@std@@@2@$0A@@std@@@std@@_N@2@ABU?$pair@$$CBV?$basic_string@DU?$char_traits@D@std@@V?$allocator@D@2@@std@@VVerOBJECT@@@2@@Z 100171f0 f i ObjCache.obj
 0001:000162d0       ?erase@?$_Tree@V?$_Tmap_traits@V?$basic_string@DU?$char_traits@D@std@@V?$allocator@D@2@@std@@VVerOBJECT@@U?$less@V?$basic_string@DU?$char_traits@D@std@@V?$allocator@D@2@@std@@@2@V?$allocator@U?$pair@$$CBV?$basic_string@DU?$char_traits@D@std@@V?$allocator@D@2@@std@@VVerOBJECT@@@std@@@2@$0A@@std@@@std@@QAE?AViterator@12@V312@@Z 100172d0 f i ObjCache.obj
 0001:000165d0       ?insert@?$_Tree@V?$_Tmap_traits@V?$basic_string@DU?$char_traits@D@std@@V?$allocator@D@2@@std@@VSingelRecord@@U?$less@V?$basic_string@DU?$char_traits@D@std@@V?$allocator@D@2@@std@@@2@V?$allocator@U?$pair@$$CBV?$basic_string@DU?$char_traits@D@std@@V?$allocator@D@2@@std@@VSingelRecord@@@std@@@2@$0A@@std@@@std@@QAE?AU?$pair@Viterator@?$_Tree@V?$_Tmap_traits@V?$basic_string@DU?$char_traits@D@std@@V?$allocator@D@2@@std@@VSingelRecord@@U?$less@V?$basic_string@DU?$char_traits@D@std@@V?$allocator@D@2@@std@@@2@V?$allocator@U?$pair@$$CBV?$basic_string@DU?$char_traits@D@std@@V?$allocator@D@2@@std@@VSingelRecord@@@std@@@2@$0A@@std@@@std@@_N@2@ABU?$pair@$$CBV?$basic_string@DU?$char_traits@D@std@@V?$allocator@D@2@@std@@VSingelRecord@@@2@@Z 100175d0 f i ObjCache.obj
 0001:000166b0       ?push_back@?$list@VSingelRecord@@V?$allocator@VSingelRecord@@@std@@@std@@QAEXABVSingelRecord@@@Z 100176b0 f i ObjCache.obj
 0001:000166f0       ?_Erase@?$_Tree@V?$_Tmap_traits@V?$basic_string@DU?$char_traits@D@std@@V?$allocator@D@2@@std@@PAXU?$less@V?$basic_string@DU?$char_traits@D@std@@V?$allocator@D@2@@std@@@2@V?$allocator@U?$pair@$$CBV?$basic_string@DU?$char_traits@D@std@@V?$allocator@D@2@@std@@PAX@std@@@2@$0A@@std@@@std@@IAEXPAU_Node@?$_Tree_nod@V?$_Tmap_traits@V?$basic_string@DU?$char_traits@D@std@@V?$allocator@D@2@@std@@PAXU?$less@V?$basic_string@DU?$char_traits@D@std@@V?$allocator@D@2@@std@@@2@V?$allocator@U?$pair@$$CBV?$basic_string@DU?$char_traits@D@std@@V?$allocator@D@2@@std@@PAX@std@@@2@$0A@@std@@@2@@Z 100176f0 f i ObjCache.obj
 0001:00016730       ?_Erase@?$_Tree@V?$_Tmap_traits@V?$basic_string@DU?$char_traits@D@std@@V?$allocator@D@2@@std@@VVerOBJECT@@U?$less@V?$basic_string@DU?$char_traits@D@std@@V?$allocator@D@2@@std@@@2@V?$allocator@U?$pair@$$CBV?$basic_string@DU?$char_traits@D@std@@V?$allocator@D@2@@std@@VVerOBJECT@@@std@@@2@$0A@@std@@@std@@IAEXPAU_Node@?$_Tree_nod@V?$_Tmap_traits@V?$basic_string@DU?$char_traits@D@std@@V?$allocator@D@2@@std@@VVerOBJECT@@U?$less@V?$basic_string@DU?$char_traits@D@std@@V?$allocator@D@2@@std@@@2@V?$allocator@U?$pair@$$CBV?$basic_string@DU?$char_traits@D@std@@V?$allocator@D@2@@std@@VVerOBJECT@@@std@@@2@$0A@@std@@@2@@Z 10017730 f i ObjCache.obj
 0001:00016770       ?_Erase@?$_Tree@V?$_Tmap_traits@V?$basic_string@DU?$char_traits@D@std@@V?$allocator@D@2@@std@@VSingelRecord@@U?$less@V?$basic_string@DU?$char_traits@D@std@@V?$allocator@D@2@@std@@@2@V?$allocator@U?$pair@$$CBV?$basic_string@DU?$char_traits@D@std@@V?$allocator@D@2@@std@@VSingelRecord@@@std@@@2@$0A@@std@@@std@@IAEXPAU_Node@?$_Tree_nod@V?$_Tmap_traits@V?$basic_string@DU?$char_traits@D@std@@V?$allocator@D@2@@std@@VSingelRecord@@U?$less@V?$basic_string@DU?$char_traits@D@std@@V?$allocator@D@2@@std@@@2@V?$allocator@U?$pair@$$CBV?$basic_string@DU?$char_traits@D@std@@V?$allocator@D@2@@std@@VSingelRecord@@@std@@@2@$0A@@std@@@2@@Z 10017770 f i ObjCache.obj
 0001:000167b0       ?erase@?$_Tree@V?$_Tmap_traits@HPAXU?$less@H@std@@V?$allocator@U?$pair@$$CBHPAX@std@@@2@$0A@@std@@@std@@QAE?AViterator@12@V312@0@Z 100177b0 f i ObjCache.obj
 0001:00016870       ?_Copy@?$_Tree@V?$_Tmap_traits@V?$basic_string@DU?$char_traits@D@std@@V?$allocator@D@2@@std@@PAXU?$less@V?$basic_string@DU?$char_traits@D@std@@V?$allocator@D@2@@std@@@2@V?$allocator@U?$pair@$$CBV?$basic_string@DU?$char_traits@D@std@@V?$allocator@D@2@@std@@PAX@std@@@2@$0A@@std@@@std@@IAEPAU_Node@?$_Tree_nod@V?$_Tmap_traits@V?$basic_string@DU?$char_traits@D@std@@V?$allocator@D@2@@std@@PAXU?$less@V?$basic_string@DU?$char_traits@D@std@@V?$allocator@D@2@@std@@@2@V?$allocator@U?$pair@$$CBV?$basic_string@DU?$char_traits@D@std@@V?$allocator@D@2@@std@@PAX@std@@@2@$0A@@std@@@2@PAU342@0@Z 10017870 f i ObjCache.obj
 0001:00016920       ?clear@?$list@Usv_pair@@V?$allocator@Usv_pair@@@std@@@std@@QAEXXZ 10017920 f i ObjCache.obj
 0001:00016960       ?FastGetSVSE@ObjectCache@@SAPAXV?$basic_string@DU?$char_traits@D@std@@V?$allocator@D@2@@std@@@Z 10017960 f   ObjCache.obj
 0001:00016c70       ?RefreshFastGetMonitor@ObjectCache@@SAPAXV?$basic_string@DU?$char_traits@D@std@@V?$allocator@D@2@@std@@@Z 10017c70 f   ObjCache.obj
 0001:00016f50       ?FastGetMonitor@ObjectCache@@SAPAXV?$basic_string@DU?$char_traits@D@std@@V?$allocator@D@2@@std@@@Z 10017f50 f   ObjCache.obj
 0001:00017260       ?FastGetGroup@ObjectCache@@SAPAXV?$basic_string@DU?$char_traits@D@std@@V?$allocator@D@2@@std@@@Z 10018260 f   ObjCache.obj
 0001:00017570       ?RefreshFastGetEntity@ObjectCache@@SAPAXV?$basic_string@DU?$char_traits@D@std@@V?$allocator@D@2@@std@@@Z 10018570 f   ObjCache.obj
 0001:00017850       ?FastGetEntity@ObjectCache@@SAPAXV?$basic_string@DU?$char_traits@D@std@@V?$allocator@D@2@@std@@@Z 10018850 f   ObjCache.obj
 0001:00017b60       ?FastGetMonitorTPL@ObjectCache@@SAPAXH@Z 10018b60 f   ObjCache.obj
 0001:00017c70       ?FastGetEntityTPL@ObjectCache@@SAPAXV?$basic_string@DU?$char_traits@D@std@@V?$allocator@D@2@@std@@@Z 10018c70 f   ObjCache.obj
 0001:00017e60       ?FastGetEntityGroup@ObjectCache@@SAPAXV?$basic_string@DU?$char_traits@D@std@@V?$allocator@D@2@@std@@@Z 10018e60 f   ObjCache.obj
 0001:00018050       ?FastLoadResource@ObjectCache@@SAPAXV?$basic_string@DU?$char_traits@D@std@@V?$allocator@D@2@@std@@@Z 10019050 f   ObjCache.obj
 0001:00018220       ??1?$hashtable@Vword@svutil@@V12@@svutil@@QAE@XZ 10019220 f i ObjCache.obj
 0001:00018280       ?_Copy@?$_Tree@V?$_Tmap_traits@V?$basic_string@DU?$char_traits@D@std@@V?$allocator@D@2@@std@@PAXU?$less@V?$basic_string@DU?$char_traits@D@std@@V?$allocator@D@2@@std@@@2@V?$allocator@U?$pair@$$CBV?$basic_string@DU?$char_traits@D@std@@V?$allocator@D@2@@std@@PAX@std@@@2@$0A@@std@@@std@@IAEXABV12@@Z 10019280 f i ObjCache.obj
 0001:00018310       ?erase@?$_Tree@V?$_Tmap_traits@V?$basic_string@DU?$char_traits@D@std@@V?$allocator@D@2@@std@@PAXU?$less@V?$basic_string@DU?$char_traits@D@std@@V?$allocator@D@2@@std@@@2@V?$allocator@U?$pair@$$CBV?$basic_string@DU?$char_traits@D@std@@V?$allocator@D@2@@std@@PAX@std@@@2@$0A@@std@@@std@@QAE?AViterator@12@V312@0@Z 10019310 f i ObjCache.obj
 0001:000183d0       ?erase@?$_Tree@V?$_Tmap_traits@V?$basic_string@DU?$char_traits@D@std@@V?$allocator@D@2@@std@@VVerOBJECT@@U?$less@V?$basic_string@DU?$char_traits@D@std@@V?$allocator@D@2@@std@@@2@V?$allocator@U?$pair@$$CBV?$basic_string@DU?$char_traits@D@std@@V?$allocator@D@2@@std@@VVerOBJECT@@@std@@@2@$0A@@std@@@std@@QAE?AViterator@12@V312@0@Z 100193d0 f i ObjCache.obj
 0001:00018490       ?erase@?$_Tree@V?$_Tmap_traits@V?$basic_string@DU?$char_traits@D@std@@V?$allocator@D@2@@std@@VSingelRecord@@U?$less@V?$basic_string@DU?$char_traits@D@std@@V?$allocator@D@2@@std@@@2@V?$allocator@U?$pair@$$CBV?$basic_string@DU?$char_traits@D@std@@V?$allocator@D@2@@std@@VSingelRecord@@@std@@@2@$0A@@std@@@std@@QAE?AViterator@12@V312@0@Z 10019490 f i ObjCache.obj
 0001:00018550       ??0?$hashtable@Vword@svutil@@V12@@svutil@@QAE@H@Z 10019550 f i ObjCache.obj
 0001:000185b0       ??1?$list@Usv_pair@@V?$allocator@Usv_pair@@@std@@@std@@QAE@XZ 100195b0 f i ObjCache.obj
 0001:000185d0       ??1?$map@HPAXU?$less@H@std@@V?$allocator@U?$pair@$$CBHPAX@std@@@2@@std@@QAE@XZ 100195d0 f i ObjCache.obj
 0001:00018600       ?FastGetSVDYN@ObjectCache@@SA_NV?$basic_string@DU?$char_traits@D@std@@V?$allocator@D@2@@std@@AAUsv_dyn@@@Z 10019600 f   ObjCache.obj
 0001:00018770       ?QuerySVDYNs@ObjectCache@@SA_NV?$basic_string@DU?$char_traits@D@std@@V?$allocator@D@2@@std@@AAV?$list@VSingelRecord@@V?$allocator@VSingelRecord@@@std@@@3@1@Z 10019770 f   ObjCache.obj
 0001:00018b20       ?QueryMassMonitor@ObjectCache@@SA_NV?$basic_string@DU?$char_traits@D@std@@V?$allocator@D@2@@std@@AAVStringMap@@AAV?$list@VSingelRecord@@V?$allocator@VSingelRecord@@@std@@@3@@Z 10019b20 f   ObjCache.obj
 0001:00018eb0       ?QueryMassEntity@ObjectCache@@SA_NV?$basic_string@DU?$char_traits@D@std@@V?$allocator@D@2@@std@@AAVStringMap@@AAV?$list@VSingelRecord@@V?$allocator@VSingelRecord@@@std@@@3@@Z 10019eb0 f   ObjCache.obj
 0001:00019240       ?Cache_GetSVDYN@@YA_NV?$basic_string@DU?$char_traits@D@std@@V?$allocator@D@2@@std@@AAUsv_dyn@@@Z 1001a240 f   ObjCache.obj
 0001:000192b0       ??A?$hashtable@Vword@svutil@@V12@@svutil@@QAEAAVword@1@ABV21@@Z 1001a2b0 f i ObjCache.obj
 0001:00019340       ??0?$map@HPAXU?$less@H@std@@V?$allocator@U?$pair@$$CBHPAX@std@@@2@@std@@QAE@XZ 1001a340 f i ObjCache.obj
 0001:00019370       ??0?$_Tree@V?$_Tmap_traits@V?$basic_string@DU?$char_traits@D@std@@V?$allocator@D@2@@std@@PAXU?$less@V?$basic_string@DU?$char_traits@D@std@@V?$allocator@D@2@@std@@@2@V?$allocator@U?$pair@$$CBV?$basic_string@DU?$char_traits@D@std@@V?$allocator@D@2@@std@@PAX@std@@@2@$0A@@std@@@std@@QAE@ABV01@@Z 1001a370 f i ObjCache.obj
 0001:00019400       ?_Tidy@?$_Tree@V?$_Tmap_traits@V?$basic_string@DU?$char_traits@D@std@@V?$allocator@D@2@@std@@PAXU?$less@V?$basic_string@DU?$char_traits@D@std@@V?$allocator@D@2@@std@@@2@V?$allocator@U?$pair@$$CBV?$basic_string@DU?$char_traits@D@std@@V?$allocator@D@2@@std@@PAX@std@@@2@$0A@@std@@@std@@IAEXXZ 1001a400 f i ObjCache.obj
 0001:00019400       ??1?$map@V?$basic_string@DU?$char_traits@D@std@@V?$allocator@D@2@@std@@PAXU?$less@V?$basic_string@DU?$char_traits@D@std@@V?$allocator@D@2@@std@@@2@V?$allocator@U?$pair@$$CBV?$basic_string@DU?$char_traits@D@std@@V?$allocator@D@2@@std@@PAX@std@@@2@@std@@QAE@XZ 1001a400 f i ObjCache.obj
 0001:00019430       ??1?$map@V?$basic_string@DU?$char_traits@D@std@@V?$allocator@D@2@@std@@VVerOBJECT@@U?$less@V?$basic_string@DU?$char_traits@D@std@@V?$allocator@D@2@@std@@@2@V?$allocator@U?$pair@$$CBV?$basic_string@DU?$char_traits@D@std@@V?$allocator@D@2@@std@@VVerOBJECT@@@std@@@2@@std@@QAE@XZ 1001a430 f i ObjCache.obj
 0001:00019460       ??1?$map@V?$basic_string@DU?$char_traits@D@std@@V?$allocator@D@2@@std@@VSingelRecord@@U?$less@V?$basic_string@DU?$char_traits@D@std@@V?$allocator@D@2@@std@@@2@V?$allocator@U?$pair@$$CBV?$basic_string@DU?$char_traits@D@std@@V?$allocator@D@2@@std@@VSingelRecord@@@std@@@2@@std@@QAE@XZ 1001a460 f i ObjCache.obj
 0001:00019490       ??1?$pair@V?$basic_string@DU?$char_traits@D@std@@V?$allocator@D@2@@std@@V?$map@V?$basic_string@DU?$char_traits@D@std@@V?$allocator@D@2@@std@@PAXU?$less@V?$basic_string@DU?$char_traits@D@std@@V?$allocator@D@2@@std@@@2@V?$allocator@U?$pair@$$CBV?$basic_string@DU?$char_traits@D@std@@V?$allocator@D@2@@std@@PAX@std@@@2@@2@@std@@QAE@XZ 1001a490 f i ObjCache.obj
 0001:00019490       ??1?$pair@$$CBV?$basic_string@DU?$char_traits@D@std@@V?$allocator@D@2@@std@@V?$map@V?$basic_string@DU?$char_traits@D@std@@V?$allocator@D@2@@std@@PAXU?$less@V?$basic_string@DU?$char_traits@D@std@@V?$allocator@D@2@@std@@@2@V?$allocator@U?$pair@$$CBV?$basic_string@DU?$char_traits@D@std@@V?$allocator@D@2@@std@@PAX@std@@@2@@2@@std@@QAE@XZ 1001a490 f i ObjCache.obj
 0001:00019510       ?RefreshMonitors_new@ObjectCache@@SA_NV?$basic_string@DU?$char_traits@D@std@@V?$allocator@D@2@@std@@@Z 1001a510 f   ObjCache.obj
 0001:00019a80       ?RefreshEntities_new@ObjectCache@@SA_NV?$basic_string@DU?$char_traits@D@std@@V?$allocator@D@2@@std@@@Z 1001aa80 f   ObjCache.obj
 0001:00019ff0       ?CacheRefreshMonitors@@YA_NV?$basic_string@DU?$char_traits@D@std@@V?$allocator@D@2@@std@@@Z 1001aff0 f   ObjCache.obj
 0001:0001a060       ?CacheRefreshEntities@@YA_NV?$basic_string@DU?$char_traits@D@std@@V?$allocator@D@2@@std@@@Z 1001b060 f   ObjCache.obj
 0001:0001a0d0       ??0?$map@V?$basic_string@DU?$char_traits@D@std@@V?$allocator@D@2@@std@@PAXU?$less@V?$basic_string@DU?$char_traits@D@std@@V?$allocator@D@2@@std@@@2@V?$allocator@U?$pair@$$CBV?$basic_string@DU?$char_traits@D@std@@V?$allocator@D@2@@std@@PAX@std@@@2@@std@@QAE@XZ 1001b0d0 f i ObjCache.obj
 0001:0001a0d0       ??0?$map@V?$basic_string@DU?$char_traits@D@std@@V?$allocator@D@2@@std@@KU?$less@V?$basic_string@DU?$char_traits@D@std@@V?$allocator@D@2@@std@@@2@V?$allocator@U?$pair@$$CBV?$basic_string@DU?$char_traits@D@std@@V?$allocator@D@2@@std@@K@std@@@2@@std@@QAE@XZ 1001b0d0 f i ShareMemFile.obj
 0001:0001a100       ??0?$map@V?$basic_string@DU?$char_traits@D@std@@V?$allocator@D@2@@std@@VVerOBJECT@@U?$less@V?$basic_string@DU?$char_traits@D@std@@V?$allocator@D@2@@std@@@2@V?$allocator@U?$pair@$$CBV?$basic_string@DU?$char_traits@D@std@@V?$allocator@D@2@@std@@VVerOBJECT@@@std@@@2@@std@@QAE@XZ 1001b100 f i ObjCache.obj
 0001:0001a130       ??0?$map@V?$basic_string@DU?$char_traits@D@std@@V?$allocator@D@2@@std@@VSingelRecord@@U?$less@V?$basic_string@DU?$char_traits@D@std@@V?$allocator@D@2@@std@@@2@V?$allocator@U?$pair@$$CBV?$basic_string@DU?$char_traits@D@std@@V?$allocator@D@2@@std@@VSingelRecord@@@std@@@2@@std@@QAE@XZ 1001b130 f i ObjCache.obj
 0001:0001a160       ??$?0V?$basic_string@DU?$char_traits@D@std@@V?$allocator@D@2@@std@@V?$map@V?$basic_string@DU?$char_traits@D@std@@V?$allocator@D@2@@std@@PAXU?$less@V?$basic_string@DU?$char_traits@D@std@@V?$allocator@D@2@@std@@@2@V?$allocator@U?$pair@$$CBV?$basic_string@DU?$char_traits@D@std@@V?$allocator@D@2@@std@@PAX@std@@@2@@1@@?$pair@$$CBV?$basic_string@DU?$char_traits@D@std@@V?$allocator@D@2@@std@@V?$map@V?$basic_string@DU?$char_traits@D@std@@V?$allocator@D@2@@std@@PAXU?$less@V?$basic_string@DU?$char_traits@D@std@@V?$allocator@D@2@@std@@@2@V?$allocator@U?$pair@$$CBV?$basic_string@DU?$char_traits@D@std@@V?$allocator@D@2@@std@@PAX@std@@@2@@2@@std@@QAE@ABU?$pair@V?$basic_string@DU?$char_traits@D@std@@V?$allocator@D@2@@std@@V?$map@V?$basic_string@DU?$char_traits@D@std@@V?$allocator@D@2@@std@@PAXU?$less@V?$basic_string@DU?$char_traits@D@std@@V?$allocator@D@2@@std@@@2@V?$allocator@U?$pair@$$CBV?$basic_string@DU?$char_traits@D@std@@V?$allocator@D@2@@std@@PAX@std@@@2@@2@@1@@Z 1001b160 f i ObjCache.obj
 0001:0001a160       ??0?$pair@$$CBV?$basic_string@DU?$char_traits@D@std@@V?$allocator@D@2@@std@@V?$map@V?$basic_string@DU?$char_traits@D@std@@V?$allocator@D@2@@std@@PAXU?$less@V?$basic_string@DU?$char_traits@D@std@@V?$allocator@D@2@@std@@@2@V?$allocator@U?$pair@$$CBV?$basic_string@DU?$char_traits@D@std@@V?$allocator@D@2@@std@@PAX@std@@@2@@2@@std@@QAE@ABU01@@Z 1001b160 f i ObjCache.obj
 0001:0001a1c0       ??1_Node@?$_Tree_nod@V?$_Tmap_traits@V?$basic_string@DU?$char_traits@D@std@@V?$allocator@D@2@@std@@V?$map@V?$basic_string@DU?$char_traits@D@std@@V?$allocator@D@2@@std@@PAXU?$less@V?$basic_string@DU?$char_traits@D@std@@V?$allocator@D@2@@std@@@2@V?$allocator@U?$pair@$$CBV?$basic_string@DU?$char_traits@D@std@@V?$allocator@D@2@@std@@PAX@std@@@2@@2@U?$less@V?$basic_string@DU?$char_traits@D@std@@V?$allocator@D@2@@std@@@2@V?$allocator@U?$pair@$$CBV?$basic_string@DU?$char_traits@D@std@@V?$allocator@D@2@@std@@V?$map@V?$basic_string@DU?$char_traits@D@std@@V?$allocator@D@2@@std@@PAXU?$less@V?$basic_string@DU?$char_traits@D@std@@V?$allocator@D@2@@std@@@2@V?$allocator@U?$pair@$$CBV?$basic_string@DU?$char_traits@D@std@@V?$allocator@D@2@@std@@PAX@std@@@2@@2@@std@@@2@$0A@@std@@@std@@QAE@XZ 1001b1c0 f i ObjCache.obj
 0001:0001a1d0       ??$make_pair@V?$basic_string@DU?$char_traits@D@std@@V?$allocator@D@2@@std@@V?$map@V?$basic_string@DU?$char_traits@D@std@@V?$allocator@D@2@@std@@PAXU?$less@V?$basic_string@DU?$char_traits@D@std@@V?$allocator@D@2@@std@@@2@V?$allocator@U?$pair@$$CBV?$basic_string@DU?$char_traits@D@std@@V?$allocator@D@2@@std@@PAX@std@@@2@@2@@std@@YA?AU?$pair@V?$basic_string@DU?$char_traits@D@std@@V?$allocator@D@2@@std@@V?$map@V?$basic_string@DU?$char_traits@D@std@@V?$allocator@D@2@@std@@PAXU?$less@V?$basic_string@DU?$char_traits@D@std@@V?$allocator@D@2@@std@@@2@V?$allocator@U?$pair@$$CBV?$basic_string@DU?$char_traits@D@std@@V?$allocator@D@2@@std@@PAX@std@@@2@@2@@0@V?$basic_string@DU?$char_traits@D@std@@V?$allocator@D@2@@0@V?$map@V?$basic_string@DU?$char_traits@D@std@@V?$allocator@D@2@@std@@PAXU?$less@V?$basic_string@DU?$char_traits@D@std@@V?$allocator@D@2@@std@@@2@V?$allocator@U?$pair@$$CBV?$basic_string@DU?$char_traits@D@std@@V?$allocator@D@2@@std@@PAX@std@@@2@@0@@Z 1001b1d0 f i ObjCache.obj
 0001:0001a270       ??1_Node@?$_Tree_nod@V?$_Tmap_traits@V?$basic_string@DU?$char_traits@D@std@@V?$allocator@D@2@@std@@V?$map@V?$basic_string@DU?$char_traits@D@std@@V?$allocator@D@2@@std@@V12@U?$less@V?$basic_string@DU?$char_traits@D@std@@V?$allocator@D@2@@std@@@2@V?$allocator@U?$pair@$$CBV?$basic_string@DU?$char_traits@D@std@@V?$allocator@D@2@@std@@V12@@std@@@2@@2@U?$less@V?$basic_string@DU?$char_traits@D@std@@V?$allocator@D@2@@std@@@2@V?$allocator@U?$pair@$$CBV?$basic_string@DU?$char_traits@D@std@@V?$allocator@D@2@@std@@V?$map@V?$basic_string@DU?$char_traits@D@std@@V?$allocator@D@2@@std@@V12@U?$less@V?$basic_string@DU?$char_traits@D@std@@V?$allocator@D@2@@std@@@2@V?$allocator@U?$pair@$$CBV?$basic_string@DU?$char_traits@D@std@@V?$allocator@D@2@@std@@V12@@std@@@2@@2@@std@@@2@$0A@@std@@@std@@QAE@XZ 1001b270 f i ObjCache.obj
 0001:0001a280       ?_Buynode@?$_Tree@V?$_Tmap_traits@V?$basic_string@DU?$char_traits@D@std@@V?$allocator@D@2@@std@@V?$map@V?$basic_string@DU?$char_traits@D@std@@V?$allocator@D@2@@std@@PAXU?$less@V?$basic_string@DU?$char_traits@D@std@@V?$allocator@D@2@@std@@@2@V?$allocator@U?$pair@$$CBV?$basic_string@DU?$char_traits@D@std@@V?$allocator@D@2@@std@@PAX@std@@@2@@2@U?$less@V?$basic_string@DU?$char_traits@D@std@@V?$allocator@D@2@@std@@@2@V?$allocator@U?$pair@$$CBV?$basic_string@DU?$char_traits@D@std@@V?$allocator@D@2@@std@@V?$map@V?$basic_string@DU?$char_traits@D@std@@V?$allocator@D@2@@std@@PAXU?$less@V?$basic_string@DU?$char_traits@D@std@@V?$allocator@D@2@@std@@@2@V?$allocator@U?$pair@$$CBV?$basic_string@DU?$char_traits@D@std@@V?$allocator@D@2@@std@@PAX@std@@@2@@2@@std@@@2@$0A@@std@@@std@@IAEPAU_Node@?$_Tree_nod@V?$_Tmap_traits@V?$basic_string@DU?$char_traits@D@std@@V?$allocator@D@2@@std@@V?$map@V?$basic_string@DU?$char_traits@D@std@@V?$allocator@D@2@@std@@PAXU?$less@V?$basic_string@DU?$char_traits@D@std@@V?$allocator@D@2@@std@@@2@V?$allocator@U?$pair@$$CBV?$basic_string@DU?$char_traits@D@std@@V?$allocator@D@2@@std@@PAX@std@@@2@@2@U?$less@V?$basic_string@DU?$char_traits@D@std@@V?$allocator@D@2@@std@@@2@V?$allocator@U?$pair@$$CBV?$basic_string@DU?$char_traits@D@std@@V?$allocator@D@2@@std@@V?$map@V?$basic_string@DU?$char_traits@D@std@@V?$allocator@D@2@@std@@PAXU?$less@V?$basic_string@DU?$char_traits@D@std@@V?$allocator@D@2@@std@@@2@V?$allocator@U?$pair@$$CBV?$basic_string@DU?$char_traits@D@std@@V?$allocator@D@2@@std@@PAX@std@@@2@@2@@std@@@2@$0A@@std@@@2@PAU342@00ABU?$pair@$$CBV?$basic_string@DU?$char_traits@D@std@@V?$allocator@D@2@@std@@V?$map@V?$basic_string@DU?$char_traits@D@std@@V?$allocator@D@2@@std@@PAXU?$less@V?$basic_string@DU?$char_traits@D@std@@V?$allocator@D@2@@std@@@2@V?$allocator@U?$pair@$$CBV?$basic_string@DU?$char_traits@D@std@@V?$allocator@D@2@@std@@PAX@std@@@2@@2@@2@D@Z 1001b280 f i ObjCache.obj
 0001:0001a320       ?_Insert@?$_Tree@V?$_Tmap_traits@V?$basic_string@DU?$char_traits@D@std@@V?$allocator@D@2@@std@@V?$map@V?$basic_string@DU?$char_traits@D@std@@V?$allocator@D@2@@std@@PAXU?$less@V?$basic_string@DU?$char_traits@D@std@@V?$allocator@D@2@@std@@@2@V?$allocator@U?$pair@$$CBV?$basic_string@DU?$char_traits@D@std@@V?$allocator@D@2@@std@@PAX@std@@@2@@2@U?$less@V?$basic_string@DU?$char_traits@D@std@@V?$allocator@D@2@@std@@@2@V?$allocator@U?$pair@$$CBV?$basic_string@DU?$char_traits@D@std@@V?$allocator@D@2@@std@@V?$map@V?$basic_string@DU?$char_traits@D@std@@V?$allocator@D@2@@std@@PAXU?$less@V?$basic_string@DU?$char_traits@D@std@@V?$allocator@D@2@@std@@@2@V?$allocator@U?$pair@$$CBV?$basic_string@DU?$char_traits@D@std@@V?$allocator@D@2@@std@@PAX@std@@@2@@2@@std@@@2@$0A@@std@@@std@@IAE?AViterator@12@_NPAU_Node@?$_Tree_nod@V?$_Tmap_traits@V?$basic_string@DU?$char_traits@D@std@@V?$allocator@D@2@@std@@V?$map@V?$basic_string@DU?$char_traits@D@std@@V?$allocator@D@2@@std@@PAXU?$less@V?$basic_string@DU?$char_traits@D@std@@V?$allocator@D@2@@std@@@2@V?$allocator@U?$pair@$$CBV?$basic_string@DU?$char_traits@D@std@@V?$allocator@D@2@@std@@PAX@std@@@2@@2@U?$less@V?$basic_string@DU?$char_traits@D@std@@V?$allocator@D@2@@std@@@2@V?$allocator@U?$pair@$$CBV?$basic_string@DU?$char_traits@D@std@@V?$allocator@D@2@@std@@V?$map@V?$basic_string@DU?$char_traits@D@std@@V?$allocator@D@2@@std@@PAXU?$less@V?$basic_string@DU?$char_traits@D@std@@V?$allocator@D@2@@std@@@2@V?$allocator@U?$pair@$$CBV?$basic_string@DU?$char_traits@D@std@@V?$allocator@D@2@@std@@PAX@std@@@2@@2@@std@@@2@$0A@@std@@@2@ABU?$pair@$$CBV?$basic_string@DU?$char_traits@D@std@@V?$allocator@D@2@@std@@V?$map@V?$basic_string@DU?$char_traits@D@std@@V?$allocator@D@2@@std@@PAXU?$less@V?$basic_string@DU?$char_traits@D@std@@V?$allocator@D@2@@std@@@2@V?$allocator@U?$pair@$$CBV?$basic_string@DU?$char_traits@D@std@@V?$allocator@D@2@@std@@PAX@std@@@2@@2@@2@@Z 1001b320 f i ObjCache.obj
 0001:0001a4e0       ?erase@?$_Tree@V?$_Tmap_traits@V?$basic_string@DU?$char_traits@D@std@@V?$allocator@D@2@@std@@V?$map@V?$basic_string@DU?$char_traits@D@std@@V?$allocator@D@2@@std@@PAXU?$less@V?$basic_string@DU?$char_traits@D@std@@V?$allocator@D@2@@std@@@2@V?$allocator@U?$pair@$$CBV?$basic_string@DU?$char_traits@D@std@@V?$allocator@D@2@@std@@PAX@std@@@2@@2@U?$less@V?$basic_string@DU?$char_traits@D@std@@V?$allocator@D@2@@std@@@2@V?$allocator@U?$pair@$$CBV?$basic_string@DU?$char_traits@D@std@@V?$allocator@D@2@@std@@V?$map@V?$basic_string@DU?$char_traits@D@std@@V?$allocator@D@2@@std@@PAXU?$less@V?$basic_string@DU?$char_traits@D@std@@V?$allocator@D@2@@std@@@2@V?$allocator@U?$pair@$$CBV?$basic_string@DU?$char_traits@D@std@@V?$allocator@D@2@@std@@PAX@std@@@2@@2@@std@@@2@$0A@@std@@@std@@QAE?AViterator@12@V312@@Z 1001b4e0 f i ObjCache.obj
 0001:0001a7c0       ?insert@?$_Tree@V?$_Tmap_traits@V?$basic_string@DU?$char_traits@D@std@@V?$allocator@D@2@@std@@V?$map@V?$basic_string@DU?$char_traits@D@std@@V?$allocator@D@2@@std@@PAXU?$less@V?$basic_string@DU?$char_traits@D@std@@V?$allocator@D@2@@std@@@2@V?$allocator@U?$pair@$$CBV?$basic_string@DU?$char_traits@D@std@@V?$allocator@D@2@@std@@PAX@std@@@2@@2@U?$less@V?$basic_string@DU?$char_traits@D@std@@V?$allocator@D@2@@std@@@2@V?$allocator@U?$pair@$$CBV?$basic_string@DU?$char_traits@D@std@@V?$allocator@D@2@@std@@V?$map@V?$basic_string@DU?$char_traits@D@std@@V?$allocator@D@2@@std@@PAXU?$less@V?$basic_string@DU?$char_traits@D@std@@V?$allocator@D@2@@std@@@2@V?$allocator@U?$pair@$$CBV?$basic_string@DU?$char_traits@D@std@@V?$allocator@D@2@@std@@PAX@std@@@2@@2@@std@@@2@$0A@@std@@@std@@QAE?AU?$pair@Viterator@?$_Tree@V?$_Tmap_traits@V?$basic_string@DU?$char_traits@D@std@@V?$allocator@D@2@@std@@V?$map@V?$basic_string@DU?$char_traits@D@std@@V?$allocator@D@2@@std@@PAXU?$less@V?$basic_string@DU?$char_traits@D@std@@V?$allocator@D@2@@std@@@2@V?$allocator@U?$pair@$$CBV?$basic_string@DU?$char_traits@D@std@@V?$allocator@D@2@@std@@PAX@std@@@2@@2@U?$less@V?$basic_string@DU?$char_traits@D@std@@V?$allocator@D@2@@std@@@2@V?$allocator@U?$pair@$$CBV?$basic_string@DU?$char_traits@D@std@@V?$allocator@D@2@@std@@V?$map@V?$basic_string@DU?$char_traits@D@std@@V?$allocator@D@2@@std@@PAXU?$less@V?$basic_string@DU?$char_traits@D@std@@V?$allocator@D@2@@std@@@2@V?$allocator@U?$pair@$$CBV?$basic_string@DU?$char_traits@D@std@@V?$allocator@D@2@@std@@PAX@std@@@2@@2@@std@@@2@$0A@@std@@@std@@_N@2@ABU?$pair@$$CBV?$basic_string@DU?$char_traits@D@std@@V?$allocator@D@2@@std@@V?$map@V?$basic_string@DU?$char_traits@D@std@@V?$allocator@D@2@@std@@PAXU?$less@V?$basic_string@DU?$char_traits@D@std@@V?$allocator@D@2@@std@@@2@V?$allocator@U?$pair@$$CBV?$basic_string@DU?$char_traits@D@std@@V?$allocator@D@2@@std@@PAX@std@@@2@@2@@2@@Z 1001b7c0 f i ObjCache.obj
 0001:0001a8a0       ?_Erase@?$_Tree@V?$_Tmap_traits@V?$basic_string@DU?$char_traits@D@std@@V?$allocator@D@2@@std@@V?$map@V?$basic_string@DU?$char_traits@D@std@@V?$allocator@D@2@@std@@PAXU?$less@V?$basic_string@DU?$char_traits@D@std@@V?$allocator@D@2@@std@@@2@V?$allocator@U?$pair@$$CBV?$basic_string@DU?$char_traits@D@std@@V?$allocator@D@2@@std@@PAX@std@@@2@@2@U?$less@V?$basic_string@DU?$char_traits@D@std@@V?$allocator@D@2@@std@@@2@V?$allocator@U?$pair@$$CBV?$basic_string@DU?$char_traits@D@std@@V?$allocator@D@2@@std@@V?$map@V?$basic_string@DU?$char_traits@D@std@@V?$allocator@D@2@@std@@PAXU?$less@V?$basic_string@DU?$char_traits@D@std@@V?$allocator@D@2@@std@@@2@V?$allocator@U?$pair@$$CBV?$basic_string@DU?$char_traits@D@std@@V?$allocator@D@2@@std@@PAX@std@@@2@@2@@std@@@2@$0A@@std@@@std@@IAEXPAU_Node@?$_Tree_nod@V?$_Tmap_traits@V?$basic_string@DU?$char_traits@D@std@@V?$allocator@D@2@@std@@V?$map@V?$basic_string@DU?$char_traits@D@std@@V?$allocator@D@2@@std@@PAXU?$less@V?$basic_string@DU?$char_traits@D@std@@V?$allocator@D@2@@std@@@2@V?$allocator@U?$pair@$$CBV?$basic_string@DU?$char_traits@D@std@@V?$allocator@D@2@@std@@PAX@std@@@2@@2@U?$less@V?$basic_string@DU?$char_traits@D@std@@V?$allocator@D@2@@std@@@2@V?$allocator@U?$pair@$$CBV?$basic_string@DU?$char_traits@D@std@@V?$allocator@D@2@@std@@V?$map@V?$basic_string@DU?$char_traits@D@std@@V?$allocator@D@2@@std@@PAXU?$less@V?$basic_string@DU?$char_traits@D@std@@V?$allocator@D@2@@std@@@2@V?$allocator@U?$pair@$$CBV?$basic_string@DU?$char_traits@D@std@@V?$allocator@D@2@@std@@PAX@std@@@2@@2@@std@@@2@$0A@@std@@@2@@Z 1001b8a0 f i ObjCache.obj
 0001:0001a8e0       ?FastLoadResourceByKeys@ObjectCache@@SAPAXV?$basic_string@DU?$char_traits@D@std@@V?$allocator@D@2@@std@@0@Z 1001b8e0 f   ObjCache.obj
 0001:0001ac80       ?erase@?$_Tree@V?$_Tmap_traits@V?$basic_string@DU?$char_traits@D@std@@V?$allocator@D@2@@std@@V?$map@V?$basic_string@DU?$char_traits@D@std@@V?$allocator@D@2@@std@@PAXU?$less@V?$basic_string@DU?$char_traits@D@std@@V?$allocator@D@2@@std@@@2@V?$allocator@U?$pair@$$CBV?$basic_string@DU?$char_traits@D@std@@V?$allocator@D@2@@std@@PAX@std@@@2@@2@U?$less@V?$basic_string@DU?$char_traits@D@std@@V?$allocator@D@2@@std@@@2@V?$allocator@U?$pair@$$CBV?$basic_string@DU?$char_traits@D@std@@V?$allocator@D@2@@std@@V?$map@V?$basic_string@DU?$char_traits@D@std@@V?$allocator@D@2@@std@@PAXU?$less@V?$basic_string@DU?$char_traits@D@std@@V?$allocator@D@2@@std@@@2@V?$allocator@U?$pair@$$CBV?$basic_string@DU?$char_traits@D@std@@V?$allocator@D@2@@std@@PAX@std@@@2@@2@@std@@@2@$0A@@std@@@std@@QAE?AViterator@12@V312@0@Z 1001bc80 f i ObjCache.obj
 0001:0001ad40       ?erase@?$_Tree@V?$_Tmap_traits@V?$basic_string@DU?$char_traits@D@std@@V?$allocator@D@2@@std@@V?$map@V?$basic_string@DU?$char_traits@D@std@@V?$allocator@D@2@@std@@V12@U?$less@V?$basic_string@DU?$char_traits@D@std@@V?$allocator@D@2@@std@@@2@V?$allocator@U?$pair@$$CBV?$basic_string@DU?$char_traits@D@std@@V?$allocator@D@2@@std@@V12@@std@@@2@@2@U?$less@V?$basic_string@DU?$char_traits@D@std@@V?$allocator@D@2@@std@@@2@V?$allocator@U?$pair@$$CBV?$basic_string@DU?$char_traits@D@std@@V?$allocator@D@2@@std@@V?$map@V?$basic_string@DU?$char_traits@D@std@@V?$allocator@D@2@@std@@V12@U?$less@V?$basic_string@DU?$char_traits@D@std@@V?$allocator@D@2@@std@@@2@V?$allocator@U?$pair@$$CBV?$basic_string@DU?$char_traits@D@std@@V?$allocator@D@2@@std@@V12@@std@@@2@@2@@std@@@2@$0A@@std@@@std@@QAE?AViterator@12@V312@@Z 1001bd40 f i ObjCache.obj
 0001:0001b020       ?_Erase@?$_Tree@V?$_Tmap_traits@V?$basic_string@DU?$char_traits@D@std@@V?$allocator@D@2@@std@@V?$map@V?$basic_string@DU?$char_traits@D@std@@V?$allocator@D@2@@std@@V12@U?$less@V?$basic_string@DU?$char_traits@D@std@@V?$allocator@D@2@@std@@@2@V?$allocator@U?$pair@$$CBV?$basic_string@DU?$char_traits@D@std@@V?$allocator@D@2@@std@@V12@@std@@@2@@2@U?$less@V?$basic_string@DU?$char_traits@D@std@@V?$allocator@D@2@@std@@@2@V?$allocator@U?$pair@$$CBV?$basic_string@DU?$char_traits@D@std@@V?$allocator@D@2@@std@@V?$map@V?$basic_string@DU?$char_traits@D@std@@V?$allocator@D@2@@std@@V12@U?$less@V?$basic_string@DU?$char_traits@D@std@@V?$allocator@D@2@@std@@@2@V?$allocator@U?$pair@$$CBV?$basic_string@DU?$char_traits@D@std@@V?$allocator@D@2@@std@@V12@@std@@@2@@2@@std@@@2@$0A@@std@@@std@@IAEXPAU_Node@?$_Tree_nod@V?$_Tmap_traits@V?$basic_string@DU?$char_traits@D@std@@V?$allocator@D@2@@std@@V?$map@V?$basic_string@DU?$char_traits@D@std@@V?$allocator@D@2@@std@@V12@U?$less@V?$basic_string@DU?$char_traits@D@std@@V?$allocator@D@2@@std@@@2@V?$allocator@U?$pair@$$CBV?$basic_string@DU?$char_traits@D@std@@V?$allocator@D@2@@std@@V12@@std@@@2@@2@U?$less@V?$basic_string@DU?$char_traits@D@std@@V?$allocator@D@2@@std@@@2@V?$allocator@U?$pair@$$CBV?$basic_string@DU?$char_traits@D@std@@V?$allocator@D@2@@std@@V?$map@V?$basic_string@DU?$char_traits@D@std@@V?$allocator@D@2@@std@@V12@U?$less@V?$basic_string@DU?$char_traits@D@std@@V?$allocator@D@2@@std@@@2@V?$allocator@U?$pair@$$CBV?$basic_string@DU?$char_traits@D@std@@V?$allocator@D@2@@std@@V12@@std@@@2@@2@@std@@@2@$0A@@std@@@2@@Z 1001c020 f i ObjCache.obj
 0001:0001b060       ?SetUserAddr@ObjectCache@@SAXV?$basic_string@DU?$char_traits@D@std@@V?$allocator@D@2@@std@@0@Z 1001c060 f   ObjCache.obj
 0001:0001b980       ?SetLatestRecords@ObjectCache@@CA_NAAV?$list@VSingelRecord@@V?$allocator@VSingelRecord@@@std@@@std@@AAV?$map@V?$basic_string@DU?$char_traits@D@std@@V?$allocator@D@2@@std@@V?$map@V?$basic_string@DU?$char_traits@D@std@@V?$allocator@D@2@@std@@V12@U?$less@V?$basic_string@DU?$char_traits@D@std@@V?$allocator@D@2@@std@@@2@V?$allocator@U?$pair@$$CBV?$basic_string@DU?$char_traits@D@std@@V?$allocator@D@2@@std@@V12@@std@@@2@@2@U?$less@V?$basic_string@DU?$char_traits@D@std@@V?$allocator@D@2@@std@@@2@V?$allocator@U?$pair@$$CBV?$basic_string@DU?$char_traits@D@std@@V?$allocator@D@2@@std@@V?$map@V?$basic_string@DU?$char_traits@D@std@@V?$allocator@D@2@@std@@V12@U?$less@V?$basic_string@DU?$char_traits@D@std@@V?$allocator@D@2@@std@@@2@V?$allocator@U?$pair@$$CBV?$basic_string@DU?$char_traits@D@std@@V?$allocator@D@2@@std@@V12@@std@@@2@@2@@std@@@2@@3@H@Z 1001c980 f   ObjCache.obj
 0001:0001c7e0       ?RefreshLatestRecords@ObjectCache@@SA_NV?$basic_string@DU?$char_traits@D@std@@V?$allocator@D@2@@std@@AAV?$map@V?$basic_string@DU?$char_traits@D@std@@V?$allocator@D@2@@std@@V?$map@V?$basic_string@DU?$char_traits@D@std@@V?$allocator@D@2@@std@@V12@U?$less@V?$basic_string@DU?$char_traits@D@std@@V?$allocator@D@2@@std@@@2@V?$allocator@U?$pair@$$CBV?$basic_string@DU?$char_traits@D@std@@V?$allocator@D@2@@std@@V12@@std@@@2@@2@U?$less@V?$basic_string@DU?$char_traits@D@std@@V?$allocator@D@2@@std@@@2@V?$allocator@U?$pair@$$CBV?$basic_string@DU?$char_traits@D@std@@V?$allocator@D@2@@std@@V?$map@V?$basic_string@DU?$char_traits@D@std@@V?$allocator@D@2@@std@@V12@U?$less@V?$basic_string@DU?$char_traits@D@std@@V?$allocator@D@2@@std@@@2@V?$allocator@U?$pair@$$CBV?$basic_string@DU?$char_traits@D@std@@V?$allocator@D@2@@std@@V12@@std@@@2@@2@@std@@@2@@3@H_N@Z 1001d7e0 f   ObjCache.obj
 0001:0001cc20       ?SetCacheUserAddr@@YAXV?$basic_string@DU?$char_traits@D@std@@V?$allocator@D@2@@std@@0@Z 1001dc20 f   ObjCache.obj
 0001:0001ccb0       ?CacheRefreshLatestRecords@@YA_NV?$basic_string@DU?$char_traits@D@std@@V?$allocator@D@2@@std@@AAV?$map@V?$basic_string@DU?$char_traits@D@std@@V?$allocator@D@2@@std@@V?$map@V?$basic_string@DU?$char_traits@D@std@@V?$allocator@D@2@@std@@V12@U?$less@V?$basic_string@DU?$char_traits@D@std@@V?$allocator@D@2@@std@@@2@V?$allocator@U?$pair@$$CBV?$basic_string@DU?$char_traits@D@std@@V?$allocator@D@2@@std@@V12@@std@@@2@@2@U?$less@V?$basic_string@DU?$char_traits@D@std@@V?$allocator@D@2@@std@@@2@V?$allocator@U?$pair@$$CBV?$basic_string@DU?$char_traits@D@std@@V?$allocator@D@2@@std@@V?$map@V?$basic_string@DU?$char_traits@D@std@@V?$allocator@D@2@@std@@V12@U?$less@V?$basic_string@DU?$char_traits@D@std@@V?$allocator@D@2@@std@@@2@V?$allocator@U?$pair@$$CBV?$basic_string@DU?$char_traits@D@std@@V?$allocator@D@2@@std@@V12@@std@@@2@@2@@std@@@2@@2@H@Z 1001dcb0 f   ObjCache.obj
 0001:0001cd20       ?erase@?$_Tree@V?$_Tmap_traits@V?$basic_string@DU?$char_traits@D@std@@V?$allocator@D@2@@std@@V?$map@V?$basic_string@DU?$char_traits@D@std@@V?$allocator@D@2@@std@@V12@U?$less@V?$basic_string@DU?$char_traits@D@std@@V?$allocator@D@2@@std@@@2@V?$allocator@U?$pair@$$CBV?$basic_string@DU?$char_traits@D@std@@V?$allocator@D@2@@std@@V12@@std@@@2@@2@U?$less@V?$basic_string@DU?$char_traits@D@std@@V?$allocator@D@2@@std@@@2@V?$allocator@U?$pair@$$CBV?$basic_string@DU?$char_traits@D@std@@V?$allocator@D@2@@std@@V?$map@V?$basic_string@DU?$char_traits@D@std@@V?$allocator@D@2@@std@@V12@U?$less@V?$basic_string@DU?$char_traits@D@std@@V?$allocator@D@2@@std@@@2@V?$allocator@U?$pair@$$CBV?$basic_string@DU?$char_traits@D@std@@V?$allocator@D@2@@std@@V12@@std@@@2@@2@@std@@@2@$0A@@std@@@std@@QAE?AViterator@12@V312@0@Z 1001dd20 f i ObjCache.obj
 0001:0001cde0       ??1?$map@V?$basic_string@DU?$char_traits@D@std@@V?$allocator@D@2@@std@@V?$map@V?$basic_string@DU?$char_traits@D@std@@V?$allocator@D@2@@std@@PAXU?$less@V?$basic_string@DU?$char_traits@D@std@@V?$allocator@D@2@@std@@@2@V?$allocator@U?$pair@$$CBV?$basic_string@DU?$char_traits@D@std@@V?$allocator@D@2@@std@@PAX@std@@@2@@2@U?$less@V?$basic_string@DU?$char_traits@D@std@@V?$allocator@D@2@@std@@@2@V?$allocator@U?$pair@$$CBV?$basic_string@DU?$char_traits@D@std@@V?$allocator@D@2@@std@@V?$map@V?$basic_string@DU?$char_traits@D@std@@V?$allocator@D@2@@std@@PAXU?$less@V?$basic_string@DU?$char_traits@D@std@@V?$allocator@D@2@@std@@@2@V?$allocator@U?$pair@$$CBV?$basic_string@DU?$char_traits@D@std@@V?$allocator@D@2@@std@@PAX@std@@@2@@2@@std@@@2@@std@@QAE@XZ 1001dde0 f i ObjCache.obj
 0001:0001ce10       ??0?$map@V?$basic_string@DU?$char_traits@D@std@@V?$allocator@D@2@@std@@V?$map@V?$basic_string@DU?$char_traits@D@std@@V?$allocator@D@2@@std@@PAXU?$less@V?$basic_string@DU?$char_traits@D@std@@V?$allocator@D@2@@std@@@2@V?$allocator@U?$pair@$$CBV?$basic_string@DU?$char_traits@D@std@@V?$allocator@D@2@@std@@PAX@std@@@2@@2@U?$less@V?$basic_string@DU?$char_traits@D@std@@V?$allocator@D@2@@std@@@2@V?$allocator@U?$pair@$$CBV?$basic_string@DU?$char_traits@D@std@@V?$allocator@D@2@@std@@V?$map@V?$basic_string@DU?$char_traits@D@std@@V?$allocator@D@2@@std@@PAXU?$less@V?$basic_string@DU?$char_traits@D@std@@V?$allocator@D@2@@std@@@2@V?$allocator@U?$pair@$$CBV?$basic_string@DU?$char_traits@D@std@@V?$allocator@D@2@@std@@PAX@std@@@2@@2@@std@@@2@@std@@QAE@XZ 1001de10 f i ObjCache.obj
 0001:0001ce40       ??1?$map@V?$basic_string@DU?$char_traits@D@std@@V?$allocator@D@2@@std@@V?$map@V?$basic_string@DU?$char_traits@D@std@@V?$allocator@D@2@@std@@V12@U?$less@V?$basic_string@DU?$char_traits@D@std@@V?$allocator@D@2@@std@@@2@V?$allocator@U?$pair@$$CBV?$basic_string@DU?$char_traits@D@std@@V?$allocator@D@2@@std@@V12@@std@@@2@@2@U?$less@V?$basic_string@DU?$char_traits@D@std@@V?$allocator@D@2@@std@@@2@V?$allocator@U?$pair@$$CBV?$basic_string@DU?$char_traits@D@std@@V?$allocator@D@2@@std@@V?$map@V?$basic_string@DU?$char_traits@D@std@@V?$allocator@D@2@@std@@V12@U?$less@V?$basic_string@DU?$char_traits@D@std@@V?$allocator@D@2@@std@@@2@V?$allocator@U?$pair@$$CBV?$basic_string@DU?$char_traits@D@std@@V?$allocator@D@2@@std@@V12@@std@@@2@@2@@std@@@2@@std@@QAE@XZ 1001de40 f i ObjCache.obj
 0001:0001ce70       ?RefreshSVDYNs@ObjectCache@@SA_NV?$basic_string@DU?$char_traits@D@std@@V?$allocator@D@2@@std@@@Z 1001de70 f   ObjCache.obj
 0001:0001cf40       ?CacheRefreshSVDYNs@@YA_NV?$basic_string@DU?$char_traits@D@std@@V?$allocator@D@2@@std@@@Z 1001df40 f   ObjCache.obj
 0001:0001cfb0       ?WriteData@MyTCPStream@@QAEIPBXIK@Z 1001dfb0 f i QueryData.obj
 0001:0001d050       ?ReadData@MyTCPStream@@QAEIPAXIDK@Z 1001e050 f i QueryData.obj
 0001:0001d0e0       ?SetNoDelay@MyTCPStream@@QAE_N_N@Z 1001e0e0 f i QueryData.obj
 0001:0001d140       ??0QueryData@@QAE@XZ       1001e140 f   QueryData.obj
 0001:0001d180       ?Socket_Recev@QueryData@@IAE_NAAVMyTCPStream@@PAPAXAAIK@Z 1001e180 f   QueryData.obj
 0001:0001d1f0       ?Pipe_Send@QueryData@@IAE_NPAX0I@Z 1001e1f0 f   QueryData.obj
 0001:0001d270       ?Pipe_Recev@QueryData@@IAE_NPAXPAPAXAAI@Z 1001e270 f   QueryData.obj
 0001:0001d360       ?QueryBySocket@QueryData@@IAE_NPAUsvdbquery@@PAPAXAAIV?$basic_string@DU?$char_traits@D@std@@V?$allocator@D@2@@std@@I@Z 1001e360 f   QueryData.obj
 0001:0001d4f0       ?QueryBySocket@QueryData@@IAE_NPAUsvdbquery@@PBDIPAPAXAAIV?$basic_string@DU?$char_traits@D@std@@V?$allocator@D@2@@std@@I@Z 1001e4f0 f   QueryData.obj
 0001:0001d6b0       ?QueryBySocket@QueryData@@IAE_NPAUsvdbquery@@PAUinifilequery@@PAPAXAAIV?$basic_string@DU?$char_traits@D@std@@V?$allocator@D@2@@std@@I@Z 1001e6b0 f   QueryData.obj
 0001:0001d870       ?QueryBySocket@QueryData@@IAE_NPAUsvdbquery@@PAUdbquery@@PAPAXAAIV?$basic_string@DU?$char_traits@D@std@@V?$allocator@D@2@@std@@I@Z 1001e870 f   QueryData.obj
 0001:0001da30       ?QueryByPipe@QueryData@@IAE_NPAUsvdbquery@@PAPAXAAIV?$basic_string@DU?$char_traits@D@std@@V?$allocator@D@2@@std@@I@Z 1001ea30 f   QueryData.obj
 0001:0001db20       ?QueryByPipe@QueryData@@IAE_NPAUsvdbquery@@PBDIPAPAXAAIV?$basic_string@DU?$char_traits@D@std@@V?$allocator@D@2@@std@@I@Z 1001eb20 f   QueryData.obj
 0001:0001dc20       ?QueryByPipe@QueryData@@IAE_NPAUsvdbquery@@PAUinifilequery@@PAPAXAAIV?$basic_string@DU?$char_traits@D@std@@V?$allocator@D@2@@std@@I@Z 1001ec20 f   QueryData.obj
 0001:0001dd20       ?QueryByPipe@QueryData@@IAE_NPAUsvdbquery@@PAUdbquery@@PAPAXAAIV?$basic_string@DU?$char_traits@D@std@@V?$allocator@D@2@@std@@I@Z 1001ed20 f   QueryData.obj
 0001:0001de20       ?UpdateByPipe@QueryData@@IAE_NPAUsvdbquery@@PBDIPAUsvdbresult@@V?$basic_string@DU?$char_traits@D@std@@V?$allocator@D@2@@std@@I@Z 1001ee20 f   QueryData.obj
 0001:0001df80       ?UpdateBySocket@QueryData@@IAE_NPAUsvdbquery@@PBDIPAUsvdbresult@@V?$basic_string@DU?$char_traits@D@std@@V?$allocator@D@2@@std@@I@Z 1001ef80 f   QueryData.obj
 0001:0001e1b0       ?Query@QueryData@@QAE_NPAUsvdbquery@@PAPAXAAIV?$basic_string@DU?$char_traits@D@std@@V?$allocator@D@2@@std@@@Z 1001f1b0 f   QueryData.obj
 0001:0001e2c0       ?Query@QueryData@@QAE_NPAUsvdbquery@@PBDIPAPAXAAIV?$basic_string@DU?$char_traits@D@std@@V?$allocator@D@2@@std@@@Z 1001f2c0 f   QueryData.obj
 0001:0001e3e0       ?Query@QueryData@@QAE_NPAUsvdbquery@@PAUinifilequery@@PAPAXAAIV?$basic_string@DU?$char_traits@D@std@@V?$allocator@D@2@@std@@@Z 1001f3e0 f   QueryData.obj
 0001:0001e4f0       ?Query@QueryData@@QAE_NPAUsvdbquery@@PAUdbquery@@PAPAXAAIV?$basic_string@DU?$char_traits@D@std@@V?$allocator@D@2@@std@@@Z 1001f4f0 f   QueryData.obj
 0001:0001e600       ?Update@QueryData@@QAE_NPAUsvdbquery@@PBDIPAUsvdbresult@@V?$basic_string@DU?$char_traits@D@std@@V?$allocator@D@2@@std@@@Z 1001f600 f   QueryData.obj
 0001:0001e710       ??0QueueRecord@@QAE@XZ     1001f710 f   QueueRecord.obj
 0001:0001e740       ??1QueueRecord@@QAE@XZ     1001f740 f   QueueRecord.obj
 0001:0001e760       ?GetRawDataSize@QueueRecord@@QAEIXZ 1001f760 f   QueueRecord.obj
 0001:0001e770       ?GetRawData@QueueRecord@@QAEPADPADI@Z 1001f770 f   QueueRecord.obj
 0001:0001e830       ?CreateObjectByRawData@QueueRecord@@QAEHPBDI@Z 1001f830 f   QueueRecord.obj
 0001:0001e970       ??0QueueRecord@@QAE@V?$basic_string@DU?$char_traits@D@std@@V?$allocator@D@2@@std@@VTTime@svutil@@PBDIH@Z 1001f970 f   QueueRecord.obj
 0001:0001ea30       ??0RecordValue@@QAE@XZ     1001fa30 f   RecordSet.obj
 0001:0001ea40       ??1RecordValue@@QAE@XZ     1001fa40 f   RecordSet.obj
 0001:0001ea60       ??BRecordValue@@QBEHXZ     1001fa60 f   RecordSet.obj
 0001:0001ea70       ??BRecordValue@@QBE?AV?$basic_string@DU?$char_traits@D@std@@V?$allocator@D@2@@std@@XZ 1001fa70 f   RecordSet.obj
 0001:0001eb30       ??BRecordValue@@QBEMXZ     1001fb30 f   RecordSet.obj
 0001:0001eb40       ??4RecordValue@@QAEAAV0@ABV?$basic_string@DU?$char_traits@D@std@@V?$allocator@D@2@@std@@@Z 1001fb40 f   RecordSet.obj
 0001:0001eb80       ??4RecordValue@@QAEAAV0@ABV0@@Z 1001fb80 f   RecordSet.obj
 0001:0001ec10       ?_Xlen@?$vector@PAV?$hashnode@Vword@svutil@@PAVRecordValue@@@svutil@@V?$allocator@PAV?$hashnode@Vword@svutil@@PAVRecordValue@@@svutil@@@std@@@std@@IBEXXZ 1001fc10 f i RecordSet.obj
 0001:0001ec10       ?_Xlen@?$vector@PAVDataType@@V?$allocator@PAVDataType@@@std@@@std@@IBEXXZ 1001fc10 f i RecordSet.obj
 0001:0001ec90       ??0?$hashelement@Vword@svutil@@PAVRecordValue@@@svutil@@QAE@ABVword@1@ABQAVRecordValue@@@Z 1001fc90 f i RecordSet.obj
 0001:0001ed00       ??1?$hashelement@Vword@svutil@@PAVPort@@@svutil@@QAE@XZ 1001fd00 f i EntityEx.obj
 0001:0001ed00       ??1?$hashelement@Vword@svutil@@PAVRecordValue@@@svutil@@QAE@XZ 1001fd00 f i RecordSet.obj
 0001:0001ed00       ??1?$hashelement@Vword@svutil@@PAVCommonData@@@svutil@@QAE@XZ 1001fd00 f i Section.obj
 0001:0001ed00       ??1word@svutil@@UAE@XZ     1001fd00 f i Entity.obj
 0001:0001ed20       ??1?$treenode@V?$hashelement@Vword@svutil@@PAVRecordValue@@@svutil@@@svutil@@UAE@XZ 1001fd20 f i RecordSet.obj
 0001:0001ed40       ??_E?$treenode@V?$hashelement@Vword@svutil@@PAVRecordValue@@@svutil@@@svutil@@UAEPAXI@Z 1001fd40 f i RecordSet.obj
 0001:0001ed40       ??_G?$treenode@V?$hashelement@Vword@svutil@@PAVRecordValue@@@svutil@@@svutil@@UAEPAXI@Z 1001fd40 f i RecordSet.obj
 0001:0001ed60       ??0?$hashelement@Vword@svutil@@PAVRecordValue@@@svutil@@QAE@ABVword@1@@Z 1001fd60 f i RecordSet.obj
 0001:0001edc0       ??M?$treenode@V?$hashelement@Vword@svutil@@PAVRecordValue@@@svutil@@@svutil@@QAE_NV01@@Z 1001fdc0 f i RecordSet.obj
 0001:0001ee30       ??O?$treenode@V?$hashelement@Vword@svutil@@PAVRecordValue@@@svutil@@@svutil@@QAE_NV01@@Z 1001fe30 f i RecordSet.obj
 0001:0001eea0       ?CountNodes@?$sorttree@V?$hashelement@Vword@svutil@@PAVRecordValue@@@svutil@@@svutil@@AAEXPAV?$treenode@V?$hashelement@Vword@svutil@@PAVRecordValue@@@svutil@@@2@AAK@Z 1001fea0 f i RecordSet.obj
 0001:0001eed0       ??0?$treenode@V?$hashelement@Vword@svutil@@PAVRecordValue@@@svutil@@@svutil@@QAE@ABV?$hashelement@Vword@svutil@@PAVRecordValue@@@1@@Z 1001fed0 f i RecordSet.obj
 0001:0001ef50       ?DeleteTree@?$sorttree@V?$hashelement@Vword@svutil@@PAVRecordValue@@@svutil@@@svutil@@QAEXPAV?$treenode@V?$hashelement@Vword@svutil@@PAVRecordValue@@@svutil@@@2@@Z 1001ff50 f i RecordSet.obj
 0001:0001efa0       ?findnode@?$sorttree@V?$hashelement@Vword@svutil@@PAVCommonData@@@svutil@@@svutil@@QAEPAV?$treenode@V?$hashelement@Vword@svutil@@PAVCommonData@@@svutil@@@2@ABV?$hashelement@Vword@svutil@@PAVCommonData@@@2@PAV32@@Z 1001ffa0 f i Section.obj
 0001:0001efa0       ?findnode@?$sorttree@V?$hashelement@Vword@svutil@@PAVRecordValue@@@svutil@@@svutil@@QAEPAV?$treenode@V?$hashelement@Vword@svutil@@PAVRecordValue@@@svutil@@@2@ABV?$hashelement@Vword@svutil@@PAVRecordValue@@@2@PAV32@@Z 1001ffa0 f i RecordSet.obj
 0001:0001efa0       ?findnode@?$sorttree@V?$hashelement@Vword@svutil@@PAVPort@@@svutil@@@svutil@@QAEPAV?$treenode@V?$hashelement@Vword@svutil@@PAVPort@@@svutil@@@2@ABV?$hashelement@Vword@svutil@@PAVPort@@@2@PAV32@@Z 1001ffa0 f i EntityEx.obj
 0001:0001f010       ?findnextnode@?$sorttree@V?$hashelement@Vword@svutil@@PAVRecordValue@@@svutil@@@svutil@@ABEPAV?$treenode@V?$hashelement@Vword@svutil@@PAVRecordValue@@@svutil@@@2@AAV?$hashelement@Vword@svutil@@PAVRecordValue@@@2@AA_NPAV32@@Z 10020010 f i RecordSet.obj
 0001:0001f080       ??0?$treenode@V?$hashelement@Vword@svutil@@PAVRecordValue@@@svutil@@@svutil@@QAE@ABV01@@Z 10020080 f i RecordSet.obj
 0001:0001f100       ??$CreateNode@V?$hashelement@Vword@svutil@@PAVRecordValue@@@svutil@@@?$sorttree@V?$hashelement@Vword@svutil@@PAVRecordValue@@@svutil@@@svutil@@SAPAV?$treenode@V?$hashelement@Vword@svutil@@PAVRecordValue@@@svutil@@@1@ABV?$hashelement@Vword@svutil@@PAVRecordValue@@@1@@Z 10020100 f i RecordSet.obj
 0001:0001f160       ??_E?$sorttree@V?$hashelement@Vword@svutil@@PAVRecordValue@@@svutil@@@svutil@@UAEPAXI@Z 10020160 f i RecordSet.obj
 0001:0001f160       ??_G?$sorttree@V?$hashelement@Vword@svutil@@PAVRecordValue@@@svutil@@@svutil@@UAEPAXI@Z 10020160 f i RecordSet.obj
 0001:0001f1c0       ?_Incsize@?$list@PAVRecord@@V?$allocator@PAVRecord@@@std@@@std@@IAEXI@Z 100201c0 f i RecordSet.obj
 0001:0001f260       ??1?$hashnode@Vword@svutil@@PAVRecordValue@@@svutil@@QAE@XZ 10020260 f i RecordSet.obj
 0001:0001f2f0       ?find@?$hashnode@Vword@svutil@@PAVRecordValue@@@svutil@@QAE_NABVword@2@PAPAV?$hashelement@Vword@svutil@@PAVRecordValue@@@2@@Z 100202f0 f i RecordSet.obj
 0001:0001f3c0       ?InsertNode@?$sorttree@V?$hashelement@Vword@svutil@@PAVRecordValue@@@svutil@@@svutil@@QAEXPAV?$treenode@V?$hashelement@Vword@svutil@@PAVRecordValue@@@svutil@@@2@0@Z 100203c0 f i RecordSet.obj
 0001:0001f450       ?InsertNodeEx@?$sorttree@V?$hashelement@Vword@svutil@@PAVRecordValue@@@svutil@@@svutil@@QAEAAV?$hashelement@Vword@svutil@@PAVRecordValue@@@2@ABV32@@Z 10020450 f i RecordSet.obj
 0001:0001f4e0       ?_Ufill@?$vector@PAV?$hashnode@Vword@svutil@@PAVPort@@@svutil@@V?$allocator@PAV?$hashnode@Vword@svutil@@PAVPort@@@svutil@@@std@@@std@@IAEPAPAV?$hashnode@Vword@svutil@@PAVPort@@@svutil@@PAPAV34@IABQAV34@@Z 100204e0 f i EntityEx.obj
 0001:0001f4e0       ?_Ufill@?$vector@PAVDataType@@V?$allocator@PAVDataType@@@std@@@std@@IAEPAPAVDataType@@PAPAV3@IABQAV3@@Z 100204e0 f i RecordType.obj
 0001:0001f4e0       ?_Ufill@?$vector@PAV?$hashnode@Vword@svutil@@PAVCommonData@@@svutil@@V?$allocator@PAV?$hashnode@Vword@svutil@@PAVCommonData@@@svutil@@@std@@@std@@IAEPAPAV?$hashnode@Vword@svutil@@PAVCommonData@@@svutil@@PAPAV34@IABQAV34@@Z 100204e0 f i Section.obj
 0001:0001f4e0       ?_Ufill@?$vector@PAV?$hashnode@Vword@svutil@@V12@@svutil@@V?$allocator@PAV?$hashnode@Vword@svutil@@V12@@svutil@@@std@@@std@@IAEPAPAV?$hashnode@Vword@svutil@@V12@@svutil@@PAPAV34@IABQAV34@@Z 100204e0 f i General.obj
 0001:0001f4e0       ?_Ufill@?$vector@PAV?$hashnode@Vword@svutil@@PAVRecordValue@@@svutil@@V?$allocator@PAV?$hashnode@Vword@svutil@@PAVRecordValue@@@svutil@@@std@@@std@@IAEPAPAV?$hashnode@Vword@svutil@@PAVRecordValue@@@svutil@@PAPAV34@IABQAV34@@Z 100204e0 f i RecordSet.obj
 0001:0001f510       ?push_back@?$list@PAVRecord@@V?$allocator@PAVRecord@@@std@@@std@@QAEXABQAVRecord@@@Z 10020510 f i RecordSet.obj
 0001:0001f550       ?clearnodes@?$hashtable@Vword@svutil@@PAVRecordValue@@@svutil@@IAEXXZ 10020550 f i RecordSet.obj
 0001:0001f5c0       ?insert@?$hashnode@Vword@svutil@@PAVRecordValue@@@svutil@@QAEAAV?$hashelement@Vword@svutil@@PAVRecordValue@@@2@ABVword@2@ABQAVRecordValue@@@Z 100205c0 f i RecordSet.obj
 0001:0001f6a0       ?findnext@?$hashnode@Vword@svutil@@PAVRecordValue@@@svutil@@QAE_NAAV?$hashelement@Vword@svutil@@PAVRecordValue@@@2@PAPAV32@@Z 100206a0 f i RecordSet.obj
 0001:0001f750       ??0RecordType@@QAE@XZ      10020750 f i RecordSet.obj
 0001:0001f7b0       ??1RecordType@@QAE@XZ      100207b0 f i RecordSet.obj
 0001:0001f7f0       ??0RecordSet@@QAE@XZ       100207f0 f   RecordSet.obj
 0001:0001f850       ?FindLabelInresMap@@YA?AV?$basic_string@DU?$char_traits@D@std@@V?$allocator@D@2@@std@@V12@PAVStringMap@@@Z 10020850 f   RecordSet.obj
 0001:0001f930       ??1?$hashtable@Vword@svutil@@PAVRecordValue@@@svutil@@QAE@XZ 10020930 f i RecordSet.obj
 0001:0001f990       ?findnext@?$hashtable@Vword@svutil@@PAVRecordValue@@@svutil@@QAE_NAAViterator@12@@Z 10020990 f i RecordSet.obj
 0001:0001fa30       ?resize@?$vector@PAV?$hashnode@Vword@svutil@@PAVRecordValue@@@svutil@@V?$allocator@PAV?$hashnode@Vword@svutil@@PAVRecordValue@@@svutil@@@std@@@std@@QAEXIPAV?$hashnode@Vword@svutil@@PAVRecordValue@@@svutil@@@Z 10020a30 f i RecordSet.obj
 0001:0001fac0       ??1Record@@QAE@XZ          10020ac0 f i RecordSet.obj
 0001:0001fb90       ??0?$hashtable@Vword@svutil@@PAVRecordValue@@@svutil@@QAE@XZ 10020b90 f i RecordSet.obj
 0001:0001fbe0       ?insert@?$hashtable@Vword@svutil@@PAVRecordValue@@@svutil@@QAEAAPAVRecordValue@@ABVword@2@ABQAV3@@Z 10020be0 f i RecordSet.obj
 0001:0001fcd0       ??1RecordSet@@QAE@XZ       10020cd0 f   RecordSet.obj
 0001:0001fdc0       ?CreateObjectByRawData@RecordSet@@QAE_NPAVStringMap@@PBDI@Z 10020dc0 f   RecordSet.obj
 0001:00020350       ??$copy_backward@PAPAV?$hashnode@Vword@svutil@@PAVRecordValue@@@svutil@@PAPAV12@@std@@YAPAPAV?$hashnode@Vword@svutil@@PAVRecordValue@@@svutil@@PAPAV12@00@Z 10021350 f i RecordSet.obj
 0001:00020350       ??$copy_backward@PAPAV?$hashnode@Vword@svutil@@V12@@svutil@@PAPAV12@@std@@YAPAPAV?$hashnode@Vword@svutil@@V12@@svutil@@PAPAV12@00@Z 10021350 f i General.obj
 0001:00020350       ??$copy_backward@PAPAV?$hashnode@Vword@svutil@@PAVPort@@@svutil@@PAPAV12@@std@@YAPAPAV?$hashnode@Vword@svutil@@PAVPort@@@svutil@@PAPAV12@00@Z 10021350 f i EntityEx.obj
 0001:00020350       ??$copy_backward@PAPAVDataType@@PAPAV1@@std@@YAPAPAVDataType@@PAPAV1@00@Z 10021350 f i RecordType.obj
 0001:00020350       ??$copy_backward@PAPAV?$hashnode@Vword@svutil@@PAVCommonData@@@svutil@@PAPAV12@@std@@YAPAPAV?$hashnode@Vword@svutil@@PAVCommonData@@@svutil@@PAPAV12@00@Z 10021350 f i Section.obj
 0001:00020380       ?_Insert_n@?$vector@PAV?$hashnode@Vword@svutil@@PAVRecordValue@@@svutil@@V?$allocator@PAV?$hashnode@Vword@svutil@@PAVRecordValue@@@svutil@@@std@@@std@@IAEXViterator@12@IABQAV?$hashnode@Vword@svutil@@PAVRecordValue@@@svutil@@@Z 10021380 f i RecordSet.obj
 0001:00020380       ?_Insert_n@?$vector@PAVDataType@@V?$allocator@PAVDataType@@@std@@@std@@IAEXViterator@12@IABQAVDataType@@@Z 10021380 f i RecordType.obj
 0001:00020570       ?CreateObjectByRawData@RecordType@@QAE_NPBDI@Z 10021570 f   RecordType.obj
 0001:00020700       ??0Resource@@QAE@XZ        10021700 f   Resource.obj
 0001:00020760       ??1Resource@@QAE@XZ        10021760 f   Resource.obj
 0001:000207c0       ?GetRawDataSize@Resource@@UAEIXZ 100217c0 f   Resource.obj
 0001:000207e0       ?GetRawData@Resource@@UAEPADPADI@Z 100217e0 f   Resource.obj
 0001:00020870       ?CreateObjectByRawData@Resource@@UAEHPBDI@Z 10021870 f   Resource.obj
 0001:00020930       ?_Lrotate@?$_Tree@V?$_Tset_traits@V?$basic_string@DU?$char_traits@D@std@@V?$allocator@D@2@@std@@U?$less@V?$basic_string@DU?$char_traits@D@std@@V?$allocator@D@2@@std@@@2@V?$allocator@V?$basic_string@DU?$char_traits@D@std@@V?$allocator@D@2@@std@@@2@$0A@@std@@@std@@IAEXPAU_Node@?$_Tree_nod@V?$_Tset_traits@V?$basic_string@DU?$char_traits@D@std@@V?$allocator@D@2@@std@@U?$less@V?$basic_string@DU?$char_traits@D@std@@V?$allocator@D@2@@std@@@2@V?$allocator@V?$basic_string@DU?$char_traits@D@std@@V?$allocator@D@2@@std@@@2@$0A@@std@@@2@@Z 10021930 f i Resource.obj
 0001:00020990       ?_Max@?$_Tree@V?$_Tset_traits@V?$basic_string@DU?$char_traits@D@std@@V?$allocator@D@2@@std@@U?$less@V?$basic_string@DU?$char_traits@D@std@@V?$allocator@D@2@@std@@@2@V?$allocator@V?$basic_string@DU?$char_traits@D@std@@V?$allocator@D@2@@std@@@2@$0A@@std@@@std@@KAPAU_Node@?$_Tree_nod@V?$_Tset_traits@V?$basic_string@DU?$char_traits@D@std@@V?$allocator@D@2@@std@@U?$less@V?$basic_string@DU?$char_traits@D@std@@V?$allocator@D@2@@std@@@2@V?$allocator@V?$basic_string@DU?$char_traits@D@std@@V?$allocator@D@2@@std@@@2@$0A@@std@@@2@PAU342@@Z 10021990 f i Resource.obj
 0001:000209b0       ?_Min@?$_Tree@V?$_Tset_traits@V?$basic_string@DU?$char_traits@D@std@@V?$allocator@D@2@@std@@U?$less@V?$basic_string@DU?$char_traits@D@std@@V?$allocator@D@2@@std@@@2@V?$allocator@V?$basic_string@DU?$char_traits@D@std@@V?$allocator@D@2@@std@@@2@$0A@@std@@@std@@KAPAU_Node@?$_Tree_nod@V?$_Tset_traits@V?$basic_string@DU?$char_traits@D@std@@V?$allocator@D@2@@std@@U?$less@V?$basic_string@DU?$char_traits@D@std@@V?$allocator@D@2@@std@@@2@V?$allocator@V?$basic_string@DU?$char_traits@D@std@@V?$allocator@D@2@@std@@@2@$0A@@std@@@2@PAU342@@Z 100219b0 f i Resource.obj
 0001:000209d0       ?_Rrotate@?$_Tree@V?$_Tset_traits@V?$basic_string@DU?$char_traits@D@std@@V?$allocator@D@2@@std@@U?$less@V?$basic_string@DU?$char_traits@D@std@@V?$allocator@D@2@@std@@@2@V?$allocator@V?$basic_string@DU?$char_traits@D@std@@V?$allocator@D@2@@std@@@2@$0A@@std@@@std@@IAEXPAU_Node@?$_Tree_nod@V?$_Tset_traits@V?$basic_string@DU?$char_traits@D@std@@V?$allocator@D@2@@std@@U?$less@V?$basic_string@DU?$char_traits@D@std@@V?$allocator@D@2@@std@@@2@V?$allocator@V?$basic_string@DU?$char_traits@D@std@@V?$allocator@D@2@@std@@@2@$0A@@std@@@2@@Z 100219d0 f i Resource.obj
 0001:00020a30       ?_Inc@const_iterator@?$_Tree@V?$_Tset_traits@V?$basic_string@DU?$char_traits@D@std@@V?$allocator@D@2@@std@@U?$less@V?$basic_string@DU?$char_traits@D@std@@V?$allocator@D@2@@std@@@2@V?$allocator@V?$basic_string@DU?$char_traits@D@std@@V?$allocator@D@2@@std@@@2@$0A@@std@@@std@@QAEXXZ 10021a30 f i Resource.obj
 0001:00020a90       ??1_Node@?$_Tree_nod@V?$_Tmap_traits@V?$basic_string@DU?$char_traits@D@std@@V?$allocator@D@2@@std@@PAXU?$less@V?$basic_string@DU?$char_traits@D@std@@V?$allocator@D@2@@std@@@2@V?$allocator@U?$pair@$$CBV?$basic_string@DU?$char_traits@D@std@@V?$allocator@D@2@@std@@PAX@std@@@2@$0A@@std@@@std@@QAE@XZ 10021a90 f i ObjCache.obj
 0001:00020a90       ??1_Node@?$_Tree_nod@V?$_Tmap_traits@V?$basic_string@DU?$char_traits@D@std@@V?$allocator@D@2@@std@@KU?$less@V?$basic_string@DU?$char_traits@D@std@@V?$allocator@D@2@@std@@@2@V?$allocator@U?$pair@$$CBV?$basic_string@DU?$char_traits@D@std@@V?$allocator@D@2@@std@@K@std@@@2@$0A@@std@@@std@@QAE@XZ 10021a90 f i ShareMemFile.obj
 0001:00020a90       ??1_Node@?$_Tree_nod@V?$_Tset_traits@V?$basic_string@DU?$char_traits@D@std@@V?$allocator@D@2@@std@@U?$less@V?$basic_string@DU?$char_traits@D@std@@V?$allocator@D@2@@std@@@2@V?$allocator@V?$basic_string@DU?$char_traits@D@std@@V?$allocator@D@2@@std@@@2@$0A@@std@@@std@@QAE@XZ 10021a90 f i Resource.obj
 0001:00020aa0       ?_Buynode@?$_Tree@V?$_Tset_traits@V?$basic_string@DU?$char_traits@D@std@@V?$allocator@D@2@@std@@U?$less@V?$basic_string@DU?$char_traits@D@std@@V?$allocator@D@2@@std@@@2@V?$allocator@V?$basic_string@DU?$char_traits@D@std@@V?$allocator@D@2@@std@@@2@$0A@@std@@@std@@IAEPAU_Node@?$_Tree_nod@V?$_Tset_traits@V?$basic_string@DU?$char_traits@D@std@@V?$allocator@D@2@@std@@U?$less@V?$basic_string@DU?$char_traits@D@std@@V?$allocator@D@2@@std@@@2@V?$allocator@V?$basic_string@DU?$char_traits@D@std@@V?$allocator@D@2@@std@@@2@$0A@@std@@@2@XZ 10021aa0 f i Resource.obj
 0001:00020ae0       ?erase@?$_Tree@V?$_Tset_traits@V?$basic_string@DU?$char_traits@D@std@@V?$allocator@D@2@@std@@U?$less@V?$basic_string@DU?$char_traits@D@std@@V?$allocator@D@2@@std@@@2@V?$allocator@V?$basic_string@DU?$char_traits@D@std@@V?$allocator@D@2@@std@@@2@$0A@@std@@@std@@QAE?AViterator@12@V312@@Z 10021ae0 f i Resource.obj
 0001:00020dc0       ?_Erase@?$_Tree@V?$_Tset_traits@V?$basic_string@DU?$char_traits@D@std@@V?$allocator@D@2@@std@@U?$less@V?$basic_string@DU?$char_traits@D@std@@V?$allocator@D@2@@std@@@2@V?$allocator@V?$basic_string@DU?$char_traits@D@std@@V?$allocator@D@2@@std@@@2@$0A@@std@@@std@@IAEXPAU_Node@?$_Tree_nod@V?$_Tset_traits@V?$basic_string@DU?$char_traits@D@std@@V?$allocator@D@2@@std@@U?$less@V?$basic_string@DU?$char_traits@D@std@@V?$allocator@D@2@@std@@@2@V?$allocator@V?$basic_string@DU?$char_traits@D@std@@V?$allocator@D@2@@std@@@2@$0A@@std@@@2@@Z 10021dc0 f i Resource.obj
 0001:00020e00       ?erase@?$_Tree@V?$_Tset_traits@V?$basic_string@DU?$char_traits@D@std@@V?$allocator@D@2@@std@@U?$less@V?$basic_string@DU?$char_traits@D@std@@V?$allocator@D@2@@std@@@2@V?$allocator@V?$basic_string@DU?$char_traits@D@std@@V?$allocator@D@2@@std@@@2@$0A@@std@@@std@@QAE?AViterator@12@V312@0@Z 10021e00 f i Resource.obj
 0001:00020ec0       ??1?$set@V?$basic_string@DU?$char_traits@D@std@@V?$allocator@D@2@@std@@U?$less@V?$basic_string@DU?$char_traits@D@std@@V?$allocator@D@2@@std@@@2@V?$allocator@V?$basic_string@DU?$char_traits@D@std@@V?$allocator@D@2@@std@@@2@@std@@QAE@XZ 10021ec0 f i Resource.obj
 0001:00020ef0       ??0?$set@V?$basic_string@DU?$char_traits@D@std@@V?$allocator@D@2@@std@@U?$less@V?$basic_string@DU?$char_traits@D@std@@V?$allocator@D@2@@std@@@2@V?$allocator@V?$basic_string@DU?$char_traits@D@std@@V?$allocator@D@2@@std@@@2@@std@@QAE@XZ 10021ef0 f i Resource.obj
 0001:00020f20       ?PutLanguageType@Resource@@QAEXVword@svutil@@@Z 10021f20 f i ResourceAPI.obj
 0001:00020f80       ?Cache_LoadResourceByKeys@@YAPAXV?$basic_string@DU?$char_traits@D@std@@V?$allocator@D@2@@std@@0@Z 10021f80 f   ResourceAPI.obj
 0001:00021010       ?LoadResourceByKeys@@YAPAXV?$basic_string@DU?$char_traits@D@std@@V?$allocator@D@2@@std@@00@Z 10022010 f   ResourceAPI.obj
 0001:000212d0       ?Cache_LoadResource@@YAPAXV?$basic_string@DU?$char_traits@D@std@@V?$allocator@D@2@@std@@@Z 100222d0 f   ResourceAPI.obj
 0001:00021340       ?LoadResource@@YAPAXV?$basic_string@DU?$char_traits@D@std@@V?$allocator@D@2@@std@@0@Z 10022340 f   ResourceAPI.obj
 0001:00021520       ?CreateResource@@YAPAXV?$basic_string@DU?$char_traits@D@std@@V?$allocator@D@2@@std@@@Z 10022520 f   ResourceAPI.obj
 0001:000215e0       ?EnumResourceAttrib@@YA_NPAXAAV?$list@Usv_pair@@V?$allocator@Usv_pair@@@std@@@std@@@Z 100225e0 f   ResourceAPI.obj
 0001:00021650       ?DeleteResource@@YA_NV?$basic_string@DU?$char_traits@D@std@@V?$allocator@D@2@@std@@0@Z 10022650 f   ResourceAPI.obj
 0001:00021810       ?SubmitResource@@YA_NPAXV?$basic_string@DU?$char_traits@D@std@@V?$allocator@D@2@@std@@@Z 10022810 f   ResourceAPI.obj
 0001:00021a50       ?GetAllResourceInfo@@YA_NAAV?$list@Usv_pair@@V?$allocator@Usv_pair@@@std@@@std@@V?$basic_string@DU?$char_traits@D@std@@V?$allocator@D@2@@2@@Z 10022a50 f   ResourceAPI.obj
 0001:00021c20       ?CloseResource@@YA_NAAPAX@Z 10022c20 f   ResourceAPI.obj
 0001:00021ca0       ?PutData@CommonData@@QAE_NPBXIH@Z 10022ca0 f i Section.obj
 0001:00021d40       ?GetRawDataSize@CommonData@@UAEIXZ 10022d40 f   Section.obj
 0001:00021d50       ?GetRawData@CommonData@@UAEPADPADI@Z 10022d50 f   Section.obj
 0001:00021db0       ?CreateObjectByRawData@CommonData@@UAEHPBDI@Z 10022db0 f   Section.obj
 0001:00021e70       ??0?$hashelement@Vword@svutil@@PAVCommonData@@@svutil@@QAE@ABVword@1@@Z 10022e70 f i Section.obj
 0001:00021ed0       ??0?$hashelement@Vword@svutil@@PAVCommonData@@@svutil@@QAE@ABVword@1@ABQAVCommonData@@@Z 10022ed0 f i Section.obj
 0001:00021f40       ??1?$treenode@V?$hashelement@Vword@svutil@@PAVCommonData@@@svutil@@@svutil@@UAE@XZ 10022f40 f i Section.obj
 0001:00021f60       ??_E?$treenode@V?$hashelement@Vword@svutil@@PAVCommonData@@@svutil@@@svutil@@UAEPAXI@Z 10022f60 f i Section.obj
 0001:00021f60       ??_G?$treenode@V?$hashelement@Vword@svutil@@PAVCommonData@@@svutil@@@svutil@@UAEPAXI@Z 10022f60 f i Section.obj
 0001:00021f80       ?_Xlen@?$vector@PAV?$hashnode@Vword@svutil@@PAVCommonData@@@svutil@@V?$allocator@PAV?$hashnode@Vword@svutil@@PAVCommonData@@@svutil@@@std@@@std@@IBEXXZ 10022f80 f i Section.obj
 0001:00022000       ??M?$treenode@V?$hashelement@Vword@svutil@@PAVCommonData@@@svutil@@@svutil@@QAE_NV01@@Z 10023000 f i Section.obj
 0001:00022070       ??O?$treenode@V?$hashelement@Vword@svutil@@PAVCommonData@@@svutil@@@svutil@@QAE_NV01@@Z 10023070 f i Section.obj
 0001:000220e0       ??0?$treenode@V?$hashelement@Vword@svutil@@PAVCommonData@@@svutil@@@svutil@@QAE@ABV01@@Z 100230e0 f i Section.obj
 0001:00022160       ?CountNodes@?$sorttree@V?$hashelement@Vword@svutil@@PAVCommonData@@@svutil@@@svutil@@AAEXPAV?$treenode@V?$hashelement@Vword@svutil@@PAVCommonData@@@svutil@@@2@AAK@Z 10023160 f i Section.obj
 0001:00022190       ??0?$treenode@V?$hashelement@Vword@svutil@@PAVCommonData@@@svutil@@@svutil@@QAE@ABV?$hashelement@Vword@svutil@@PAVCommonData@@@1@@Z 10023190 f i Section.obj
 0001:00022210       ?DeleteTree@?$sorttree@V?$hashelement@Vword@svutil@@PAVCommonData@@@svutil@@@svutil@@QAEXPAV?$treenode@V?$hashelement@Vword@svutil@@PAVCommonData@@@svutil@@@2@@Z 10023210 f i Section.obj
 0001:00022260       ?InsertNode@?$sorttree@V?$hashelement@Vword@svutil@@PAVCommonData@@@svutil@@@svutil@@QAEXPAV?$treenode@V?$hashelement@Vword@svutil@@PAVCommonData@@@svutil@@@2@0@Z 10023260 f i Section.obj
 0001:000222f0       ?findnextnode@?$sorttree@V?$hashelement@Vword@svutil@@PAVCommonData@@@svutil@@@svutil@@ABEPAV?$treenode@V?$hashelement@Vword@svutil@@PAVCommonData@@@svutil@@@2@AAV?$hashelement@Vword@svutil@@PAVCommonData@@@2@AA_NPAV32@@Z 100232f0 f i Section.obj
 0001:00022360       ??$CreateNode@V?$hashelement@Vword@svutil@@PAVCommonData@@@svutil@@@?$sorttree@V?$hashelement@Vword@svutil@@PAVCommonData@@@svutil@@@svutil@@SAPAV?$treenode@V?$hashelement@Vword@svutil@@PAVCommonData@@@svutil@@@1@ABV?$hashelement@Vword@svutil@@PAVCommonData@@@1@@Z 10023360 f i Section.obj
 0001:000223c0       ??_G?$sorttree@V?$hashelement@Vword@svutil@@PAVCommonData@@@svutil@@@svutil@@UAEPAXI@Z 100233c0 f i Section.obj
 0001:000223c0       ??_E?$sorttree@V?$hashelement@Vword@svutil@@PAVCommonData@@@svutil@@@svutil@@UAEPAXI@Z 100233c0 f i Section.obj
 0001:00022420       ?find@?$hashnode@Vword@svutil@@PAVCommonData@@@svutil@@QAE_NABVword@2@PAPAV?$hashelement@Vword@svutil@@PAVCommonData@@@2@@Z 10023420 f i Section.obj
 0001:000224f0       ?InsertNodeEx@?$sorttree@V?$hashelement@Vword@svutil@@PAVCommonData@@@svutil@@@svutil@@QAEAAV?$hashelement@Vword@svutil@@PAVCommonData@@@2@ABV32@@Z 100234f0 f i Section.obj
 0001:00022580       ??1?$hashnode@Vword@svutil@@PAVCommonData@@@svutil@@QAE@XZ 10023580 f i Section.obj
 0001:00022610       ?insert@?$hashnode@Vword@svutil@@PAVCommonData@@@svutil@@QAEAAV?$hashelement@Vword@svutil@@PAVCommonData@@@2@ABVword@2@ABQAVCommonData@@@Z 10023610 f i Section.obj
 0001:000226f0       ?find@?$hashnode@Vword@svutil@@PAVCommonData@@@svutil@@QAE_NABVword@2@PAPAPAVCommonData@@@Z 100236f0 f i Section.obj
 0001:00022750       ?find@?$hashtable@Vword@svutil@@PAVCommonData@@@svutil@@QAEPAPAVCommonData@@ABVword@2@@Z 10023750 f i Section.obj
 0001:000227c0       ?clearnodes@?$hashtable@Vword@svutil@@PAVCommonData@@@svutil@@IAEXXZ 100237c0 f i Section.obj
 0001:00022830       ?findnext@?$hashnode@Vword@svutil@@PAVCommonData@@@svutil@@QAE_NAAV?$hashelement@Vword@svutil@@PAVCommonData@@@2@PAPAV32@@Z 10023830 f i Section.obj
 0001:000228e0       ?_Insert_n@?$vector@PAV?$hashnode@Vword@svutil@@PAVCommonData@@@svutil@@V?$allocator@PAV?$hashnode@Vword@svutil@@PAVCommonData@@@svutil@@@std@@@std@@IAEXViterator@12@IABQAV?$hashnode@Vword@svutil@@PAVCommonData@@@svutil@@@Z 100238e0 f i Section.obj
 0001:00022ad0       ?GetRawDataSize@Section@@UAEIXZ 10023ad0 f   Section.obj
 0001:00022b40       ?GetRawData@Section@@UAEPADPADI@Z 10023b40 f   Section.obj
 0001:00022c50       ??1?$hashtable@Vword@svutil@@PAVCommonData@@@svutil@@QAE@XZ 10023c50 f i Section.obj
 0001:00022cb0       ?findnext@?$hashtable@Vword@svutil@@PAVCommonData@@@svutil@@QAE_NAAViterator@12@@Z 10023cb0 f i Section.obj
 0001:00022d50       ?resize@?$vector@PAV?$hashnode@Vword@svutil@@PAVCommonData@@@svutil@@V?$allocator@PAV?$hashnode@Vword@svutil@@PAVCommonData@@@svutil@@@std@@@std@@QAEXIPAV?$hashnode@Vword@svutil@@PAVCommonData@@@svutil@@@Z 10023d50 f i Section.obj
 0001:00022de0       ??1Section@@QAE@XZ         10023de0 f   Section.obj
 0001:00022ee0       ??0?$hashtable@Vword@svutil@@PAVCommonData@@@svutil@@QAE@XZ 10023ee0 f i Section.obj
 0001:00022f30       ?insert@?$hashtable@Vword@svutil@@PAVCommonData@@@svutil@@QAEAAPAVCommonData@@ABVword@2@ABQAV3@@Z 10023f30 f i Section.obj
 0001:00023020       ??0Section@@QAE@XZ         10024020 f   Section.obj
 0001:000230c0       ?CreateObjectByRawData@Section@@UAEHPBDI@Z 100240c0 f   Section.obj
 0001:000232d0       ?_Lrotate@?$_Tree@V?$_Tmap_traits@V?$basic_string@DU?$char_traits@D@std@@V?$allocator@D@2@@std@@PAXU?$less@V?$basic_string@DU?$char_traits@D@std@@V?$allocator@D@2@@std@@@2@V?$allocator@U?$pair@$$CBV?$basic_string@DU?$char_traits@D@std@@V?$allocator@D@2@@std@@PAX@std@@@2@$0A@@std@@@std@@IAEXPAU_Node@?$_Tree_nod@V?$_Tmap_traits@V?$basic_string@DU?$char_traits@D@std@@V?$allocator@D@2@@std@@PAXU?$less@V?$basic_string@DU?$char_traits@D@std@@V?$allocator@D@2@@std@@@2@V?$allocator@U?$pair@$$CBV?$basic_string@DU?$char_traits@D@std@@V?$allocator@D@2@@std@@PAX@std@@@2@$0A@@std@@@2@@Z 100242d0 f i ObjCache.obj
 0001:000232d0       ?_Lrotate@?$_Tree@V?$_Tmap_traits@V?$basic_string@DU?$char_traits@D@std@@V?$allocator@D@2@@std@@KU?$less@V?$basic_string@DU?$char_traits@D@std@@V?$allocator@D@2@@std@@@2@V?$allocator@U?$pair@$$CBV?$basic_string@DU?$char_traits@D@std@@V?$allocator@D@2@@std@@K@std@@@2@$0A@@std@@@std@@IAEXPAU_Node@?$_Tree_nod@V?$_Tmap_traits@V?$basic_string@DU?$char_traits@D@std@@V?$allocator@D@2@@std@@KU?$less@V?$basic_string@DU?$char_traits@D@std@@V?$allocator@D@2@@std@@@2@V?$allocator@U?$pair@$$CBV?$basic_string@DU?$char_traits@D@std@@V?$allocator@D@2@@std@@K@std@@@2@$0A@@std@@@2@@Z 100242d0 f i ShareMemFile.obj
 0001:00023330       ?_Rrotate@?$_Tree@V?$_Tmap_traits@V?$basic_string@DU?$char_traits@D@std@@V?$allocator@D@2@@std@@KU?$less@V?$basic_string@DU?$char_traits@D@std@@V?$allocator@D@2@@std@@@2@V?$allocator@U?$pair@$$CBV?$basic_string@DU?$char_traits@D@std@@V?$allocator@D@2@@std@@K@std@@@2@$0A@@std@@@std@@IAEXPAU_Node@?$_Tree_nod@V?$_Tmap_traits@V?$basic_string@DU?$char_traits@D@std@@V?$allocator@D@2@@std@@KU?$less@V?$basic_string@DU?$char_traits@D@std@@V?$allocator@D@2@@std@@@2@V?$allocator@U?$pair@$$CBV?$basic_string@DU?$char_traits@D@std@@V?$allocator@D@2@@std@@K@std@@@2@$0A@@std@@@2@@Z 10024330 f i ShareMemFile.obj
 0001:00023330       ?_Rrotate@?$_Tree@V?$_Tmap_traits@V?$basic_string@DU?$char_traits@D@std@@V?$allocator@D@2@@std@@PAXU?$less@V?$basic_string@DU?$char_traits@D@std@@V?$allocator@D@2@@std@@@2@V?$allocator@U?$pair@$$CBV?$basic_string@DU?$char_traits@D@std@@V?$allocator@D@2@@std@@PAX@std@@@2@$0A@@std@@@std@@IAEXPAU_Node@?$_Tree_nod@V?$_Tmap_traits@V?$basic_string@DU?$char_traits@D@std@@V?$allocator@D@2@@std@@PAXU?$less@V?$basic_string@DU?$char_traits@D@std@@V?$allocator@D@2@@std@@@2@V?$allocator@U?$pair@$$CBV?$basic_string@DU?$char_traits@D@std@@V?$allocator@D@2@@std@@PAX@std@@@2@$0A@@std@@@2@@Z 10024330 f i ObjCache.obj
 0001:00023390       ?_Inc@const_iterator@?$_Tree@V?$_Tmap_traits@V?$basic_string@DU?$char_traits@D@std@@V?$allocator@D@2@@std@@PAXU?$less@V?$basic_string@DU?$char_traits@D@std@@V?$allocator@D@2@@std@@@2@V?$allocator@U?$pair@$$CBV?$basic_string@DU?$char_traits@D@std@@V?$allocator@D@2@@std@@PAX@std@@@2@$0A@@std@@@std@@QAEXXZ 10024390 f i ObjCache.obj
 0001:00023390       ?_Inc@const_iterator@?$_Tree@V?$_Tmap_traits@V?$basic_string@DU?$char_traits@D@std@@V?$allocator@D@2@@std@@KU?$less@V?$basic_string@DU?$char_traits@D@std@@V?$allocator@D@2@@std@@@2@V?$allocator@U?$pair@$$CBV?$basic_string@DU?$char_traits@D@std@@V?$allocator@D@2@@std@@K@std@@@2@$0A@@std@@@std@@QAEXXZ 10024390 f i ShareMemFile.obj
 0001:000233f0       ?erase@?$_Tree@V?$_Tmap_traits@V?$basic_string@DU?$char_traits@D@std@@V?$allocator@D@2@@std@@KU?$less@V?$basic_string@DU?$char_traits@D@std@@V?$allocator@D@2@@std@@@2@V?$allocator@U?$pair@$$CBV?$basic_string@DU?$char_traits@D@std@@V?$allocator@D@2@@std@@K@std@@@2@$0A@@std@@@std@@QAE?AViterator@12@V312@@Z 100243f0 f i ShareMemFile.obj
 0001:000236d0       ?_Erase@?$_Tree@V?$_Tmap_traits@V?$basic_string@DU?$char_traits@D@std@@V?$allocator@D@2@@std@@KU?$less@V?$basic_string@DU?$char_traits@D@std@@V?$allocator@D@2@@std@@@2@V?$allocator@U?$pair@$$CBV?$basic_string@DU?$char_traits@D@std@@V?$allocator@D@2@@std@@K@std@@@2@$0A@@std@@@std@@IAEXPAU_Node@?$_Tree_nod@V?$_Tmap_traits@V?$basic_string@DU?$char_traits@D@std@@V?$allocator@D@2@@std@@KU?$less@V?$basic_string@DU?$char_traits@D@std@@V?$allocator@D@2@@std@@@2@V?$allocator@U?$pair@$$CBV?$basic_string@DU?$char_traits@D@std@@V?$allocator@D@2@@std@@K@std@@@2@$0A@@std@@@2@@Z 100246d0 f i ShareMemFile.obj
 0001:00023710       ?erase@?$_Tree@V?$_Tmap_traits@V?$basic_string@DU?$char_traits@D@std@@V?$allocator@D@2@@std@@KU?$less@V?$basic_string@DU?$char_traits@D@std@@V?$allocator@D@2@@std@@@2@V?$allocator@U?$pair@$$CBV?$basic_string@DU?$char_traits@D@std@@V?$allocator@D@2@@std@@K@std@@@2@$0A@@std@@@std@@QAE?AViterator@12@V312@0@Z 10024710 f i ShareMemFile.obj
 0001:000237d0       ??1?$map@V?$basic_string@DU?$char_traits@D@std@@V?$allocator@D@2@@std@@KU?$less@V?$basic_string@DU?$char_traits@D@std@@V?$allocator@D@2@@std@@@2@V?$allocator@U?$pair@$$CBV?$basic_string@DU?$char_traits@D@std@@V?$allocator@D@2@@std@@K@std@@@2@@std@@QAE@XZ 100247d0 f i ShareMemFile.obj
 0001:00023800       ??RStlIniCompareStringNoCase@@QBE_NABV?$basic_string@DU?$char_traits@D@std@@V?$allocator@D@2@@std@@0@Z 10024800 f i stlini.obj
 0001:00023850       ?_Lbound@?$_Tree@V?$_Tmap_traits@V?$basic_string@DU?$char_traits@D@std@@V?$allocator@D@2@@std@@V?$map@V?$basic_string@DU?$char_traits@D@std@@V?$allocator@D@2@@std@@V12@UStlIniCompareStringNoCase@@V?$allocator@U?$pair@$$CBV?$basic_string@DU?$char_traits@D@std@@V?$allocator@D@2@@std@@V12@@std@@@2@@2@UStlIniCompareStringNoCase@@V?$allocator@U?$pair@$$CBV?$basic_string@DU?$char_traits@D@std@@V?$allocator@D@2@@std@@V?$map@V?$basic_string@DU?$char_traits@D@std@@V?$allocator@D@2@@std@@V12@UStlIniCompareStringNoCase@@V?$allocator@U?$pair@$$CBV?$basic_string@DU?$char_traits@D@std@@V?$allocator@D@2@@std@@V12@@std@@@2@@2@@std@@@2@$0A@@std@@@std@@IBEPAU_Node@?$_Tree_nod@V?$_Tmap_traits@V?$basic_string@DU?$char_traits@D@std@@V?$allocator@D@2@@std@@V?$map@V?$basic_string@DU?$char_traits@D@std@@V?$allocator@D@2@@std@@V12@UStlIniCompareStringNoCase@@V?$allocator@U?$pair@$$CBV?$basic_string@DU?$char_traits@D@std@@V?$allocator@D@2@@std@@V12@@std@@@2@@2@UStlIniCompareStringNoCase@@V?$allocator@U?$pair@$$CBV?$basic_string@DU?$char_traits@D@std@@V?$allocator@D@2@@std@@V?$map@V?$basic_string@DU?$char_traits@D@std@@V?$allocator@D@2@@std@@V12@UStlIniCompareStringNoCase@@V?$allocator@U?$pair@$$CBV?$basic_string@DU?$char_traits@D@std@@V?$allocator@D@2@@std@@V12@@std@@@2@@2@@std@@@2@$0A@@std@@@2@ABV?$basic_string@DU?$char_traits@D@std@@V?$allocator@D@2@@2@@Z 10024850 f i stlini.obj
 0001:000238c0       ?_Lbound@?$_Tree@V?$_Tmap_traits@V?$basic_string@DU?$char_traits@D@std@@V?$allocator@D@2@@std@@V12@UStlIniCompareStringNoCase@@V?$allocator@U?$pair@$$CBV?$basic_string@DU?$char_traits@D@std@@V?$allocator@D@2@@std@@V12@@std@@@2@$0A@@std@@@std@@IBEPAU_Node@?$_Tree_nod@V?$_Tmap_traits@V?$basic_string@DU?$char_traits@D@std@@V?$allocator@D@2@@std@@V12@UStlIniCompareStringNoCase@@V?$allocator@U?$pair@$$CBV?$basic_string@DU?$char_traits@D@std@@V?$allocator@D@2@@std@@V12@@std@@@2@$0A@@std@@@2@ABV?$basic_string@DU?$char_traits@D@std@@V?$allocator@D@2@@2@@Z 100248c0 f i stlini.obj
 0001:00023930       ?_Buynode@?$_Tree@V?$_Tmap_traits@V?$basic_string@DU?$char_traits@D@std@@V?$allocator@D@2@@std@@V12@UStlIniCompareStringNoCase@@V?$allocator@U?$pair@$$CBV?$basic_string@DU?$char_traits@D@std@@V?$allocator@D@2@@std@@V12@@std@@@2@$0A@@std@@@std@@IAEPAU_Node@?$_Tree_nod@V?$_Tmap_traits@V?$basic_string@DU?$char_traits@D@std@@V?$allocator@D@2@@std@@V12@UStlIniCompareStringNoCase@@V?$allocator@U?$pair@$$CBV?$basic_string@DU?$char_traits@D@std@@V?$allocator@D@2@@std@@V12@@std@@@2@$0A@@std@@@2@PAU342@00ABU?$pair@$$CBV?$basic_string@DU?$char_traits@D@std@@V?$allocator@D@2@@std@@V12@@2@D@Z 10024930 f i stlini.obj
 0001:000239d0       ?find@?$_Tree@V?$_Tmap_traits@V?$basic_string@DU?$char_traits@D@std@@V?$allocator@D@2@@std@@V12@UStlIniCompareStringNoCase@@V?$allocator@U?$pair@$$CBV?$basic_string@DU?$char_traits@D@std@@V?$allocator@D@2@@std@@V12@@std@@@2@$0A@@std@@@std@@QAE?AViterator@12@ABV?$basic_string@DU?$char_traits@D@std@@V?$allocator@D@2@@2@@Z 100249d0 f i stlini.obj
 0001:00023a30       ?_Insert@?$_Tree@V?$_Tmap_traits@V?$basic_string@DU?$char_traits@D@std@@V?$allocator@D@2@@std@@V12@UStlIniCompareStringNoCase@@V?$allocator@U?$pair@$$CBV?$basic_string@DU?$char_traits@D@std@@V?$allocator@D@2@@std@@V12@@std@@@2@$0A@@std@@@std@@IAE?AViterator@12@_NPAU_Node@?$_Tree_nod@V?$_Tmap_traits@V?$basic_string@DU?$char_traits@D@std@@V?$allocator@D@2@@std@@V12@UStlIniCompareStringNoCase@@V?$allocator@U?$pair@$$CBV?$basic_string@DU?$char_traits@D@std@@V?$allocator@D@2@@std@@V12@@std@@@2@$0A@@std@@@2@ABU?$pair@$$CBV?$basic_string@DU?$char_traits@D@std@@V?$allocator@D@2@@std@@V12@@2@@Z 10024a30 f i stlini.obj
 0001:00023bf0       ?GetIniSetting@@YA?AV?$basic_string@DU?$char_traits@D@std@@V?$allocator@D@2@@std@@AAV?$map@V?$basic_string@DU?$char_traits@D@std@@V?$allocator@D@2@@std@@V?$map@V?$basic_string@DU?$char_traits@D@std@@V?$allocator@D@2@@std@@V12@UStlIniCompareStringNoCase@@V?$allocator@U?$pair@$$CBV?$basic_string@DU?$char_traits@D@std@@V?$allocator@D@2@@std@@V12@@std@@@2@@2@UStlIniCompareStringNoCase@@V?$allocator@U?$pair@$$CBV?$basic_string@DU?$char_traits@D@std@@V?$allocator@D@2@@std@@V?$map@V?$basic_string@DU?$char_traits@D@std@@V?$allocator@D@2@@std@@V12@UStlIniCompareStringNoCase@@V?$allocator@U?$pair@$$CBV?$basic_string@DU?$char_traits@D@std@@V?$allocator@D@2@@std@@V12@@std@@@2@@2@@std@@@2@@2@PBD11@Z 10024bf0 f   stlini.obj
 0001:00023d20       ?SaveIni@@YAXAAV?$map@V?$basic_string@DU?$char_traits@D@std@@V?$allocator@D@2@@std@@V?$map@V?$basic_string@DU?$char_traits@D@std@@V?$allocator@D@2@@std@@V12@UStlIniCompareStringNoCase@@V?$allocator@U?$pair@$$CBV?$basic_string@DU?$char_traits@D@std@@V?$allocator@D@2@@std@@V12@@std@@@2@@2@UStlIniCompareStringNoCase@@V?$allocator@U?$pair@$$CBV?$basic_string@DU?$char_traits@D@std@@V?$allocator@D@2@@std@@V?$map@V?$basic_string@DU?$char_traits@D@std@@V?$allocator@D@2@@std@@V12@UStlIniCompareStringNoCase@@V?$allocator@U?$pair@$$CBV?$basic_string@DU?$char_traits@D@std@@V?$allocator@D@2@@std@@V12@@std@@@2@@2@@std@@@2@@std@@PBD@Z 10024d20 f   stlini.obj
 0001:00023f20       ?insert@?$_Tree@V?$_Tmap_traits@V?$basic_string@DU?$char_traits@D@std@@V?$allocator@D@2@@std@@V12@UStlIniCompareStringNoCase@@V?$allocator@U?$pair@$$CBV?$basic_string@DU?$char_traits@D@std@@V?$allocator@D@2@@std@@V12@@std@@@2@$0A@@std@@@std@@QAE?AU?$pair@Viterator@?$_Tree@V?$_Tmap_traits@V?$basic_string@DU?$char_traits@D@std@@V?$allocator@D@2@@std@@V12@UStlIniCompareStringNoCase@@V?$allocator@U?$pair@$$CBV?$basic_string@DU?$char_traits@D@std@@V?$allocator@D@2@@std@@V12@@std@@@2@$0A@@std@@@std@@_N@2@ABU?$pair@$$CBV?$basic_string@DU?$char_traits@D@std@@V?$allocator@D@2@@std@@V12@@2@@Z 10024f20 f i stlini.obj
 0001:00024010       ?_Copy@?$_Tree@V?$_Tmap_traits@V?$basic_string@DU?$char_traits@D@std@@V?$allocator@D@2@@std@@V12@UStlIniCompareStringNoCase@@V?$allocator@U?$pair@$$CBV?$basic_string@DU?$char_traits@D@std@@V?$allocator@D@2@@std@@V12@@std@@@2@$0A@@std@@@std@@IAEPAU_Node@?$_Tree_nod@V?$_Tmap_traits@V?$basic_string@DU?$char_traits@D@std@@V?$allocator@D@2@@std@@V12@UStlIniCompareStringNoCase@@V?$allocator@U?$pair@$$CBV?$basic_string@DU?$char_traits@D@std@@V?$allocator@D@2@@std@@V12@@std@@@2@$0A@@std@@@2@PAU342@0@Z 10025010 f i stlini.obj
 0001:000240c0       ?_Copy@?$_Tree@V?$_Tmap_traits@V?$basic_string@DU?$char_traits@D@std@@V?$allocator@D@2@@std@@V12@UStlIniCompareStringNoCase@@V?$allocator@U?$pair@$$CBV?$basic_string@DU?$char_traits@D@std@@V?$allocator@D@2@@std@@V12@@std@@@2@$0A@@std@@@std@@IAEXABV12@@Z 100250c0 f i stlini.obj
 0001:00024150       ??0?$_Tree@V?$_Tmap_traits@V?$basic_string@DU?$char_traits@D@std@@V?$allocator@D@2@@std@@V12@UStlIniCompareStringNoCase@@V?$allocator@U?$pair@$$CBV?$basic_string@DU?$char_traits@D@std@@V?$allocator@D@2@@std@@V12@@std@@@2@$0A@@std@@@std@@QAE@ABV01@@Z 10025150 f i stlini.obj
 0001:000241e0       ??1?$pair@V?$basic_string@DU?$char_traits@D@std@@V?$allocator@D@2@@std@@V?$map@V?$basic_string@DU?$char_traits@D@std@@V?$allocator@D@2@@std@@V12@UStlIniCompareStringNoCase@@V?$allocator@U?$pair@$$CBV?$basic_string@DU?$char_traits@D@std@@V?$allocator@D@2@@std@@V12@@std@@@2@@2@@std@@QAE@XZ 100251e0 f i stlini.obj
 0001:00024260       ??$?0V?$basic_string@DU?$char_traits@D@std@@V?$allocator@D@2@@std@@V?$map@V?$basic_string@DU?$char_traits@D@std@@V?$allocator@D@2@@std@@V12@UStlIniCompareStringNoCase@@V?$allocator@U?$pair@$$CBV?$basic_string@DU?$char_traits@D@std@@V?$allocator@D@2@@std@@V12@@std@@@2@@1@@?$pair@$$CBV?$basic_string@DU?$char_traits@D@std@@V?$allocator@D@2@@std@@V?$map@V?$basic_string@DU?$char_traits@D@std@@V?$allocator@D@2@@std@@V12@UStlIniCompareStringNoCase@@V?$allocator@U?$pair@$$CBV?$basic_string@DU?$char_traits@D@std@@V?$allocator@D@2@@std@@V12@@std@@@2@@2@@std@@QAE@ABU?$pair@V?$basic_string@DU?$char_traits@D@std@@V?$allocator@D@2@@std@@V?$map@V?$basic_string@DU?$char_traits@D@std@@V?$allocator@D@2@@std@@V12@UStlIniCompareStringNoCase@@V?$allocator@U?$pair@$$CBV?$basic_string@DU?$char_traits@D@std@@V?$allocator@D@2@@std@@V12@@std@@@2@@2@@1@@Z 10025260 f i stlini.obj
 0001:00024260       ??0?$pair@$$CBV?$basic_string@DU?$char_traits@D@std@@V?$allocator@D@2@@std@@V?$map@V?$basic_string@DU?$char_traits@D@std@@V?$allocator@D@2@@std@@V12@UStlIniCompareStringNoCase@@V?$allocator@U?$pair@$$CBV?$basic_string@DU?$char_traits@D@std@@V?$allocator@D@2@@std@@V12@@std@@@2@@2@@std@@QAE@ABU01@@Z 10025260 f i stlini.obj
 0001:000242c0       ??0?$pair@V?$basic_string@DU?$char_traits@D@std@@V?$allocator@D@2@@std@@V?$map@V?$basic_string@DU?$char_traits@D@std@@V?$allocator@D@2@@std@@V12@UStlIniCompareStringNoCase@@V?$allocator@U?$pair@$$CBV?$basic_string@DU?$char_traits@D@std@@V?$allocator@D@2@@std@@V12@@std@@@2@@2@@std@@QAE@ABV?$basic_string@DU?$char_traits@D@std@@V?$allocator@D@2@@1@ABV?$map@V?$basic_string@DU?$char_traits@D@std@@V?$allocator@D@2@@std@@V12@UStlIniCompareStringNoCase@@V?$allocator@U?$pair@$$CBV?$basic_string@DU?$char_traits@D@std@@V?$allocator@D@2@@std@@V12@@std@@@2@@1@@Z 100252c0 f i stlini.obj
 0001:00024320       ?_Buynode@?$_Tree@V?$_Tmap_traits@V?$basic_string@DU?$char_traits@D@std@@V?$allocator@D@2@@std@@V?$map@V?$basic_string@DU?$char_traits@D@std@@V?$allocator@D@2@@std@@V12@UStlIniCompareStringNoCase@@V?$allocator@U?$pair@$$CBV?$basic_string@DU?$char_traits@D@std@@V?$allocator@D@2@@std@@V12@@std@@@2@@2@UStlIniCompareStringNoCase@@V?$allocator@U?$pair@$$CBV?$basic_string@DU?$char_traits@D@std@@V?$allocator@D@2@@std@@V?$map@V?$basic_string@DU?$char_traits@D@std@@V?$allocator@D@2@@std@@V12@UStlIniCompareStringNoCase@@V?$allocator@U?$pair@$$CBV?$basic_string@DU?$char_traits@D@std@@V?$allocator@D@2@@std@@V12@@std@@@2@@2@@std@@@2@$0A@@std@@@std@@IAEPAU_Node@?$_Tree_nod@V?$_Tmap_traits@V?$basic_string@DU?$char_traits@D@std@@V?$allocator@D@2@@std@@V?$map@V?$basic_string@DU?$char_traits@D@std@@V?$allocator@D@2@@std@@V12@UStlIniCompareStringNoCase@@V?$allocator@U?$pair@$$CBV?$basic_string@DU?$char_traits@D@std@@V?$allocator@D@2@@std@@V12@@std@@@2@@2@UStlIniCompareStringNoCase@@V?$allocator@U?$pair@$$CBV?$basic_string@DU?$char_traits@D@std@@V?$allocator@D@2@@std@@V?$map@V?$basic_string@DU?$char_traits@D@std@@V?$allocator@D@2@@std@@V12@UStlIniCompareStringNoCase@@V?$allocator@U?$pair@$$CBV?$basic_string@DU?$char_traits@D@std@@V?$allocator@D@2@@std@@V12@@std@@@2@@2@@std@@@2@$0A@@std@@@2@PAU342@00ABU?$pair@$$CBV?$basic_string@DU?$char_traits@D@std@@V?$allocator@D@2@@std@@V?$map@V?$basic_string@DU?$char_traits@D@std@@V?$allocator@D@2@@std@@V12@UStlIniCompareStringNoCase@@V?$allocator@U?$pair@$$CBV?$basic_string@DU?$char_traits@D@std@@V?$allocator@D@2@@std@@V12@@std@@@2@@2@@2@D@Z 10025320 f i stlini.obj
 0001:000243c0       ?_Insert@?$_Tree@V?$_Tmap_traits@V?$basic_string@DU?$char_traits@D@std@@V?$allocator@D@2@@std@@V?$map@V?$basic_string@DU?$char_traits@D@std@@V?$allocator@D@2@@std@@V12@UStlIniCompareStringNoCase@@V?$allocator@U?$pair@$$CBV?$basic_string@DU?$char_traits@D@std@@V?$allocator@D@2@@std@@V12@@std@@@2@@2@UStlIniCompareStringNoCase@@V?$allocator@U?$pair@$$CBV?$basic_string@DU?$char_traits@D@std@@V?$allocator@D@2@@std@@V?$map@V?$basic_string@DU?$char_traits@D@std@@V?$allocator@D@2@@std@@V12@UStlIniCompareStringNoCase@@V?$allocator@U?$pair@$$CBV?$basic_string@DU?$char_traits@D@std@@V?$allocator@D@2@@std@@V12@@std@@@2@@2@@std@@@2@$0A@@std@@@std@@IAE?AViterator@12@_NPAU_Node@?$_Tree_nod@V?$_Tmap_traits@V?$basic_string@DU?$char_traits@D@std@@V?$allocator@D@2@@std@@V?$map@V?$basic_string@DU?$char_traits@D@std@@V?$allocator@D@2@@std@@V12@UStlIniCompareStringNoCase@@V?$allocator@U?$pair@$$CBV?$basic_string@DU?$char_traits@D@std@@V?$allocator@D@2@@std@@V12@@std@@@2@@2@UStlIniCompareStringNoCase@@V?$allocator@U?$pair@$$CBV?$basic_string@DU?$char_traits@D@std@@V?$allocator@D@2@@std@@V?$map@V?$basic_string@DU?$char_traits@D@std@@V?$allocator@D@2@@std@@V12@UStlIniCompareStringNoCase@@V?$allocator@U?$pair@$$CBV?$basic_string@DU?$char_traits@D@std@@V?$allocator@D@2@@std@@V12@@std@@@2@@2@@std@@@2@$0A@@std@@@2@ABU?$pair@$$CBV?$basic_string@DU?$char_traits@D@std@@V?$allocator@D@2@@std@@V?$map@V?$basic_string@DU?$char_traits@D@std@@V?$allocator@D@2@@std@@V12@UStlIniCompareStringNoCase@@V?$allocator@U?$pair@$$CBV?$basic_string@DU?$char_traits@D@std@@V?$allocator@D@2@@std@@V12@@std@@@2@@2@@2@@Z 100253c0 f i stlini.obj
 0001:00024580       ?insert@?$_Tree@V?$_Tmap_traits@V?$basic_string@DU?$char_traits@D@std@@V?$allocator@D@2@@std@@V?$map@V?$basic_string@DU?$char_traits@D@std@@V?$allocator@D@2@@std@@V12@UStlIniCompareStringNoCase@@V?$allocator@U?$pair@$$CBV?$basic_string@DU?$char_traits@D@std@@V?$allocator@D@2@@std@@V12@@std@@@2@@2@UStlIniCompareStringNoCase@@V?$allocator@U?$pair@$$CBV?$basic_string@DU?$char_traits@D@std@@V?$allocator@D@2@@std@@V?$map@V?$basic_string@DU?$char_traits@D@std@@V?$allocator@D@2@@std@@V12@UStlIniCompareStringNoCase@@V?$allocator@U?$pair@$$CBV?$basic_string@DU?$char_traits@D@std@@V?$allocator@D@2@@std@@V12@@std@@@2@@2@@std@@@2@$0A@@std@@@std@@QAE?AU?$pair@Viterator@?$_Tree@V?$_Tmap_traits@V?$basic_string@DU?$char_traits@D@std@@V?$allocator@D@2@@std@@V?$map@V?$basic_string@DU?$char_traits@D@std@@V?$allocator@D@2@@std@@V12@UStlIniCompareStringNoCase@@V?$allocator@U?$pair@$$CBV?$basic_string@DU?$char_traits@D@std@@V?$allocator@D@2@@std@@V12@@std@@@2@@2@UStlIniCompareStringNoCase@@V?$allocator@U?$pair@$$CBV?$basic_string@DU?$char_traits@D@std@@V?$allocator@D@2@@std@@V?$map@V?$basic_string@DU?$char_traits@D@std@@V?$allocator@D@2@@std@@V12@UStlIniCompareStringNoCase@@V?$allocator@U?$pair@$$CBV?$basic_string@DU?$char_traits@D@std@@V?$allocator@D@2@@std@@V12@@std@@@2@@2@@std@@@2@$0A@@std@@@std@@_N@2@ABU?$pair@$$CBV?$basic_string@DU?$char_traits@D@std@@V?$allocator@D@2@@std@@V?$map@V?$basic_string@DU?$char_traits@D@std@@V?$allocator@D@2@@std@@V12@UStlIniCompareStringNoCase@@V?$allocator@U?$pair@$$CBV?$basic_string@DU?$char_traits@D@std@@V?$allocator@D@2@@std@@V12@@std@@@2@@2@@2@@Z 10025580 f i stlini.obj
 0001:00024670       ?PutIniSetting@@YAXAAV?$map@V?$basic_string@DU?$char_traits@D@std@@V?$allocator@D@2@@std@@V?$map@V?$basic_string@DU?$char_traits@D@std@@V?$allocator@D@2@@std@@V12@UStlIniCompareStringNoCase@@V?$allocator@U?$pair@$$CBV?$basic_string@DU?$char_traits@D@std@@V?$allocator@D@2@@std@@V12@@std@@@2@@2@UStlIniCompareStringNoCase@@V?$allocator@U?$pair@$$CBV?$basic_string@DU?$char_traits@D@std@@V?$allocator@D@2@@std@@V?$map@V?$basic_string@DU?$char_traits@D@std@@V?$allocator@D@2@@std@@V12@UStlIniCompareStringNoCase@@V?$allocator@U?$pair@$$CBV?$basic_string@DU?$char_traits@D@std@@V?$allocator@D@2@@std@@V12@@std@@@2@@2@@std@@@2@@std@@PBD11@Z 10025670 f   stlini.obj
 0001:000249e0       ?_Copy@?$_Tree@V?$_Tmap_traits@V?$basic_string@DU?$char_traits@D@std@@V?$allocator@D@2@@std@@V?$map@V?$basic_string@DU?$char_traits@D@std@@V?$allocator@D@2@@std@@V12@UStlIniCompareStringNoCase@@V?$allocator@U?$pair@$$CBV?$basic_string@DU?$char_traits@D@std@@V?$allocator@D@2@@std@@V12@@std@@@2@@2@UStlIniCompareStringNoCase@@V?$allocator@U?$pair@$$CBV?$basic_string@DU?$char_traits@D@std@@V?$allocator@D@2@@std@@V?$map@V?$basic_string@DU?$char_traits@D@std@@V?$allocator@D@2@@std@@V12@UStlIniCompareStringNoCase@@V?$allocator@U?$pair@$$CBV?$basic_string@DU?$char_traits@D@std@@V?$allocator@D@2@@std@@V12@@std@@@2@@2@@std@@@2@$0A@@std@@@std@@IAEPAU_Node@?$_Tree_nod@V?$_Tmap_traits@V?$basic_string@DU?$char_traits@D@std@@V?$allocator@D@2@@std@@V?$map@V?$basic_string@DU?$char_traits@D@std@@V?$allocator@D@2@@std@@V12@UStlIniCompareStringNoCase@@V?$allocator@U?$pair@$$CBV?$basic_string@DU?$char_traits@D@std@@V?$allocator@D@2@@std@@V12@@std@@@2@@2@UStlIniCompareStringNoCase@@V?$allocator@U?$pair@$$CBV?$basic_string@DU?$char_traits@D@std@@V?$allocator@D@2@@std@@V?$map@V?$basic_string@DU?$char_traits@D@std@@V?$allocator@D@2@@std@@V12@UStlIniCompareStringNoCase@@V?$allocator@U?$pair@$$CBV?$basic_string@DU?$char_traits@D@std@@V?$allocator@D@2@@std@@V12@@std@@@2@@2@@std@@@2@$0A@@std@@@2@PAU342@0@Z 100259e0 f i stlini.obj
 0001:00024a90       ?_Copy@?$_Tree@V?$_Tmap_traits@V?$basic_string@DU?$char_traits@D@std@@V?$allocator@D@2@@std@@V?$map@V?$basic_string@DU?$char_traits@D@std@@V?$allocator@D@2@@std@@V12@UStlIniCompareStringNoCase@@V?$allocator@U?$pair@$$CBV?$basic_string@DU?$char_traits@D@std@@V?$allocator@D@2@@std@@V12@@std@@@2@@2@UStlIniCompareStringNoCase@@V?$allocator@U?$pair@$$CBV?$basic_string@DU?$char_traits@D@std@@V?$allocator@D@2@@std@@V?$map@V?$basic_string@DU?$char_traits@D@std@@V?$allocator@D@2@@std@@V12@UStlIniCompareStringNoCase@@V?$allocator@U?$pair@$$CBV?$basic_string@DU?$char_traits@D@std@@V?$allocator@D@2@@std@@V12@@std@@@2@@2@@std@@@2@$0A@@std@@@std@@IAEXABV12@@Z 10025a90 f i stlini.obj
 0001:00024b20       ??0?$_Tree@V?$_Tmap_traits@V?$basic_string@DU?$char_traits@D@std@@V?$allocator@D@2@@std@@V?$map@V?$basic_string@DU?$char_traits@D@std@@V?$allocator@D@2@@std@@V12@UStlIniCompareStringNoCase@@V?$allocator@U?$pair@$$CBV?$basic_string@DU?$char_traits@D@std@@V?$allocator@D@2@@std@@V12@@std@@@2@@2@UStlIniCompareStringNoCase@@V?$allocator@U?$pair@$$CBV?$basic_string@DU?$char_traits@D@std@@V?$allocator@D@2@@std@@V?$map@V?$basic_string@DU?$char_traits@D@std@@V?$allocator@D@2@@std@@V12@UStlIniCompareStringNoCase@@V?$allocator@U?$pair@$$CBV?$basic_string@DU?$char_traits@D@std@@V?$allocator@D@2@@std@@V12@@std@@@2@@2@@std@@@2@$0A@@std@@@std@@QAE@ABV01@@Z 10025b20 f i stlini.obj
 0001:00024bb0       ?LoadIni@@YA?AV?$map@V?$basic_string@DU?$char_traits@D@std@@V?$allocator@D@2@@std@@V?$map@V?$basic_string@DU?$char_traits@D@std@@V?$allocator@D@2@@std@@V12@UStlIniCompareStringNoCase@@V?$allocator@U?$pair@$$CBV?$basic_string@DU?$char_traits@D@std@@V?$allocator@D@2@@std@@V12@@std@@@2@@2@UStlIniCompareStringNoCase@@V?$allocator@U?$pair@$$CBV?$basic_string@DU?$char_traits@D@std@@V?$allocator@D@2@@std@@V?$map@V?$basic_string@DU?$char_traits@D@std@@V?$allocator@D@2@@std@@V12@UStlIniCompareStringNoCase@@V?$allocator@U?$pair@$$CBV?$basic_string@DU?$char_traits@D@std@@V?$allocator@D@2@@std@@V12@@std@@@2@@2@@std@@@2@@std@@PBD@Z 10025bb0 f   stlini.obj
 0001:00024e50       ?GetRawDataSize@StringMap@@UAEIXZ 10025e50 f   StringMap.obj
 0001:00024ed0       ?GetRawData@StringMap@@UAEPADPADI@Z 10025ed0 f   StringMap.obj
 0001:00025010       ??0StringMap@@QAE@XZ       10026010 f   StringMap.obj
 0001:00025070       ??1StringMap@@QAE@XZ       10026070 f   StringMap.obj
 0001:00025080       ?CreateObjectByRawData@StringMap@@UAEHPBDI@Z 10026080 f   StringMap.obj
 0001:00025210       _DllMain@12                10026210 f   svapi.obj
 0001:00025220       ?GetErrorDescription@Record@@QAE?AV?$basic_string@DU?$char_traits@D@std@@V?$allocator@D@2@@std@@XZ 10026220 f i svdbapi.obj
 0001:00025260       ?GetDisplayStr@Record@@QAE?AV?$basic_string@DU?$char_traits@D@std@@V?$allocator@D@2@@std@@XZ 10026260 f i svdbapi.obj
 0001:000252a0       ?GetCreateTime@Record@@QAE?AVTTime@svutil@@XZ 100262a0 f i svdbapi.obj
 0001:000252b0       ?BuildDynByData@@YA_NPBDIAAUsv_dyn@@@Z 100262b0 f   svdbapi.obj
 0001:00025320       ?GetSVDYN@@YA_NV?$basic_string@DU?$char_traits@D@std@@V?$allocator@D@2@@std@@AAUsv_dyn@@00@Z 10026320 f   svdbapi.obj
 0001:00025510       ?GetSVDYNNODisplayString@@YA_NV?$basic_string@DU?$char_traits@D@std@@V?$allocator@D@2@@std@@AAUsv_dyn@@00@Z 10026510 f   svdbapi.obj
 0001:00025700       ?QueryRecords@@YAPAXV?$basic_string@DU?$char_traits@D@std@@V?$allocator@D@2@@std@@H00@Z 10026700 f   svdbapi.obj
 0001:000259a0       ?QueryRecordCount@@YA_NV?$basic_string@DU?$char_traits@D@std@@V?$allocator@D@2@@std@@AAH00@Z 100269a0 f   svdbapi.obj
 0001:00025bd0       ?GetRecordState@@YA_NPAXAAH@Z 10026bd0 f   svdbapi.obj
 0001:00025bd0       ?GetReocrdSetMonitorType@@YA_NPAXAAH@Z 10026bd0 f   svdbapi.obj
 0001:00025bf0       ?GetRecordSetMonitorID@@YA_NPAXAAV?$basic_string@DU?$char_traits@D@std@@V?$allocator@D@2@@std@@@Z 10026bf0 f   svdbapi.obj
 0001:00025c60       ?ReleaseRecordList@@YAXAAUsv_list@@@Z 10026c60 f   svdbapi.obj
 0001:00025c90       ?GetRecordDisplayString@@YA_NPAXAAHAAV?$basic_string@DU?$char_traits@D@std@@V?$allocator@D@2@@std@@@Z 10026c90 f   svdbapi.obj
 0001:00025d60       ?InsertTable@@YA_NV?$basic_string@DU?$char_traits@D@std@@V?$allocator@D@2@@std@@H00@Z 10026d60 f   svdbapi.obj
 0001:00025f90       ?DeleteTable@@YA_NV?$basic_string@DU?$char_traits@D@std@@V?$allocator@D@2@@std@@00@Z 10026f90 f   svdbapi.obj
 0001:000261c0       ?AppendRecord@@YA_NV?$basic_string@DU?$char_traits@D@std@@V?$allocator@D@2@@std@@PBDI00@Z 100271c0 f   svdbapi.obj
 0001:000263e0       ?MakeErrorRecord@@YA_NPADAAHHV?$basic_string@DU?$char_traits@D@std@@V?$allocator@D@2@@std@@@Z 100273e0 f   svdbapi.obj
 0001:000264b0       ?SetDYN@@YA_NV?$basic_string@DU?$char_traits@D@std@@V?$allocator@D@2@@std@@H00@Z 100274b0 f   svdbapi.obj
 0001:00026800       ?QueryRecords@@YAPAXV?$basic_string@DU?$char_traits@D@std@@V?$allocator@D@2@@std@@VTTimeSpan@svutil@@00@Z 10027800 f   svdbapi.obj
 0001:00026b00       ?DeleteRecords@@YA_NV?$basic_string@DU?$char_traits@D@std@@V?$allocator@D@2@@std@@VTTime@svutil@@00@Z 10027b00 f   svdbapi.obj
 0001:00026d60       ?QueryRecords@@YAPAXV?$basic_string@DU?$char_traits@D@std@@V?$allocator@D@2@@std@@VTTime@svutil@@100@Z 10027d60 f   svdbapi.obj
 0001:00027030       ?GetRecordCount@@YA_NPAXAAI@Z 10028030 f   svdbapi.obj
 0001:00027050       ?GetRecordCreateTime@@YA_NPAXAAVTTime@svutil@@@Z 10028050 f   svdbapi.obj
 0001:00027070       ?CloseRecordSet@@YAXAAPAX@Z 10028070 f   svdbapi.obj
 0001:000270d0       ?AppendMassRecord@@YA_NAAV?$list@VSingelRecord@@V?$allocator@VSingelRecord@@@std@@@std@@V?$basic_string@DU?$char_traits@D@std@@V?$allocator@D@2@@2@1@Z 100280d0 f   svdbapi.obj
 0001:000272e0       ?FindRecordFirst@@YA_NPAXAAUsv_list@@@Z 100282e0 f   svdbapi.obj
 0001:00027360       ?find@?$hashnode@Vword@svutil@@PAVRecordValue@@@svutil@@QAE_NABVword@2@PAPAPAVRecordValue@@@Z 10028360 f i svdbapi.obj
 0001:000273c0       ?FindPreReocrd@@YAPAXAAUsv_list@@@Z 100283c0 f   svdbapi.obj
 0001:000273f0       ?find@?$hashtable@Vword@svutil@@PAVRecordValue@@@svutil@@QAEPAPAVRecordValue@@ABVword@2@@Z 100283f0 f i svdbapi.obj
 0001:00027460       ?GetValue@Record@@QAE_NV?$basic_string@DU?$char_traits@D@std@@V?$allocator@D@2@@std@@AAVRecordValue@@@Z 10028460 f i svdbapi.obj
 0001:00027530       ?GetReocrdSetField@@YA_NPAXAAV?$list@V?$basic_string@DU?$char_traits@D@std@@V?$allocator@D@2@@std@@V?$allocator@V?$basic_string@DU?$char_traits@D@std@@V?$allocator@D@2@@std@@@2@@std@@@Z 10028530 f   svdbapi.obj
 0001:00027600       ?GetRecordValueByField@@YA_NPAXV?$basic_string@DU?$char_traits@D@std@@V?$allocator@D@2@@std@@AAH22AAMAAV12@@Z 10028600 f   svdbapi.obj
 0001:000277a0       ?GetAllTableNames@@YA_NAAV?$list@V?$basic_string@DU?$char_traits@D@std@@V?$allocator@D@2@@std@@V?$allocator@V?$basic_string@DU?$char_traits@D@std@@V?$allocator@D@2@@std@@@2@@std@@V?$basic_string@DU?$char_traits@D@std@@V?$allocator@D@2@@2@1@Z 100287a0 f   svdbapi.obj
 0001:00027960       ?GetLogKeepDays@@YA_NAAHV?$basic_string@DU?$char_traits@D@std@@V?$allocator@D@2@@std@@1@Z 10028960 f   svdbapi.obj
 0001:00027be0       ?isDemoMode@@YA_NXZ        10028be0 f   svdbapi.obj
 0001:00027dc0       ?GetMasterAddress@@YA?AV?$basic_string@DU?$char_traits@D@std@@V?$allocator@D@2@@std@@XZ 10028dc0 f   svdbapi.obj
 0001:00027f90       ?SetLogKeepDays@@YA_NHV?$basic_string@DU?$char_traits@D@std@@V?$allocator@D@2@@std@@0@Z 10028f90 f   svdbapi.obj
 0001:000281b0       ?getProcessId@@YA?AV?$basic_string@DU?$char_traits@D@std@@V?$allocator@D@2@@std@@XZ 100291b0 f   svdbtype.obj
 0001:00028230       ?getInitialTime@@YAIXZ     10029230 f   svdbtype.obj
 0001:00028240       ?_Max@?$_Tree@V?$_Tset_traits@HU?$less@H@std@@V?$allocator@H@2@$0A@@std@@@std@@KAPAU_Node@?$_Tree_nod@V?$_Tset_traits@HU?$less@H@std@@V?$allocator@H@2@$0A@@std@@@2@PAU342@@Z 10029240 f i svdbtype.obj
 0001:00028260       ?_Min@?$_Tree@V?$_Tset_traits@HU?$less@H@std@@V?$allocator@H@2@$0A@@std@@@std@@KAPAU_Node@?$_Tree_nod@V?$_Tset_traits@HU?$less@H@std@@V?$allocator@H@2@$0A@@std@@@2@PAU342@@Z 10029260 f i svdbtype.obj
 0001:00028280       ?_Inc@const_iterator@?$_Tree@V?$_Tset_traits@HU?$less@H@std@@V?$allocator@H@2@$0A@@std@@@std@@QAEXXZ 10029280 f i svdbtype.obj
 0001:000282e0       ?_Lrotate@?$_Tree@V?$_Tset_traits@HU?$less@H@std@@V?$allocator@H@2@$0A@@std@@@std@@IAEXPAU_Node@?$_Tree_nod@V?$_Tset_traits@HU?$less@H@std@@V?$allocator@H@2@$0A@@std@@@2@@Z 100292e0 f i svdbtype.obj
 0001:00028340       ?_Rrotate@?$_Tree@V?$_Tset_traits@HU?$less@H@std@@V?$allocator@H@2@$0A@@std@@@std@@IAEXPAU_Node@?$_Tree_nod@V?$_Tset_traits@HU?$less@H@std@@V?$allocator@H@2@$0A@@std@@@2@@Z 10029340 f i svdbtype.obj
 0001:000283a0       ?_Buynode@?$_Tree@V?$_Tset_traits@HU?$less@H@std@@V?$allocator@H@2@$0A@@std@@@std@@IAEPAU_Node@?$_Tree_nod@V?$_Tset_traits@HU?$less@H@std@@V?$allocator@H@2@$0A@@std@@@2@XZ 100293a0 f i svdbtype.obj
 0001:000283e0       ?erase@?$_Tree@V?$_Tset_traits@HU?$less@H@std@@V?$allocator@H@2@$0A@@std@@@std@@QAE?AViterator@12@V312@@Z 100293e0 f i svdbtype.obj
 0001:000286b0       ?_Erase@?$_Tree@V?$_Tset_traits@HU?$less@H@std@@V?$allocator@H@2@$0A@@std@@@std@@IAEXPAU_Node@?$_Tree_nod@V?$_Tset_traits@HU?$less@H@std@@V?$allocator@H@2@$0A@@std@@@2@@Z 100296b0 f i svdbtype.obj
 0001:000286f0       ?erase@?$_Tree@V?$_Tset_traits@HU?$less@H@std@@V?$allocator@H@2@$0A@@std@@@std@@QAE?AViterator@12@V312@0@Z 100296f0 f i svdbtype.obj
 0001:000287b0       ??1?$set@HU?$less@H@std@@V?$allocator@H@2@@std@@QAE@XZ 100297b0 f i svdbtype.obj
 0001:000287e0       ??0?$set@HU?$less@H@std@@V?$allocator@H@2@@std@@QAE@XZ 100297e0 f i svdbtype.obj
 0001:00028810       ?GetRawDataSize@SVSE@@UAEIXZ 10029810 f   SVSE.obj
 0001:00028880       ?GetRawData@SVSE@@UAEPADPADI@Z 10029880 f   SVSE.obj
 0001:000289b0       ?CreateObjectByRawData@SVSE@@UAEHPBDI@Z 100299b0 f   SVSE.obj
 0001:00028bd0       ??0SVSE@@QAE@XZ            10029bd0 f   SVSE.obj
 0001:00028c60       ??1SVSE@@QAE@XZ            10029c60 f   SVSE.obj
 0001:00028cc0       ?GetLabel@SVSE@@QAE?AVword@svutil@@XZ 10029cc0 f i SVSEAPI.obj
 0001:00028ce0       ?PutLabel@SVSE@@QAEXVword@svutil@@@Z 10029ce0 f i SVSEAPI.obj
 0001:00028d40       ?DelChildren@@YA_NV?$basic_string@DU?$char_traits@D@std@@V?$allocator@D@2@@std@@_N0@Z 10029d40 f   SVSEAPI.obj
 0001:00028fa0       ?Cache_GetSVSE@@YAPAXV?$basic_string@DU?$char_traits@D@std@@V?$allocator@D@2@@std@@@Z 10029fa0 f   SVSEAPI.obj
 0001:00029010       ?GetSVSEWithVer@@YAPAXV?$basic_string@DU?$char_traits@D@std@@V?$allocator@D@2@@std@@00AAI@Z 1002a010 f   SVSEAPI.obj
 0001:000292b0       ?GetSVSE@@YAPAXV?$basic_string@DU?$char_traits@D@std@@V?$allocator@D@2@@std@@00@Z 1002a2b0 f   SVSEAPI.obj
 0001:000293f0       ?CreateSVSE@@YAPAXV?$basic_string@DU?$char_traits@D@std@@V?$allocator@D@2@@std@@@Z 1002a3f0 f   SVSEAPI.obj
 0001:000294b0       ?PutSVSELabel@@YA_NPAXV?$basic_string@DU?$char_traits@D@std@@V?$allocator@D@2@@std@@@Z 1002a4b0 f   SVSEAPI.obj
 0001:00029550       ?GetSVSELabel@@YA?AV?$basic_string@DU?$char_traits@D@std@@V?$allocator@D@2@@std@@PAX@Z 1002a550 f   SVSEAPI.obj
 0001:00029620       ?DeleteSVSE@@YA_NV?$basic_string@DU?$char_traits@D@std@@V?$allocator@D@2@@std@@00@Z 1002a620 f   SVSEAPI.obj
 0001:00029850       ?AddNewSVSE@@YA?AV?$basic_string@DU?$char_traits@D@std@@V?$allocator@D@2@@std@@PAXV12@1@Z 1002a850 f   SVSEAPI.obj
 0001:00029a80       ?SubmitSVSE@@YA_NPAXV?$basic_string@DU?$char_traits@D@std@@V?$allocator@D@2@@std@@1@Z 1002aa80 f   SVSEAPI.obj
 0001:00029c70       ?GetAllSVSEObjInfo@@YA_NAAV?$list@Usv_pair@@V?$allocator@Usv_pair@@@std@@@std@@V?$basic_string@DU?$char_traits@D@std@@V?$allocator@D@2@@2@11@Z 1002ac70 f   SVSEAPI.obj
 0001:00029ed0       ?CloseSVSE@@YA_NAAPAX@Z    1002aed0 f   SVSEAPI.obj
 0001:00029f50       ?PutValueIntoChildren@@YA_NABV?$map@V?$basic_string@DU?$char_traits@D@std@@V?$allocator@D@2@@std@@V12@U?$less@V?$basic_string@DU?$char_traits@D@std@@V?$allocator@D@2@@std@@@2@V?$allocator@U?$pair@$$CBV?$basic_string@DU?$char_traits@D@std@@V?$allocator@D@2@@std@@V12@@std@@@2@@std@@V?$basic_string@DU?$char_traits@D@std@@V?$allocator@D@2@@2@1@Z 1002af50 f   SVSEAPI.obj
 0001:0002a270       ?GetAllSVSEInfo@@YA_NAAV?$list@Usv_pair@@V?$allocator@Usv_pair@@@std@@@std@@V?$basic_string@DU?$char_traits@D@std@@V?$allocator@D@2@@2@1@Z 1002b270 f   SVSEAPI.obj
 0001:0002a320       ?_Incsize@?$list@V?$map@V?$basic_string@DU?$char_traits@D@std@@V?$allocator@D@2@@std@@V12@U?$less@V?$basic_string@DU?$char_traits@D@std@@V?$allocator@D@2@@std@@@2@V?$allocator@U?$pair@$$CBV?$basic_string@DU?$char_traits@D@std@@V?$allocator@D@2@@std@@V12@@std@@@2@@std@@V?$allocator@V?$map@V?$basic_string@DU?$char_traits@D@std@@V?$allocator@D@2@@std@@V12@U?$less@V?$basic_string@DU?$char_traits@D@std@@V?$allocator@D@2@@std@@@2@V?$allocator@U?$pair@$$CBV?$basic_string@DU?$char_traits@D@std@@V?$allocator@D@2@@std@@V12@@std@@@2@@std@@@2@@std@@IAEXI@Z 1002b320 f i SVSEAPI.obj
 0001:0002a3c0       ?GetSubGroupsIDBySE@@YA_NPAXAAV?$list@V?$basic_string@DU?$char_traits@D@std@@V?$allocator@D@2@@std@@V?$allocator@V?$basic_string@DU?$char_traits@D@std@@V?$allocator@D@2@@std@@@2@@std@@@Z 1002b3c0 f   SVSEAPI.obj
 0001:0002a4d0       ?GetSubGroupsIDBySEEx@@YA_NPAXAAV?$list@PADV?$allocator@PAD@std@@@std@@@Z 1002b4d0 f   SVSEAPI.obj
 0001:0002a5d0       ?GetSubEntitysIDBySE@@YA_NPAXAAV?$list@V?$basic_string@DU?$char_traits@D@std@@V?$allocator@D@2@@std@@V?$allocator@V?$basic_string@DU?$char_traits@D@std@@V?$allocator@D@2@@std@@@2@@std@@@Z 1002b5d0 f   SVSEAPI.obj
 0001:0002a6e0       ?_Buynode@?$list@V?$map@V?$basic_string@DU?$char_traits@D@std@@V?$allocator@D@2@@std@@V12@U?$less@V?$basic_string@DU?$char_traits@D@std@@V?$allocator@D@2@@std@@@2@V?$allocator@U?$pair@$$CBV?$basic_string@DU?$char_traits@D@std@@V?$allocator@D@2@@std@@V12@@std@@@2@@std@@V?$allocator@V?$map@V?$basic_string@DU?$char_traits@D@std@@V?$allocator@D@2@@std@@V12@U?$less@V?$basic_string@DU?$char_traits@D@std@@V?$allocator@D@2@@std@@@2@V?$allocator@U?$pair@$$CBV?$basic_string@DU?$char_traits@D@std@@V?$allocator@D@2@@std@@V12@@std@@@2@@std@@@2@@std@@IAEPAU_Node@?$_List_nod@V?$map@V?$basic_string@DU?$char_traits@D@std@@V?$allocator@D@2@@std@@V12@U?$less@V?$basic_string@DU?$char_traits@D@std@@V?$allocator@D@2@@std@@@2@V?$allocator@U?$pair@$$CBV?$basic_string@DU?$char_traits@D@std@@V?$allocator@D@2@@std@@V12@@std@@@2@@std@@V?$allocator@V?$map@V?$basic_string@DU?$char_traits@D@std@@V?$allocator@D@2@@std@@V12@U?$less@V?$basic_string@DU?$char_traits@D@std@@V?$allocator@D@2@@std@@@2@V?$allocator@U?$pair@$$CBV?$basic_string@DU?$char_traits@D@std@@V?$allocator@D@2@@std@@V12@@std@@@2@@std@@@2@@2@PAU342@0ABV?$map@V?$basic_string@DU?$char_traits@D@std@@V?$allocator@D@2@@std@@V12@U?$less@V?$basic_string@DU?$char_traits@D@std@@V?$allocator@D@2@@std@@@2@V?$allocator@U?$pair@$$CBV?$basic_string@DU?$char_traits@D@std@@V?$allocator@D@2@@std@@V12@@std@@@2@@2@@Z 1002b6e0 f i SVSEAPI.obj
 0001:0002a770       ?GetForestData@@YA_NAAV?$list@V?$map@V?$basic_string@DU?$char_traits@D@std@@V?$allocator@D@2@@std@@V12@U?$less@V?$basic_string@DU?$char_traits@D@std@@V?$allocator@D@2@@std@@@2@V?$allocator@U?$pair@$$CBV?$basic_string@DU?$char_traits@D@std@@V?$allocator@D@2@@std@@V12@@std@@@2@@std@@V?$allocator@V?$map@V?$basic_string@DU?$char_traits@D@std@@V?$allocator@D@2@@std@@V12@U?$less@V?$basic_string@DU?$char_traits@D@std@@V?$allocator@D@2@@std@@@2@V?$allocator@U?$pair@$$CBV?$basic_string@DU?$char_traits@D@std@@V?$allocator@D@2@@std@@V12@@std@@@2@@std@@@2@@std@@V?$basic_string@DU?$char_traits@D@std@@V?$allocator@D@2@@2@_N1@Z 1002b770 f   SVSEAPI.obj
 0001:0002aae0       ??0CommonData@@QAE@PBXIH@Z 1002bae0 f i TaskAPI.obj
 0001:0002ab60       ?PutSection@Section@@QAEXVword@svutil@@@Z 1002bb60 f i TaskAPI.obj
 0001:0002abc0       ?GetSection@Section@@QAE?AVword@svutil@@XZ 1002bbc0 f i TaskAPI.obj
 0001:0002abe0       ?GetTask@@YAPAXV?$basic_string@DU?$char_traits@D@std@@V?$allocator@D@2@@std@@00@Z 1002bbe0 f   TaskAPI.obj
 0001:0002ae20       ?CreateTask@@YAPAXV?$basic_string@DU?$char_traits@D@std@@V?$allocator@D@2@@std@@@Z 1002be20 f   TaskAPI.obj
 0001:0002aee0       ?DeleteTask@@YA_NV?$basic_string@DU?$char_traits@D@std@@V?$allocator@D@2@@std@@00@Z 1002bee0 f   TaskAPI.obj
 0001:0002b110       ?SubmitTask@@YA_NPAXV?$basic_string@DU?$char_traits@D@std@@V?$allocator@D@2@@std@@1@Z 1002c110 f   TaskAPI.obj
 0001:0002b320       ?CloseTask@@YAXAAPAX@Z     1002c320 f   TaskAPI.obj
 0001:0002b380       ?RomoveNode@?$sorttree@V?$hashelement@Vword@svutil@@PAVCommonData@@@svutil@@@svutil@@QAEXABV?$hashelement@Vword@svutil@@PAVCommonData@@@2@@Z 1002c380 f i TaskAPI.obj
 0001:0002b520       ?erase@?$hashnode@Vword@svutil@@PAVCommonData@@@svutil@@QAE_NABVword@2@@Z 1002c520 f i TaskAPI.obj
 0001:0002b630       ?Find@Section@@QAE_NVword@svutil@@@Z 1002c630 f i TaskAPI.obj
 0001:0002b690       ?GetKeys@Section@@QAE_NAAV?$list@V?$basic_string@DU?$char_traits@D@std@@V?$allocator@D@2@@std@@V?$allocator@V?$basic_string@DU?$char_traits@D@std@@V?$allocator@D@2@@std@@@2@@std@@@Z 1002c690 f i TaskAPI.obj
 0001:0002b740       ?DeleteKeyInKeyOrder@Section@@IAE_NVword@svutil@@@Z 1002c740 f i TaskAPI.obj
 0001:0002b830       ?GetAllTaskName@@YA_NAAV?$list@V?$basic_string@DU?$char_traits@D@std@@V?$allocator@D@2@@std@@V?$allocator@V?$basic_string@DU?$char_traits@D@std@@V?$allocator@D@2@@std@@@2@@std@@V?$basic_string@DU?$char_traits@D@std@@V?$allocator@D@2@@2@1@Z 1002c830 f   TaskAPI.obj
 0001:0002ba20       ?GetAllTaskKeyName@@YA_NAAV?$list@V?$basic_string@DU?$char_traits@D@std@@V?$allocator@D@2@@std@@V?$allocator@V?$basic_string@DU?$char_traits@D@std@@V?$allocator@D@2@@std@@@2@@std@@PAX@Z 1002ca20 f   TaskAPI.obj
 0001:0002ba90       ?erase@?$hashtable@Vword@svutil@@PAVCommonData@@@svutil@@QAE_NABVword@2@@Z 1002ca90 f i TaskAPI.obj
 0001:0002bb30       ?Delete@Section@@QAE_NVword@svutil@@@Z 1002cb30 f i TaskAPI.obj
 0001:0002bc20       ?DeleteTaskKey@@YA_NV?$basic_string@DU?$char_traits@D@std@@V?$allocator@D@2@@std@@PAX@Z 1002cc20 f   TaskAPI.obj
 0001:0002bcc0       ?Push@Section@@QAE_NVword@svutil@@PAVCommonData@@@Z 1002ccc0 f i TaskAPI.obj
 0001:0002bdc0       ?Push@Section@@QAE_NVword@svutil@@0@Z 1002cdc0 f i TaskAPI.obj
 0001:0002bef0       ?Pop@Section@@QAE_NVword@svutil@@PAPAXAAI@Z 1002cef0 f i TaskAPI.obj
 0001:0002bff0       ?Pop@Section@@QAE_NVword@svutil@@AAV23@@Z 1002cff0 f i TaskAPI.obj
 0001:0002c110       ?GetTaskValue@@YA?AV?$basic_string@DU?$char_traits@D@std@@V?$allocator@D@2@@std@@V12@PAX@Z 1002d110 f   TaskAPI.obj
 0001:0002c270       ?SetTaskValue@@YA_NV?$basic_string@DU?$char_traits@D@std@@V?$allocator@D@2@@std@@0PAX@Z 1002d270 f   TaskAPI.obj
 0001:0002c350       ?EditTask@@YA_NPAXV?$basic_string@DU?$char_traits@D@std@@V?$allocator@D@2@@std@@11@Z 1002d350 f   TaskAPI.obj
 0001:0002c710       ?GetParentID@@YA?AVword@svutil@@V12@@Z 1002d710 f   util.obj
 0001:0002c830       ?GetIndexByID@@YAHVword@svutil@@@Z 1002d830 f   util.obj
 0001:0002c940       ?IsTopID@@YA_NVword@svutil@@@Z 1002d940 f   util.obj
 0001:0002c9e0       ?GetTopID@@YA?AVword@svutil@@V12@@Z 1002d9e0 f   util.obj
 0001:0002cb00       ?GetRootPathByKey@@YA?AV?$basic_string@DU?$char_traits@D@std@@V?$allocator@D@2@@std@@V12@@Z 1002db00 f   util.obj
 0001:0002cd50       ?parsebuffer@@YAHPBDHAAH@Z 1002dd50 f   util.obj
 0001:0002cd50       ?parsebuffer@@YAHPBDHAAM@Z 1002dd50 f   util.obj
 0001:0002cd80       ?parsebuffer@@YAHPBDHAAV?$basic_string@DU?$char_traits@D@std@@V?$allocator@D@2@@std@@@Z 1002dd80 f   util.obj
 0001:0002cdc0       ?builddyn@@YA_NPBDHAAUsv_dyn@@_N@Z 1002ddc0 f   util.obj
 0001:0002ce30       ?GetRootPath@@YA?AV?$basic_string@DU?$char_traits@D@std@@V?$allocator@D@2@@std@@XZ 1002de30 f   util.obj
 0001:0002ce60       ?GetNodeDataRawDataSize@@YAIAAV?$map@V?$basic_string@DU?$char_traits@D@std@@V?$allocator@D@2@@std@@V12@U?$less@V?$basic_string@DU?$char_traits@D@std@@V?$allocator@D@2@@std@@@2@V?$allocator@U?$pair@$$CBV?$basic_string@DU?$char_traits@D@std@@V?$allocator@D@2@@std@@V12@@std@@@2@@std@@@Z 1002de60 f   util.obj
 0001:0002cee0       ?GetNodeDataRawData@@YAPADAAV?$map@V?$basic_string@DU?$char_traits@D@std@@V?$allocator@D@2@@std@@V12@U?$less@V?$basic_string@DU?$char_traits@D@std@@V?$allocator@D@2@@std@@@2@V?$allocator@U?$pair@$$CBV?$basic_string@DU?$char_traits@D@std@@V?$allocator@D@2@@std@@V12@@std@@@2@@std@@PADI@Z 1002dee0 f   util.obj
 0001:0002d080       ?GetMassRecordListRawDataSize@@YAIAAV?$list@VSingelRecord@@V?$allocator@VSingelRecord@@@std@@@std@@@Z 1002e080 f   util.obj
 0001:0002d0d0       ?GetMassRecordListRawData@@YAPADAAV?$list@VSingelRecord@@V?$allocator@VSingelRecord@@@std@@@std@@PADI@Z 1002e0d0 f   util.obj
 0001:0002d1e0       ?CreateNodeDataByRawData@@YA_NAAV?$map@V?$basic_string@DU?$char_traits@D@std@@V?$allocator@D@2@@std@@V12@U?$less@V?$basic_string@DU?$char_traits@D@std@@V?$allocator@D@2@@std@@@2@V?$allocator@U?$pair@$$CBV?$basic_string@DU?$char_traits@D@std@@V?$allocator@D@2@@std@@V12@@std@@@2@@std@@PBDI@Z 1002e1e0 f   util.obj
 0001:0002d3e0       ?CreateMassRecordListByRawData@@YA_NAAV?$list@VSingelRecord@@V?$allocator@VSingelRecord@@@std@@@std@@PBDI@Z 1002e3e0 f   util.obj
 0001:0002d5a0       ?CreateStrListByRawData@@YA_NAAV?$list@V?$basic_string@DU?$char_traits@D@std@@V?$allocator@D@2@@std@@V?$allocator@V?$basic_string@DU?$char_traits@D@std@@V?$allocator@D@2@@std@@@2@@std@@PBDI@Z 1002e5a0 f   util.obj
 0001:0002d6c0       ??0Edge@@QAE@XZ            1002e6c0 f   Edge.obj
 0001:0002d750       ??1Edge@@QAE@XZ            1002e750 f   Edge.obj
 0001:0002d7e0       ?GetRawDataSize@Edge@@UAEIXZ 1002e7e0 f   Edge.obj
 0001:0002d830       ?GetRawData@Edge@@UAEPADPADI@Z 1002e830 f   Edge.obj
 0001:0002d920       ?CreateObjectByRawData@Edge@@UAEHPBDI@Z 1002e920 f   Edge.obj
 0001:0002da30       ??0?$hashelement@Vword@svutil@@PAVPort@@@svutil@@QAE@ABVword@1@@Z 1002ea30 f i EntityEx.obj
 0001:0002da90       ??1?$treenode@V?$hashelement@Vword@svutil@@PAVPort@@@svutil@@@svutil@@UAE@XZ 1002ea90 f i EntityEx.obj
 0001:0002dab0       ??_E?$treenode@V?$hashelement@Vword@svutil@@PAVPort@@@svutil@@@svutil@@UAEPAXI@Z 1002eab0 f i EntityEx.obj
 0001:0002dab0       ??_G?$treenode@V?$hashelement@Vword@svutil@@PAVPort@@@svutil@@@svutil@@UAEPAXI@Z 1002eab0 f i EntityEx.obj
 0001:0002dad0       ?_Xlen@?$vector@PAV?$hashnode@Vword@svutil@@PAVPort@@@svutil@@V?$allocator@PAV?$hashnode@Vword@svutil@@PAVPort@@@svutil@@@std@@@std@@IBEXXZ 1002ead0 f i EntityEx.obj
 0001:0002db50       ??0?$hashelement@Vword@svutil@@PAVPort@@@svutil@@QAE@ABVword@1@ABQAVPort@@@Z 1002eb50 f i EntityEx.obj
 0001:0002dbc0       ?CountNodes@?$sorttree@V?$hashelement@Vword@svutil@@PAVPort@@@svutil@@@svutil@@AAEXPAV?$treenode@V?$hashelement@Vword@svutil@@PAVPort@@@svutil@@@2@AAK@Z 1002ebc0 f i EntityEx.obj
 0001:0002dbf0       ??M?$treenode@V?$hashelement@Vword@svutil@@PAVPort@@@svutil@@@svutil@@QAE_NV01@@Z 1002ebf0 f i EntityEx.obj
 0001:0002dc60       ??O?$treenode@V?$hashelement@Vword@svutil@@PAVPort@@@svutil@@@svutil@@QAE_NV01@@Z 1002ec60 f i EntityEx.obj
 0001:0002dcd0       ??0?$treenode@V?$hashelement@Vword@svutil@@PAVPort@@@svutil@@@svutil@@QAE@ABV01@@Z 1002ecd0 f i EntityEx.obj
 0001:0002dd50       ??$fill@PAPAV?$hashnode@Vword@svutil@@PAVPort@@@svutil@@PAV12@@std@@YAXPAPAV?$hashnode@Vword@svutil@@PAVPort@@@svutil@@0ABQAV12@@Z 1002ed50 f i EntityEx.obj
 0001:0002dd50       ??$fill@PAPAV?$hashnode@Vword@svutil@@V12@@svutil@@PAV12@@std@@YAXPAPAV?$hashnode@Vword@svutil@@V12@@svutil@@0ABQAV12@@Z 1002ed50 f i General.obj
 0001:0002dd50       ??$fill@PAPAV?$hashnode@Vword@svutil@@PAVCommonData@@@svutil@@PAV12@@std@@YAXPAPAV?$hashnode@Vword@svutil@@PAVCommonData@@@svutil@@0ABQAV12@@Z 1002ed50 f i Section.obj
 0001:0002dd50       ??$fill@PAPAVDataType@@PAV1@@std@@YAXPAPAVDataType@@0ABQAV1@@Z 1002ed50 f i RecordType.obj
 0001:0002dd50       ??$fill@PAPAV?$hashnode@Vword@svutil@@PAVRecordValue@@@svutil@@PAV12@@std@@YAXPAPAV?$hashnode@Vword@svutil@@PAVRecordValue@@@svutil@@0ABQAV12@@Z 1002ed50 f i RecordSet.obj
 0001:0002dd70       ??0?$treenode@V?$hashelement@Vword@svutil@@PAVPort@@@svutil@@@svutil@@QAE@ABV?$hashelement@Vword@svutil@@PAVPort@@@1@@Z 1002ed70 f i EntityEx.obj
 0001:0002ddf0       ?DeleteTree@?$sorttree@V?$hashelement@Vword@svutil@@PAVPort@@@svutil@@@svutil@@QAEXPAV?$treenode@V?$hashelement@Vword@svutil@@PAVPort@@@svutil@@@2@@Z 1002edf0 f i EntityEx.obj
 0001:0002de40       ?RomoveNode@?$sorttree@V?$hashelement@Vword@svutil@@PAVPort@@@svutil@@@svutil@@QAEXABV?$hashelement@Vword@svutil@@PAVPort@@@2@@Z 1002ee40 f i EntityEx.obj
 0001:0002dfe0       ?findnextnode@?$sorttree@V?$hashelement@Vword@svutil@@PAVPort@@@svutil@@@svutil@@ABEPAV?$treenode@V?$hashelement@Vword@svutil@@PAVPort@@@svutil@@@2@AAV?$hashelement@Vword@svutil@@PAVPort@@@2@AA_NPAV32@@Z 1002efe0 f i EntityEx.obj
 0001:0002e050       ?InsertNode@?$sorttree@V?$hashelement@Vword@svutil@@PAVPort@@@svutil@@@svutil@@QAEXPAV?$treenode@V?$hashelement@Vword@svutil@@PAVPort@@@svutil@@@2@0@Z 1002f050 f i EntityEx.obj
 0001:0002e0e0       ??$CreateNode@V?$hashelement@Vword@svutil@@PAVPort@@@svutil@@@?$sorttree@V?$hashelement@Vword@svutil@@PAVPort@@@svutil@@@svutil@@SAPAV?$treenode@V?$hashelement@Vword@svutil@@PAVPort@@@svutil@@@1@ABV?$hashelement@Vword@svutil@@PAVPort@@@1@@Z 1002f0e0 f i EntityEx.obj
 0001:0002e140       ?_Buynode@?$list@PAVStringMap@@V?$allocator@PAVStringMap@@@std@@@std@@IAEPAU_Node@?$_List_nod@PAVStringMap@@V?$allocator@PAVStringMap@@@std@@@2@XZ 1002f140 f i EntityTemplet.obj
 0001:0002e140       ?_Buynode@?$list@PAVRecord@@V?$allocator@PAVRecord@@@std@@@std@@IAEPAU_Node@?$_List_nod@PAVRecord@@V?$allocator@PAVRecord@@@std@@@2@XZ 1002f140 f i RecordSet.obj
 0001:0002e140       ?_Buynode@?$list@PAVEntityRelation@@V?$allocator@PAVEntityRelation@@@std@@@std@@IAEPAU_Node@?$_List_nod@PAVEntityRelation@@V?$allocator@PAVEntityRelation@@@std@@@2@XZ 1002f140 f i EntityEx.obj
 0001:0002e140       ?_Buynode@?$list@HV?$allocator@H@std@@@std@@IAEPAU_Node@?$_List_nod@HV?$allocator@H@std@@@2@XZ 1002f140 f i EntityTemplet.obj
 0001:0002e140       ?_Buynode@?$list@PAVEdge@@V?$allocator@PAVEdge@@@std@@@std@@IAEPAU_Node@?$_List_nod@PAVEdge@@V?$allocator@PAVEdge@@@std@@@2@XZ 1002f140 f i TopologyChart.obj
 0001:0002e160       ??_E?$sorttree@V?$hashelement@Vword@svutil@@PAVPort@@@svutil@@@svutil@@UAEPAXI@Z 1002f160 f i EntityEx.obj
 0001:0002e160       ??_G?$sorttree@V?$hashelement@Vword@svutil@@PAVPort@@@svutil@@@svutil@@UAEPAXI@Z 1002f160 f i EntityEx.obj
 0001:0002e1c0       ?_Incsize@?$list@PAVEntityRelation@@V?$allocator@PAVEntityRelation@@@std@@@std@@IAEXI@Z 1002f1c0 f i EntityEx.obj
 0001:0002e260       ?find@?$hashnode@Vword@svutil@@PAVPort@@@svutil@@QAE_NABVword@2@PAPAV?$hashelement@Vword@svutil@@PAVPort@@@2@@Z 1002f260 f i EntityEx.obj
 0001:0002e330       ?InsertNodeEx@?$sorttree@V?$hashelement@Vword@svutil@@PAVPort@@@svutil@@@svutil@@QAEAAV?$hashelement@Vword@svutil@@PAVPort@@@2@ABV32@@Z 1002f330 f i EntityEx.obj
 0001:0002e3c0       ??1?$hashnode@Vword@svutil@@PAVPort@@@svutil@@QAE@XZ 1002f3c0 f i EntityEx.obj
 0001:0002e450       ?find@?$hashnode@Vword@svutil@@PAVPort@@@svutil@@QAE_NABVword@2@PAPAPAVPort@@@Z 1002f450 f i EntityEx.obj
 0001:0002e4b0       ?insert@?$hashnode@Vword@svutil@@PAVPort@@@svutil@@QAEAAV?$hashelement@Vword@svutil@@PAVPort@@@2@ABVword@2@ABQAVPort@@@Z 1002f4b0 f i EntityEx.obj
 0001:0002e590       ?push_back@?$list@PAVEntityRelation@@V?$allocator@PAVEntityRelation@@@std@@@std@@QAEXABQAVEntityRelation@@@Z 1002f590 f i EntityEx.obj
 0001:0002e5d0       ?size@?$hashtable@Vword@svutil@@PAVPort@@@svutil@@QAEIXZ 1002f5d0 f i EntityEx.obj
 0001:0002e670       ?find@?$hashtable@Vword@svutil@@PAVPort@@@svutil@@QAEPAPAVPort@@ABVword@2@@Z 1002f670 f i EntityEx.obj
 0001:0002e6e0       ?clearnodes@?$hashtable@Vword@svutil@@PAVPort@@@svutil@@IAEXXZ 1002f6e0 f i EntityEx.obj
 0001:0002e750       ??1?$vector@PAV?$hashnode@Vword@svutil@@PAVRecordValue@@@svutil@@V?$allocator@PAV?$hashnode@Vword@svutil@@PAVRecordValue@@@svutil@@@std@@@std@@QAE@XZ 1002f750 f i RecordSet.obj
 0001:0002e750       ??1?$vector@PAV?$hashnode@Vword@svutil@@PAVPort@@@svutil@@V?$allocator@PAV?$hashnode@Vword@svutil@@PAVPort@@@svutil@@@std@@@std@@QAE@XZ 1002f750 f i EntityEx.obj
 0001:0002e750       ??1?$vector@PAV?$hashnode@Vword@svutil@@V12@@svutil@@V?$allocator@PAV?$hashnode@Vword@svutil@@V12@@svutil@@@std@@@std@@QAE@XZ 1002f750 f i ObjCache.obj
 0001:0002e750       ??1?$vector@PAVDataType@@V?$allocator@PAVDataType@@@std@@@std@@QAE@XZ 1002f750 f i RecordSet.obj
 0001:0002e750       ??1?$vector@PAV?$hashnode@Vword@svutil@@PAVCommonData@@@svutil@@V?$allocator@PAV?$hashnode@Vword@svutil@@PAVCommonData@@@svutil@@@std@@@std@@QAE@XZ 1002f750 f i Section.obj
 0001:0002e780       ?findnext@?$hashnode@Vword@svutil@@PAVPort@@@svutil@@QAE_NAAV?$hashelement@Vword@svutil@@PAVPort@@@2@PAPAV32@@Z 1002f780 f i EntityEx.obj
 0001:0002e830       ?erase@?$hashnode@Vword@svutil@@PAVPort@@@svutil@@QAE_NABVword@2@@Z 1002f830 f i EntityEx.obj
 0001:0002e940       ?_Insert_n@?$vector@PAV?$hashnode@Vword@svutil@@PAVPort@@@svutil@@V?$allocator@PAV?$hashnode@Vword@svutil@@PAVPort@@@svutil@@@std@@@std@@IAEXViterator@12@IABQAV?$hashnode@Vword@svutil@@PAVPort@@@svutil@@@Z 1002f940 f i EntityEx.obj
 0001:0002eb30       ??1?$hashtable@Vword@svutil@@PAVPort@@@svutil@@QAE@XZ 1002fb30 f i EntityEx.obj
 0001:0002eb90       ?erase@?$hashtable@Vword@svutil@@PAVPort@@@svutil@@QAE_NABVword@2@@Z 1002fb90 f i EntityEx.obj
 0001:0002ec30       ?findnext@?$hashtable@Vword@svutil@@PAVPort@@@svutil@@QAE_NAAViterator@12@@Z 1002fc30 f i EntityEx.obj
 0001:0002ecd0       ?resize@?$vector@PAV?$hashnode@Vword@svutil@@PAVPort@@@svutil@@V?$allocator@PAV?$hashnode@Vword@svutil@@PAVPort@@@svutil@@@std@@@std@@QAEXIPAV?$hashnode@Vword@svutil@@PAVPort@@@svutil@@@Z 1002fcd0 f i EntityEx.obj
 0001:0002ed60       ??1EntityEx@@QAE@XZ        1002fd60 f   EntityEx.obj
 0001:0002eed0       ?GetRawDataSize@EntityEx@@QAEIXZ 1002fed0 f   EntityEx.obj
 0001:0002f0d0       ?GetRawData@EntityEx@@QAEPADPADI@Z 100300d0 f   EntityEx.obj
 0001:0002f360       ??0?$hashtable@Vword@svutil@@PAVPort@@@svutil@@QAE@XZ 10030360 f i EntityEx.obj
 0001:0002f3b0       ?insert@?$hashtable@Vword@svutil@@PAVPort@@@svutil@@QAEAAPAVPort@@ABVword@2@ABQAV3@@Z 100303b0 f i EntityEx.obj
 0001:0002f4a0       ??0EntityEx@@QAE@XZ        100304a0 f   EntityEx.obj
 0001:0002f560       ?CreateObjectByRawData@EntityEx@@QAEHPBDI@Z 10030560 f   EntityEx.obj
 0001:0002f860       ??0EntityRelation@@QAE@XZ  10030860 f   EntityRelation.obj
 0001:0002f8f0       ??1EntityRelation@@QAE@XZ  100308f0 f   EntityRelation.obj
 0001:0002f990       ?GetRawDataSize@EntityRelation@@UAEIXZ 10030990 f   EntityRelation.obj
 0001:0002fa00       ?GetRawData@EntityRelation@@UAEPADPADI@Z 10030a00 f   EntityRelation.obj
 0001:0002fb70       ?CreateObjectByRawData@EntityRelation@@UAEHPBDI@Z 10030b70 f   EntityRelation.obj
 0001:0002fcd0       ?GetIdentifier@EntityEx@@QBE?AVword@svutil@@XZ 10030cd0 f i NNMEntityAPI.obj
 0001:0002fcf0       ?PutIdentifier@EntityEx@@QAEXVword@svutil@@@Z 10030cf0 f i NNMEntityAPI.obj
 0001:0002fd50       ?GetNNMEntity@@YAPAXV?$basic_string@DU?$char_traits@D@std@@V?$allocator@D@2@@std@@00@Z 10030d50 f   NNMEntityAPI.obj
 0001:0002ffc0       ?CreateNNMEntity@@YAPAXV?$basic_string@DU?$char_traits@D@std@@V?$allocator@D@2@@std@@@Z 10030fc0 f   NNMEntityAPI.obj
 0001:00030090       ?GetNNMEntityMainAttribNode@@YAPAXPAX@Z 10031090 f   NNMEntityAPI.obj
 0001:000300a0       ?DeleteNNMEntity@@YA_NV?$basic_string@DU?$char_traits@D@std@@V?$allocator@D@2@@std@@00@Z 100310a0 f   NNMEntityAPI.obj
 0001:000302d0       ?SubmitNNMEntity@@YA_NPAXV?$basic_string@DU?$char_traits@D@std@@V?$allocator@D@2@@std@@1@Z 100312d0 f   NNMEntityAPI.obj
 0001:00030540       ?CloseNNMEntity@@YA_NAAPAX@Z 10031540 f   NNMEntityAPI.obj
 0001:000305c0       ?GetAllNNMEntitysInfo@@YA_NAAV?$list@Usv_pair@@V?$allocator@Usv_pair@@@std@@@std@@V?$basic_string@DU?$char_traits@D@std@@V?$allocator@D@2@@2@11@Z 100315c0 f   NNMEntityAPI.obj
 0001:00030810       ?GetAllNNMEntitysInfoFrom@@YA_NV?$basic_string@DU?$char_traits@D@std@@V?$allocator@D@2@@std@@00AAV?$list@V?$basic_string@DU?$char_traits@D@std@@V?$allocator@D@2@@std@@V?$allocator@V?$basic_string@DU?$char_traits@D@std@@V?$allocator@D@2@@std@@@2@@2@00@Z 10031810 f   NNMEntityAPI.obj
 0001:00030b10       ?GetAllNNMEntitysInfoInWords@@YA_NV?$basic_string@DU?$char_traits@D@std@@V?$allocator@D@2@@std@@0AAV?$list@V?$basic_string@DU?$char_traits@D@std@@V?$allocator@D@2@@std@@V?$allocator@V?$basic_string@DU?$char_traits@D@std@@V?$allocator@D@2@@std@@@2@@2@00@Z 10031b10 f   NNMEntityAPI.obj
 0001:00030c40       ?GetAllNNMEntitysInfoInProperty@@YA_NV?$basic_string@DU?$char_traits@D@std@@V?$allocator@D@2@@std@@0AAV?$list@V?$basic_string@DU?$char_traits@D@std@@V?$allocator@D@2@@std@@V?$allocator@V?$basic_string@DU?$char_traits@D@std@@V?$allocator@D@2@@std@@@2@@2@00@Z 10031c40 f   NNMEntityAPI.obj
 0001:00030d70       ??0Port@@QAE@XZ            10031d70 f   Port.obj
 0001:00030e00       ??1Port@@QAE@XZ            10031e00 f   Port.obj
 0001:00030e90       ?GetRawDataSize@Port@@UAEIXZ 10031e90 f   Port.obj
 0001:00030f40       ?GetRawData@Port@@UAEPADPADI@Z 10031f40 f   Port.obj
 0001:00031080       ?CreateObjectByRawData@Port@@UAEHPBDI@Z 10032080 f   Port.obj
 0001:000311c0       ?_Buynode@?$list@PAVEdge@@V?$allocator@PAVEdge@@@std@@@std@@IAEPAU_Node@?$_List_nod@PAVEdge@@V?$allocator@PAVEdge@@@std@@@2@PAU342@0ABQAVEdge@@@Z 100321c0 f i TopologyChart.obj
 0001:000311c0       ?_Buynode@?$list@PAVEntityRelation@@V?$allocator@PAVEntityRelation@@@std@@@std@@IAEPAU_Node@?$_List_nod@PAVEntityRelation@@V?$allocator@PAVEntityRelation@@@std@@@2@PAU342@0ABQAVEntityRelation@@@Z 100321c0 f i EntityEx.obj
 0001:000311c0       ?_Buynode@?$list@PAVStringMap@@V?$allocator@PAVStringMap@@@std@@@std@@IAEPAU_Node@?$_List_nod@PAVStringMap@@V?$allocator@PAVStringMap@@@std@@@2@PAU342@0ABQAVStringMap@@@Z 100321c0 f i EntityTemplet.obj
 0001:000311c0       ?_Buynode@?$list@HV?$allocator@H@std@@@std@@IAEPAU_Node@?$_List_nod@HV?$allocator@H@std@@@2@PAU342@0ABH@Z 100321c0 f i EntityTemplet.obj
 0001:000311c0       ?_Buynode@?$list@PAVRecord@@V?$allocator@PAVRecord@@@std@@@std@@IAEPAU_Node@?$_List_nod@PAVRecord@@V?$allocator@PAVRecord@@@std@@@2@PAU342@0ABQAVRecord@@@Z 100321c0 f i RecordSet.obj
 0001:000311c0       ?_Buynode@?$list@PADV?$allocator@PAD@std@@@std@@IAEPAU_Node@?$_List_nod@PADV?$allocator@PAD@std@@@2@PAU342@0ABQAD@Z 100321c0 f i GroupAPI.obj
 0001:000311f0       ?_Incsize@?$list@PAVEdge@@V?$allocator@PAVEdge@@@std@@@std@@IAEXI@Z 100321f0 f i TopologyChart.obj
 0001:00031290       ?GetRawData@TopologyChart@@UAEPADPADI@Z 10032290 f   TopologyChart.obj
 0001:00031460       ??1?$list@PAVRecord@@V?$allocator@PAVRecord@@@std@@@std@@QAE@XZ 10032460 f i RecordSet.obj
 0001:00031460       ??1?$list@HV?$allocator@H@std@@@std@@QAE@XZ 10032460 f i EntityTemplet.obj
 0001:00031460       ??1?$list@PAVEdge@@V?$allocator@PAVEdge@@@std@@@std@@QAE@XZ 10032460 f i TopologyChart.obj
 0001:00031460       ??1?$list@PAVStringMap@@V?$allocator@PAVStringMap@@@std@@@std@@QAE@XZ 10032460 f i EntityTemplet.obj
 0001:00031460       ??1?$list@PAVEntityRelation@@V?$allocator@PAVEntityRelation@@@std@@@std@@QAE@XZ 10032460 f i EntityEx.obj
 0001:00031480       ??1TopologyChart@@QAE@XZ   10032480 f   TopologyChart.obj
 0001:00031570       ?GetRawDataSize@TopologyChart@@UAEIXZ 10032570 f   TopologyChart.obj
 0001:00031670       ?push_back@?$list@PAVEdge@@V?$allocator@PAVEdge@@@std@@@std@@QAEXABQAVEdge@@@Z 10032670 f i TopologyChart.obj
 0001:000316b0       ??0TopologyChart@@QAE@XZ   100326b0 f   TopologyChart.obj
 0001:00031750       ?CreateObjectByRawData@TopologyChart@@UAEHPBDI@Z 10032750 f   TopologyChart.obj
 0001:00031920       ?PutID@TopologyChart@@QAEXVword@svutil@@@Z 10032920 f i TopologyChartAPI.obj
 0001:00031980       ?GetTopologyChart@@YAPAXV?$basic_string@DU?$char_traits@D@std@@V?$allocator@D@2@@std@@00@Z 10032980 f   TopologyChartAPI.obj
 0001:00031bc0       ?CreateTopologyChart@@YAPAXV?$basic_string@DU?$char_traits@D@std@@V?$allocator@D@2@@std@@@Z 10032bc0 f   TopologyChartAPI.obj
 0001:00031c90       ?GetTopologyChartMainAttribNode@@YAPAXPAX@Z 10032c90 f   TopologyChartAPI.obj
 0001:00031ca0       ?DeleteTopologyChart@@YA_NV?$basic_string@DU?$char_traits@D@std@@V?$allocator@D@2@@std@@00@Z 10032ca0 f   TopologyChartAPI.obj
 0001:00031ed0       ?SubmitTopologyChart@@YA_NPAXV?$basic_string@DU?$char_traits@D@std@@V?$allocator@D@2@@std@@1@Z 10032ed0 f   TopologyChartAPI.obj
 0001:00032140       ?CloseTopologyChart@@YA_NAAPAX@Z 10033140 f   TopologyChartAPI.obj
 0001:000321c0       ?GetAllTopologyChartInfo@@YA_NAAV?$list@Usv_pair@@V?$allocator@Usv_pair@@@std@@@std@@V?$basic_string@DU?$char_traits@D@std@@V?$allocator@D@2@@2@11@Z 100331c0 f   TopologyChartAPI.obj
 0001:00032410       ?GetAllTopologyChartInfoFrom@@YA_NV?$basic_string@DU?$char_traits@D@std@@V?$allocator@D@2@@std@@00AAV?$list@V?$basic_string@DU?$char_traits@D@std@@V?$allocator@D@2@@std@@V?$allocator@V?$basic_string@DU?$char_traits@D@std@@V?$allocator@D@2@@std@@@2@@2@00@Z 10033410 f   TopologyChartAPI.obj
 0001:00032710       ?GetAllTopologyChartInfoInWords@@YA_NV?$basic_string@DU?$char_traits@D@std@@V?$allocator@D@2@@std@@0AAV?$list@V?$basic_string@DU?$char_traits@D@std@@V?$allocator@D@2@@std@@V?$allocator@V?$basic_string@DU?$char_traits@D@std@@V?$allocator@D@2@@std@@@2@@2@00@Z 10033710 f   TopologyChartAPI.obj
 0001:00032840       ?GetAllTopologyChartInfoInProperty@@YA_NV?$basic_string@DU?$char_traits@D@std@@V?$allocator@D@2@@std@@0AAV?$list@V?$basic_string@DU?$char_traits@D@std@@V?$allocator@D@2@@std@@V?$allocator@V?$basic_string@DU?$char_traits@D@std@@V?$allocator@D@2@@std@@@2@@2@00@Z 10033840 f   TopologyChartAPI.obj
 0001:00032970       ?GetRawDataSize@VirtualGroup@@UAEIXZ 10033970 f   VirtualGroup.obj
 0001:000329f0       ?GetRawData@VirtualGroup@@UAEPADPADI@Z 100339f0 f   VirtualGroup.obj
 0001:00032b70       ?CreateObjectByRawData@VirtualGroup@@UAEHPBDI@Z 10033b70 f   VirtualGroup.obj
 0001:00032d60       ??0VirtualGroup@@QAE@XZ    10033d60 f   VirtualGroup.obj
 0001:00032e10       ??1VirtualGroup@@QAE@XZ    10033e10 f   VirtualGroup.obj
 0001:00032eb0       ?PutID@VirtualGroup@@QAEXVword@svutil@@@Z 10033eb0 f i VirtualGroupAPI.obj
 0001:00032f10       ?GetVirtualGroup@@YAPAXV?$basic_string@DU?$char_traits@D@std@@V?$allocator@D@2@@std@@00@Z 10033f10 f   VirtualGroupAPI.obj
 0001:00033150       ?CreateVirtualGroup@@YAPAXV?$basic_string@DU?$char_traits@D@std@@V?$allocator@D@2@@std@@@Z 10034150 f   VirtualGroupAPI.obj
 0001:00033220       ?GetVirtualGroupMainAttribNode@@YAPAXPAX@Z 10034220 f   VirtualGroupAPI.obj
 0001:00033230       ?DeleteVirtualGroup@@YA_NV?$basic_string@DU?$char_traits@D@std@@V?$allocator@D@2@@std@@00@Z 10034230 f   VirtualGroupAPI.obj
 0001:00033460       ?SubmitVirtualGroup@@YA_NPAXV?$basic_string@DU?$char_traits@D@std@@V?$allocator@D@2@@std@@1@Z 10034460 f   VirtualGroupAPI.obj
 0001:000336d0       ?CloseVirtualGroup@@YA_NAAPAX@Z 100346d0 f   VirtualGroupAPI.obj
 0001:00033750       ?GetAllVirtualGroupInfo@@YA_NAAV?$list@Usv_pair@@V?$allocator@Usv_pair@@@std@@@std@@V?$basic_string@DU?$char_traits@D@std@@V?$allocator@D@2@@2@11@Z 10034750 f   VirtualGroupAPI.obj
 0001:000339a0       ?GetAllVirtualGroupInfoFrom@@YA_NV?$basic_string@DU?$char_traits@D@std@@V?$allocator@D@2@@std@@00AAV?$list@V?$basic_string@DU?$char_traits@D@std@@V?$allocator@D@2@@std@@V?$allocator@V?$basic_string@DU?$char_traits@D@std@@V?$allocator@D@2@@std@@@2@@2@00@Z 100349a0 f   VirtualGroupAPI.obj
 0001:00033ca0       ?GetAllVirtualGroupInfoInWords@@YA_NV?$basic_string@DU?$char_traits@D@std@@V?$allocator@D@2@@std@@0AAV?$list@V?$basic_string@DU?$char_traits@D@std@@V?$allocator@D@2@@std@@V?$allocator@V?$basic_string@DU?$char_traits@D@std@@V?$allocator@D@2@@std@@@2@@2@00@Z 10034ca0 f   VirtualGroupAPI.obj
 0001:00033dd0       ?GetAllVirtualGroupInfoInProperty@@YA_NV?$basic_string@DU?$char_traits@D@std@@V?$allocator@D@2@@std@@0AAV?$list@V?$basic_string@DU?$char_traits@D@std@@V?$allocator@D@2@@std@@V?$allocator@V?$basic_string@DU?$char_traits@D@std@@V?$allocator@D@2@@std@@@2@@2@00@Z 10034dd0 f   VirtualGroupAPI.obj
 0001:00033f00       ??0word@svutil@@QAE@PBD@Z  10034f00 f   libutil:strkey.obj
 0001:00033f90       ??0word@svutil@@QAE@ABV01@@Z 10034f90 f   libutil:strkey.obj
 0001:00034020       ??0word@svutil@@QAE@ABV?$basic_string@DU?$char_traits@D@std@@V?$allocator@D@2@@std@@@Z 10035020 f   libutil:strkey.obj
 0001:000340c0       ??4word@svutil@@QAEAAV01@PBD@Z 100350c0 f   libutil:strkey.obj
 0001:00034160       ??4word@svutil@@QAEAAV01@ABV01@@Z 10035160 f   libutil:strkey.obj
 0001:00034210       ??8word@svutil@@QBE_NABV01@@Z 10035210 f   libutil:strkey.obj
 0001:00034280       ??Mword@svutil@@QBE_NABV01@@Z 10035280 f   libutil:strkey.obj
 0001:00034390       ??Oword@svutil@@QBE_NABV01@@Z 10035390 f   libutil:strkey.obj
 0001:000344a0       ??0buffer@svutil@@QAE@XZ   100354a0 f   libutil:buffer.obj
 0001:000344e0       ??1buffer@svutil@@QAE@XZ   100354e0 f   libutil:buffer.obj
 0001:00034540       ?checksize@buffer@svutil@@QAE_NI@Z 10035540 f   libutil:buffer.obj
 0001:00034620       ?isPending@SimpleTCPStream@ost@@UAE_NW4Pending@Socket@2@K@Z 10035620 f   ccgnu2:ccgnu2.dll
 0001:00034626       ?writeData@Socket@ost@@MAEHPBXIK@Z 10035626 f   ccgnu2:ccgnu2.dll
 0001:0003462c       ?readData@Socket@ost@@MAEHPAXIDK@Z 1003562c f   ccgnu2:ccgnu2.dll
 0001:00034632       ??2@YAPAXI@Z               10035632 f   msvcprt:newop_s.obj
 0001:00034657       ??_U@YAPAXI@Z              10035657 f   msvcprt:newaop_s.obj
 0001:0003465c       ___CxxFrameHandler         1003565c f   MSVCRT:MSVCR71.dll
 0001:00034670       ??3@YAXPAX@Z               10035670 f   MSVCRT:MSVCR71.dll
 0001:00034676       ??0exception@@QAE@ABV0@@Z  10035676 f   MSVCRT:MSVCR71.dll
 0001:0003467c       ??_Etype_info@@UAEPAXI@Z   1003567c f i MSVCRT:ti_inst.obj
 0001:000346c8       __CxxThrowException@8      100356c8 f   MSVCRT:MSVCR71.dll
 0001:000346ce       ??_V@YAXPAX@Z              100356ce f   MSVCRT:MSVCR71.dll
 0001:00034705       @__security_check_cookie@4 10035705 f   MSVCRT:secchk.obj
 0001:00034713       ?__ArrayUnwind@@YGXPAXIHP6EX0@Z@Z 10035713 f   MSVCRT:ehvecdtr.obj
 0001:00034771       ??_M@YGXPAXIHP6EX0@Z@Z     10035771 f   MSVCRT:ehvecdtr.obj
 0001:000347d1       ??_L@YGXPAXIHP6EX0@Z1@Z    100357d1 f   MSVCRT:ehvecctr.obj
 0001:00034833       __onexit                   10035833 f   MSVCRT:atonexit.obj
 0001:00034859       _atexit                    10035859 f   MSVCRT:atonexit.obj
 0001:0003486b       __CRT_INIT@12              1003586b f   MSVCRT:crtdll.obj
 0001:00034929       __DllMainCRTStartup@12     10035929 f   MSVCRT:crtdll.obj
 0001:00034a0d       __RTC_CheckEsp             10035a0d f   MSVCRT:stack.obj
 0001:00034a30       __RTC_InitBase             10035a30 f   MSVCRT:init.obj
 0001:00034a56       __RTC_Shutdown             10035a56 f   MSVCRT:init.obj
 0001:00034a68       _strcmp                    10035a68 f   MSVCRT:MSVCR71.dll
 0001:00034a6e       _strlen                    10035a6e f   MSVCRT:MSVCR71.dll
 0001:00034a74       _memset                    10035a74 f   MSVCRT:MSVCR71.dll
 0001:00034a7a       _malloc                    10035a7a f   MSVCRT:MSVCR71.dll
 0001:00034a80       __callnewh                 10035a80 f   MSVCRT:MSVCR71.dll
 0001:00034a86       ??1type_info@@UAE@XZ       10035a86 f   MSVCRT:MSVCR71.dll
 0001:00034a8c       ___security_init_cookie    10035a8c f   MSVCRT:seccinit.obj
 0001:00034af2       ___security_error_handler  10035af2 f   MSVCRT:MSVCR71.dll
 0001:00034af8       __SEH_prolog               10035af8 f   MSVCRT:sehprolg.obj
 0001:00034b33       __SEH_epilog               10035b33 f   MSVCRT:sehprolg.obj
 0001:00034b44       __except_handler3          10035b44 f   MSVCRT:MSVCR71.dll
 0001:00034b4a       ?terminate@@YAXXZ          10035b4a f   MSVCRT:MSVCR71.dll
 0001:00034b50       ___dllonexit               10035b50 f   MSVCRT:MSVCR71.dll
 0001:00034b56       __initterm                 10035b56 f   MSVCRT:MSVCR71.dll
 0001:00034b5c       __RTC_Initialize           10035b5c f   MSVCRT:initsect.obj
 0001:00034ba0       __RTC_Terminate            10035ba0 f   MSVCRT:initsect.obj
 0001:00034be4       ___CppXcptFilter           10035be4 f   MSVCRT:MSVCR71.dll
 0001:00034e1c       ?_RTC_Failure@@YAXPAXH@Z   10035e1c f   MSVCRT:error.obj
 0001:00034e5a       __RTC_SetErrorFunc         10035e5a f   MSVCRT:userapi.obj
 0001:00034e6a       ?_RTC_GetErrorFunc@@YAP6AHHPBDH00ZZPBX@Z 10035e6a f   MSVCRT:userapi.obj
 0001:00034e70       __CRT_RTC_INIT             10035e70 f   MSVCRT:MSVCR71.dll
 0001:00034e80       __chkstk                   10035e80 f   MSVCRT:chkstk.obj
 0001:00034e80       __alloca_probe             10035e80     MSVCRT:chkstk.obj
 0001:00035346       ?_RTC_GetSrcLine@@YAHKPADHPAHPAPAD@Z 10036346 f   MSVCRT:pdblkup.obj
 0002:00000000       __imp__RegEnumValueA@32    1003c000     advapi32:ADVAPI32.dll
 0002:00000004       __imp__RegOpenKeyExA@20    1003c004     advapi32:ADVAPI32.dll
 0002:00000008       __imp__RegCloseKey@4       1003c008     advapi32:ADVAPI32.dll
 0002:0000000c       \177ADVAPI32_NULL_THUNK_DATA 1003c00c     advapi32:ADVAPI32.dll
 0002:00000010       __imp__HeapAlloc@12        1003c010     kernel32:KERNEL32.dll
 0002:00000014       __imp__GetModuleFileNameA@12 1003c014     kernel32:KERNEL32.dll
 0002:00000018       __imp__DebugBreak@0        1003c018     kernel32:KERNEL32.dll
 0002:0000001c       __imp__LoadLibraryA@4      1003c01c     kernel32:KERNEL32.dll
 0002:00000020       __imp__GetProcAddress@8    1003c020     kernel32:KERNEL32.dll
 0002:00000024       __imp__GetCurrentProcess@0 1003c024     kernel32:KERNEL32.dll
 0002:00000028       __imp__RaiseException@16   1003c028     kernel32:KERNEL32.dll
 0002:0000002c       __imp__GetSystemTimeAsFileTime@4 1003c02c     kernel32:KERNEL32.dll
 0002:00000030       __imp__GetCurrentThreadId@0 1003c030     kernel32:KERNEL32.dll
 0002:00000034       __imp__QueryPerformanceCounter@4 1003c034     kernel32:KERNEL32.dll
 0002:00000038       __imp__ExitProcess@4       1003c038     kernel32:KERNEL32.dll
 0002:0000003c       __imp__HeapFree@12         1003c03c     kernel32:KERNEL32.dll
 0002:00000040       __imp__GetProcessHeap@0    1003c040     kernel32:KERNEL32.dll
 0002:00000044       __imp__GetVersionExA@4     1003c044     kernel32:KERNEL32.dll
 0002:00000048       __imp__GetTickCount@0      1003c048     kernel32:KERNEL32.dll
 0002:0000004c       __imp__FreeLibrary@4       1003c04c     kernel32:KERNEL32.dll
 0002:00000050       __imp__GetLastError@0      1003c050     kernel32:KERNEL32.dll
 0002:00000054       __imp__FlushFileBuffers@4  1003c054     kernel32:KERNEL32.dll
 0002:00000058       __imp__WriteFile@20        1003c058     kernel32:KERNEL32.dll
 0002:0000005c       __imp__ReadFile@20         1003c05c     kernel32:KERNEL32.dll
 0002:00000060       __imp__CloseHandle@4       1003c060     kernel32:KERNEL32.dll
 0002:00000064       __imp__CreateFileA@28      1003c064     kernel32:KERNEL32.dll
 0002:00000068       __imp__WaitNamedPipeA@8    1003c068     kernel32:KERNEL32.dll
 0002:0000006c       __imp__GetCurrentProcessId@0 1003c06c     kernel32:KERNEL32.dll
 0002:00000070       \177KERNEL32_NULL_THUNK_DATA 1003c070     kernel32:KERNEL32.dll
 0002:00000074       __imp_?_Nomemory@std@@YAXXZ 1003c074     msvcprt:MSVCP71.dll
 0002:00000078       __imp_??0?$basic_string@DU?$char_traits@D@std@@V?$allocator@D@2@@std@@QAE@ABV01@@Z 1003c078     msvcprt:MSVCP71.dll
 0002:0000007c       __imp_??1?$basic_string@DU?$char_traits@D@std@@V?$allocator@D@2@@std@@QAE@XZ 1003c07c     msvcprt:MSVCP71.dll
 0002:00000080       __imp_?_Unlock@_Mutex@std@@QAEXXZ 1003c080     msvcprt:MSVCP71.dll
 0002:00000084       __imp_?_Lock@_Mutex@std@@QAEXXZ 1003c084     msvcprt:MSVCP71.dll
 0002:00000088       __imp_??0?$basic_string@DU?$char_traits@D@std@@V?$allocator@D@2@@std@@QAE@PBD@Z 1003c088     msvcprt:MSVCP71.dll
 0002:0000008c       __imp_??Y?$basic_string@DU?$char_traits@D@std@@V?$allocator@D@2@@std@@QAEAAV01@PBD@Z 1003c08c     msvcprt:MSVCP71.dll
 0002:00000090       __imp_?uncaught_exception@std@@YA_NXZ 1003c090     msvcprt:MSVCP71.dll
 0002:00000094       __imp_?flush@?$basic_ostream@DU?$char_traits@D@std@@@std@@QAEAAV12@XZ 1003c094     msvcprt:MSVCP71.dll
 0002:00000098       __imp_?_Osfx@?$basic_ostream@DU?$char_traits@D@std@@@std@@QAEXXZ 1003c098     msvcprt:MSVCP71.dll
 0002:0000009c       __imp_?clear@ios_base@std@@QAEXH_N@Z 1003c09c     msvcprt:MSVCP71.dll
 0002:000000a0       __imp_?erase@?$basic_string@DU?$char_traits@D@std@@V?$allocator@D@2@@std@@QAEAAV12@II@Z 1003c0a0     msvcprt:MSVCP71.dll
 0002:000000a4       __imp_?npos@?$basic_string@DU?$char_traits@D@std@@V?$allocator@D@2@@std@@2IB 1003c0a4     msvcprt:MSVCP71.dll
 0002:000000a8       __imp_?sputc@?$basic_streambuf@DU?$char_traits@D@std@@@std@@QAEHD@Z 1003c0a8     msvcprt:MSVCP71.dll
 0002:000000ac       __imp_??0?$basic_string@DU?$char_traits@D@std@@V?$allocator@D@2@@std@@QAE@XZ 1003c0ac     msvcprt:MSVCP71.dll
 0002:000000b0       __imp_??4?$basic_string@DU?$char_traits@D@std@@V?$allocator@D@2@@std@@QAEAAV01@ABV01@@Z 1003c0b0     msvcprt:MSVCP71.dll
 0002:000000b4       __imp_?substr@?$basic_string@DU?$char_traits@D@std@@V?$allocator@D@2@@std@@QBE?AV12@II@Z 1003c0b4     msvcprt:MSVCP71.dll
 0002:000000b8       __imp_??$?MDU?$char_traits@D@std@@V?$allocator@D@1@@std@@YA_NABV?$basic_string@DU?$char_traits@D@std@@V?$allocator@D@2@@0@0@Z 1003c0b8     msvcprt:MSVCP71.dll
 0002:000000bc       __imp_??4?$basic_string@DU?$char_traits@D@std@@V?$allocator@D@2@@std@@QAEAAV01@PBD@Z 1003c0bc     msvcprt:MSVCP71.dll
 0002:000000c0       __imp_?clear@?$basic_string@DU?$char_traits@D@std@@V?$allocator@D@2@@std@@QAEXXZ 1003c0c0     msvcprt:MSVCP71.dll
 0002:000000c4       __imp_?compare@?$basic_string@DU?$char_traits@D@std@@V?$allocator@D@2@@std@@QBEHIIPBDI@Z 1003c0c4     msvcprt:MSVCP71.dll
 0002:000000c8       __imp_?find@?$basic_string@DU?$char_traits@D@std@@V?$allocator@D@2@@std@@QBEIPBDII@Z 1003c0c8     msvcprt:MSVCP71.dll
 0002:000000cc       __imp_??_D?$basic_ostringstream@DU?$char_traits@D@std@@V?$allocator@D@2@@std@@QAEXXZ 1003c0cc     msvcprt:MSVCP71.dll
 0002:000000d0       __imp_?str@?$basic_ostringstream@DU?$char_traits@D@std@@V?$allocator@D@2@@std@@QBE?AV?$basic_string@DU?$char_traits@D@std@@V?$allocator@D@2@@2@XZ 1003c0d0     msvcprt:MSVCP71.dll
 0002:000000d4       __imp_??$?6U?$char_traits@D@std@@@std@@YAAAV?$basic_ostream@DU?$char_traits@D@std@@@0@AAV10@PBD@Z 1003c0d4     msvcprt:MSVCP71.dll
 0002:000000d8       __imp_??6?$basic_ostream@DU?$char_traits@D@std@@@std@@QAEAAV01@M@Z 1003c0d8     msvcprt:MSVCP71.dll
 0002:000000dc       __imp_??6?$basic_ostream@DU?$char_traits@D@std@@@std@@QAEAAV01@H@Z 1003c0dc     msvcprt:MSVCP71.dll
 0002:000000e0       __imp_??0?$basic_ostringstream@DU?$char_traits@D@std@@V?$allocator@D@2@@std@@QAE@H@Z 1003c0e0     msvcprt:MSVCP71.dll
 0002:000000e4       __imp_??6?$basic_ostream@DU?$char_traits@D@std@@@std@@QAEAAV01@P6AAAV01@AAV01@@Z@Z 1003c0e4     msvcprt:MSVCP71.dll
 0002:000000e8       __imp_?cout@std@@3V?$basic_ostream@DU?$char_traits@D@std@@@1@A 1003c0e8     msvcprt:MSVCP71.dll
 0002:000000ec       __imp_?endl@std@@YAAAV?$basic_ostream@DU?$char_traits@D@std@@@1@AAV21@@Z 1003c0ec     msvcprt:MSVCP71.dll
 0002:000000f0       __imp_?close@?$basic_fstream@DU?$char_traits@D@std@@@std@@QAEXXZ 1003c0f0     msvcprt:MSVCP71.dll
 0002:000000f4       __imp_??$?ODU?$char_traits@D@std@@V?$allocator@D@1@@std@@YA_NABV?$basic_string@DU?$char_traits@D@std@@V?$allocator@D@2@@0@PBD@Z 1003c0f4     msvcprt:MSVCP71.dll
 0002:000000f8       __imp_??_D?$basic_fstream@DU?$char_traits@D@std@@@std@@QAEXXZ 1003c0f8     msvcprt:MSVCP71.dll
 0002:000000fc       __imp_??0?$basic_fstream@DU?$char_traits@D@std@@@std@@QAE@PBDHH@Z 1003c0fc     msvcprt:MSVCP71.dll
 0002:00000100       __imp_?getline@?$basic_istream@DU?$char_traits@D@std@@@std@@QAEAAV12@PADH@Z 1003c100     msvcprt:MSVCP71.dll
 0002:00000104       __imp_?rfind@?$basic_string@DU?$char_traits@D@std@@V?$allocator@D@2@@std@@QBEIPBDII@Z 1003c104     msvcprt:MSVCP71.dll
 0002:00000108       __imp_?c_str@?$basic_string@DU?$char_traits@D@std@@V?$allocator@D@2@@std@@QBEPBDXZ 1003c108     msvcprt:MSVCP71.dll
 0002:0000010c       \177MSVCP71_NULL_THUNK_DATA 1003c10c     msvcprt:MSVCP71.dll
 0002:00000110       __imp___initterm           1003c110     MSVCRT:MSVCR71.dll
 0002:00000114       __imp___onexit             1003c114     MSVCRT:MSVCR71.dll
 0002:00000118       __imp___CRT_RTC_INIT       1003c118     MSVCRT:MSVCR71.dll
 0002:0000011c       __imp____CppXcptFilter     1003c11c     MSVCRT:MSVCR71.dll
 0002:00000120       __imp_??1exception@@UAE@XZ 1003c120     MSVCRT:MSVCR71.dll
 0002:00000124       __imp_??0exception@@QAE@XZ 1003c124     MSVCRT:MSVCR71.dll
 0002:00000128       __imp____CxxFrameHandler   1003c128     MSVCRT:MSVCR71.dll
 0002:0000012c       __imp_??3@YAXPAX@Z         1003c12c     MSVCRT:MSVCR71.dll
 0002:00000130       __imp___strdup             1003c130     MSVCRT:MSVCR71.dll
 0002:00000130       __imp__strdup              1003c130     MSVCRT:MSVCR71.dll
 0002:00000134       __imp__free                1003c134     MSVCRT:MSVCR71.dll
 0002:00000138       __imp_??0exception@@QAE@ABV0@@Z 1003c138     MSVCRT:MSVCR71.dll
 0002:0000013c       __imp___CxxThrowException@8 1003c13c     MSVCRT:MSVCR71.dll
 0002:00000140       __imp__memmove             1003c140     MSVCRT:MSVCR71.dll
 0002:00000144       __imp_??_V@YAXPAX@Z        1003c144     MSVCRT:MSVCR71.dll
 0002:00000148       __imp__sprintf             1003c148     MSVCRT:MSVCR71.dll
 0002:0000014c       __imp__puts                1003c14c     MSVCRT:MSVCR71.dll
 0002:00000150       __imp__printf              1003c150     MSVCRT:MSVCR71.dll
 0002:00000154       __imp__atoi                1003c154     MSVCRT:MSVCR71.dll
 0002:00000158       __imp__time                1003c158     MSVCRT:MSVCR71.dll
 0002:0000015c       __imp__localtime           1003c15c     MSVCRT:MSVCR71.dll
 0002:00000160       __imp__tolower             1003c160     MSVCRT:MSVCR71.dll
 0002:00000164       __imp__strrchr             1003c164     MSVCRT:MSVCR71.dll
 0002:00000168       __imp__strchr              1003c168     MSVCRT:MSVCR71.dll
 0002:0000016c       __imp____dllonexit         1003c16c     MSVCRT:MSVCR71.dll
 0002:00000170       __imp__stricmp             1003c170     MSVCRT:MSVCR71.dll
 0002:00000170       __imp___stricmp            1003c170     MSVCRT:MSVCR71.dll
 0002:00000174       __imp__strcmp              1003c174     MSVCRT:MSVCR71.dll
 0002:00000178       __imp__strlen              1003c178     MSVCRT:MSVCR71.dll
 0002:0000017c       __imp__memset              1003c17c     MSVCRT:MSVCR71.dll
 0002:00000180       __imp__malloc              1003c180     MSVCRT:MSVCR71.dll
 0002:00000184       __imp___callnewh           1003c184     MSVCRT:MSVCR71.dll
 0002:00000188       __imp_??1type_info@@UAE@XZ 1003c188     MSVCRT:MSVCR71.dll
 0002:0000018c       __imp____security_error_handler 1003c18c     MSVCRT:MSVCR71.dll
 0002:00000190       __imp___except_handler3    1003c190     MSVCRT:MSVCR71.dll
 0002:00000194       __imp_?terminate@@YAXXZ    1003c194     MSVCRT:MSVCR71.dll
 0002:00000198       __imp___adjust_fdiv        1003c198     MSVCRT:MSVCR71.dll
 0002:0000019c       \177MSVCR71_NULL_THUNK_DATA 1003c19c     MSVCRT:MSVCR71.dll
 0002:000001a0       __imp__shutdown@8          1003c1a0     ws2_32:WS2_32.dll
 0002:000001a4       __imp__WSAGetLastError@0   1003c1a4     ws2_32:WS2_32.dll
 0002:000001a8       \177WS2_32_NULL_THUNK_DATA 1003c1a8     ws2_32:WS2_32.dll
 0002:000001ac       __imp_??1IPV4Address@ost@@UAE@XZ 1003c1ac     ccgnu2:ccgnu2.dll
 0002:000001b0       __imp_??0IPV4Host@ost@@QAE@PBD@Z 1003c1b0     ccgnu2:ccgnu2.dll
 0002:000001b4       __imp_??1IPV4Host@ost@@UAE@XZ 1003c1b4     ccgnu2:ccgnu2.dll
 0002:000001b8       __imp_?endSocket@Socket@ost@@IAEXXZ 1003c1b8     ccgnu2:ccgnu2.dll
 0002:000001bc       __imp_?setNoDelay@Socket@ost@@IAE?AW4Error@12@_N@Z 1003c1bc     ccgnu2:ccgnu2.dll
 0002:000001c0       __imp_?enterMutex@Mutex@ost@@QAEXXZ 1003c1c0     ccgnu2:ccgnu2.dll
 0002:000001c4       __imp_?leaveMutex@Mutex@ost@@QAEXXZ 1003c1c4     ccgnu2:ccgnu2.dll
 0002:000001c8       __imp_??1MutexLock@ost@@QAE@XZ 1003c1c8     ccgnu2:ccgnu2.dll
 0002:000001cc       __imp_??1SimpleTCPStream@ost@@UAE@XZ 1003c1cc     ccgnu2:ccgnu2.dll
 0002:000001d0       __imp_??0SimpleTCPStream@ost@@QAE@ABVIPV4Host@1@GI@Z 1003c1d0     ccgnu2:ccgnu2.dll
 0002:000001d4       __imp_?readData@Socket@ost@@MAEHPAXIDK@Z 1003c1d4     ccgnu2:ccgnu2.dll
 0002:000001d8       __imp_?writeData@Socket@ost@@MAEHPBXIK@Z 1003c1d8     ccgnu2:ccgnu2.dll
 0002:000001dc       __imp_?isPending@SimpleTCPStream@ost@@UAE_NW4Pending@Socket@2@K@Z 1003c1dc     ccgnu2:ccgnu2.dll
 0002:000001e0       __imp_??1Mutex@ost@@UAE@XZ 1003c1e0     ccgnu2:ccgnu2.dll
 0002:000001e4       __imp_??0Mutex@ost@@QAE@PBD@Z 1003c1e4     ccgnu2:ccgnu2.dll
 0002:000001e8       \177ccgnu2_NULL_THUNK_DATA 1003c1e8     ccgnu2:ccgnu2.dll
 0002:0000020c       ??_7logic_error@std@@6B@   1003c20c     Entity.obj
 0002:00000214       ??_7length_error@std@@6B@  1003c214     Entity.obj
 0002:0000021c       ??_7word@svutil@@6B@       1003c21c     Entity.obj
 0002:00000220       ??_C@_00CNPNBAHC@?$AA@     1003c220     Entity.obj
 0002:00000224       ??_C@_0BB@MOGOBHAF@list?$DMT?$DO?5too?5long?$AA@ 1003c224     Entity.obj
 0002:00000238       ??_7Entity@@6B@            1003c238     Entity.obj
 0002:00000244       ??_7EntityGroup@@6B@       1003c244     EntityGroup.obj
 0002:00000250       ??_7EntityTemplet@@6B@     1003c250     EntityTemplet.obj
 0002:0000025c       ??_7out_of_range@std@@6B@  1003c25c     General.obj
 0002:00000264       ??_C@_0M@IGBDGEOL@MSException?$AA@ 1003c264     General.obj
 0002:00000270       ??_C@_09FBNMMHMJ@Exception?$AA@ 1003c270     General.obj
 0002:0000027c       ??_7exception@svutil@@6B@  1003c27c     General.obj
 0002:00000288       ??_C@_02DKCKIIND@?$CFs?$AA@ 1003c288     General.obj
 0002:0000028c       ??_C@_02DPKJAMEF@?$CFd?$AA@ 1003c28c     General.obj
 0002:00000290       ??_7?$sorttree@V?$hashelement@Vword@svutil@@V12@@svutil@@@svutil@@6B@ 1003c290     General.obj
 0002:00000294       ??_7?$treenode@V?$hashelement@Vword@svutil@@V12@@svutil@@@svutil@@6B@ 1003c294     General.obj
 0002:00000298       ??_C@_0BD@OLBABOEK@vector?$DMT?$DO?5too?5long?$AA@ 1003c298     General.obj
 0002:000002ac       ??_C@_0M@GDPCLNPJ@Close?5error?$AA@ 1003c2ac     General.obj
 0002:000002b8       ??_C@_0M@LDHJKBJE@No?5the?5node?$AA@ 1003c2b8     General.obj
 0002:000002c4       ??_C@_0L@KMPFIPOJ@empty?5tree?$AA@ 1003c2c4     General.obj
 0002:000002d0       ??_C@_0BD@JEAHJBKA@Create?5node?5failed?$AA@ 1003c2d0     General.obj
 0002:000002e4       ??_C@_0BM@PAPJHAGI@invalid?5map?1set?$DMT?$DO?5iterator?$AA@ 1003c2e4     General.obj
 0002:00000300       ??_C@_0BK@LPHHPLCM@Exception?5to?5ClearMapNode?$AA@ 1003c300     General.obj
 0002:0000031c       ??_C@_0BE@JONHPENG@map?1set?$DMT?$DO?5too?5long?$AA@ 1003c31c     General.obj
 0002:00000330       ??_C@_0CF@CHBLCLDG@Exception?5to?5GetSvIniFileBySecti@ 1003c330     General.obj
 0002:00000358       ??_C@_0L@CLEHCJOB@cgiversion?$AA@ 1003c358     General.obj
 0002:00000364       ??_C@_05NGENBMIE@svapi?$AA@ 1003c364     General.obj
 0002:0000036c       ??_C@_0N@BIBBAIGN@SvdbHostAddr?$AA@ 1003c36c     General.obj
 0002:0000037c       ??_7Group@@6B@             1003c37c     Group.obj
 0002:00000388       ??_C@_07DLHCIBDH@default?$AA@ 1003c388     GroupAPI.obj
 0002:00000390       ??_7Monitor@@6B@           1003c390     Monitor.obj
 0002:0000039c       ??_C@_0P@MHFALFJ@sv_monitortype?$AA@ 1003c39c     MonitorAPI.obj
 0002:000003ac       ??_7MonitorTemplet@@6B@    1003c3ac     MonitorTemplet.obj
 0002:000003b8       ??_C@_0N@OADMGFPK@defaultlabel?$AA@ 1003c3b8     MQapi.obj
 0002:000003c8       ??_7MyTCPStream@@6B@       1003c3c8     MyTCPStream.obj
 0002:000003d8       ??_C@_0BM@DAFDJKHJ@?$CFd?9?$CF02d?9?$CF02d?5?$CF02d?3?$CF02d?3?$CF02d?$AA@ 1003c3d8     ObjCache.obj
 0002:000003f4       ??_7StringMap@@6B@         1003c3f4     ObjCache.obj
 0002:00000400       ??_C@_0CJ@MPCNIFBJ@Exception?5to?5builddyn?5in?5Cache_G@ 1003c400     ObjCache.obj
 0002:0000042c       ??_C@_0CL@CHMJIDIM@Exception?5to?5QuerySVDYNs?5in?5Refr@ 1003c42c     ObjCache.obj
 0002:00000458       ??_C@_0DG@KDPHKFFP@Exception?5to?5QueryMassMonitor?5in@ 1003c458     ObjCache.obj
 0002:00000490       ??_C@_0DF@EIJJCIPJ@Exception?5to?5QueryMassEntity?5in?5@ 1003c490     ObjCache.obj
 0002:000004c8       ??_C@_01LFCBOECM@?4?$AA@   1003c4c8     ObjCache.obj
 0002:000004cc       ??_C@_0CA@GOKBDNHB@Exception?5to?5SetLatestRecords?5?4?$AA@ 1003c4cc     ObjCache.obj
 0002:000004ec       ??_C@_05GAOAHFKE@sv_id?$AA@ 1003c4ec     ObjCache.obj
 0002:000004f4       ??_C@_06ICGJLFIM@string?$AA@ 1003c4f4     ObjCache.obj
 0002:000004fc       ??_C@_05KNFBNCOH@float?$AA@ 1003c4fc     ObjCache.obj
 0002:00000504       ??_C@_03JBIPMCLC@int?$AA@  1003c504     ObjCache.obj
 0002:00000508       ??_C@_07DHHPHHAN@sv_name?$AA@ 1003c508     ObjCache.obj
 0002:00000510       ??_C@_07JMHMLHHN@sv_type?$AA@ 1003c510     ObjCache.obj
 0002:00000518       ??_C@_09MLGOKAHN@KLS_times?$AA@ 1003c518     ObjCache.obj
 0002:00000524       ??_C@_0M@BICHLDAK@KLS_seconds?$AA@ 1003c524     ObjCache.obj
 0002:00000530       ??_C@_0O@IOFIEMCF@record_status?$AA@ 1003c530     ObjCache.obj
 0002:00000540       ??_C@_0BH@MGFBDMDC@GetRecordState?5failed?4?$AA@ 1003c540     ObjCache.obj
 0002:00000558       ??_C@_03HBABANP@bad?$AA@   1003c558     ObjCache.obj
 0002:0000055c       ??_C@_07DBNODEFN@disable?$AA@ 1003c55c     ObjCache.obj
 0002:00000564       ??_C@_05KKCIMGE@error?$AA@ 1003c564     ObjCache.obj
 0002:0000056c       ??_C@_07FPLKDJGL@warning?$AA@ 1003c56c     ObjCache.obj
 0002:00000574       ??_C@_02MFDMBIJM@ok?$AA@   1003c574     ObjCache.obj
 0002:00000578       ??_C@_04MLLLIHIP@null?$AA@ 1003c578     ObjCache.obj
 0002:00000580       ??_C@_0L@FCEBPIEM@creat_time?$AA@ 1003c580     ObjCache.obj
 0002:0000058c       ??_C@_0O@EJOENDFJ@abnormal?5time?$AA@ 1003c58c     ObjCache.obj
 0002:0000059c       ??_C@_04GCBEANOF@dstr?$AA@ 1003c59c     ObjCache.obj
 0002:000005a4       ??_C@_0O@IPFJJEMA@onecmdb_alias?$AA@ 1003c5a4     ObjCache.obj
 0002:000005b4       ??_C@_09IPAEKDAI@localhost?$AA@ 1003c5b4     ObjCache.obj
 0002:000005c0       ??_C@_0CD@FAGPPIHH@Exception?5in?5RefreshLatestRecord@ 1003c5c0     ObjCache.obj
 0002:000005e4       ??_C@_0BI@MBFMIBHG@system?5error?5number?3?$CFd?6?$AA@ 1003c5e4     QueryData.obj
 0002:000005fc       ??_C@_0BB@CEJPOIGN@error?5number?3?$CFd?6?$AA@ 1003c5fc     QueryData.obj
 0002:00000610       ??_C@_0BI@ILALGDNC@socket?5exception?5happen?$AA@ 1003c610     QueryData.obj
 0002:00000628       ??_C@_0CE@OECMJOFC@?2?2?4?2pipe?2DragonFlow_Sitview7?40_S@ 1003c628     QueryData.obj
 0002:0000064c       ??_C@_0BO@GGKGEBMN@WriteFile?5failed?5error?5id?3?$CFd?6?$AA@ 1003c64c     QueryData.obj
 0002:0000066c       ??_C@_09OJMDMBJI@error?3?$CFd?6?$AA@ 1003c66c     QueryData.obj
 0002:00000678       ??_C@_0N@PIIOOFNF@socket?5error?$AA@ 1003c678     QueryData.obj
 0002:00000688       ??_C@_09PFCHIMEP@127?40?40?41?$AA@ 1003c688     QueryData.obj
 0002:00000694       ??_C@_0P@CEFDDFGM@Raw?5data?5error?$AA@ 1003c694     QueueRecord.obj
 0002:000006a4       ??_C@_05OMNIFHIN@?$CF0?42f?$AA@ 1003c6a4     RecordSet.obj
 0002:000006ac       __real@00000000            1003c6ac     RecordSet.obj
 0002:000006b0       ??_7?$sorttree@V?$hashelement@Vword@svutil@@PAVRecordValue@@@svutil@@@svutil@@6B@ 1003c6b0     RecordSet.obj
 0002:000006b4       ??_7?$treenode@V?$hashelement@Vword@svutil@@PAVRecordValue@@@svutil@@@svutil@@6B@ 1003c6b4     RecordSet.obj
 0002:000006b8       ??_C@_08CPBHONGI@?$CFs?0?$CFs?$DN?$CFd?$AA@ 1003c6b8     RecordSet.obj
 0002:000006c4       ??_C@_05JKHIFKBC@?$CFs?$DN?$CFd?$AA@ 1003c6c4     RecordSet.obj
 0002:000006cc       ??_C@_0BE@JHNDCJGD@parse?5buffer?5failed?$AA@ 1003c6cc     RecordSet.obj
 0002:000006e0       ??_C@_0M@LHPBNOAI@?$CFs?0?$CFs?$DN?$CF0?42f?$AA@ 1003c6e0     RecordSet.obj
 0002:000006ec       ??_C@_08JIBOHHIN@?$CFs?$DN?$CF0?42f?$AA@ 1003c6ec     RecordSet.obj
 0002:000006f8       ??_C@_08CKJEGJPO@?$CFs?0?$CFs?$DN?$CFs?$AA@ 1003c6f8     RecordSet.obj
 0002:00000704       ??_C@_05JPPLNOIE@?$CFs?$DN?$CFs?$AA@ 1003c704     RecordSet.obj
 0002:0000070c       ??_C@_0BC@JPAAADGF@Create?5obj?5failed?$AA@ 1003c70c     RecordSet.obj
 0002:00000720       ??_7Resource@@6B@          1003c720     Resource.obj
 0002:0000072c       ??_7CommonData@@6B@        1003c72c     Section.obj
 0002:00000738       ??_7?$sorttree@V?$hashelement@Vword@svutil@@PAVCommonData@@@svutil@@@svutil@@6B@ 1003c738     Section.obj
 0002:0000073c       ??_7?$treenode@V?$hashelement@Vword@svutil@@PAVCommonData@@@svutil@@@svutil@@6B@ 1003c73c     Section.obj
 0002:00000740       ??_7Section@@6B@           1003c740     Section.obj
 0002:0000074c       ??_C@_01NEMOKFLO@?$DN?$AA@ 1003c74c     stlini.obj
 0002:00000750       ??_C@_01OHGJGJJP@?$FL?$AA@ 1003c750     stlini.obj
 0002:00000754       ??_C@_01LBDDMOBJ@?$FN?$AA@ 1003c754     stlini.obj
 0002:00000758       ??_C@_0CH@ICEDJJFD@?6?5Exception?5to?5StringMap?3?3GetRaw@ 1003c758     StringMap.obj
 0002:00000780       ??_C@_0DA@HEGKKOC@Exception?5to?5StringMap?3?3CreateOb@ 1003c780     StringMap.obj
 0002:000007b0       ??_C@_0BD@EJNOMJKL@IDS_ENABLE_MONITOR?$AA@ 1003c7b0     svdbapi.obj
 0002:000007c4       ??_C@_0BE@NDAHHCC@IDS_MonitorDisabled?$AA@ 1003c7c4     svdbapi.obj
 0002:000007d8       ??_C@_08NIHOBNM@?F?t?S?C?$LM?$OA?$LC?b?$AA@ 1003c7d8     svdbapi.obj
 0002:000007e4       ??_C@_0N@HMAIBABL@?$LM?$OA?$LC?b?F?w?$LB?$LL?$LN?$PL?V?$LJ?$AA@ 1003c7e4     svdbapi.obj
 0002:000007f4       ??_C@_04NBOOAHGE@svdb?$AA@ 1003c7f4     svdbapi.obj
 0002:000007fc       ??_C@_0N@CJCNGGJL@DataKeepDays?$AA@ 1003c7fc     svdbapi.obj
 0002:0000080c       ??_C@_0BH@MOOBNNLI@?$CFs?1data?1svdbconfig?4ini?$AA@ 1003c80c     svdbapi.obj
 0002:00000824       ??_C@_0BF@GPFFHDCM@Get?5root?5path?5failed?$AA@ 1003c824     svdbapi.obj
 0002:0000083c       ??_C@_04LOAJBDKD@true?$AA@ 1003c83c     svdbapi.obj
 0002:00000844       ??_C@_0BA@GGPFGLLN@MonitorSchedule?$AA@ 1003c844     svdbapi.obj
 0002:00000854       ??_C@_08IFDCAAJM@DemoMode?$AA@ 1003c854     svdbapi.obj
 0002:00000860       ??_C@_0BG@BCDLAJLI@?$CFs?1fcgi?9bin?1mc?4config?$AA@ 1003c860     svdbapi.obj
 0002:00000878       ??_C@_0L@HPMGBIOI@ServerHost?$AA@ 1003c878     svdbapi.obj
 0002:00000884       ??_C@_01HIHLOKLC@1?$AA@    1003c884     svdbtype.obj
 0002:00000888       ??_C@_0BE@ICFBFFPI@Monitor?5is?5disabled?$AA@ 1003c888     svdbtype.obj
 0002:0000089c       ??_C@_0CP@KAKKKOBA@disable?5temporarily?0?5start?5time?3@ 1003c89c     svdbtype.obj
 0002:000008cc       ??_C@_0BJ@KIKGADNF@CombinedEntityTypeMarker?$AA@ 1003c8cc     svdbtype.obj
 0002:000008e8       ??_C@_0BO@EPNBDEIO@SiteView70_CentralBackupCache?$AA@ 1003c8e8     svdbtype.obj
 0002:00000908       ??_7SVSE@@6B@              1003c908     SVSE.obj
 0002:00000914       ??_C@_01GBGANLPD@0?$AA@    1003c914     SVSEAPI.obj
 0002:00000918       ??_C@_0BM@BOJKDGII@Exception?5to?5GetForestData?4?$AA@ 1003c918     SVSEAPI.obj
 0002:00000934       ??_C@_0BB@DADGKBNB@$newsection3721$?$AA@ 1003c934     TaskAPI.obj
 0002:00000948       ??_C@_0BC@CLNDDAHE@$newtaskname3721$?$AA@ 1003c948     TaskAPI.obj
 0002:0000095c       ??_C@_01KICIPPFI@?2?$AA@   1003c95c     util.obj
 0002:00000960       ??_C@_0M@KEDFDEMF@root_path_7?$AA@ 1003c960     util.obj
 0002:0000096c       ??_C@_0BO@MLDEADLE@SOFTWARE?2SiteView?2SiteViewECC?$AA@ 1003c96c     util.obj
 0002:0000098c       ??_C@_0CG@COHOBNPO@Exception?5to?5CreateNodeDataByRaw@ 1003c98c     util.obj
 0002:000009b4       ??_C@_0BL@DMCLGAOD@Raw?5data?5of?5NodeData?5error?$AA@ 1003c9b4     util.obj
 0002:000009d0       ??_C@_0CM@GMHDCEAG@Exception?5to?5CreateMassRecordLis@ 1003c9d0     util.obj
 0002:000009fc       ??_7Edge@@6B@              1003c9fc     Edge.obj
 0002:00000a08       ??_7?$treenode@V?$hashelement@Vword@svutil@@PAVPort@@@svutil@@@svutil@@6B@ 1003ca08     EntityEx.obj
 0002:00000a0c       ??_7?$sorttree@V?$hashelement@Vword@svutil@@PAVPort@@@svutil@@@svutil@@6B@ 1003ca0c     EntityEx.obj
 0002:00000a10       ??_C@_0CI@HEPBCGJM@Exception?5to?5EntityEx?3?3GetRawDat@ 1003ca10     EntityEx.obj
 0002:00000a38       ??_C@_0DC@MJHKFBKC@Exception?5to?5Port?3?5?$CC?$CFs?$CC?5?0?5svapi?5@ 1003ca38     EntityEx.obj
 0002:00000a6c       ??_C@_0CE@HBBBOFFM@Exception?5to?5EntityEx?3?3GetRawDat@ 1003ca6c     EntityEx.obj
 0002:00000a90       ??_C@_0CP@HLDHNPPG@Exception?5to?5EntityEx?3?3CreateObj@ 1003ca90     EntityEx.obj
 0002:00000ac0       ??_7EntityRelation@@6B@    1003cac0     EntityRelation.obj
 0002:00000acc       ??_C@_0CL@EGDFEKOE@?6Exception?5to?5EntityRelation?3?3Ge@ 1003cacc     EntityRelation.obj
 0002:00000af8       ??_C@_0DF@LEFDJMII@Exception?5to?5EntityRelation?3?3Cre@ 1003caf8     EntityRelation.obj
 0002:00000b30       ??_C@_0CP@BHAFAGAE@Identifier?5of?5NNMEntity?5is?5empty@ 1003cb30     NNMEntityAPI.obj
 0002:00000b60       ??_C@_04EHIOMBPF@word?$AA@ 1003cb60     NNMEntityAPI.obj
 0002:00000b68       ??_C@_08EMBNBNLN@property?$AA@ 1003cb68     NNMEntityAPI.obj
 0002:00000b74       ??_7Port@@6B@              1003cb74     Port.obj
 0002:00000b80       ??_C@_0CD@EBCEKBCB@Exeption?5to?5Port?3?3GetRawDataSize@ 1003cb80     Port.obj
 0002:00000ba4       ??_C@_0CC@BAADMKGN@?6?5Exception?5to?5Port?3?3GetRawData?5@ 1003cba4     Port.obj
 0002:00000bc8       ??_C@_0CN@LCPCNJKF@?6?5Exception?5to?5Port?3?3CreateObjec@ 1003cbc8     Port.obj
 0002:00000bf8       ??_C@_0CJ@DKIHHOIF@Exception?5to?5TopologyChart?3?3GetR@ 1003cbf8     TopologyChart.obj
 0002:00000c24       ??_7TopologyChart@@6B@     1003cc24     TopologyChart.obj
 0002:00000c30       ??_C@_0CN@BIPODCBK@Exception?5to?5TopologyChart?3?3GetR@ 1003cc30     TopologyChart.obj
 0002:00000c60       ??_C@_0DC@DPCNNIHO@Exception?5to?5TopologyChart?3?3Crea@ 1003cc60     TopologyChart.obj
 0002:00000c94       ??_C@_0CL@FGJLNHGP@ID?5of?5TopologyChart?5is?5empty?4?5sv@ 1003cc94     TopologyChartAPI.obj
 0002:00000cc0       ??_7VirtualGroup@@6B@      1003ccc0     VirtualGroup.obj
 0002:00000ccc       ??_C@_0CK@KGBPKIH@ID?5of?5VirtualGroup?5is?5empty?4?5sva@ 1003cccc     VirtualGroupAPI.obj
 0002:00000cfc       ??_7type_info@@6B@         1003ccfc     MSVCRT:ti_inst.obj
 0002:00000d80       ??_C@_0BO@GNIAFIKK@Unknown?5Runtime?5Check?5Error?6?$AN?$AA@ 1003cd80     MSVCRT:error.obj
 0002:00000da0       ??_C@_0DG@HKJMLLLP@A?5local?5variable?5was?5used?5before@ 1003cda0     MSVCRT:error.obj
 0002:00000dd8       ??_C@_0BN@FFOINMNJ@Stack?5memory?5was?5corrupted?6?$AN?$AA@ 1003cdd8     MSVCRT:error.obj
 0002:00000df8       ??_C@_0BBN@GPMLNJCF@A?5cast?5to?5a?5smaller?5data?5type?5ha@ 1003cdf8     MSVCRT:error.obj
 0002:00000f18       ??_C@_0NN@NGPKDKPD@The?5value?5of?5ESP?5was?5not?5properl@ 1003cf18     MSVCRT:error.obj
 0002:00001014       ??_C@_0BC@KNBMEBEO@IsDebuggerPresent?$AA@ 1003d014     MSVCRT:error.obj
 0002:00001028       ??_C@_0N@HAOHNMDE@Kernel32?4dll?$AA@ 1003d028     MSVCRT:error.obj
 0002:00001038       ??_C@_0CA@IODNCDPG@Run?9Time?5Check?5Failure?5?$CD?$CFd?5?9?5?$CFs?$AA@ 1003d038     MSVCRT:error.obj
 0002:00001058       ??_C@_0CK@CNLNOEPB@Local?5variable?5used?5before?5initi@ 1003d058     MSVCRT:userapi.obj
 0002:00001084       ??_C@_0BI@CIGMDCBH@Stack?5memory?5corruption?$AA@ 1003d084     MSVCRT:userapi.obj
 0002:0000109c       ??_C@_0CK@FEGOIOPB@Cast?5to?5smaller?5type?5causing?5los@ 1003d09c     MSVCRT:userapi.obj
 0002:000010c8       ??_C@_0BJ@HEGAHDFO@Stack?5pointer?5corruption?$AA@ 1003d0c8     MSVCRT:userapi.obj
 0002:000010e4       ??_C@_0M@HHEBEAAO@MSPDB71?4DLL?$AA@ 1003d0e4     MSVCRT:pdblkup.obj
 0002:000010f0       ??_C@_0N@KIGOLBLC@Module32Next?$AA@ 1003d0f0     MSVCRT:pdblkup.obj
 0002:00001100       ??_C@_0O@CNMFJJGO@Module32First?$AA@ 1003d100     MSVCRT:pdblkup.obj
 0002:00001110       ??_C@_0BF@OCLFCNKN@GetModuleInformation?$AA@ 1003d110     MSVCRT:pdblkup.obj
 0002:00001128       ??_C@_0BD@FIEJBLME@EnumProcessModules?$AA@ 1003d128     MSVCRT:pdblkup.obj
 0002:0000113c       ??_C@_09EPMADGLA@PSAPI?4DLL?$AA@ 1003d13c     MSVCRT:pdblkup.obj
 0002:00001148       ??_C@_0BJ@JEFKDHMD@CreateToolhelp32Snapshot?$AA@ 1003d148     MSVCRT:pdblkup.obj
 0002:00001164       ??_C@_0O@CHDGJGFP@ImageNtHeader?$AA@ 1003d164     MSVCRT:pdblkup.obj
 0002:00001174       ??_C@_0N@KBGMOMJO@IMAGEHLP?4DLL?$AA@ 1003d174     MSVCRT:pdblkup.obj
 0002:00001184       ??_C@_0N@NHGLKGEC@KERNEL32?4DLL?$AA@ 1003d184     MSVCRT:pdblkup.obj
 0002:00001194       ??_C@_0BF@BMIHBHCA@EnvironmentDirectory?$AA@ 1003d194     MSVCRT:pdblkup.obj
 0002:000011ac       ??_C@_0CN@KGLAKABH@SOFTWARE?2Microsoft?2VisualStudio?2@ 1003d1ac     MSVCRT:pdblkup.obj
 0002:000011dc       ??_C@_0M@HLOHPNFA@RegCloseKey?$AA@ 1003d1dc     MSVCRT:pdblkup.obj
 0002:000011e8       ??_C@_0BB@HHEIPGME@RegQueryValueExA?$AA@ 1003d1e8     MSVCRT:pdblkup.obj
 0002:000011fc       ??_C@_0O@DCOGKJGG@RegOpenKeyExA?$AA@ 1003d1fc     MSVCRT:pdblkup.obj
 0002:0000120c       ??_C@_0N@JJPEKNFO@ADVAPI32?4DLL?$AA@ 1003d20c     MSVCRT:pdblkup.obj
 0002:0000121c       ??_C@_01KDCPPGHE@r?$AA@    1003d21c     MSVCRT:pdblkup.obj
 0002:00001220       ??_C@_08ONJBEOFA@PDBClose?$AA@ 1003d220     MSVCRT:pdblkup.obj
 0002:0000122c       ??_C@_08NINFAAFA@DBIClose?$AA@ 1003d22c     MSVCRT:pdblkup.obj
 0002:00001238       ??_C@_08LIGPJJNA@ModClose?$AA@ 1003d238     MSVCRT:pdblkup.obj
 0002:00001244       ??_C@_0O@IPLOKOKN@ModQueryLines?$AA@ 1003d244     MSVCRT:pdblkup.obj
 0002:00001254       ??_C@_0BE@GDNPNLGH@DBIQueryModFromAddr?$AA@ 1003d254     MSVCRT:pdblkup.obj
 0002:00001268       ??_C@_0L@KPMOCKEL@PDBOpenDBI?$AA@ 1003d268     MSVCRT:pdblkup.obj
 0002:00001274       ??_C@_0BB@PENKIMFE@PDBOpenValidate3?$AA@ 1003d274     MSVCRT:pdblkup.obj
 0002:000012f8       ??_R1A@?0A@A@type_info@@8  1003d2f8     MSVCRT:ti_inst.obj
 0002:00001310       ??_R2type_info@@8          1003d310     MSVCRT:ti_inst.obj
 0002:00001318       ??_R3type_info@@8          1003d318     MSVCRT:ti_inst.obj
 0002:00001328       ??_R4type_info@@6B@        1003d328     MSVCRT:ti_inst.obj
 0002:0000133c       ___rtc_iaa                 1003d33c     MSVCRT:initsect.obj
 0002:00001344       ___rtc_izz                 1003d344     MSVCRT:initsect.obj
 0002:00001348       ___rtc_taa                 1003d348     MSVCRT:initsect.obj
 0002:00001350       ___rtc_tzz                 1003d350     MSVCRT:initsect.obj
 0002:00001354       __CT??_R0?AVexception@@@8??0exception@@QAE@ABV0@@Z12 1003d354     Entity.obj
 0002:00001478       __CT??_R0?AVlogic_error@std@@@8??0logic_error@std@@QAE@ABV01@@Z40 1003d478     Entity.obj
 0002:00001494       __CT??_R0?AVlength_error@std@@@8??0length_error@std@@QAE@ABV01@@Z40 1003d494     Entity.obj
 0002:000014b0       __CTA3?AVlength_error@std@@ 1003d4b0     Entity.obj
 0002:000014c0       __TI3?AVlength_error@std@@ 1003d4c0     Entity.obj
 0002:00002bac       __CT??_R0?AVexception@svutil@@@8??0exception@svutil@@QAE@ABV01@@Z280 1003ebac     General.obj
 0002:00002bc8       __CTA1?AVexception@svutil@@ 1003ebc8     General.obj
 0002:00002bd0       __TI1?AVexception@svutil@@ 1003ebd0     General.obj
 0002:00002c5c       __CT??_R0?AVout_of_range@std@@@8??0out_of_range@std@@QAE@ABV01@@Z40 1003ec5c     General.obj
 0002:00002c78       __CTA3?AVout_of_range@std@@ 1003ec78     General.obj
 0002:00002c88       __TI3?AVout_of_range@std@@ 1003ec88     General.obj
 0002:00009058       __IMPORT_DESCRIPTOR_ccgnu2 10045058     ccgnu2:ccgnu2.dll
 0002:0000906c       __IMPORT_DESCRIPTOR_WS2_32 1004506c     ws2_32:WS2_32.dll
 0002:00009080       __IMPORT_DESCRIPTOR_KERNEL32 10045080     kernel32:KERNEL32.dll
 0002:00009094       __IMPORT_DESCRIPTOR_ADVAPI32 10045094     advapi32:ADVAPI32.dll
 0002:000090a8       __IMPORT_DESCRIPTOR_MSVCP71 100450a8     msvcprt:MSVCP71.dll
 0002:000090bc       __IMPORT_DESCRIPTOR_MSVCR71 100450bc     MSVCRT:MSVCR71.dll
 0002:000090d0       __NULL_IMPORT_DESCRIPTOR   100450d0     ccgnu2:ccgnu2.dll
 0003:00000000       ___xc_a                    1004e000     MSVCRT:cinitexe.obj
 0003:000000a8       ___xc_z                    1004e0a8     MSVCRT:cinitexe.obj
 0003:000000ac       ___xi_a                    1004e0ac     MSVCRT:cinitexe.obj
 0003:000000b0       ___xi_z                    1004e0b0     MSVCRT:cinitexe.obj
 0003:000000c0       ??_R0?AVexception@@@8      1004e0c0     Entity.obj
 0003:000000d8       ??_R0?AVlogic_error@std@@@8 1004e0d8     Entity.obj
 0003:000000f8       ??_R0?AVlength_error@std@@@8 1004e0f8     Entity.obj
 0003:00000118       ?g_port@@3GA               1004e118     General.obj
 0003:0000011c       ??_R0?AVexception@svutil@@@8 1004e11c     General.obj
 0003:0000013c       ??_R0?AVout_of_range@std@@@8 1004e13c     General.obj
 0003:0000015c       ??_R0PAVSocket@ost@@@8     1004e15c     QueryData.obj
 0003:00000178       ?PreCreateNnmEntityParent@IdcUser@@2_NA 1004e178     svdbtype.obj
 0003:0000017c       ?msBackup@IdcUser@@2HA     1004e17c     svdbtype.obj
 0003:00000180       ??_R0?AVtype_info@@@8      1004e180     MSVCRT:ti_inst.obj
 0003:00000198       ___security_cookie         1004e198     MSVCRT:seccook.obj
 0003:0000019c       ?_RTC_ErrorLevels@@3PAHA   1004e19c     MSVCRT:error.obj
 0003:000001d4       ?Groups@ObjectCache@@0V?$map@V?$basic_string@DU?$char_traits@D@std@@V?$allocator@D@2@@std@@VVerOBJECT@@U?$less@V?$basic_string@DU?$char_traits@D@std@@V?$allocator@D@2@@std@@@2@V?$allocator@U?$pair@$$CBV?$basic_string@DU?$char_traits@D@std@@V?$allocator@D@2@@std@@VVerOBJECT@@@std@@@2@@std@@A 1004e1d4     ObjCache.obj
 0003:000001e0       ?Res@ObjectCache@@0V?$map@V?$basic_string@DU?$char_traits@D@std@@V?$allocator@D@2@@std@@PAXU?$less@V?$basic_string@DU?$char_traits@D@std@@V?$allocator@D@2@@std@@@2@V?$allocator@U?$pair@$$CBV?$basic_string@DU?$char_traits@D@std@@V?$allocator@D@2@@std@@PAX@std@@@2@@std@@A 1004e1e0     ObjCache.obj
 0003:000001ec       ?m_LockReskey@ObjectCache@@0VMutex@ost@@A 1004e1ec     ObjCache.obj
 0003:0000020c       ?Svses@ObjectCache@@0V?$map@V?$basic_string@DU?$char_traits@D@std@@V?$allocator@D@2@@std@@VVerOBJECT@@U?$less@V?$basic_string@DU?$char_traits@D@std@@V?$allocator@D@2@@std@@@2@V?$allocator@U?$pair@$$CBV?$basic_string@DU?$char_traits@D@std@@V?$allocator@D@2@@std@@VVerOBJECT@@@std@@@2@@std@@A 1004e20c     ObjCache.obj
 0003:00000218       ?m_LockMonitors@ObjectCache@@0VMutex@ost@@A 1004e218     ObjCache.obj
 0003:00000238       ?svdbaddr@ObjectCache@@0V?$basic_string@DU?$char_traits@D@std@@V?$allocator@D@2@@std@@A 1004e238     ObjCache.obj
 0003:00000254       ?m_LockMonitorTPL@ObjectCache@@0VMutex@ost@@A 1004e254     ObjCache.obj
 0003:00000274       ?m_LockGroups@ObjectCache@@0VMutex@ost@@A 1004e274     ObjCache.obj
 0003:00000294       ?EntityTPL@ObjectCache@@0V?$map@V?$basic_string@DU?$char_traits@D@std@@V?$allocator@D@2@@std@@PAXU?$less@V?$basic_string@DU?$char_traits@D@std@@V?$allocator@D@2@@std@@@2@V?$allocator@U?$pair@$$CBV?$basic_string@DU?$char_traits@D@std@@V?$allocator@D@2@@std@@PAX@std@@@2@@std@@A 1004e294     ObjCache.obj
 0003:000002a0       ?Entities@ObjectCache@@0V?$map@V?$basic_string@DU?$char_traits@D@std@@V?$allocator@D@2@@std@@VVerOBJECT@@U?$less@V?$basic_string@DU?$char_traits@D@std@@V?$allocator@D@2@@std@@@2@V?$allocator@U?$pair@$$CBV?$basic_string@DU?$char_traits@D@std@@V?$allocator@D@2@@std@@VVerOBJECT@@@std@@@2@@std@@A 1004e2a0     ObjCache.obj
 0003:000002ac       ?m_LockDyns@ObjectCache@@0VMutex@ost@@A 1004e2ac     ObjCache.obj
 0003:000002cc       ?EntityGroup@ObjectCache@@0V?$map@V?$basic_string@DU?$char_traits@D@std@@V?$allocator@D@2@@std@@PAXU?$less@V?$basic_string@DU?$char_traits@D@std@@V?$allocator@D@2@@std@@@2@V?$allocator@U?$pair@$$CBV?$basic_string@DU?$char_traits@D@std@@V?$allocator@D@2@@std@@PAX@std@@@2@@std@@A 1004e2cc     ObjCache.obj
 0003:000002d8       ?Monitors@ObjectCache@@0V?$map@V?$basic_string@DU?$char_traits@D@std@@V?$allocator@D@2@@std@@VVerOBJECT@@U?$less@V?$basic_string@DU?$char_traits@D@std@@V?$allocator@D@2@@std@@@2@V?$allocator@U?$pair@$$CBV?$basic_string@DU?$char_traits@D@std@@V?$allocator@D@2@@std@@VVerOBJECT@@@std@@@2@@std@@A 1004e2d8     ObjCache.obj
 0003:000002e4       ?Reskey@ObjectCache@@0V?$map@V?$basic_string@DU?$char_traits@D@std@@V?$allocator@D@2@@std@@V?$map@V?$basic_string@DU?$char_traits@D@std@@V?$allocator@D@2@@std@@PAXU?$less@V?$basic_string@DU?$char_traits@D@std@@V?$allocator@D@2@@std@@@2@V?$allocator@U?$pair@$$CBV?$basic_string@DU?$char_traits@D@std@@V?$allocator@D@2@@std@@PAX@std@@@2@@2@U?$less@V?$basic_string@DU?$char_traits@D@std@@V?$allocator@D@2@@std@@@2@V?$allocator@U?$pair@$$CBV?$basic_string@DU?$char_traits@D@std@@V?$allocator@D@2@@std@@V?$map@V?$basic_string@DU?$char_traits@D@std@@V?$allocator@D@2@@std@@PAXU?$less@V?$basic_string@DU?$char_traits@D@std@@V?$allocator@D@2@@std@@@2@V?$allocator@U?$pair@$$CBV?$basic_string@DU?$char_traits@D@std@@V?$allocator@D@2@@std@@PAX@std@@@2@@2@@std@@@2@@std@@A 1004e2e4     ObjCache.obj
 0003:000002f0       ?m_LockEntityGroup@ObjectCache@@0VMutex@ost@@A 1004e2f0     ObjCache.obj
 0003:00000310       ?m_LockEntityTPL@ObjectCache@@0VMutex@ost@@A 1004e310     ObjCache.obj
 0003:00000330       ?m_LockEntities@ObjectCache@@0VMutex@ost@@A 1004e330     ObjCache.obj
 0003:00000350       ?Dyns@ObjectCache@@0V?$map@V?$basic_string@DU?$char_traits@D@std@@V?$allocator@D@2@@std@@VSingelRecord@@U?$less@V?$basic_string@DU?$char_traits@D@std@@V?$allocator@D@2@@std@@@2@V?$allocator@U?$pair@$$CBV?$basic_string@DU?$char_traits@D@std@@V?$allocator@D@2@@std@@VSingelRecord@@@std@@@2@@std@@A 1004e350     ObjCache.obj
 0003:0000035c       ?MonitorTPL@ObjectCache@@0V?$map@HPAXU?$less@H@std@@V?$allocator@U?$pair@$$CBHPAX@std@@@2@@std@@A 1004e35c     ObjCache.obj
 0003:00000368       ?m_LockRes@ObjectCache@@0VMutex@ost@@A 1004e368     ObjCache.obj
 0003:00000388       ?svdbuser@ObjectCache@@0V?$basic_string@DU?$char_traits@D@std@@V?$allocator@D@2@@std@@A 1004e388     ObjCache.obj
 0003:000003a4       ?m_LockSvses@ObjectCache@@0VMutex@ost@@A 1004e3a4     ObjCache.obj
 0003:000003c4       ?m_LanguageMap@CShareMemFile@@0V?$map@V?$basic_string@DU?$char_traits@D@std@@V?$allocator@D@2@@std@@KU?$less@V?$basic_string@DU?$char_traits@D@std@@V?$allocator@D@2@@std@@@2@V?$allocator@U?$pair@$$CBV?$basic_string@DU?$char_traits@D@std@@V?$allocator@D@2@@std@@K@std@@@2@@std@@A 1004e3c4     ShareMemFile.obj
 0003:000003d4       ?nnmEntityParentOk@IdcUser@@2_NA 1004e3d4     svdbtype.obj
 0003:000003d5       ?DisableEntityCombine@IdcUser@@2_NA 1004e3d5     svdbtype.obj
 0003:000003d6       ?SELocked@IdcUser@@2_NA    1004e3d6     svdbtype.obj
 0003:000003d7       ?RecordsAutoBackup@IdcUser@@2_NA 1004e3d7     svdbtype.obj
 0003:000003d8       ?ConfigAutoBackup@IdcUser@@2_NA 1004e3d8     svdbtype.obj
 0003:000003d9       ?AcceptConfigIncoming@IdcUser@@2_NA 1004e3d9     svdbtype.obj
 0003:000003da       ?FullTeleBackup@IdcUser@@2_NA 1004e3da     svdbtype.obj
 0003:000003db       ?EnableConfigDB@IdcUser@@2_NA 1004e3db     svdbtype.obj
 0003:000003dc       ?EnableIdc@IdcUser@@2_NA   1004e3dc     svdbtype.obj
 0003:000003dd       ?AutoResolveIDS@IdcUser@@2_NA 1004e3dd     svdbtype.obj
 0003:000003de       ?BoolToExit@IdcUser@@2_NA  1004e3de     svdbtype.obj
 0003:000003e0       ?SocketTreadPlusCount@IdcUser@@2HA 1004e3e0     svdbtype.obj
 0003:000003e4       ?PipeTreadPlusCount@IdcUser@@2HA 1004e3e4     svdbtype.obj
 0003:000003e8       ?m_pResource@IdcUser@@2PAXA 1004e3e8     svdbtype.obj
 0003:000003ec       ?m_pLanguage@IdcUser@@2PAXA 1004e3ec     svdbtype.obj
 0003:000003f0       ?StrTempDisable@IdcUser@@2V?$basic_string@DU?$char_traits@D@std@@V?$allocator@D@2@@std@@A 1004e3f0     svdbtype.obj
 0003:0000040c       ?RootPath@IdcUser@@2V?$basic_string@DU?$char_traits@D@std@@V?$allocator@D@2@@std@@A 1004e40c     svdbtype.obj
 0003:00000428       ?cgiVersion@IdcUser@@2V?$basic_string@DU?$char_traits@D@std@@V?$allocator@D@2@@std@@A 1004e428     svdbtype.obj
 0003:00000444       ?nnmEntityParentValue@IdcUser@@2V?$map@V?$basic_string@DU?$char_traits@D@std@@V?$allocator@D@2@@std@@V12@U?$less@V?$basic_string@DU?$char_traits@D@std@@V?$allocator@D@2@@std@@@2@V?$allocator@U?$pair@$$CBV?$basic_string@DU?$char_traits@D@std@@V?$allocator@D@2@@std@@V12@@std@@@2@@std@@A 1004e444     svdbtype.obj
 0003:00000450       ?CacheQueueName@IdcUser@@2V?$basic_string@DU?$char_traits@D@std@@V?$allocator@D@2@@std@@A 1004e450     svdbtype.obj
 0003:0000046c       ?Users@IdcUser@@2V?$set@V?$basic_string@DU?$char_traits@D@std@@V?$allocator@D@2@@std@@U?$less@V?$basic_string@DU?$char_traits@D@std@@V?$allocator@D@2@@std@@@2@V?$allocator@V?$basic_string@DU?$char_traits@D@std@@V?$allocator@D@2@@std@@@2@@std@@A 1004e46c     svdbtype.obj
 0003:00000478       ?CenterAdress@IdcUser@@2V?$basic_string@DU?$char_traits@D@std@@V?$allocator@D@2@@std@@A 1004e478     svdbtype.obj
 0003:00000494       ?initial_time@IdcUser@@2IA 1004e494     svdbtype.obj
 0003:00000498       ?svdbHostAddr@IdcUser@@2V?$basic_string@DU?$char_traits@D@std@@V?$allocator@D@2@@std@@A 1004e498     svdbtype.obj
 0003:000004b4       ?StrDisable@IdcUser@@2V?$basic_string@DU?$char_traits@D@std@@V?$allocator@D@2@@std@@A 1004e4b4     svdbtype.obj
 0003:000004d0       ?set_InitLoadSEId@IdcUser@@2V?$set@HU?$less@H@std@@V?$allocator@H@2@@std@@A 1004e4d0     svdbtype.obj
 0003:000004dc       ?nnmEntityParentId@IdcUser@@2V?$map@V?$basic_string@DU?$char_traits@D@std@@V?$allocator@D@2@@std@@V12@U?$less@V?$basic_string@DU?$char_traits@D@std@@V?$allocator@D@2@@std@@@2@V?$allocator@U?$pair@$$CBV?$basic_string@DU?$char_traits@D@std@@V?$allocator@D@2@@std@@V12@@std@@@2@@std@@A 1004e4dc     svdbtype.obj
 0003:000004e8       ?nnmEntityParentKey@IdcUser@@2V?$basic_string@DU?$char_traits@D@std@@V?$allocator@D@2@@std@@A 1004e4e8     svdbtype.obj
 0003:00000504       ?m_LockBackupId@IdcUser@@0VMutex@ost@@A 1004e504     svdbtype.obj
 0003:00000524       ?set_backupId@IdcUser@@0V?$set@V?$basic_string@DU?$char_traits@D@std@@V?$allocator@D@2@@std@@U?$less@V?$basic_string@DU?$char_traits@D@std@@V?$allocator@D@2@@std@@@2@V?$allocator@V?$basic_string@DU?$char_traits@D@std@@V?$allocator@D@2@@std@@@2@@std@@A 1004e524     svdbtype.obj
 0003:00000530       ?set_LocalSEId@IdcUser@@0V?$set@HU?$less@H@std@@V?$allocator@H@2@@std@@A 1004e530     svdbtype.obj
 0003:0000053c       ?ProcessID@IdcUser@@2V?$basic_string@DU?$char_traits@D@std@@V?$allocator@D@2@@std@@A 1004e53c     svdbtype.obj
 0003:000005bc       __adjust_fdiv              1004e5bc     <common>
 0003:000005c0       __pRawDllMain              1004e5c0     <common>
 0003:000005c4       ___onexitend               1004e5c4     <common>
 0003:000005c8       ___onexitbegin             1004e5c8     <common>

 entry point at        0001:00034929

 Static symbols

 0001:00000411       $L46553                    10001411 f i Entity.obj
 0001:0000054e       $L47358                    1000154e f i Entity.obj
 0001:000009c6       $L47981                    100019c6 f   Entity.obj
 0001:00000df5       $L50610                    10001df5 f   EntityAPI.obj
 0001:0000103b       $L50720                    1000203b f   EntityAPI.obj
 0001:00001488       $L50816                    10002488 f   EntityAPI.obj
 0001:0000172c       $L50908                    1000272c f   EntityAPI.obj
 0001:00001995       $L51469                    10002995 f   EntityAPI.obj
 0001:000019f8       $L51543                    100029f8 f   EntityAPI.obj
 0001:00001aaf       $L53158                    10002aaf f i EntityAPI.obj
 0001:00001c56       $L53570                    10002c56 f   EntityAPI.obj
 0001:00001f8b       $L53821                    10002f8b f   EntityAPI.obj
 0001:000029d9       $L53698                    100039d9 f   EntityGroup.obj
 0001:00002e5e       $L55373                    10003e5e f   EntityGroupAPI.obj
 0001:00002f78       $L55450                    10003f78 f   EntityGroupAPI.obj
 0001:000033ef       $L55560                    100043ef f   EntityGroupAPI.obj
 0001:00003458       $L56086                    10004458 f   EntityGroupAPI.obj
 0001:000036c5       $L56127                    100046c5 f   EntityGroupAPI.obj
 0001:00003896       $L58336                    10004896 f   EntityGroupAPI.obj
 0001:00003984       $L58530                    10004984 f   EntityGroupAPI.obj
 0001:00003a1e       $L58645                    10004a1e f   EntityGroupAPI.obj
 0001:00003b78       $L58672                    10004b78 f   EntityGroupAPI.obj
 0001:0000419e       $L55669                    1000519e f   EntityTemplet.obj
 0001:00004448       $L55831                    10005448 f   EntityTempletAPI.obj
 0001:00004568       $L55908                    10005568 f   EntityTempletAPI.obj
 0001:000049df       $L56028                    100059df f   EntityTempletAPI.obj
 0001:00004b10       $L56112                    10005b10 f   EntityTempletAPI.obj
 0001:00004b78       $L56579                    10005b78 f   EntityTempletAPI.obj
 0001:00004de5       $L56620                    10005de5 f   EntityTempletAPI.obj
 0001:00004e75       $L58215                    10005e75 f   EntityTempletAPI.obj
 0001:00004f66       $L58645                    10005f66 f   EntityTempletAPI.obj
 0001:00005009       $L58832                    10006009 f   EntityTempletAPI.obj
 0001:0000525d       $L58933                    1000625d f   EntityTempletAPI.obj
 0001:00007ef8       $L54181                    10008ef8 f   General.obj
 0001:000085b6       $L56025                    100095b6 f   General.obj
 0001:00008eae       $L58983                    10009eae f i General.obj
 0001:000090de       $L59264                    1000a0de f i General.obj
 0001:00009b46       $L62379                    1000ab46 f   General.obj
 0001:00009c13       $L62400                    1000ac13 f   General.obj
 0001:00009cc4       $L62442                    1000acc4 f   General.obj
 0001:00009d55       $L62583                    1000ad55 f   General.obj
 0001:00009f88       $L62680                    1000af88 f   General.obj
 0001:0000a212       $L62750                    1000b212 f   General.obj
 0001:0000a418       $L63373                    1000b418 f i General.obj
 0001:0000a50a       $L63485                    1000b50a f   General.obj
 0001:0000a578       $L63615                    1000b578 f   General.obj
 0001:0000a635       $L63635                    1000b635 f   General.obj
 0001:0000aa41       $L64730                    1000ba41 f   General.obj
 0001:0000ab3c       $L64790                    1000bb3c f   General.obj
 0001:0000ac51       $L64978                    1000bc51 f i General.obj
 0001:0000af1e       $L66482                    1000bf1e f i General.obj
 0001:0000b5e1       $L66965                    1000c5e1 f   General.obj
 0001:0000c086       $L48252                    1000d086 f   Group.obj
 0001:0000c3b6       $L51268                    1000d3b6 f   GroupAPI.obj
 0001:0000c674       $L51343                    1000d674 f   GroupAPI.obj
 0001:0000c8d1       $L51451                    1000d8d1 f   GroupAPI.obj
 0001:0000cb1b       $L51559                    1000db1b f   GroupAPI.obj
 0001:0000cf78       $L51659                    1000df78 f   GroupAPI.obj
 0001:0000d21c       $L51747                    1000e21c f   GroupAPI.obj
 0001:0000d476       $L52335                    1000e476 f   GroupAPI.obj
 0001:0000d4d8       $L52409                    1000e4d8 f   GroupAPI.obj
 0001:0000d605       $L54636                    1000e605 f i GroupAPI.obj
 0001:0000d6b9       $L54777                    1000e6b9 f i GroupAPI.obj
 0001:0000d7c6       $L54918                    1000e7c6 f   GroupAPI.obj
 0001:0000d8c7       $L55295                    1000e8c7 f   GroupAPI.obj
 0001:0000d9d6       $L55671                    1000e9d6 f   GroupAPI.obj
 0001:0000de61       $L43147                    1000ee61 f   Monitor.obj
 0001:0000e13b       $L49225                    1000f13b f   MonitorAPI.obj
 0001:0000e5a7       $L49353                    1000f5a7 f   MonitorAPI.obj
 0001:0000e60e       $L49445                    1000f60e f   MonitorAPI.obj
 0001:0000ea8c       $L49618                    1000fa8c f   MonitorAPI.obj
 0001:0000eca8       $L49683                    1000fca8 f   MonitorAPI.obj
 0001:0000ef95       $L50151                    1000ff95 f   MonitorAPI.obj
 0001:0000eff6       $L50224                    1000fff6 f   MonitorAPI.obj
 0001:0000fd72       $L53717                    10010d72 f   MonitorTemplet.obj
 0001:0000ff72       $L54645                    10010f72 f   MonitorTempletAPI.obj
 0001:0001005b       $L54720                    1001105b f   MonitorTempletAPI.obj
 0001:000100eb       $L54743                    100110eb f   MonitorTempletAPI.obj
 0001:0001017b       $L54766                    1001117b f   MonitorTempletAPI.obj
 0001:000101ff       $L54789                    100111ff f   MonitorTempletAPI.obj
 0001:0001063c       $L54868                    1001163c f   MonitorTempletAPI.obj
 0001:0001072e       $L54925                    1001172e f   MonitorTempletAPI.obj
 0001:00010985       $L55353                    10011985 f   MonitorTempletAPI.obj
 0001:000109e6       $L55426                    100119e6 f   MonitorTempletAPI.obj
 0001:00010a75       $L56754                    10011a75 f   MonitorTempletAPI.obj
 0001:00010b15       $L56808                    10011b15 f   MonitorTempletAPI.obj
 0001:00010bb5       $L56862                    10011bb5 f   MonitorTempletAPI.obj
 0001:000115bd       $L47417                    100125bd f   MQapi.obj
 0001:00011824       $L47495                    10012824 f   MQapi.obj
 0001:00011a8d       $L47573                    10012a8d f   MQapi.obj
 0001:00011cf4       $L47651                    10012cf4 f   MQapi.obj
 0001:000131b3       $L48714                    100141b3 f   MQapi.obj
 0001:00013228       $L48763                    10014228 f   MQapi.obj
 0001:000133ff       $L50133                    100143ff f   MQapi.obj
 0001:0001362d       $L50186                    1001462d f   MQapi.obj
 0001:000138fb       $L58384                    100148fb f   ObjCache.obj
 0001:00014877       $L66218                    10015877 f i ObjCache.obj
 0001:0001490e       $L66286                    1001590e f i ObjCache.obj
 0001:000149ae       $L66323                    100159ae f i ObjCache.obj
 0001:00014a4d       $L66388                    10015a4d f i ObjCache.obj
 0001:00016908       $L74870                    10017908 f i ObjCache.obj
 0001:0001874e       $L82079                    1001974e f   ObjCache.obj
 0001:00018a85       $L82555                    10019a85 f   ObjCache.obj
 0001:00018e1d       $L82955                    10019e1d f   ObjCache.obj
 0001:000191b5       $L83354                    1001a1b5 f   ObjCache.obj
 0001:000193e1       $L83938                    1001a3e1 f i ObjCache.obj
 0001:0001986e       $L85187                    1001a86e f   ObjCache.obj
 0001:00019ddb       $L86162                    1001addb f   ObjCache.obj
 0001:0001a2fe       $L88796                    1001b2fe f i ObjCache.obj
 0001:0001be3c       $L96159                    1001ce3c f   ObjCache.obj
 0001:0001c77f       $L96160                    1001d77f f   ObjCache.obj
 0001:0001c9b5       $L98797                    1001d9b5 f   ObjCache.obj
 0001:0001cffd       $L43321                    1001dffd f i QueryData.obj
 0001:0001d0a1       $L43341                    1001e0a1 f i QueryData.obj
 0001:0001d125       $L43371                    1001e125 f i QueryData.obj
 0001:0001d4ac       $L43942                    1001e4ac f   QueryData.obj
 0001:0001d66d       $L44112                    1001e66d f   QueryData.obj
 0001:0001d82f       $L44207                    1001e82f f   QueryData.obj
 0001:0001d9ea       $L44302                    1001e9ea f   QueryData.obj
 0001:0001e16c       $L44605                    1001f16c f   QueryData.obj
 0001:0001e95c       $L41190                    1001f95c f   QueueRecord.obj
 0001:00020345       $L53699                    10021345 f   RecordSet.obj
 0001:000206da       $L45030                    100216da f   RecordType.obj
 0001:00020907       $L45442                    10021907 f   Resource.obj
 0001:00021258       $L49022                    10022258 f   ResourceAPI.obj
 0001:000214bd       $L49129                    100224bd f   ResourceAPI.obj
 0001:000215b1       $L49184                    100225b1 f   ResourceAPI.obj
 0001:0002162e       $L49216                    1002262e f   ResourceAPI.obj
 0001:00021a40       $L49293                    10022a40 f   ResourceAPI.obj
 0001:00021c11       $L49740                    10022c11 f   ResourceAPI.obj
 0001:00021c78       $L49776                    10022c78 f   ResourceAPI.obj
 0001:00021e4b       $L47751                    10022e4b f   Section.obj
 0001:000232bf       $L53016                    100242bf f   Section.obj
 0001:000239ae       $L22540                    100249ae f i stlini.obj
 0001:000240a8       $L25075                    100250a8 f i stlini.obj
 0001:000241c1       $L25990                    100251c1 f i stlini.obj
 0001:0002439e       $L26828                    1002539e f i stlini.obj
 0001:00024a78       $L28477                    10025a78 f i stlini.obj
 0001:00024b91       $L29093                    10025b91 f i stlini.obj
 0001:00024fe1       $L47231                    10025fe1 f   StringMap.obj
 0001:000251f1       $L47769                    100261f1 f   StringMap.obj
 0001:000252fd       $L52202                    100262fd f   svdbapi.obj
 0001:000254a5       $L52225                    100264a5 f   svdbapi.obj
 0001:00025694       $L52296                    10026694 f   svdbapi.obj
 0001:00025999       $L52385                    10026999 f   svdbapi.obj
 0001:00025c3d       $L52506                    10026c3d f   svdbapi.obj
 0001:00025d42       $L52545                    10026d42 f   svdbapi.obj
 0001:00026ac9       $L53851                    10027ac9 f   svdbapi.obj
 0001:00027027       $L54040                    10028027 f   svdbapi.obj
 0001:000270c6       $L54206                    100280c6 f   svdbapi.obj
 0001:00027346       $L56225                    10028346 f   svdbapi.obj
 0001:000275cf       $L56832                    100285cf f   svdbapi.obj
 0001:0002779a       $L56994                    1002879a f   svdbapi.obj
 0001:00027937       $L57028                    10028937 f   svdbapi.obj
 0001:00028ba6       $L48128                    10029ba6 f   SVSE.obj
 0001:00029201       $L53149                    1002a201 f   SVSEAPI.obj
 0001:00029481       $L53276                    1002a481 f   SVSEAPI.obj
 0001:0002951c       $L53298                    1002a51c f   SVSEAPI.obj
 0001:000295ea       $L53315                    1002a5ea f   SVSEAPI.obj
 0001:000299f7       $L53412                    1002a9f7 f   SVSEAPI.obj
 0001:00029c5c       $L53478                    1002ac5c f   SVSEAPI.obj
 0001:00029ec5       $L54504                    1002aec5 f   SVSEAPI.obj
 0001:00029f28       $L54582                    1002af28 f   SVSEAPI.obj
 0001:0002a4b6       $L59225                    1002b4b6 f   SVSEAPI.obj
 0001:0002a5b7       $L59602                    1002b5b7 f   SVSEAPI.obj
 0001:0002a6c6       $L59978                    1002b6c6 f   SVSEAPI.obj
 0001:0002a74e       $L60957                    1002b74e f i SVSEAPI.obj
 0001:0002aa5a       $L61079                    1002ba5a f   SVSEAPI.obj
 0001:0002ada2       $L49429                    1002bda2 f   TaskAPI.obj
 0001:0002aeb1       $L49505                    1002beb1 f   TaskAPI.obj
 0001:0002b30c       $L49597                    1002c30c f   TaskAPI.obj
 0001:0002b376       $L50468                    1002c376 f   TaskAPI.obj
 0001:0002b9ed       $L54007                    1002c9ed f   TaskAPI.obj
 0001:0002ba69       $L54053                    1002ca69 f   TaskAPI.obj
 0001:0002bc95       $L54386                    1002cc95 f   TaskAPI.obj
 0001:0002c234       $L54880                    1002d234 f   TaskAPI.obj
 0001:0002c30d       $L54928                    1002d30d f   TaskAPI.obj
 0001:0002c709       $L54977                    1002d709 f   TaskAPI.obj
 0001:0002cd40       $L46783                    1002dd40 f   util.obj
 0001:0002d3af       $L54302                    1002e3af f   util.obj
 0001:0002d56d       $L54361                    1002e56d f   util.obj
 0001:0002d6ae       $L54410                    1002e6ae f   util.obj
 0001:0002da06       $L44703                    1002ea06 f   Edge.obj
 0001:0002f02d       $L52665                    1003002d f   EntityEx.obj
 0001:0002f09c       $L52666                    1003009c f   EntityEx.obj
 0001:0002f32c       $L53058                    1003032c f   EntityEx.obj
 0001:0002f84b       $L53726                    1003084b f   EntityEx.obj
 0001:0002fb38       $L44717                    10030b38 f   EntityRelation.obj
 0001:0002fc9f       $L44772                    10030c9f f   EntityRelation.obj
 0001:0002ff19       $L49506                    10030f19 f   NNMEntityAPI.obj
 0001:00030058       $L49583                    10031058 f   NNMEntityAPI.obj
 0001:0003052c       $L49698                    1003152c f   NNMEntityAPI.obj
 0001:00030598       $L50163                    10031598 f   NNMEntityAPI.obj
 0001:00030805       $L50204                    10031805 f   NNMEntityAPI.obj
 0001:00030a6e       $L51627                    10031a6e f   NNMEntityAPI.obj
 0001:00030f11       $L44655                    10031f11 f   Port.obj
 0001:00031050       $L44687                    10032050 f   Port.obj
 0001:0003118e       $L44732                    1003218e f   Port.obj
 0001:00031430       $L47696                    10032430 f   TopologyChart.obj
 0001:00031640       $L48247                    10032640 f   TopologyChart.obj
 0001:000318ef       $L48790                    100328ef f   TopologyChart.obj
 0001:00031b42       $L49499                    10032b42 f   TopologyChartAPI.obj
 0001:00031c58       $L49576                    10032c58 f   TopologyChartAPI.obj
 0001:0003212c       $L49691                    1003312c f   TopologyChartAPI.obj
 0001:00032198       $L50156                    10033198 f   TopologyChartAPI.obj
 0001:00032405       $L50197                    10033405 f   TopologyChartAPI.obj
 0001:0003266e       $L51620                    1003366e f   TopologyChartAPI.obj
 0001:00032d52       $L48002                    10033d52 f   VirtualGroup.obj
 0001:000330d2       $L50149                    100340d2 f   VirtualGroupAPI.obj
 0001:000331e8       $L50226                    100341e8 f   VirtualGroupAPI.obj
 0001:000336bc       $L50341                    100346bc f   VirtualGroupAPI.obj
 0001:00033728       $L50806                    10034728 f   VirtualGroupAPI.obj
 0001:00033995       $L50847                    10034995 f   VirtualGroupAPI.obj
 0001:00033bfe       $L52270                    10034bfe f   VirtualGroupAPI.obj
 0001:000346d4       _report_failure            100356d4 f   MSVCRT:secchk.obj
 0001:00034bea       ?DebuggerProbe@@YAHK@Z     10035bea f   MSVCRT:error.obj
 0001:00034c37       ?DebuggerRuntime@@YAHKHPAXPB_W@Z 10035c37 f   MSVCRT:error.obj
 0001:00034c96       ?Win95IsDebuggerPresent@@YGHXZ 10035c96 f   MSVCRT:error.obj
 0001:00034ca7       ?Initialize@@YAHXZ         10035ca7 f   MSVCRT:error.obj
 0001:00034d0f       ?failwithmessage@@YAXPAXHHPBD@Z 10035d0f f   MSVCRT:error.obj
 0001:00034ebd       ?GetImageInfo@@YAPAUImageInfo@@K@Z 10035ebd f   MSVCRT:pdblkup.obj
 0001:0003520e       ?GetPdbDll@@YAPAUHINSTANCE__@@XZ 1003620e f   MSVCRT:pdblkup.obj
 0001:000356a0       $L47431                    100366a0 f   Entity.obj
 0001:000356a0       $L45342                    100366a0 f   Entity.obj
 0001:000356a9       __ehhandler$??1logic_error@std@@UAE@XZ 100366a9 f   Entity.obj
 0001:000356a9       __ehhandler$??0logic_error@std@@QAE@ABV01@@Z 100366a9 f   Entity.obj
 0001:000356c0       $L45681                    100366c0 f   Entity.obj
 0001:000356c9       $L45682                    100366c9 f   Entity.obj
 0001:000356e3       __ehhandler$??$?HDU?$char_traits@D@std@@V?$allocator@D@1@@std@@YA?AV?$basic_string@DU?$char_traits@D@std@@V?$allocator@D@2@@0@ABV10@PBD@Z 100366e3 f   Entity.obj
 0001:000356f0       $L46101                    100366f0 f   Entity.obj
 0001:000356f0       $L46044                    100366f0 f   Entity.obj
 0001:000356f8       __ehhandler$??1sentry@?$basic_ostream@DU?$char_traits@D@std@@@std@@QAE@XZ 100366f8 f   Entity.obj
 0001:000356f8       __ehhandler$??0sentry@?$basic_ostream@DU?$char_traits@D@std@@@std@@QAE@AAV12@@Z 100366f8 f   Entity.obj
 0001:00035710       $L46554                    10036710 f   Entity.obj
 0001:00035718       $L46682                    10036718 f   Entity.obj
 0001:00035720       __ehhandler$??$?6DU?$char_traits@D@std@@V?$allocator@D@1@@std@@YAAAV?$basic_ostream@DU?$char_traits@D@std@@@0@AAV10@ABV?$basic_string@DU?$char_traits@D@std@@V?$allocator@D@2@@0@@Z 10036720 f   Entity.obj
 0001:00035730       $L47359                    10036730 f   Entity.obj
 0001:00035741       __ehhandler$?_Buynode@?$list@Vword@svutil@@V?$allocator@Vword@svutil@@@std@@@std@@IAEPAU_Node@?$_List_nod@Vword@svutil@@V?$allocator@Vword@svutil@@@std@@@2@PAU342@0ABVword@svutil@@@Z 10036741 f   Entity.obj
 0001:00035750       $L47392                    10036750 f   Entity.obj
 0001:00035759       $L47412                    10036759 f   Entity.obj
 0001:00035762       __ehhandler$?_Incsize@?$list@Vword@svutil@@V?$allocator@Vword@svutil@@@std@@@std@@IAEXI@Z 10036762 f   Entity.obj
 0001:00035770       $L47982                    10036770 f   Entity.obj
 0001:00035778       __ehhandler$?CreateObjectByRawData@Entity@@UAEHPBDI@Z 10036778 f   Entity.obj
 0001:00035790       $L48025                    10036790 f   Entity.obj
 0001:0003579b       $L48026                    1003679b f   Entity.obj
 0001:000357a6       $L48027                    100367a6 f   Entity.obj
 0001:000357b1       __ehhandler$??0Entity@@QAE@XZ 100367b1 f   Entity.obj
 0001:000357c0       $L48129                    100367c0 f   Entity.obj
 0001:000357cb       __ehhandler$??1Entity@@QAE@XZ 100367cb f   Entity.obj
 0001:000357e0       $L50582                    100367e0 f   EntityAPI.obj
 0001:000357e0       $L50569                    100367e0 f   EntityAPI.obj
 0001:000357e9       __ehhandler$?CacheRefresh_GetEntity@@YAPAXV?$basic_string@DU?$char_traits@D@std@@V?$allocator@D@2@@std@@@Z 100367e9 f   EntityAPI.obj
 0001:000357e9       __ehhandler$?Cache_GetEntity@@YAPAXV?$basic_string@DU?$char_traits@D@std@@V?$allocator@D@2@@std@@@Z 100367e9 f   EntityAPI.obj
 0001:00035800       $L50611                    10036800 f   EntityAPI.obj
 0001:00035809       $L50612                    10036809 f   EntityAPI.obj
 0001:00035812       $L50613                    10036812 f   EntityAPI.obj
 0001:0003581b       $L50614                    1003681b f   EntityAPI.obj
 0001:00035826       $L50616                    10036826 f   EntityAPI.obj
 0001:00035834       __ehhandler$?GetEntityWithVer@@YAPAXV?$basic_string@DU?$char_traits@D@std@@V?$allocator@D@2@@std@@00AAI@Z 10036834 f   EntityAPI.obj
 0001:00035840       $L50682                    10036840 f   EntityAPI.obj
 0001:00035849       $L50683                    10036849 f   EntityAPI.obj
 0001:00035852       $L50684                    10036852 f   EntityAPI.obj
 0001:0003585b       $L50685                    1003685b f   EntityAPI.obj
 0001:00035864       $L50686                    10036864 f   EntityAPI.obj
 0001:0003586d       __ehhandler$?GetEntity@@YAPAXV?$basic_string@DU?$char_traits@D@std@@V?$allocator@D@2@@std@@00@Z 1003686d f   EntityAPI.obj
 0001:00035880       $L50721                    10036880 f   EntityAPI.obj
 0001:0003588b       __ehhandler$?CreateEntity@@YAPAXXZ 1003688b f   EntityAPI.obj
 0001:000358a0       $L50757                    100368a0 f   EntityAPI.obj
 0001:000358a9       $L50758                    100368a9 f   EntityAPI.obj
 0001:000358b2       $L50759                    100368b2 f   EntityAPI.obj
 0001:000358bb       $L50760                    100368bb f   EntityAPI.obj
 0001:000358c6       __ehhandler$?DeleteEntity@@YA_NV?$basic_string@DU?$char_traits@D@std@@V?$allocator@D@2@@std@@00@Z 100368c6 f   EntityAPI.obj
 0001:000358d0       $L50817                    100368d0 f   EntityAPI.obj
 0001:000358d9       $L50818                    100368d9 f   EntityAPI.obj
 0001:000358e2       $L50819                    100368e2 f   EntityAPI.obj
 0001:000358eb       $L50820                    100368eb f   EntityAPI.obj
 0001:0003590b       $L50823                    1003690b f   EntityAPI.obj
 0001:00035916       $L50824                    10036916 f   EntityAPI.obj
 0001:00035921       __ehhandler$?AddNewEntity@@YA?AV?$basic_string@DU?$char_traits@D@std@@V?$allocator@D@2@@std@@PAXV12@11@Z 10036921 f   EntityAPI.obj
 0001:00035930       $L50909                    10036930 f   EntityAPI.obj
 0001:00035939       $L50910                    10036939 f   EntityAPI.obj
 0001:00035942       $L50911                    10036942 f   EntityAPI.obj
 0001:0003594d       $L50913                    1003694d f   EntityAPI.obj
 0001:00035958       __ehhandler$?SubmitEntity@@YA_NPAXV?$basic_string@DU?$char_traits@D@std@@V?$allocator@D@2@@std@@1@Z 10036958 f   EntityAPI.obj
 0001:00035970       $L51470                    10036970 f   EntityAPI.obj
 0001:00035979       $L51471                    10036979 f   EntityAPI.obj
 0001:00035982       $L51472                    10036982 f   EntityAPI.obj
 0001:0003598b       $L51473                    1003698b f   EntityAPI.obj
 0001:00035996       $L51475                    10036996 f   EntityAPI.obj
 0001:000359a4       __ehhandler$?GetAllEntitysInfo@@YA_NAAV?$list@Usv_pair@@V?$allocator@Usv_pair@@@std@@@std@@V?$basic_string@DU?$char_traits@D@std@@V?$allocator@D@2@@2@11@Z 100369a4 f   EntityAPI.obj
 0001:000359b0       __ehhandler$?CloseEntity@@YA_NAAPAX@Z 100369b0 f   EntityAPI.obj
 0001:000359c0       $L53159                    100369c0 f   EntityAPI.obj
 0001:000359d1       __ehhandler$?_Buynode@?$list@V?$basic_string@DU?$char_traits@D@std@@V?$allocator@D@2@@std@@V?$allocator@V?$basic_string@DU?$char_traits@D@std@@V?$allocator@D@2@@std@@@2@@std@@IAEPAU_Node@?$_List_nod@V?$basic_string@DU?$char_traits@D@std@@V?$allocator@D@2@@std@@V?$allocator@V?$basic_string@DU?$char_traits@D@std@@V?$allocator@D@2@@std@@@2@@2@PAU342@0ABV?$basic_string@DU?$char_traits@D@std@@V?$allocator@D@2@@2@@Z 100369d1 f   EntityAPI.obj
 0001:000359e0       $L53192                    100369e0 f   EntityAPI.obj
 0001:000359e9       $L53212                    100369e9 f   EntityAPI.obj
 0001:000359f2       __ehhandler$?_Incsize@?$list@V?$basic_string@DU?$char_traits@D@std@@V?$allocator@D@2@@std@@V?$allocator@V?$basic_string@DU?$char_traits@D@std@@V?$allocator@D@2@@std@@@2@@std@@IAEXI@Z 100369f2 f   EntityAPI.obj
 0001:00035a00       $L53571                    10036a00 f   EntityAPI.obj
 0001:00035a09       __ehhandler$?GetSubMonitorsIDByEntity@@YA_NPAXAAV?$list@V?$basic_string@DU?$char_traits@D@std@@V?$allocator@D@2@@std@@V?$allocator@V?$basic_string@DU?$char_traits@D@std@@V?$allocator@D@2@@std@@@2@@std@@@Z 10036a09 f   EntityAPI.obj
 0001:00035a20       $L53822                    10036a20 f   EntityAPI.obj
 0001:00035a29       $L53823                    10036a29 f   EntityAPI.obj
 0001:00035a32       $L53824                    10036a32 f   EntityAPI.obj
 0001:00035a3b       $L53825                    10036a3b f   EntityAPI.obj
 0001:00035a44       $L53829                    10036a44 f   EntityAPI.obj
 0001:00035a4d       $L53830                    10036a4d f   EntityAPI.obj
 0001:00035a56       $L53832                    10036a56 f   EntityAPI.obj
 0001:00035a5e       $L53833                    10036a5e f   EntityAPI.obj
 0001:00035a67       $L53834                    10036a67 f   EntityAPI.obj
 0001:00035a70       $L53835                    10036a70 f   EntityAPI.obj
 0001:00035a79       $L53837                    10036a79 f   EntityAPI.obj
 0001:00035a82       $L53838                    10036a82 f   EntityAPI.obj
 0001:00035a8b       $L53839                    10036a8b f   EntityAPI.obj
 0001:00035a94       $L53840                    10036a94 f   EntityAPI.obj
 0001:00035a9d       $L53843                    10036a9d f   EntityAPI.obj
 0001:00035aa6       $L53844                    10036aa6 f   EntityAPI.obj
 0001:00035aaf       $L53845                    10036aaf f   EntityAPI.obj
 0001:00035ab8       $L53826                    10036ab8 f   EntityAPI.obj
 0001:00035ad2       __ehhandler$?EntityCopyGeneral@@YA?AV?$basic_string@DU?$char_traits@D@std@@V?$allocator@D@2@@std@@_NV12@111@Z 10036ad2 f   EntityAPI.obj
 0001:00035ae0       $L54242                    10036ae0 f   EntityAPI.obj
 0001:00035ae0       $L54266                    10036ae0 f   EntityAPI.obj
 0001:00035ae9       $L54267                    10036ae9 f   EntityAPI.obj
 0001:00035ae9       $L54243                    10036ae9 f   EntityAPI.obj
 0001:00035af2       $L54268                    10036af2 f   EntityAPI.obj
 0001:00035af2       $L54244                    10036af2 f   EntityAPI.obj
 0001:00035afb       $L54245                    10036afb f   EntityAPI.obj
 0001:00035afb       $L54269                    10036afb f   EntityAPI.obj
 0001:00035b04       $L54270                    10036b04 f   EntityAPI.obj
 0001:00035b04       $L54246                    10036b04 f   EntityAPI.obj
 0001:00035b0d       $L54271                    10036b0d f   EntityAPI.obj
 0001:00035b0d       $L54247                    10036b0d f   EntityAPI.obj
 0001:00035b16       $L54248                    10036b16 f   EntityAPI.obj
 0001:00035b16       $L54272                    10036b16 f   EntityAPI.obj
 0001:00035b1f       $L54274                    10036b1f f   EntityAPI.obj
 0001:00035b1f       $L54250                    10036b1f f   EntityAPI.obj
 0001:00035b39       __ehhandler$?EntityCopyAndCreateTable@@YA?AV?$basic_string@DU?$char_traits@D@std@@V?$allocator@D@2@@std@@V12@000@Z 10036b39 f   EntityAPI.obj
 0001:00035b39       __ehhandler$?EntityCopy@@YA?AV?$basic_string@DU?$char_traits@D@std@@V?$allocator@D@2@@std@@V12@000@Z 10036b39 f   EntityAPI.obj
 0001:00035b50       $L50629                    10036b50 f   EntityGroup.obj
 0001:00035b58       $L50630                    10036b58 f   EntityGroup.obj
 0001:00035b63       __ehhandler$??0?$hashelement@Vword@svutil@@V12@@svutil@@QAE@ABVword@1@@Z 10036b63 f   EntityGroup.obj
 0001:00035b70       $L52717                    10036b70 f   EntityGroup.obj
 0001:00035b78       __ehhandler$?find@?$hashnode@Vword@svutil@@V12@@svutil@@QAE_NABVword@2@PAPAV?$hashelement@Vword@svutil@@V12@@2@@Z 10036b78 f   EntityGroup.obj
 0001:00035b90       $L53699                    10036b90 f   EntityGroup.obj
 0001:00035b98       __ehhandler$?CreateObjectByRawData@EntityGroup@@UAEHPBDI@Z 10036b98 f   EntityGroup.obj
 0001:00035bb0       $L53999                    10036bb0 f   EntityGroup.obj
 0001:00035bbb       $L54000                    10036bbb f   EntityGroup.obj
 0001:00035bc6       $L54001                    10036bc6 f   EntityGroup.obj
 0001:00035bd1       __ehhandler$??0EntityGroup@@QAE@XZ 10036bd1 f   EntityGroup.obj
 0001:00035be0       $L54103                    10036be0 f   EntityGroup.obj
 0001:00035beb       __ehhandler$??1EntityGroup@@QAE@XZ 10036beb f   EntityGroup.obj
 0001:00035c00       $L55347                    10036c00 f   EntityGroupAPI.obj
 0001:00035c09       __ehhandler$?Cache_GetEntityGroup@@YAPAXV?$basic_string@DU?$char_traits@D@std@@V?$allocator@D@2@@std@@@Z 10036c09 f   EntityGroupAPI.obj
 0001:00035c20       $L55374                    10036c20 f   EntityGroupAPI.obj
 0001:00035c29       $L55375                    10036c29 f   EntityGroupAPI.obj
 0001:00035c32       $L55376                    10036c32 f   EntityGroupAPI.obj
 0001:00035c3b       $L55377                    10036c3b f   EntityGroupAPI.obj
 0001:00035c46       $L55379                    10036c46 f   EntityGroupAPI.obj
 0001:00035c54       __ehhandler$?GetEntityGroup@@YAPAXV?$basic_string@DU?$char_traits@D@std@@V?$allocator@D@2@@std@@00@Z 10036c54 f   EntityGroupAPI.obj
 0001:00035c60       $L55451                    10036c60 f   EntityGroupAPI.obj
 0001:00035c69       $L55452                    10036c69 f   EntityGroupAPI.obj
 0001:00035c74       __ehhandler$?CreateEntityGroup@@YAPAXV?$basic_string@DU?$char_traits@D@std@@V?$allocator@D@2@@std@@@Z 10036c74 f   EntityGroupAPI.obj
 0001:00035c80       $L55492                    10036c80 f   EntityGroupAPI.obj
 0001:00035c89       $L55493                    10036c89 f   EntityGroupAPI.obj
 0001:00035c92       $L55494                    10036c92 f   EntityGroupAPI.obj
 0001:00035c9b       $L55495                    10036c9b f   EntityGroupAPI.obj
 0001:00035ca6       __ehhandler$?DeleteEntityGroup@@YA_NV?$basic_string@DU?$char_traits@D@std@@V?$allocator@D@2@@std@@00@Z 10036ca6 f   EntityGroupAPI.obj
 0001:00035cb0       $L55561                    10036cb0 f   EntityGroupAPI.obj
 0001:00035cb9       $L55562                    10036cb9 f   EntityGroupAPI.obj
 0001:00035cc2       $L55563                    10036cc2 f   EntityGroupAPI.obj
 0001:00035ccd       $L55565                    10036ccd f   EntityGroupAPI.obj
 0001:00035cd8       __ehhandler$?SubmitEntityGroup@@YA_NPAXV?$basic_string@DU?$char_traits@D@std@@V?$allocator@D@2@@std@@1@Z 10036cd8 f   EntityGroupAPI.obj
 0001:00035cf0       __ehhandler$?CloseEntityGroup@@YA_NAAPAX@Z 10036cf0 f   EntityGroupAPI.obj
 0001:00035d00       $L56128                    10036d00 f   EntityGroupAPI.obj
 0001:00035d09       $L56129                    10036d09 f   EntityGroupAPI.obj
 0001:00035d12       $L56130                    10036d12 f   EntityGroupAPI.obj
 0001:00035d1b       $L56131                    10036d1b f   EntityGroupAPI.obj
 0001:00035d26       $L56133                    10036d26 f   EntityGroupAPI.obj
 0001:00035d34       __ehhandler$?GetAllEntityGroups@@YA_NAAV?$list@Usv_pair@@V?$allocator@Usv_pair@@@std@@@std@@V?$basic_string@DU?$char_traits@D@std@@V?$allocator@D@2@@2@11@Z 10036d34 f   EntityGroupAPI.obj
 0001:00035d40       $L58075                    10036d40 f   EntityGroupAPI.obj
 0001:00035d40       $L55322                    10036d40 f   EntityGroupAPI.obj
 0001:00035d48       __ehhandler$?DeleteSubEntityKindsID@EntityGroup@@QAE_NVword@svutil@@@Z 10036d48 f   EntityGroupAPI.obj
 0001:00035d48       __ehhandler$?PutID@EntityGroup@@QAEXVword@svutil@@@Z 10036d48 f   EntityGroupAPI.obj
 0001:00035d60       $L58337                    10036d60 f   EntityGroupAPI.obj
 0001:00035d69       __ehhandler$?GetSubEntityTempletIDByEG@@YA_NAAV?$list@V?$basic_string@DU?$char_traits@D@std@@V?$allocator@D@2@@std@@V?$allocator@V?$basic_string@DU?$char_traits@D@std@@V?$allocator@D@2@@std@@@2@@std@@PAX@Z 10036d69 f   EntityGroupAPI.obj
 0001:00035d80       $L58531                    10036d80 f   EntityGroupAPI.obj
 0001:00035d89       $L58532                    10036d89 f   EntityGroupAPI.obj
 0001:00035d91       __ehhandler$?AddSubEntityTempletIDToEG@@YA_NPAXV?$basic_string@DU?$char_traits@D@std@@V?$allocator@D@2@@std@@@Z 10036d91 f   EntityGroupAPI.obj
 0001:00035da0       $L58646                    10036da0 f   EntityGroupAPI.obj
 0001:00035da9       __ehhandler$?DeleteSubEntityTempletIDInEG@@YA_NPAXV?$basic_string@DU?$char_traits@D@std@@V?$allocator@D@2@@std@@@Z 10036da9 f   EntityGroupAPI.obj
 0001:00035dc0       $L58673                    10036dc0 f   EntityGroupAPI.obj
 0001:00035dc9       $L58674                    10036dc9 f   EntityGroupAPI.obj
 0001:00035dd1       $L58675                    10036dd1 f   EntityGroupAPI.obj
 0001:00035ddc       __ehhandler$?CloneEntityGroup@@YAPAXPAXV?$basic_string@DU?$char_traits@D@std@@V?$allocator@D@2@@std@@@Z 10036ddc f   EntityGroupAPI.obj
 0001:00035df0       $L53839                    10036df0 f   EntityTemplet.obj
 0001:00035df0       $L53734                    10036df0 f   EntityTemplet.obj
 0001:00035df9       $L53754                    10036df9 f   EntityTemplet.obj
 0001:00035df9       $L53859                    10036df9 f   EntityTemplet.obj
 0001:00035e02       __ehhandler$?_Incsize@?$list@HV?$allocator@H@std@@@std@@IAEXI@Z 10036e02 f   EntityTemplet.obj
 0001:00035e02       __ehhandler$?_Incsize@?$list@PAVStringMap@@V?$allocator@PAVStringMap@@@std@@@std@@IAEXI@Z 10036e02 f   EntityTemplet.obj
 0001:00035e10       $L55127                    10036e10 f   EntityTemplet.obj
 0001:00035e1b       $L55128                    10036e1b f   EntityTemplet.obj
 0001:00035e26       $L55129                    10036e26 f   EntityTemplet.obj
 0001:00035e31       __ehhandler$??0EntityTemplet@@QAE@XZ 10036e31 f   EntityTemplet.obj
 0001:00035e40       $L55324                    10036e40 f   EntityTemplet.obj
 0001:00035e4b       $L55325                    10036e4b f   EntityTemplet.obj
 0001:00035e56       $L55326                    10036e56 f   EntityTemplet.obj
 0001:00035e61       $L55327                    10036e61 f   EntityTemplet.obj
 0001:00035e6c       __ehhandler$??1EntityTemplet@@QAE@XZ 10036e6c f   EntityTemplet.obj
 0001:00035e80       $L55670                    10036e80 f   EntityTemplet.obj
 0001:00035e8b       __ehhandler$?CreateObjectByRawData@EntityTemplet@@UAEHPBDI@Z 10036e8b f   EntityTemplet.obj
 0001:00035ea0       $L55774                    10036ea0 f   EntityTempletAPI.obj
 0001:00035ea8       __ehhandler$?PutID@EntityTemplet@@QAEXVword@svutil@@@Z 10036ea8 f   EntityTempletAPI.obj
 0001:00035ec0       $L55805                    10036ec0 f   EntityTempletAPI.obj
 0001:00035ec9       __ehhandler$?Cache_GetEntityTemplet@@YAPAXV?$basic_string@DU?$char_traits@D@std@@V?$allocator@D@2@@std@@@Z 10036ec9 f   EntityTempletAPI.obj
 0001:00035ee0       $L55832                    10036ee0 f   EntityTempletAPI.obj
 0001:00035ee9       $L55833                    10036ee9 f   EntityTempletAPI.obj
 0001:00035ef2       $L55834                    10036ef2 f   EntityTempletAPI.obj
 0001:00035efb       $L55835                    10036efb f   EntityTempletAPI.obj
 0001:00035f06       $L55837                    10036f06 f   EntityTempletAPI.obj
 0001:00035f14       __ehhandler$?GetEntityTemplet@@YAPAXV?$basic_string@DU?$char_traits@D@std@@V?$allocator@D@2@@std@@00@Z 10036f14 f   EntityTempletAPI.obj
 0001:00035f20       $L55909                    10036f20 f   EntityTempletAPI.obj
 0001:00035f29       $L55910                    10036f29 f   EntityTempletAPI.obj
 0001:00035f34       __ehhandler$?CreateEntityTemplet@@YAPAXV?$basic_string@DU?$char_traits@D@std@@V?$allocator@D@2@@std@@@Z 10036f34 f   EntityTempletAPI.obj
 0001:00035f40       $L55937                    10036f40 f   EntityTempletAPI.obj
 0001:00035f49       $L55938                    10036f49 f   EntityTempletAPI.obj
 0001:00035f52       $L55939                    10036f52 f   EntityTempletAPI.obj
 0001:00035f5b       $L55940                    10036f5b f   EntityTempletAPI.obj
 0001:00035f66       __ehhandler$?DeleteEntityTemplet@@YA_NV?$basic_string@DU?$char_traits@D@std@@V?$allocator@D@2@@std@@00@Z 10036f66 f   EntityTempletAPI.obj
 0001:00035f70       $L56029                    10036f70 f   EntityTempletAPI.obj
 0001:00035f79       $L56030                    10036f79 f   EntityTempletAPI.obj
 0001:00035f82       $L56031                    10036f82 f   EntityTempletAPI.obj
 0001:00035f8d       $L56033                    10036f8d f   EntityTempletAPI.obj
 0001:00035f98       __ehhandler$?SubmitEntityTemplet@@YA_NPAXV?$basic_string@DU?$char_traits@D@std@@V?$allocator@D@2@@std@@1@Z 10036f98 f   EntityTempletAPI.obj
 0001:00035fb0       $L56113                    10036fb0 f   EntityTempletAPI.obj
 0001:00035fb9       $L56114                    10036fb9 f   EntityTempletAPI.obj
 0001:00035fc1       $L56115                    10036fc1 f   EntityTempletAPI.obj
 0001:00035fcc       __ehhandler$?CloneEntityTemplet@@YAPAXPAXV?$basic_string@DU?$char_traits@D@std@@V?$allocator@D@2@@std@@@Z 10036fcc f   EntityTempletAPI.obj
 0001:00035fe0       __ehhandler$?CloseEntityTemplet@@YA_NAAPAX@Z 10036fe0 f   EntityTempletAPI.obj
 0001:00035ff0       $L56621                    10036ff0 f   EntityTempletAPI.obj
 0001:00035ff9       $L56622                    10036ff9 f   EntityTempletAPI.obj
 0001:00036002       $L56623                    10037002 f   EntityTempletAPI.obj
 0001:0003600b       $L56624                    1003700b f   EntityTempletAPI.obj
 0001:00036016       $L56626                    10037016 f   EntityTempletAPI.obj
 0001:00036024       __ehhandler$?GetAllEntityTemplets@@YA_NAAV?$list@Usv_pair@@V?$allocator@Usv_pair@@@std@@@std@@V?$basic_string@DU?$char_traits@D@std@@V?$allocator@D@2@@2@11@Z 10037024 f   EntityTempletAPI.obj
 0001:00036030       __ehhandler$?FindETContrlFirst@@YA_NPAXAAUsv_list@@@Z 10037030 f   EntityTempletAPI.obj
 0001:00036040       __ehhandler$?GetSubMonitorTypeByET@@YA_NPAXAAV?$list@HV?$allocator@H@std@@@std@@@Z 10037040 f   EntityTempletAPI.obj
 0001:00036050       __ehhandler$?AddSubMonitorTypeToET@@YA_NPAXH@Z 10037050 f   EntityTempletAPI.obj
 0001:00036060       $L58934                    10037060 f   EntityTempletAPI.obj
 0001:00036069       $L58935                    10037069 f   EntityTempletAPI.obj
 0001:00036072       $L58936                    10037072 f   EntityTempletAPI.obj
 0001:0003607b       $L58937                    1003707b f   EntityTempletAPI.obj
 0001:00036084       $L58938                    10037084 f   EntityTempletAPI.obj
 0001:0003608f       $L58939                    1003708f f   EntityTempletAPI.obj
 0001:0003609a       __ehhandler$?GetAllEntityTempletsInProperty@@YA_NV?$basic_string@DU?$char_traits@D@std@@V?$allocator@D@2@@std@@0AAV?$list@V?$basic_string@DU?$char_traits@D@std@@V?$allocator@D@2@@std@@V?$allocator@V?$basic_string@DU?$char_traits@D@std@@V?$allocator@D@2@@std@@@2@@2@00@Z 1003709a f   EntityTempletAPI.obj
 0001:000360b0       $L52649                    100370b0 f   General.obj
 0001:000360b9       $L52650                    100370b9 f   General.obj
 0001:000360c5       __ehhandler$??0sv_pair@@QAE@ABU0@@Z 100370c5 f   General.obj
 0001:000360d0       $L52831                    100370d0 f   General.obj
 0001:000360d0       $L52779                    100370d0 f   General.obj
 0001:000360d9       $L52833                    100370d9 f   General.obj
 0001:000360d9       $L52781                    100370d9 f   General.obj
 0001:000360e1       $L52782                    100370e1 f   General.obj
 0001:000360e1       $L52834                    100370e1 f   General.obj
 0001:000360fb       __ehhandler$?FindParentID@@YA?AV?$basic_string@DU?$char_traits@D@std@@V?$allocator@D@2@@std@@V12@@Z 100370fb f   General.obj
 0001:000360fb       __ehhandler$?FindSEID@@YA?AV?$basic_string@DU?$char_traits@D@std@@V?$allocator@D@2@@std@@V12@@Z 100370fb f   General.obj
 0001:00036110       $L52818                    10037110 f   General.obj
 0001:00036110       $L52805                    10037110 f   General.obj
 0001:00036119       __ehhandler$?FindIndexByID@@YAHV?$basic_string@DU?$char_traits@D@std@@V?$allocator@D@2@@std@@@Z 10037119 f   General.obj
 0001:00036119       __ehhandler$?IsSVSEID@@YA_NV?$basic_string@DU?$char_traits@D@std@@V?$allocator@D@2@@std@@@Z 10037119 f   General.obj
 0001:00036130       $L53011                    10037130 f   General.obj
 0001:00036139       $L53012                    10037139 f   General.obj
 0001:00036142       $L53013                    10037142 f   General.obj
 0001:0003614b       $L53014                    1003714b f   General.obj
 0001:00036154       $L53015                    10037154 f   General.obj
 0001:0003615d       $L53016                    1003715d f   General.obj
 0001:00036168       $L53017                    10037168 f   General.obj
 0001:00036173       __ehhandler$?WriteIniFileInt@@YA_NV?$basic_string@DU?$char_traits@D@std@@V?$allocator@D@2@@std@@0H000@Z 10037173 f   General.obj
 0001:00036180       $L53126                    10037180 f   General.obj
 0001:00036189       $L53127                    10037189 f   General.obj
 0001:00036192       $L53128                    10037192 f   General.obj
 0001:0003619b       $L53129                    1003719b f   General.obj
 0001:000361a4       $L53130                    100371a4 f   General.obj
 0001:000361ad       $L53131                    100371ad f   General.obj
 0001:000361b8       $L53132                    100371b8 f   General.obj
 0001:000361c3       __ehhandler$?WriteIniFileStruct@@YA_NV?$basic_string@DU?$char_traits@D@std@@V?$allocator@D@2@@std@@0PAXI000@Z 100371c3 f   General.obj
 0001:000361d0       $L53238                    100371d0 f   General.obj
 0001:000361dc       $L53239                    100371dc f   General.obj
 0001:000361e5       $L53240                    100371e5 f   General.obj
 0001:000361ee       $L53241                    100371ee f   General.obj
 0001:000361f7       $L53242                    100371f7 f   General.obj
 0001:00036200       $L53243                    10037200 f   General.obj
 0001:00036209       $L53248                    10037209 f   General.obj
 0001:00036214       $L53250                    10037214 f   General.obj
 0001:00036220       $L53244                    10037220 f   General.obj
 0001:00036240       __ehhandler$?GetIniFileString@@YA?AV?$basic_string@DU?$char_traits@D@std@@V?$allocator@D@2@@std@@V12@00000@Z 10037240 f   General.obj
 0001:00036250       $L53387                    10037250 f   General.obj
 0001:00036259       $L53388                    10037259 f   General.obj
 0001:00036262       $L53389                    10037262 f   General.obj
 0001:0003626b       $L53390                    1003726b f   General.obj
 0001:00036274       $L53391                    10037274 f   General.obj
 0001:0003627d       $L53392                    1003727d f   General.obj
 0001:00036288       __ehhandler$?GetIniFileInt@@YAHV?$basic_string@DU?$char_traits@D@std@@V?$allocator@D@2@@std@@0H000@Z 10037288 f   General.obj
 0001:000362a0       $L53497                    100372a0 f   General.obj
 0001:000362a9       $L53498                    100372a9 f   General.obj
 0001:000362b2       $L53499                    100372b2 f   General.obj
 0001:000362bb       $L53500                    100372bb f   General.obj
 0001:000362c4       $L53501                    100372c4 f   General.obj
 0001:000362cd       $L53502                    100372cd f   General.obj
 0001:000362d8       __ehhandler$?GetIniFileStruct@@YA_NV?$basic_string@DU?$char_traits@D@std@@V?$allocator@D@2@@std@@0PAXAAI000@Z 100372d8 f   General.obj
 0001:000362f0       $L53604                    100372f0 f   General.obj
 0001:000362f9       $L53605                    100372f9 f   General.obj
 0001:00036302       $L53606                    10037302 f   General.obj
 0001:0003630b       $L53607                    1003730b f   General.obj
 0001:00036314       $L53608                    10037314 f   General.obj
 0001:0003631f       $L53609                    1003731f f   General.obj
 0001:0003632a       __ehhandler$?DeleteIniFileSection@@YA_NV?$basic_string@DU?$char_traits@D@std@@V?$allocator@D@2@@std@@000@Z 1003732a f   General.obj
 0001:00036340       $L53696                    10037340 f   General.obj
 0001:00036349       $L53697                    10037349 f   General.obj
 0001:00036352       $L53698                    10037352 f   General.obj
 0001:0003635b       $L53699                    1003735b f   General.obj
 0001:00036364       $L53700                    10037364 f   General.obj
 0001:0003636d       $L53701                    1003736d f   General.obj
 0001:00036378       $L53702                    10037378 f   General.obj
 0001:00036383       __ehhandler$?DeleteIniFileKey@@YA_NV?$basic_string@DU?$char_traits@D@std@@V?$allocator@D@2@@std@@0000@Z 10037383 f   General.obj
 0001:00036390       $L53814                    10037390 f   General.obj
 0001:00036399       $L53815                    10037399 f   General.obj
 0001:000363a2       $L53816                    100373a2 f   General.obj
 0001:000363ab       $L53817                    100373ab f   General.obj
 0001:000363b4       $L53818                    100373b4 f   General.obj
 0001:000363bd       $L53819                    100373bd f   General.obj
 0001:000363c8       __ehhandler$?GetIniFileValueType@@YAHV?$basic_string@DU?$char_traits@D@std@@V?$allocator@D@2@@std@@0000@Z 100373c8 f   General.obj
 0001:000363e0       $L53918                    100373e0 f   General.obj
 0001:000363e9       $L53919                    100373e9 f   General.obj
 0001:000363f2       $L53920                    100373f2 f   General.obj
 0001:000363fb       $L53921                    100373fb f   General.obj
 0001:00036404       $L53922                    10037404 f   General.obj
 0001:0003640d       $L53923                    1003740d f   General.obj
 0001:00036418       $L53924                    10037418 f   General.obj
 0001:00036423       __ehhandler$?EditIniFileSection@@YA_NV?$basic_string@DU?$char_traits@D@std@@V?$allocator@D@2@@std@@0000@Z 10037423 f   General.obj
 0001:00036430       $L54042                    10037430 f   General.obj
 0001:00036430       $L52866                    10037430 f   General.obj
 0001:0003643c       $L52867                    1003743c f   General.obj
 0001:0003643c       $L54043                    1003743c f   General.obj
 0001:00036445       $L54044                    10037445 f   General.obj
 0001:00036445       $L52868                    10037445 f   General.obj
 0001:0003644e       $L54045                    1003744e f   General.obj
 0001:0003644e       $L52869                    1003744e f   General.obj
 0001:00036457       $L54046                    10037457 f   General.obj
 0001:00036457       $L52870                    10037457 f   General.obj
 0001:00036460       $L52871                    10037460 f   General.obj
 0001:00036460       $L54047                    10037460 f   General.obj
 0001:00036469       $L54048                    10037469 f   General.obj
 0001:00036469       $L52872                    10037469 f   General.obj
 0001:00036474       $L54049                    10037474 f   General.obj
 0001:00036474       $L52873                    10037474 f   General.obj
 0001:0003647f       __ehhandler$?EditIniFileKey@@YA_NV?$basic_string@DU?$char_traits@D@std@@V?$allocator@D@2@@std@@00000@Z 1003747f f   General.obj
 0001:0003647f       __ehhandler$?WriteIniFileString@@YA_NV?$basic_string@DU?$char_traits@D@std@@V?$allocator@D@2@@std@@00000@Z 1003747f f   General.obj
 0001:00036490       $L54182                    10037490 f   General.obj
 0001:00036498       $L54183                    10037498 f   General.obj
 0001:000364a3       __ehhandler$?CloneMapNode@@YAPAXPAX@Z 100374a3 f   General.obj
 0001:000364b0       $L54520                    100374b0 f   General.obj
 0001:000364b8       $L54521                    100374b8 f   General.obj
 0001:000364c3       __ehhandler$??0?$hashelement@Vword@svutil@@V12@@svutil@@QAE@ABVword@1@0@Z 100374c3 f   General.obj
 0001:000364d0       $L55174                    100374d0 f   General.obj
 0001:000364d0       $L55222                    100374d0 f   General.obj
 0001:000364d8       __ehhandler$??M?$treenode@V?$hashelement@Vword@svutil@@V12@@svutil@@@svutil@@QAE_NV01@@Z 100374d8 f   General.obj
 0001:000364d8       __ehhandler$??O?$treenode@V?$hashelement@Vword@svutil@@V12@@svutil@@@svutil@@QAE_NV01@@Z 100374d8 f   General.obj
 0001:000364f0       $L55269                    100374f0 f   General.obj
 0001:000364f0       $L55696                    100374f0 f   General.obj
 0001:000364fb       __ehhandler$??0?$treenode@V?$hashelement@Vword@svutil@@V12@@svutil@@@svutil@@QAE@ABV?$hashelement@Vword@svutil@@V12@@1@@Z 100374fb f   General.obj
 0001:000364fb       __ehhandler$??0?$treenode@V?$hashelement@Vword@svutil@@V12@@svutil@@@svutil@@QAE@ABV01@@Z 100374fb f   General.obj
 0001:00036510       __ehhandler$?CloseMapNodeObject@@YAXAAPAX@Z 10037510 f   General.obj
 0001:00036520       $L56627                    10037520 f   General.obj
 0001:00036520       $L59964                    10037520 f   General.obj
 0001:00036520       $L61139                    10037520 f   General.obj
 0001:00036528       __ehhandler$?erase@?$hashnode@Vword@svutil@@V12@@svutil@@QAE_NABVword@2@@Z 10037528 f   General.obj
 0001:00036528       __ehhandler$?insert@?$hashnode@Vword@svutil@@V12@@svutil@@QAEAAV?$hashelement@Vword@svutil@@V12@@2@ABVword@2@0@Z 10037528 f   General.obj
 0001:00036528       __ehhandler$?RomoveNode@?$sorttree@V?$hashelement@Vword@svutil@@V12@@svutil@@@svutil@@QAEXABV?$hashelement@Vword@svutil@@V12@@2@@Z 10037528 f   General.obj
 0001:00036540       $L58335                    10037540 f   General.obj
 0001:00036549       $L58336                    10037549 f   General.obj
 0001:00036552       $L58337                    10037552 f   General.obj
 0001:0003655b       $L58338                    1003755b f   General.obj
 0001:00036564       $L58339                    10037564 f   General.obj
 0001:0003656f       $L58340                    1003756f f   General.obj
 0001:0003657a       $L58341                    1003757a f   General.obj
 0001:00036585       __ehhandler$?WriteIniSectionManyString@@YA_NABV?$map@V?$basic_string@DU?$char_traits@D@std@@V?$allocator@D@2@@std@@V12@U?$less@V?$basic_string@DU?$char_traits@D@std@@V?$allocator@D@2@@std@@@2@V?$allocator@U?$pair@$$CBV?$basic_string@DU?$char_traits@D@std@@V?$allocator@D@2@@std@@V12@@std@@@2@@std@@V?$basic_string@DU?$char_traits@D@std@@V?$allocator@D@2@@2@111@Z 10037585 f   General.obj
 0001:00036590       $L58984                    10037590 f   General.obj
 0001:000365a1       __ehhandler$?_Buynode@?$list@Usv_pair@@V?$allocator@Usv_pair@@@std@@@std@@IAEPAU_Node@?$_List_nod@Usv_pair@@V?$allocator@Usv_pair@@@std@@@2@PAU342@0ABUsv_pair@@@Z 100375a1 f   General.obj
 0001:000365b0       $L59265                    100375b0 f   General.obj
 0001:000365c1       __ehhandler$?_Buynode@?$_Tree@V?$_Tmap_traits@V?$basic_string@DU?$char_traits@D@std@@V?$allocator@D@2@@std@@V12@U?$less@V?$basic_string@DU?$char_traits@D@std@@V?$allocator@D@2@@std@@@2@V?$allocator@U?$pair@$$CBV?$basic_string@DU?$char_traits@D@std@@V?$allocator@D@2@@std@@V12@@std@@@2@$0A@@std@@@std@@IAEPAU_Node@?$_Tree_nod@V?$_Tmap_traits@V?$basic_string@DU?$char_traits@D@std@@V?$allocator@D@2@@std@@V12@U?$less@V?$basic_string@DU?$char_traits@D@std@@V?$allocator@D@2@@std@@@2@V?$allocator@U?$pair@$$CBV?$basic_string@DU?$char_traits@D@std@@V?$allocator@D@2@@std@@V12@@std@@@2@$0A@@std@@@2@PAU342@00ABU?$pair@$$CBV?$basic_string@DU?$char_traits@D@std@@V?$allocator@D@2@@std@@V12@@2@D@Z 100375c1 f   General.obj
 0001:000365d0       $L59885                    100375d0 f   General.obj
 0001:000365d8       __ehhandler$??1?$hashnode@Vword@svutil@@V12@@svutil@@QAE@XZ 100375d8 f   General.obj
 0001:000365f0       $L61425                    100375f0 f   General.obj
 0001:000365f0       $L61906                    100375f0 f   General.obj
 0001:000365f9       $L61916                    100375f9 f   General.obj
 0001:000365f9       $L61435                    100375f9 f   General.obj
 0001:00036602       $L61806                    10037602 f   General.obj
 0001:00036602       $L62287                    10037602 f   General.obj
 0001:0003660b       __ehhandler$?erase@?$_Tree@V?$_Tmap_traits@V?$basic_string@DU?$char_traits@D@std@@V?$allocator@D@2@@std@@V12@U?$less@V?$basic_string@DU?$char_traits@D@std@@V?$allocator@D@2@@std@@@2@V?$allocator@U?$pair@$$CBV?$basic_string@DU?$char_traits@D@std@@V?$allocator@D@2@@std@@V12@@std@@@2@$0A@@std@@@std@@QAE?AViterator@12@V312@@Z 1003760b f   General.obj
 0001:0003660b       __ehhandler$?erase@?$_Tree@V?$_Tmap_traits@V?$basic_string@DU?$char_traits@D@std@@V?$allocator@D@2@@std@@V12@UStlIniCompareStringNoCase@@V?$allocator@U?$pair@$$CBV?$basic_string@DU?$char_traits@D@std@@V?$allocator@D@2@@std@@V12@@std@@@2@$0A@@std@@@std@@QAE?AViterator@12@V312@@Z 1003760b f   General.obj
 0001:00036620       __ehhandler$?GetNodeSize@@YAIPAX@Z 10037620 f   General.obj
 0001:00036630       $L62401                    10037630 f   General.obj
 0001:00036639       $L62402                    10037639 f   General.obj
 0001:00036641       __ehhandler$?FindNodeValue@@YA_NPAXV?$basic_string@DU?$char_traits@D@std@@V?$allocator@D@2@@std@@AAV12@@Z 10037641 f   General.obj
 0001:00036650       __ehhandler$?InsertItemToList@@YA_NABUsv_list@@QAX@Z 10037650 f   General.obj
 0001:00036660       __ehhandler$?AddItemToList@@YA_NABUsv_list@@QAX@Z 10037660 f   General.obj
 0001:00036670       $L62681                    10037670 f   General.obj
 0001:00036679       $L62682                    10037679 f   General.obj
 0001:00036682       $L62683                    10037682 f   General.obj
 0001:0003668b       $L62684                    1003768b f   General.obj
 0001:00036696       __ehhandler$?GetIniFileSections@@YA_NAAV?$list@V?$basic_string@DU?$char_traits@D@std@@V?$allocator@D@2@@std@@V?$allocator@V?$basic_string@DU?$char_traits@D@std@@V?$allocator@D@2@@std@@@2@@std@@V?$basic_string@DU?$char_traits@D@std@@V?$allocator@D@2@@2@11@Z 10037696 f   General.obj
 0001:000366a0       $L62751                    100376a0 f   General.obj
 0001:000366a9       $L62752                    100376a9 f   General.obj
 0001:000366b2       $L62753                    100376b2 f   General.obj
 0001:000366bb       $L62754                    100376bb f   General.obj
 0001:000366c4       $L62755                    100376c4 f   General.obj
 0001:000366cf       __ehhandler$?GetIniFileKeys@@YA_NV?$basic_string@DU?$char_traits@D@std@@V?$allocator@D@2@@std@@AAV?$list@V?$basic_string@DU?$char_traits@D@std@@V?$allocator@D@2@@std@@V?$allocator@V?$basic_string@DU?$char_traits@D@std@@V?$allocator@D@2@@std@@@2@@2@000@Z 100376cf f   General.obj
 0001:000366e0       __ehhandler$?_Copy@?$_Tree@V?$_Tmap_traits@V?$basic_string@DU?$char_traits@D@std@@V?$allocator@D@2@@std@@V12@U?$less@V?$basic_string@DU?$char_traits@D@std@@V?$allocator@D@2@@std@@@2@V?$allocator@U?$pair@$$CBV?$basic_string@DU?$char_traits@D@std@@V?$allocator@D@2@@std@@V12@@std@@@2@$0A@@std@@@std@@IAEPAU_Node@?$_Tree_nod@V?$_Tmap_traits@V?$basic_string@DU?$char_traits@D@std@@V?$allocator@D@2@@std@@V12@U?$less@V?$basic_string@DU?$char_traits@D@std@@V?$allocator@D@2@@std@@@2@V?$allocator@U?$pair@$$CBV?$basic_string@DU?$char_traits@D@std@@V?$allocator@D@2@@std@@V12@@std@@@2@$0A@@std@@@2@PAU342@0@Z 100376e0 f   General.obj
 0001:000366f0       $L63490                    100376f0 f   General.obj
 0001:000366f9       $L63486                    100376f9 f   General.obj
 0001:00036701       $L63598                    10037701 f   General.obj
 0001:0003670a       __ehhandler$?EnumNodeAttrib@@YA_NPAXAAV?$list@Usv_pair@@V?$allocator@Usv_pair@@@std@@@std@@@Z 1003770a f   General.obj
 0001:00036720       __ehhandler$?ClearMapNode@@YA_NPAX@Z 10037720 f   General.obj
 0001:00036730       $L63636                    10037730 f   General.obj
 0001:00036739       $L63637                    10037739 f   General.obj
 0001:00036741       __ehhandler$?DeleteNodeAttrib@@YA_NPAXV?$basic_string@DU?$char_traits@D@std@@V?$allocator@D@2@@std@@@Z 10037741 f   General.obj
 0001:00036750       $L52745                    10037750 f   General.obj
 0001:00036750       $L63672                    10037750 f   General.obj
 0001:00036750       $L58173                    10037750 f   General.obj
 0001:0003675b       __ehhandler$?insert@?$hashtable@Vword@svutil@@V12@@svutil@@QAEAAVword@2@ABV32@0@Z 1003775b f   General.obj
 0001:0003675b       __ehhandler$?CreateNewMapNode@@YAPAXXZ 1003775b f   General.obj
 0001:0003675b       __ehhandler$??$CreateNode@V?$hashelement@Vword@svutil@@V12@@svutil@@@?$sorttree@V?$hashelement@Vword@svutil@@V12@@svutil@@@svutil@@SAPAV?$treenode@V?$hashelement@Vword@svutil@@V12@@svutil@@@1@ABV?$hashelement@Vword@svutil@@V12@@1@@Z 1003775b f   General.obj
 0001:00036770       $L64731                    10037770 f   General.obj
 0001:00036778       $L64732                    10037778 f   General.obj
 0001:00036780       __ehhandler$?AddNodeAttrib@@YA_NPAXABUsv_pair@@@Z 10037780 f   General.obj
 0001:00036790       $L64791                    10037790 f   General.obj
 0001:00036799       $L64792                    10037799 f   General.obj
 0001:000367a2       $L64793                    100377a2 f   General.obj
 0001:000367aa       $L64794                    100377aa f   General.obj
 0001:000367b2       __ehhandler$?AddNodeAttrib@@YA_NPAXV?$basic_string@DU?$char_traits@D@std@@V?$allocator@D@2@@std@@1@Z 100377b2 f   General.obj
 0001:000367c0       __ehhandler$??0?$_Tree@V?$_Tmap_traits@V?$basic_string@DU?$char_traits@D@std@@V?$allocator@D@2@@std@@V12@U?$less@V?$basic_string@DU?$char_traits@D@std@@V?$allocator@D@2@@std@@@2@V?$allocator@U?$pair@$$CBV?$basic_string@DU?$char_traits@D@std@@V?$allocator@D@2@@std@@V12@@std@@@2@$0A@@std@@@std@@QAE@ABV01@@Z 100377c0 f   General.obj
 0001:000367d0       $L66306                    100377d0 f   General.obj
 0001:000367d0       $L65605                    100377d0 f   General.obj
 0001:000367d0       $L65434                    100377d0 f   General.obj
 0001:000367d9       __ehhandler$??1?$pair@V?$basic_string@DU?$char_traits@D@std@@V?$allocator@D@2@@std@@V?$map@V?$basic_string@DU?$char_traits@D@std@@V?$allocator@D@2@@std@@V12@U?$less@V?$basic_string@DU?$char_traits@D@std@@V?$allocator@D@2@@std@@@2@V?$allocator@U?$pair@$$CBV?$basic_string@DU?$char_traits@D@std@@V?$allocator@D@2@@std@@V12@@std@@@2@@2@@std@@QAE@XZ 100377d9 f   General.obj
 0001:000367d9       __ehhandler$??1?$pair@$$CBV?$basic_string@DU?$char_traits@D@std@@V?$allocator@D@2@@std@@V?$map@V?$basic_string@DU?$char_traits@D@std@@V?$allocator@D@2@@std@@V12@U?$less@V?$basic_string@DU?$char_traits@D@std@@V?$allocator@D@2@@std@@@2@V?$allocator@U?$pair@$$CBV?$basic_string@DU?$char_traits@D@std@@V?$allocator@D@2@@std@@V12@@std@@@2@@2@@std@@QAE@XZ 100377d9 f   General.obj
 0001:000367d9       __ehhandler$??1?$pair@$$CBV?$basic_string@DU?$char_traits@D@std@@V?$allocator@D@2@@std@@V?$map@V?$basic_string@DU?$char_traits@D@std@@V?$allocator@D@2@@std@@V12@UStlIniCompareStringNoCase@@V?$allocator@U?$pair@$$CBV?$basic_string@DU?$char_traits@D@std@@V?$allocator@D@2@@std@@V12@@std@@@2@@2@@std@@QAE@XZ 100377d9 f   General.obj
 0001:000367f0       $L65941                    100377f0 f   General.obj
 0001:000367f0       $L55299                    100377f0 f   General.obj
 0001:000367f0       $L52660                    100377f0 f   General.obj
 0001:000367f0       $L55310                    100377f0 f   General.obj
 0001:000367f0       $L65957                    100377f0 f   General.obj
 0001:000367f9       __ehhandler$??1?$pair@$$CBV?$basic_string@DU?$char_traits@D@std@@V?$allocator@D@2@@std@@V12@@std@@QAE@XZ 100377f9 f   General.obj
 0001:000367f9       __ehhandler$??1sv_pair@@QAE@XZ 100377f9 f   General.obj
 0001:000367f9       __ehhandler$??0?$pair@$$CBV?$basic_string@DU?$char_traits@D@std@@V?$allocator@D@2@@std@@V?$map@V?$basic_string@DU?$char_traits@D@std@@V?$allocator@D@2@@std@@V12@U?$less@V?$basic_string@DU?$char_traits@D@std@@V?$allocator@D@2@@std@@@2@V?$allocator@U?$pair@$$CBV?$basic_string@DU?$char_traits@D@std@@V?$allocator@D@2@@std@@V12@@std@@@2@@2@@std@@QAE@ABU01@@Z 100377f9 f   General.obj
 0001:000367f9       __ehhandler$??0?$pair@$$CBV?$basic_string@DU?$char_traits@D@std@@V?$allocator@D@2@@std@@V12@@std@@QAE@ABU01@@Z 100377f9 f   General.obj
 0001:000367f9       __ehhandler$??$?0V?$basic_string@DU?$char_traits@D@std@@V?$allocator@D@2@@std@@V?$map@V?$basic_string@DU?$char_traits@D@std@@V?$allocator@D@2@@std@@V12@U?$less@V?$basic_string@DU?$char_traits@D@std@@V?$allocator@D@2@@std@@@2@V?$allocator@U?$pair@$$CBV?$basic_string@DU?$char_traits@D@std@@V?$allocator@D@2@@std@@V12@@std@@@2@@1@@?$pair@$$CBV?$basic_string@DU?$char_traits@D@std@@V?$allocator@D@2@@std@@V?$map@V?$basic_string@DU?$char_traits@D@std@@V?$allocator@D@2@@std@@V12@U?$less@V?$basic_string@DU?$char_traits@D@std@@V?$allocator@D@2@@std@@@2@V?$allocator@U?$pair@$$CBV?$basic_string@DU?$char_traits@D@std@@V?$allocator@D@2@@std@@V12@@std@@@2@@2@@std@@QAE@ABU?$pair@V?$basic_string@DU?$char_traits@D@std@@V?$allocator@D@2@@std@@V?$map@V?$basic_string@DU?$char_traits@D@std@@V?$allocator@D@2@@std@@V12@U?$less@V?$basic_string@DU?$char_traits@D@std@@V?$allocator@D@2@@std@@@2@V?$allocator@U?$pair@$$CBV?$basic_string@DU?$char_traits@D@std@@V?$allocator@D@2@@std@@V12@@std@@@2@@2@@1@@Z 100377f9 f   General.obj
 0001:00036810       $L66121                    10037810 f   General.obj
 0001:00036818       $L66122                    10037818 f   General.obj
 0001:00036821       $L66127                    10037821 f   General.obj
 0001:0003682a       $L66123                    1003782a f   General.obj
 0001:00036843       __ehhandler$??$make_pair@V?$basic_string@DU?$char_traits@D@std@@V?$allocator@D@2@@std@@V?$map@V?$basic_string@DU?$char_traits@D@std@@V?$allocator@D@2@@std@@V12@U?$less@V?$basic_string@DU?$char_traits@D@std@@V?$allocator@D@2@@std@@@2@V?$allocator@U?$pair@$$CBV?$basic_string@DU?$char_traits@D@std@@V?$allocator@D@2@@std@@V12@@std@@@2@@2@@std@@YA?AU?$pair@V?$basic_string@DU?$char_traits@D@std@@V?$allocator@D@2@@std@@V?$map@V?$basic_string@DU?$char_traits@D@std@@V?$allocator@D@2@@std@@V12@U?$less@V?$basic_string@DU?$char_traits@D@std@@V?$allocator@D@2@@std@@@2@V?$allocator@U?$pair@$$CBV?$basic_string@DU?$char_traits@D@std@@V?$allocator@D@2@@std@@V12@@std@@@2@@2@@0@V?$basic_string@DU?$char_traits@D@std@@V?$allocator@D@2@@0@V?$map@V?$basic_string@DU?$char_traits@D@std@@V?$allocator@D@2@@std@@V12@U?$less@V?$basic_string@DU?$char_traits@D@std@@V?$allocator@D@2@@std@@@2@V?$allocator@U?$pair@$$CBV?$basic_string@DU?$char_traits@D@std@@V?$allocator@D@2@@std@@V12@@std@@@2@@0@@Z 10037843 f   General.obj
 0001:00036850       $L66483                    10037850 f   General.obj
 0001:00036861       __ehhandler$?_Buynode@?$_Tree@V?$_Tmap_traits@V?$basic_string@DU?$char_traits@D@std@@V?$allocator@D@2@@std@@V?$map@V?$basic_string@DU?$char_traits@D@std@@V?$allocator@D@2@@std@@V12@U?$less@V?$basic_string@DU?$char_traits@D@std@@V?$allocator@D@2@@std@@@2@V?$allocator@U?$pair@$$CBV?$basic_string@DU?$char_traits@D@std@@V?$allocator@D@2@@std@@V12@@std@@@2@@2@U?$less@V?$basic_string@DU?$char_traits@D@std@@V?$allocator@D@2@@std@@@2@V?$allocator@U?$pair@$$CBV?$basic_string@DU?$char_traits@D@std@@V?$allocator@D@2@@std@@V?$map@V?$basic_string@DU?$char_traits@D@std@@V?$allocator@D@2@@std@@V12@U?$less@V?$basic_string@DU?$char_traits@D@std@@V?$allocator@D@2@@std@@@2@V?$allocator@U?$pair@$$CBV?$basic_string@DU?$char_traits@D@std@@V?$allocator@D@2@@std@@V12@@std@@@2@@2@@std@@@2@$0A@@std@@@std@@IAEPAU_Node@?$_Tree_nod@V?$_Tmap_traits@V?$basic_string@DU?$char_traits@D@std@@V?$allocator@D@2@@std@@V?$map@V?$basic_string@DU?$char_traits@D@std@@V?$allocator@D@2@@std@@V12@U?$less@V?$basic_string@DU?$char_traits@D@std@@V?$allocator@D@2@@std@@@2@V?$allocator@U?$pair@$$CBV?$basic_string@DU?$char_traits@D@std@@V?$allocator@D@2@@std@@V12@@std@@@2@@2@U?$less@V?$basic_string@DU?$char_traits@D@std@@V?$allocator@D@2@@std@@@2@V?$allocator@U?$pair@$$CBV?$basic_string@DU?$char_traits@D@std@@V?$allocator@D@2@@std@@V?$map@V?$basic_string@DU?$char_traits@D@std@@V?$allocator@D@2@@std@@V12@U?$less@V?$basic_string@DU?$char_traits@D@std@@V?$allocator@D@2@@std@@@2@V?$allocator@U?$pair@$$CBV?$basic_string@DU?$char_traits@D@std@@V?$allocator@D@2@@std@@V12@@std@@@2@@2@@std@@@2@$0A@@std@@@2@PAU342@00ABU?$pair@$$CBV?$basic_string@DU?$char_traits@D@std@@V?$allocator@D@2@@std@@V?$map@V?$basic_string@DU?$char_traits@D@std@@V?$allocator@D@2@@std@@V12@U?$less@V?$basic_string@DU?$char_traits@D@std@@V?$allocator@D@2@@std@@@2@V?$allocator@U?$pair@$$CBV?$basic_string@DU?$char_traits@D@std@@V?$allocator@D@2@@std@@V12@@std@@@2@@2@@2@D@Z 10037861 f   General.obj
 0001:00036870       $L66966                    10037870 f   General.obj
 0001:00036879       $L66967                    10037879 f   General.obj
 0001:00036882       $L66968                    10037882 f   General.obj
 0001:0003688b       $L66969                    1003788b f   General.obj
 0001:00036894       $L66970                    10037894 f   General.obj
 0001:0003689f       $L66971                    1003789f f   General.obj
 0001:000368aa       $L66973                    100378aa f   General.obj
 0001:000368b5       $L66974                    100378b5 f   General.obj
 0001:000368c0       $L66975                    100378c0 f   General.obj
 0001:000368cb       $L66977                    100378cb f   General.obj
 0001:000368d6       $L66978                    100378d6 f   General.obj
 0001:000368e1       __ehhandler$?GetSvIniFileBySections@@YA_NAAV?$map@V?$basic_string@DU?$char_traits@D@std@@V?$allocator@D@2@@std@@V?$map@V?$basic_string@DU?$char_traits@D@std@@V?$allocator@D@2@@std@@V12@U?$less@V?$basic_string@DU?$char_traits@D@std@@V?$allocator@D@2@@std@@@2@V?$allocator@U?$pair@$$CBV?$basic_string@DU?$char_traits@D@std@@V?$allocator@D@2@@std@@V12@@std@@@2@@2@U?$less@V?$basic_string@DU?$char_traits@D@std@@V?$allocator@D@2@@std@@@2@V?$allocator@U?$pair@$$CBV?$basic_string@DU?$char_traits@D@std@@V?$allocator@D@2@@std@@V?$map@V?$basic_string@DU?$char_traits@D@std@@V?$allocator@D@2@@std@@V12@U?$less@V?$basic_string@DU?$char_traits@D@std@@V?$allocator@D@2@@std@@@2@V?$allocator@U?$pair@$$CBV?$basic_string@DU?$char_traits@D@std@@V?$allocator@D@2@@std@@V12@@std@@@2@@2@@std@@@2@@std@@V?$basic_string@DU?$char_traits@D@std@@V?$allocator@D@2@@2@111@Z 100378e1 f   General.obj
 0001:000368f0       $L59017                    100378f0 f   General.obj
 0001:000368f0       $L67234                    100378f0 f   General.obj
 0001:000368f0       $L54706                    100378f0 f   General.obj
 0001:000368f0       $L66520                    100378f0 f   General.obj
 0001:000368f9       $L67244                    100378f9 f   General.obj
 0001:000368f9       $L66540                    100378f9 f   General.obj
 0001:000368f9       $L59037                    100378f9 f   General.obj
 0001:000368f9       $L54710                    100378f9 f   General.obj
 0001:00036902       __ehhandler$?erase@?$_Tree@V?$_Tmap_traits@V?$basic_string@DU?$char_traits@D@std@@V?$allocator@D@2@@std@@V?$map@V?$basic_string@DU?$char_traits@D@std@@V?$allocator@D@2@@std@@V12@UStlIniCompareStringNoCase@@V?$allocator@U?$pair@$$CBV?$basic_string@DU?$char_traits@D@std@@V?$allocator@D@2@@std@@V12@@std@@@2@@2@UStlIniCompareStringNoCase@@V?$allocator@U?$pair@$$CBV?$basic_string@DU?$char_traits@D@std@@V?$allocator@D@2@@std@@V?$map@V?$basic_string@DU?$char_traits@D@std@@V?$allocator@D@2@@std@@V12@UStlIniCompareStringNoCase@@V?$allocator@U?$pair@$$CBV?$basic_string@DU?$char_traits@D@std@@V?$allocator@D@2@@std@@V12@@std@@@2@@2@@std@@@2@$0A@@std@@@std@@QAE?AViterator@12@V312@@Z 10037902 f   General.obj
 0001:00036902       __ehhandler$?_Incsize@?$list@Usv_pair@@V?$allocator@Usv_pair@@@std@@@std@@IAEXI@Z 10037902 f   General.obj
 0001:00036902       __ehhandler$?_Insert@?$_Tree@V?$_Tmap_traits@V?$basic_string@DU?$char_traits@D@std@@V?$allocator@D@2@@std@@V?$map@V?$basic_string@DU?$char_traits@D@std@@V?$allocator@D@2@@std@@V12@U?$less@V?$basic_string@DU?$char_traits@D@std@@V?$allocator@D@2@@std@@@2@V?$allocator@U?$pair@$$CBV?$basic_string@DU?$char_traits@D@std@@V?$allocator@D@2@@std@@V12@@std@@@2@@2@U?$less@V?$basic_string@DU?$char_traits@D@std@@V?$allocator@D@2@@std@@@2@V?$allocator@U?$pair@$$CBV?$basic_string@DU?$char_traits@D@std@@V?$allocator@D@2@@std@@V?$map@V?$basic_string@DU?$char_traits@D@std@@V?$allocator@D@2@@std@@V12@U?$less@V?$basic_string@DU?$char_traits@D@std@@V?$allocator@D@2@@std@@@2@V?$allocator@U?$pair@$$CBV?$basic_string@DU?$char_traits@D@std@@V?$allocator@D@2@@std@@V12@@std@@@2@@2@@std@@@2@$0A@@std@@@std@@IAE?AViterator@12@_NPAU_Node@?$_Tree_nod@V?$_Tmap_traits@V?$basic_string@DU?$char_traits@D@std@@V?$allocator@D@2@@std@@V?$map@V?$basic_string@DU?$char_traits@D@std@@V?$allocator@D@2@@std@@V12@U?$less@V?$basic_string@DU?$char_traits@D@std@@V?$allocator@D@2@@std@@@2@V?$allocator@U?$pair@$$CBV?$basic_string@DU?$char_traits@D@std@@V?$allocator@D@2@@std@@V12@@std@@@2@@2@U?$less@V?$basic_string@DU?$char_traits@D@std@@V?$allocator@D@2@@std@@@2@V?$allocator@U?$pair@$$CBV?$basic_string@DU?$char_traits@D@std@@V?$allocator@D@2@@std@@V?$map@V?$basic_string@DU?$char_traits@D@std@@V?$allocator@D@2@@std@@V12@U?$less@V?$basic_string@DU?$char_traits@D@std@@V?$allocator@D@2@@std@@@2@V?$allocator@U?$pair@$$CBV?$basic_string@DU?$char_traits@D@std@@V?$allocator@D@2@@std@@V12@@std@@@2@@2@@std@@@2@$0A@@std@@@2@ABU?$pair@$$CBV?$basic_string@DU?$char_traits@D@std@@V?$allocator@D@2@@std@@V?$map@V?$basic_string@DU?$char_traits@D@std@@V?$allocator@D@2@@std@@V12@U?$less@V?$basic_string@DU?$char_traits@D@std@@V?$allocator@D@2@@std@@@2@V?$allocator@U?$pair@$$CBV?$basic_string@DU?$char_traits@D@std@@V?$allocator@D@2@@std@@V12@@std@@@2@@2@@2@@Z 10037902 f   General.obj
 0001:00036902       __ehhandler$?_Xlen@?$vector@PAV?$hashnode@Vword@svutil@@V12@@svutil@@V?$allocator@PAV?$hashnode@Vword@svutil@@V12@@svutil@@@std@@@std@@IBEXXZ 10037902 f   General.obj
 0001:00036910       $L68719                    10037910 f   General.obj
 0001:00036910       $L68363                    10037910 f   General.obj
 0001:00036919       $L68720                    10037919 f   General.obj
 0001:00036919       $L68364                    10037919 f   General.obj
 0001:00036921       $L68365                    10037921 f   General.obj
 0001:00036921       $L68721                    10037921 f   General.obj
 0001:0003692a       __ehhandler$?SetSvdbAddrByFile@@YA_NV?$basic_string@DU?$char_traits@D@std@@V?$allocator@D@2@@std@@@Z 1003792a f   General.obj
 0001:0003692a       __ehhandler$?SetCgiVersionByFile@@YA_NV?$basic_string@DU?$char_traits@D@std@@V?$allocator@D@2@@std@@@Z 1003792a f   General.obj
 0001:00036940       $L48253                    10037940 f   Group.obj
 0001:00036948       $L48254                    10037948 f   Group.obj
 0001:00036950       __ehhandler$?CreateObjectByRawData@Group@@UAEHPBDI@Z 10037950 f   Group.obj
 0001:00036960       $L48303                    10037960 f   Group.obj
 0001:0003696b       $L48304                    1003796b f   Group.obj
 0001:00036976       $L48305                    10037976 f   Group.obj
 0001:00036981       __ehhandler$??0Group@@QAE@XZ 10037981 f   Group.obj
 0001:00036990       $L48493                    10037990 f   Group.obj
 0001:0003699b       __ehhandler$??1Group@@QAE@XZ 1003799b f   Group.obj
 0001:000369b0       $L51269                    100379b0 f   GroupAPI.obj
 0001:000369b9       $L51270                    100379b9 f   GroupAPI.obj
 0001:000369c2       $L51271                    100379c2 f   GroupAPI.obj
 0001:000369cb       $L51272                    100379cb f   GroupAPI.obj
 0001:000369d4       $L51276                    100379d4 f   GroupAPI.obj
 0001:000369df       $L51273                    100379df f   GroupAPI.obj
 0001:000369ff       __ehhandler$?CreatIdcUser@@YA?AV?$basic_string@DU?$char_traits@D@std@@V?$allocator@D@2@@std@@V12@00@Z 100379ff f   GroupAPI.obj
 0001:00036a10       $L51344                    10037a10 f   GroupAPI.obj
 0001:00036a19       $L51345                    10037a19 f   GroupAPI.obj
 0001:00036a22       $L51346                    10037a22 f   GroupAPI.obj
 0001:00036a2b       $L51347                    10037a2b f   GroupAPI.obj
 0001:00036a36       $L51348                    10037a36 f   GroupAPI.obj
 0001:00036a41       __ehhandler$?CopyIniFile@@YA_NV?$basic_string@DU?$char_traits@D@std@@V?$allocator@D@2@@std@@00@Z 10037a41 f   GroupAPI.obj
 0001:00036a50       $L51423                    10037a50 f   GroupAPI.obj
 0001:00036a59       __ehhandler$?Cache_GetGroup@@YAPAXV?$basic_string@DU?$char_traits@D@std@@V?$allocator@D@2@@std@@@Z 10037a59 f   GroupAPI.obj
 0001:00036a70       $L51452                    10037a70 f   GroupAPI.obj
 0001:00036a79       $L51453                    10037a79 f   GroupAPI.obj
 0001:00036a82       $L51454                    10037a82 f   GroupAPI.obj
 0001:00036a8b       $L51455                    10037a8b f   GroupAPI.obj
 0001:00036a96       $L51457                    10037a96 f   GroupAPI.obj
 0001:00036aa4       __ehhandler$?GetGroupWithVer@@YAPAXV?$basic_string@DU?$char_traits@D@std@@V?$allocator@D@2@@std@@00AAI@Z 10037aa4 f   GroupAPI.obj
 0001:00036ab0       $L51521                    10037ab0 f   GroupAPI.obj
 0001:00036ab9       $L51522                    10037ab9 f   GroupAPI.obj
 0001:00036ac2       $L51523                    10037ac2 f   GroupAPI.obj
 0001:00036acb       $L51524                    10037acb f   GroupAPI.obj
 0001:00036ad4       $L51525                    10037ad4 f   GroupAPI.obj
 0001:00036add       __ehhandler$?GetGroup@@YAPAXV?$basic_string@DU?$char_traits@D@std@@V?$allocator@D@2@@std@@00@Z 10037add f   GroupAPI.obj
 0001:00036af0       $L51560                    10037af0 f   GroupAPI.obj
 0001:00036afb       __ehhandler$?CreateGroup@@YAPAXXZ 10037afb f   GroupAPI.obj
 0001:00036b10       $L51596                    10037b10 f   GroupAPI.obj
 0001:00036b19       $L51597                    10037b19 f   GroupAPI.obj
 0001:00036b22       $L51598                    10037b22 f   GroupAPI.obj
 0001:00036b2b       $L51599                    10037b2b f   GroupAPI.obj
 0001:00036b36       __ehhandler$?DeleteGroup@@YA_NV?$basic_string@DU?$char_traits@D@std@@V?$allocator@D@2@@std@@00@Z 10037b36 f   GroupAPI.obj
 0001:00036b40       $L51660                    10037b40 f   GroupAPI.obj
 0001:00036b49       $L51661                    10037b49 f   GroupAPI.obj
 0001:00036b52       $L51662                    10037b52 f   GroupAPI.obj
 0001:00036b5b       $L51663                    10037b5b f   GroupAPI.obj
 0001:00036b7b       $L51666                    10037b7b f   GroupAPI.obj
 0001:00036b86       $L51667                    10037b86 f   GroupAPI.obj
 0001:00036b91       __ehhandler$?AddNewGroup@@YA?AV?$basic_string@DU?$char_traits@D@std@@V?$allocator@D@2@@std@@PAXV12@11@Z 10037b91 f   GroupAPI.obj
 0001:00036ba0       $L51748                    10037ba0 f   GroupAPI.obj
 0001:00036ba9       $L51749                    10037ba9 f   GroupAPI.obj
 0001:00036bb2       $L51750                    10037bb2 f   GroupAPI.obj
 0001:00036bbd       $L51752                    10037bbd f   GroupAPI.obj
 0001:00036bc8       __ehhandler$?SubmitGroup@@YA_NPAXV?$basic_string@DU?$char_traits@D@std@@V?$allocator@D@2@@std@@1@Z 10037bc8 f   GroupAPI.obj
 0001:00036be0       $L52336                    10037be0 f   GroupAPI.obj
 0001:00036be9       $L52337                    10037be9 f   GroupAPI.obj
 0001:00036bf2       $L52338                    10037bf2 f   GroupAPI.obj
 0001:00036bfb       $L52339                    10037bfb f   GroupAPI.obj
 0001:00036c06       $L52341                    10037c06 f   GroupAPI.obj
 0001:00036c14       __ehhandler$?GetAllGroupsInfo@@YA_NAAV?$list@Usv_pair@@V?$allocator@Usv_pair@@@std@@@std@@V?$basic_string@DU?$char_traits@D@std@@V?$allocator@D@2@@2@11@Z 10037c14 f   GroupAPI.obj
 0001:00036c20       __ehhandler$?CloseGroup@@YA_NAAPAX@Z 10037c20 f   GroupAPI.obj
 0001:00036c30       $L54201                    10037c30 f   GroupAPI.obj
 0001:00036c39       $L54221                    10037c39 f   GroupAPI.obj
 0001:00036c42       __ehhandler$?_Incsize@?$list@PADV?$allocator@PAD@std@@@std@@IAEXI@Z 10037c42 f   GroupAPI.obj
 0001:00036c50       __ehhandler$??$_Insert@Vconst_iterator@?$list@Vword@svutil@@V?$allocator@Vword@svutil@@@std@@@std@@@?$list@Vword@svutil@@V?$allocator@Vword@svutil@@@std@@@std@@QAEXViterator@01@Vconst_iterator@01@1Uforward_iterator_tag@1@@Z 10037c50 f   GroupAPI.obj
 0001:00036c60       __ehhandler$??0?$list@Vword@svutil@@V?$allocator@Vword@svutil@@@std@@@std@@QAE@ABV01@@Z 10037c60 f   GroupAPI.obj
 0001:00036c70       $L54919                    10037c70 f   GroupAPI.obj
 0001:00036c78       $L54920                    10037c78 f   GroupAPI.obj
 0001:00036c81       __ehhandler$?GetSubGroupsIDByGroup@@YA_NPAXAAV?$list@V?$basic_string@DU?$char_traits@D@std@@V?$allocator@D@2@@std@@V?$allocator@V?$basic_string@DU?$char_traits@D@std@@V?$allocator@D@2@@std@@@2@@std@@@Z 10037c81 f   GroupAPI.obj
 0001:00036c90       $L55296                    10037c90 f   GroupAPI.obj
 0001:00036c98       __ehhandler$?GetSubGroupsIDByGroupEx@@YA_NPAXAAV?$list@PADV?$allocator@PAD@std@@@std@@@Z 10037c98 f   GroupAPI.obj
 0001:00036cb0       $L55672                    10037cb0 f   GroupAPI.obj
 0001:00036cb8       $L55673                    10037cb8 f   GroupAPI.obj
 0001:00036cc1       __ehhandler$?GetSubEntitysIDByGroup@@YA_NPAXAAV?$list@V?$basic_string@DU?$char_traits@D@std@@V?$allocator@D@2@@std@@V?$allocator@V?$basic_string@DU?$char_traits@D@std@@V?$allocator@D@2@@std@@@2@@std@@@Z 10037cc1 f   GroupAPI.obj
 0001:00036cd0       $L43071                    10037cd0 f   Monitor.obj
 0001:00036cdb       $L43072                    10037cdb f   Monitor.obj
 0001:00036ce6       $L43073                    10037ce6 f   Monitor.obj
 0001:00036cf1       $L43074                    10037cf1 f   Monitor.obj
 0001:00036cfc       $L43075                    10037cfc f   Monitor.obj
 0001:00036d12       __ehhandler$??0Monitor@@QAE@XZ 10037d12 f   Monitor.obj
 0001:00036d20       $L43096                    10037d20 f   Monitor.obj
 0001:00036d2b       $L43097                    10037d2b f   Monitor.obj
 0001:00036d36       $L43098                    10037d36 f   Monitor.obj
 0001:00036d41       $L43099                    10037d41 f   Monitor.obj
 0001:00036d4c       __ehhandler$??1Monitor@@QAE@XZ 10037d4c f   Monitor.obj
 0001:00036d60       __ehhandler$?CreateObjectByRawData@Monitor@@UAEHPBDI@Z 10037d60 f   Monitor.obj
 0001:00036d70       $L49180                    10037d70 f   MonitorAPI.obj
 0001:00036d70       $L49197                    10037d70 f   MonitorAPI.obj
 0001:00036d79       __ehhandler$?CacheRefresh_GetMonitor@@YAPAXV?$basic_string@DU?$char_traits@D@std@@V?$allocator@D@2@@std@@@Z 10037d79 f   MonitorAPI.obj
 0001:00036d79       __ehhandler$?Cache_GetMonitor@@YAPAXV?$basic_string@DU?$char_traits@D@std@@V?$allocator@D@2@@std@@@Z 10037d79 f   MonitorAPI.obj
 0001:00036d90       $L49226                    10037d90 f   MonitorAPI.obj
 0001:00036d99       $L49227                    10037d99 f   MonitorAPI.obj
 0001:00036da2       $L49228                    10037da2 f   MonitorAPI.obj
 0001:00036dab       $L49229                    10037dab f   MonitorAPI.obj
 0001:00036db6       $L49231                    10037db6 f   MonitorAPI.obj
 0001:00036dc4       __ehhandler$?GetMonitorWithVer@@YAPAXV?$basic_string@DU?$char_traits@D@std@@V?$allocator@D@2@@std@@00AAI@Z 10037dc4 f   MonitorAPI.obj
 0001:00036dd0       $L49297                    10037dd0 f   MonitorAPI.obj
 0001:00036dd9       $L49298                    10037dd9 f   MonitorAPI.obj
 0001:00036de2       $L49299                    10037de2 f   MonitorAPI.obj
 0001:00036deb       $L49300                    10037deb f   MonitorAPI.obj
 0001:00036df4       $L49301                    10037df4 f   MonitorAPI.obj
 0001:00036dfd       __ehhandler$?GetMonitor@@YAPAXV?$basic_string@DU?$char_traits@D@std@@V?$allocator@D@2@@std@@00@Z 10037dfd f   MonitorAPI.obj
 0001:00036e10       $L49354                    10037e10 f   MonitorAPI.obj
 0001:00036e19       $L49355                    10037e19 f   MonitorAPI.obj
 0001:00036e22       $L49356                    10037e22 f   MonitorAPI.obj
 0001:00036e2b       $L49357                    10037e2b f   MonitorAPI.obj
 0001:00036e34       $L49358                    10037e34 f   MonitorAPI.obj
 0001:00036e3f       $L49360                    10037e3f f   MonitorAPI.obj
 0001:00036e4d       __ehhandler$?GetMonitorsInfoBySE@@YA_NV?$basic_string@DU?$char_traits@D@std@@V?$allocator@D@2@@std@@AAV?$list@Usv_pair@@V?$allocator@Usv_pair@@@std@@@2@000@Z 10037e4d f   MonitorAPI.obj
 0001:00036e60       $L49446                    10037e60 f   MonitorAPI.obj
 0001:00036e6b       __ehhandler$?CreateMonitor@@YAPAXXZ 10037e6b f   MonitorAPI.obj
 0001:00036e80       $L49547                    10037e80 f   MonitorAPI.obj
 0001:00036e89       $L49548                    10037e89 f   MonitorAPI.obj
 0001:00036e92       $L49549                    10037e92 f   MonitorAPI.obj
 0001:00036e9b       $L49550                    10037e9b f   MonitorAPI.obj
 0001:00036ea6       __ehhandler$?DeleteSVMonitor@@YA_NV?$basic_string@DU?$char_traits@D@std@@V?$allocator@D@2@@std@@00@Z 10037ea6 f   MonitorAPI.obj
 0001:00036eb0       $L49619                    10037eb0 f   MonitorAPI.obj
 0001:00036eb9       $L49620                    10037eb9 f   MonitorAPI.obj
 0001:00036ec2       $L49621                    10037ec2 f   MonitorAPI.obj
 0001:00036ecd       $L49623                    10037ecd f   MonitorAPI.obj
 0001:00036ed8       __ehhandler$?SubmitMonitor@@YA_NPAXV?$basic_string@DU?$char_traits@D@std@@V?$allocator@D@2@@std@@1@Z 10037ed8 f   MonitorAPI.obj
 0001:00036ef0       $L49684                    10037ef0 f   MonitorAPI.obj
 0001:00036ef9       $L49685                    10037ef9 f   MonitorAPI.obj
 0001:00036f02       $L49686                    10037f02 f   MonitorAPI.obj
 0001:00036f0b       $L49687                    10037f0b f   MonitorAPI.obj
 0001:00036f2b       $L49690                    10037f2b f   MonitorAPI.obj
 0001:00036f36       $L49691                    10037f36 f   MonitorAPI.obj
 0001:00036f41       __ehhandler$?AddNewMonitor@@YA?AV?$basic_string@DU?$char_traits@D@std@@V?$allocator@D@2@@std@@PAXV12@11@Z 10037f41 f   MonitorAPI.obj
 0001:00036f50       $L50152                    10037f50 f   MonitorAPI.obj
 0001:00036f59       $L50153                    10037f59 f   MonitorAPI.obj
 0001:00036f62       $L50154                    10037f62 f   MonitorAPI.obj
 0001:00036f6b       $L50155                    10037f6b f   MonitorAPI.obj
 0001:00036f76       $L50157                    10037f76 f   MonitorAPI.obj
 0001:00036f84       __ehhandler$?GetAllMonitorsInfo@@YA_NAAV?$list@Usv_pair@@V?$allocator@Usv_pair@@@std@@@std@@V?$basic_string@DU?$char_traits@D@std@@V?$allocator@D@2@@2@11@Z 10037f84 f   MonitorAPI.obj
 0001:00036f90       __ehhandler$?CloseMonitor@@YAXAAPAX@Z 10037f90 f   MonitorAPI.obj
 0001:00036fa0       $L50250                    10037fa0 f   MonitorAPI.obj
 0001:00036fa9       $L50251                    10037fa9 f   MonitorAPI.obj
 0001:00036fb2       $L50252                    10037fb2 f   MonitorAPI.obj
 0001:00036fbb       $L50253                    10037fbb f   MonitorAPI.obj
 0001:00036fc4       $L50257                    10037fc4 f   MonitorAPI.obj
 0001:00036fcd       $L50258                    10037fcd f   MonitorAPI.obj
 0001:00036fd6       $L50260                    10037fd6 f   MonitorAPI.obj
 0001:00036fdf       $L50261                    10037fdf f   MonitorAPI.obj
 0001:00036fe8       $L50263                    10037fe8 f   MonitorAPI.obj
 0001:00036ff1       $L50264                    10037ff1 f   MonitorAPI.obj
 0001:00036ffa       $L50266                    10037ffa f   MonitorAPI.obj
 0001:00037003       $L50267                    10038003 f   MonitorAPI.obj
 0001:0003700c       $L50254                    1003800c f   MonitorAPI.obj
 0001:00037026       __ehhandler$?MonitorCopyGeneral@@YA?AV?$basic_string@DU?$char_traits@D@std@@V?$allocator@D@2@@std@@_NV12@111@Z 10038026 f   MonitorAPI.obj
 0001:00037030       $L50314                    10038030 f   MonitorAPI.obj
 0001:00037030       $L50338                    10038030 f   MonitorAPI.obj
 0001:00037039       $L50315                    10038039 f   MonitorAPI.obj
 0001:00037039       $L50339                    10038039 f   MonitorAPI.obj
 0001:00037042       $L50340                    10038042 f   MonitorAPI.obj
 0001:00037042       $L50316                    10038042 f   MonitorAPI.obj
 0001:0003704b       $L50317                    1003804b f   MonitorAPI.obj
 0001:0003704b       $L50341                    1003804b f   MonitorAPI.obj
 0001:00037054       $L50342                    10038054 f   MonitorAPI.obj
 0001:00037054       $L50318                    10038054 f   MonitorAPI.obj
 0001:0003705d       $L50319                    1003805d f   MonitorAPI.obj
 0001:0003705d       $L50343                    1003805d f   MonitorAPI.obj
 0001:00037066       $L50320                    10038066 f   MonitorAPI.obj
 0001:00037066       $L50344                    10038066 f   MonitorAPI.obj
 0001:0003706f       $L50346                    1003806f f   MonitorAPI.obj
 0001:0003706f       $L50322                    1003806f f   MonitorAPI.obj
 0001:00037089       __ehhandler$?MonitorCopy@@YA?AV?$basic_string@DU?$char_traits@D@std@@V?$allocator@D@2@@std@@V12@000@Z 10038089 f   MonitorAPI.obj
 0001:00037089       __ehhandler$?MonitorCopyAndCreateTable@@YA?AV?$basic_string@DU?$char_traits@D@std@@V?$allocator@D@2@@std@@V12@000@Z 10038089 f   MonitorAPI.obj
 0001:000370a0       $L52783                    100380a0 f   MonitorTemplet.obj
 0001:000370ab       $L52784                    100380ab f   MonitorTemplet.obj
 0001:000370b6       $L52785                    100380b6 f   MonitorTemplet.obj
 0001:000370c1       $L52786                    100380c1 f   MonitorTemplet.obj
 0001:000370cc       $L52787                    100380cc f   MonitorTemplet.obj
 0001:000370d7       __ehhandler$??0MonitorTemplet@@QAE@XZ 100380d7 f   MonitorTemplet.obj
 0001:000370f0       $L53082                    100380f0 f   MonitorTemplet.obj
 0001:000370fb       $L53083                    100380fb f   MonitorTemplet.obj
 0001:00037106       $L53084                    10038106 f   MonitorTemplet.obj
 0001:00037111       $L53085                    10038111 f   MonitorTemplet.obj
 0001:0003711c       __ehhandler$??1MonitorTemplet@@QAE@XZ 1003811c f   MonitorTemplet.obj
 0001:00037130       $L53718                    10038130 f   MonitorTemplet.obj
 0001:0003713b       $L53719                    1003813b f   MonitorTemplet.obj
 0001:00037146       $L53720                    10038146 f   MonitorTemplet.obj
 0001:00037151       $L53721                    10038151 f   MonitorTemplet.obj
 0001:0003715c       __ehhandler$?CreateObjectByRawData@MonitorTemplet@@UAEHPBDI@Z 1003815c f   MonitorTemplet.obj
 0001:00037170       $L54646                    10038170 f   MonitorTempletAPI.obj
 0001:00037179       $L54647                    10038179 f   MonitorTempletAPI.obj
 0001:00037182       $L54648                    10038182 f   MonitorTempletAPI.obj
 0001:0003718d       $L54650                    1003818d f   MonitorTempletAPI.obj
 0001:0003719b       __ehhandler$?GetMonitorTemplet@@YAPAXHV?$basic_string@DU?$char_traits@D@std@@V?$allocator@D@2@@std@@0@Z 1003819b f   MonitorTempletAPI.obj
 0001:000371b0       $L54721                    100381b0 f   MonitorTempletAPI.obj
 0001:000371bb       __ehhandler$?GetMTErrorAlertCondition@@YAPAXPAX@Z 100381bb f   MonitorTempletAPI.obj
 0001:000371d0       $L54744                    100381d0 f   MonitorTempletAPI.obj
 0001:000371db       __ehhandler$?GetMTWarningAlertCondition@@YAPAXPAX@Z 100381db f   MonitorTempletAPI.obj
 0001:000371f0       $L54767                    100381f0 f   MonitorTempletAPI.obj
 0001:000371fb       __ehhandler$?GetMTGoodAlertCondition@@YAPAXPAX@Z 100381fb f   MonitorTempletAPI.obj
 0001:00037210       $L54790                    10038210 f   MonitorTempletAPI.obj
 0001:0003721b       __ehhandler$?CreateMonitorTemplet@@YAPAXH@Z 1003821b f   MonitorTempletAPI.obj
 0001:00037230       $L54821                    10038230 f   MonitorTempletAPI.obj
 0001:00037239       $L54822                    10038239 f   MonitorTempletAPI.obj
 0001:00037242       $L54823                    10038242 f   MonitorTempletAPI.obj
 0001:0003724d       __ehhandler$?DeleteMonitorTemplet@@YA_NHV?$basic_string@DU?$char_traits@D@std@@V?$allocator@D@2@@std@@0@Z 1003824d f   MonitorTempletAPI.obj
 0001:00037260       $L54869                    10038260 f   MonitorTempletAPI.obj
 0001:00037269       $L54870                    10038269 f   MonitorTempletAPI.obj
 0001:00037272       $L54871                    10038272 f   MonitorTempletAPI.obj
 0001:0003727d       $L54872                    1003827d f   MonitorTempletAPI.obj
 0001:00037288       __ehhandler$?SubmitMonitorTemplet@@YA_NPAXV?$basic_string@DU?$char_traits@D@std@@V?$allocator@D@2@@std@@1@Z 10038288 f   MonitorTempletAPI.obj
 0001:000372a0       $L54926                    100382a0 f   MonitorTempletAPI.obj
 0001:000372a8       $L54927                    100382a8 f   MonitorTempletAPI.obj
 0001:000372b3       __ehhandler$?CloneMonitorTemplet@@YAPAXPAXH@Z 100382b3 f   MonitorTempletAPI.obj
 0001:000372c0       $L55354                    100382c0 f   MonitorTempletAPI.obj
 0001:000372c9       $L55355                    100382c9 f   MonitorTempletAPI.obj
 0001:000372d2       $L55356                    100382d2 f   MonitorTempletAPI.obj
 0001:000372db       $L55357                    100382db f   MonitorTempletAPI.obj
 0001:000372e6       $L55359                    100382e6 f   MonitorTempletAPI.obj
 0001:000372f4       __ehhandler$?GetAllMonitorTempletInfo@@YA_NAAV?$list@Usv_pair@@V?$allocator@Usv_pair@@@std@@@std@@V?$basic_string@DU?$char_traits@D@std@@V?$allocator@D@2@@2@11@Z 100382f4 f   MonitorTempletAPI.obj
 0001:00037300       __ehhandler$?CloseMonitorTemplet@@YAXAAPAX@Z 10038300 f   MonitorTempletAPI.obj
 0001:00037310       __ehhandler$?FindMTParameterFirst@@YA_NPAXAAUsv_list@@@Z 10038310 f   MonitorTempletAPI.obj
 0001:00037320       __ehhandler$?FindMTAdvanceParameterFirst@@YA_NPAXAAUsv_list@@@Z 10038320 f   MonitorTempletAPI.obj
 0001:00037330       __ehhandler$?FindMTReturnFirst@@YA_NPAXAAUsv_list@@@Z 10038330 f   MonitorTempletAPI.obj
 0001:00037340       $L47188                    10038340 f   MQapi.obj
 0001:00037349       $L47189                    10038349 f   MQapi.obj
 0001:00037352       $L47190                    10038352 f   MQapi.obj
 0001:0003735b       $L47191                    1003835b f   MQapi.obj
 0001:00037366       __ehhandler$?CreateQueue@@YA_NV?$basic_string@DU?$char_traits@D@std@@V?$allocator@D@2@@std@@H00@Z 10038366 f   MQapi.obj
 0001:00037370       $L47259                    10038370 f   MQapi.obj
 0001:00037379       $L47260                    10038379 f   MQapi.obj
 0001:00037382       $L47261                    10038382 f   MQapi.obj
 0001:0003738b       $L47262                    1003838b f   MQapi.obj
 0001:00037394       $L47263                    10038394 f   MQapi.obj
 0001:0003739f       $L47265                    1003839f f   MQapi.obj
 0001:000373aa       $L47266                    100383aa f   MQapi.obj
 0001:000373b5       $L47267                    100383b5 f   MQapi.obj
 0001:000373c0       __ehhandler$?PushMessage@@YA_NV?$basic_string@DU?$char_traits@D@std@@V?$allocator@D@2@@std@@0PBDI00@Z 100383c0 f   MQapi.obj
 0001:000373d0       $L47352                    100383d0 f   MQapi.obj
 0001:000373d9       $L47353                    100383d9 f   MQapi.obj
 0001:000373e2       $L47354                    100383e2 f   MQapi.obj
 0001:000373eb       $L47355                    100383eb f   MQapi.obj
 0001:000373f4       $L47356                    100383f4 f   MQapi.obj
 0001:000373fd       $L47357                    100383fd f   MQapi.obj
 0001:00037405       $L47358                    10038405 f   MQapi.obj
 0001:0003740e       $L47359                    1003840e f   MQapi.obj
 0001:00037417       $L47360                    10038417 f   MQapi.obj
 0001:00037420       __ehhandler$?PushStringMessage@@YA_NV?$basic_string@DU?$char_traits@D@std@@V?$allocator@D@2@@std@@0000@Z 10038420 f   MQapi.obj
 0001:00037430       $L47418                    10038430 f   MQapi.obj
 0001:00037439       $L47419                    10038439 f   MQapi.obj
 0001:00037442       $L47420                    10038442 f   MQapi.obj
 0001:0003744b       $L47421                    1003844b f   MQapi.obj
 0001:00037456       $L47423                    10038456 f   MQapi.obj
 0001:00037464       __ehhandler$?PopMessage@@YAPAXV?$basic_string@DU?$char_traits@D@std@@V?$allocator@D@2@@std@@I00@Z 10038464 f   MQapi.obj
 0001:00037470       $L47496                    10038470 f   MQapi.obj
 0001:00037479       $L47497                    10038479 f   MQapi.obj
 0001:00037482       $L47498                    10038482 f   MQapi.obj
 0001:0003748b       $L47499                    1003848b f   MQapi.obj
 0001:00037496       $L47501                    10038496 f   MQapi.obj
 0001:000374a4       __ehhandler$?BlockPopMessage@@YAPAXV?$basic_string@DU?$char_traits@D@std@@V?$allocator@D@2@@std@@00@Z 100384a4 f   MQapi.obj
 0001:000374b0       $L47574                    100384b0 f   MQapi.obj
 0001:000374b9       $L47575                    100384b9 f   MQapi.obj
 0001:000374c2       $L47576                    100384c2 f   MQapi.obj
 0001:000374cb       $L47577                    100384cb f   MQapi.obj
 0001:000374d6       $L47579                    100384d6 f   MQapi.obj
 0001:000374e4       __ehhandler$?PeekMQMessage@@YAPAXV?$basic_string@DU?$char_traits@D@std@@V?$allocator@D@2@@std@@I00@Z 100384e4 f   MQapi.obj
 0001:000374f0       $L47652                    100384f0 f   MQapi.obj
 0001:000374f9       $L47653                    100384f9 f   MQapi.obj
 0001:00037502       $L47654                    10038502 f   MQapi.obj
 0001:0003750b       $L47655                    1003850b f   MQapi.obj
 0001:00037516       $L47657                    10038516 f   MQapi.obj
 0001:00037524       __ehhandler$?BlockPeekMQMessage@@YAPAXV?$basic_string@DU?$char_traits@D@std@@V?$allocator@D@2@@std@@00@Z 10038524 f   MQapi.obj
 0001:00037530       $L47728                    10038530 f   MQapi.obj
 0001:00037539       $L47729                    10038539 f   MQapi.obj
 0001:00037542       $L47730                    10038542 f   MQapi.obj
 0001:0003754b       $L47731                    1003854b f   MQapi.obj
 0001:00037556       __ehhandler$?GetMQRecordCount@@YA_NV?$basic_string@DU?$char_traits@D@std@@V?$allocator@D@2@@std@@AAI00@Z 10038556 f   MQapi.obj
 0001:00037560       $L47792                    10038560 f   MQapi.obj
 0001:00037560       $L47855                    10038560 f   MQapi.obj
 0001:00037569       $L47856                    10038569 f   MQapi.obj
 0001:00037569       $L47793                    10038569 f   MQapi.obj
 0001:00037572       $L47857                    10038572 f   MQapi.obj
 0001:00037572       $L47794                    10038572 f   MQapi.obj
 0001:0003757b       $L47858                    1003857b f   MQapi.obj
 0001:0003757b       $L47795                    1003857b f   MQapi.obj
 0001:00037586       __ehhandler$?DeleteQueue@@YA_NV?$basic_string@DU?$char_traits@D@std@@V?$allocator@D@2@@std@@00@Z 10038586 f   MQapi.obj
 0001:00037586       __ehhandler$?ClearQueueMessage@@YA_NV?$basic_string@DU?$char_traits@D@std@@V?$allocator@D@2@@std@@00@Z 10038586 f   MQapi.obj
 0001:00037590       $L48314                    10038590 f   MQapi.obj
 0001:00037590       $L48520                    10038590 f   MQapi.obj
 0001:00037599       $L48521                    10038599 f   MQapi.obj
 0001:00037599       $L48315                    10038599 f   MQapi.obj
 0001:000375a2       $L48316                    100385a2 f   MQapi.obj
 0001:000375a2       $L48522                    100385a2 f   MQapi.obj
 0001:000375ab       $L48317                    100385ab f   MQapi.obj
 0001:000375ab       $L48523                    100385ab f   MQapi.obj
 0001:000375b6       $L48319                    100385b6 f   MQapi.obj
 0001:000375b6       $L48525                    100385b6 f   MQapi.obj
 0001:000375c1       $L48320                    100385c1 f   MQapi.obj
 0001:000375c1       $L48526                    100385c1 f   MQapi.obj
 0001:000375cd       __ehhandler$?PeekMQMessage@@YA_NV?$basic_string@DU?$char_traits@D@std@@V?$allocator@D@2@@std@@AAV12@AAVTTime@svutil@@PADAAII00@Z 100385cd f   MQapi.obj
 0001:000375cd       __ehhandler$?PopMessage@@YA_NV?$basic_string@DU?$char_traits@D@std@@V?$allocator@D@2@@std@@AAV12@AAVTTime@svutil@@PADAAII00@Z 100385cd f   MQapi.obj
 0001:000375e0       $L48417                    100385e0 f   MQapi.obj
 0001:000375e0       $L48623                    100385e0 f   MQapi.obj
 0001:000375e9       $L48418                    100385e9 f   MQapi.obj
 0001:000375e9       $L48624                    100385e9 f   MQapi.obj
 0001:000375f2       $L48419                    100385f2 f   MQapi.obj
 0001:000375f2       $L48625                    100385f2 f   MQapi.obj
 0001:000375fb       $L48420                    100385fb f   MQapi.obj
 0001:000375fb       $L48626                    100385fb f   MQapi.obj
 0001:00037606       $L48422                    10038606 f   MQapi.obj
 0001:00037606       $L48628                    10038606 f   MQapi.obj
 0001:00037611       $L48629                    10038611 f   MQapi.obj
 0001:00037611       $L48423                    10038611 f   MQapi.obj
 0001:0003761d       __ehhandler$?BlockPeekMQMessage@@YA_NV?$basic_string@DU?$char_traits@D@std@@V?$allocator@D@2@@std@@AAV12@AAVTTime@svutil@@PADAAI00@Z 1003861d f   MQapi.obj
 0001:0003761d       __ehhandler$?BlockPopMessage@@YA_NV?$basic_string@DU?$char_traits@D@std@@V?$allocator@D@2@@std@@AAV12@AAVTTime@svutil@@PADAAI00@Z 1003861d f   MQapi.obj
 0001:00037630       $L48715                    10038630 f   MQapi.obj
 0001:00037639       __ehhandler$?GetMessageData@@YA_NPAXAAV?$basic_string@DU?$char_traits@D@std@@V?$allocator@D@2@@std@@AAVTTime@svutil@@PADAAI@Z 10038639 f   MQapi.obj
 0001:00037650       __ehhandler$?CloseMQRecord@@YA_NAAPAX@Z 10038650 f   MQapi.obj
 0001:00037660       $L50134                    10038660 f   MQapi.obj
 0001:00037669       $L50135                    10038669 f   MQapi.obj
 0001:00037672       $L50136                    10038672 f   MQapi.obj
 0001:0003767d       __ehhandler$?GetAllQueueNames@@YA_NAAV?$list@V?$basic_string@DU?$char_traits@D@std@@V?$allocator@D@2@@std@@V?$allocator@V?$basic_string@DU?$char_traits@D@std@@V?$allocator@D@2@@std@@@2@@std@@V?$basic_string@DU?$char_traits@D@std@@V?$allocator@D@2@@2@1@Z 1003867d f   MQapi.obj
 0001:00037690       $L50187                    10038690 f   MQapi.obj
 0001:00037699       $L50188                    10038699 f   MQapi.obj
 0001:000376a2       $L50189                    100386a2 f   MQapi.obj
 0001:000376ab       $L50190                    100386ab f   MQapi.obj
 0001:000376b6       __ehhandler$?GetAllMessageLabels@@YA_NV?$basic_string@DU?$char_traits@D@std@@V?$allocator@D@2@@std@@AAV?$list@V?$basic_string@DU?$char_traits@D@std@@V?$allocator@D@2@@std@@V?$allocator@V?$basic_string@DU?$char_traits@D@std@@V?$allocator@D@2@@std@@@2@@2@00@Z 100386b6 f   MQapi.obj
 0001:000376c0       $L58385                    100386c0 f   ObjCache.obj
 0001:000376c9       $L58386                    100386c9 f   ObjCache.obj
 0001:000376d4       __ehhandler$?CheckLatest@ObjectCache@@CA_NAAVVerOBJECT@@HV?$basic_string@DU?$char_traits@D@std@@V?$allocator@D@2@@std@@@Z 100386d4 f   ObjCache.obj
 0001:000376e0       $L87871                    100386e0 f   ObjCache.obj
 0001:000376e0       $L58485                    100386e0 f   ObjCache.obj
 0001:000376e0       $L59921                    100386e0 f   ObjCache.obj
 0001:000376e0       $L59938                    100386e0 f   ObjCache.obj
 0001:000376e0       $L58347                    100386e0 f   ObjCache.obj
 0001:000376e0       $L87855                    100386e0 f   ObjCache.obj
 0001:000376e0       $L60404                    100386e0 f   ObjCache.obj
 0001:000376e0       $L58331                    100386e0 f   ObjCache.obj
 0001:000376e0       $L58469                    100386e0 f   ObjCache.obj
 0001:000376e0       $L60428                    100386e0 f   ObjCache.obj
 0001:000376e0       $L60439                    100386e0 f   ObjCache.obj
 0001:000376e0       $L60756                    100386e0 f   ObjCache.obj
 0001:000376e0       $L60450                    100386e0 f   ObjCache.obj
 0001:000376e0       $L60738                    100386e0 f   ObjCache.obj
 0001:000376e0       $L60461                    100386e0 f   ObjCache.obj
 0001:000376e0       $L60715                    100386e0 f   ObjCache.obj
 0001:000376e0       $L58439                    100386e0 f   ObjCache.obj
 0001:000376e9       __ehhandler$??0?$pair@V?$basic_string@DU?$char_traits@D@std@@V?$allocator@D@2@@std@@VVerOBJECT@@@std@@QAE@ABV?$basic_string@DU?$char_traits@D@std@@V?$allocator@D@2@@1@ABVVerOBJECT@@@Z 100386e9 f   ObjCache.obj
 0001:000376e9       __ehhandler$??$?0PBDV?$basic_string@DU?$char_traits@D@std@@V?$allocator@D@2@@std@@@?$pair@$$CBV?$basic_string@DU?$char_traits@D@std@@V?$allocator@D@2@@std@@V12@@std@@QAE@ABU?$pair@PBDV?$basic_string@DU?$char_traits@D@std@@V?$allocator@D@2@@std@@@1@@Z 100386e9 f   ObjCache.obj
 0001:000376e9       __ehhandler$??0?$pair@V?$basic_string@DU?$char_traits@D@std@@V?$allocator@D@2@@std@@V12@@std@@QAE@ABV?$basic_string@DU?$char_traits@D@std@@V?$allocator@D@2@@1@0@Z 100386e9 f   ObjCache.obj
 0001:000376e9       __ehhandler$??$?0PBDPAD@?$pair@$$CBV?$basic_string@DU?$char_traits@D@std@@V?$allocator@D@2@@std@@V12@@std@@QAE@ABU?$pair@PBDPAD@1@@Z 100386e9 f   ObjCache.obj
 0001:000376e9       __ehhandler$??0?$pair@V?$basic_string@DU?$char_traits@D@std@@V?$allocator@D@2@@std@@VSingelRecord@@@std@@QAE@ABV?$basic_string@DU?$char_traits@D@std@@V?$allocator@D@2@@1@ABVSingelRecord@@@Z 100386e9 f   ObjCache.obj
 0001:000376e9       __ehhandler$??$?0V?$basic_string@DU?$char_traits@D@std@@V?$allocator@D@2@@std@@V01@@?$pair@$$CBV?$basic_string@DU?$char_traits@D@std@@V?$allocator@D@2@@std@@V12@@std@@QAE@ABU?$pair@V?$basic_string@DU?$char_traits@D@std@@V?$allocator@D@2@@std@@V12@@1@@Z 100386e9 f   ObjCache.obj
 0001:000376e9       __ehhandler$??1?$pair@V?$basic_string@DU?$char_traits@D@std@@V?$allocator@D@2@@std@@VVerOBJECT@@@std@@QAE@XZ 100386e9 f   ObjCache.obj
 0001:000376e9       __ehhandler$??$?0V?$basic_string@DU?$char_traits@D@std@@V?$allocator@D@2@@std@@VVerOBJECT@@@?$pair@$$CBV?$basic_string@DU?$char_traits@D@std@@V?$allocator@D@2@@std@@VVerOBJECT@@@std@@QAE@ABU?$pair@V?$basic_string@DU?$char_traits@D@std@@V?$allocator@D@2@@std@@VVerOBJECT@@@1@@Z 100386e9 f   ObjCache.obj
 0001:000376e9       __ehhandler$??0?$pair@$$CBV?$basic_string@DU?$char_traits@D@std@@V?$allocator@D@2@@std@@V?$map@V?$basic_string@DU?$char_traits@D@std@@V?$allocator@D@2@@std@@PAXU?$less@V?$basic_string@DU?$char_traits@D@std@@V?$allocator@D@2@@std@@@2@V?$allocator@U?$pair@$$CBV?$basic_string@DU?$char_traits@D@std@@V?$allocator@D@2@@std@@PAX@std@@@2@@2@@std@@QAE@ABU01@@Z 100386e9 f   ObjCache.obj
 0001:000376e9       __ehhandler$??0?$pair@$$CBV?$basic_string@DU?$char_traits@D@std@@V?$allocator@D@2@@std@@VSingelRecord@@@std@@QAE@ABU01@@Z 100386e9 f   ObjCache.obj
 0001:000376e9       __ehhandler$??1?$pair@$$CBV?$basic_string@DU?$char_traits@D@std@@V?$allocator@D@2@@std@@VVerOBJECT@@@std@@QAE@XZ 100386e9 f   ObjCache.obj
 0001:000376e9       __ehhandler$??0?$pair@$$CBV?$basic_string@DU?$char_traits@D@std@@V?$allocator@D@2@@std@@VVerOBJECT@@@std@@QAE@ABU01@@Z 100386e9 f   ObjCache.obj
 0001:000376e9       __ehhandler$??$?0V?$basic_string@DU?$char_traits@D@std@@V?$allocator@D@2@@std@@VSingelRecord@@@?$pair@$$CBV?$basic_string@DU?$char_traits@D@std@@V?$allocator@D@2@@std@@VSingelRecord@@@std@@QAE@ABU?$pair@V?$basic_string@DU?$char_traits@D@std@@V?$allocator@D@2@@std@@VSingelRecord@@@1@@Z 100386e9 f   ObjCache.obj
 0001:000376e9       __ehhandler$??1?$pair@$$CBV?$basic_string@DU?$char_traits@D@std@@V?$allocator@D@2@@std@@VSingelRecord@@@std@@QAE@XZ 100386e9 f   ObjCache.obj
 0001:000376e9       __ehhandler$??$?0V?$basic_string@DU?$char_traits@D@std@@V?$allocator@D@2@@std@@V?$map@V?$basic_string@DU?$char_traits@D@std@@V?$allocator@D@2@@std@@PAXU?$less@V?$basic_string@DU?$char_traits@D@std@@V?$allocator@D@2@@std@@@2@V?$allocator@U?$pair@$$CBV?$basic_string@DU?$char_traits@D@std@@V?$allocator@D@2@@std@@PAX@std@@@2@@1@@?$pair@$$CBV?$basic_string@DU?$char_traits@D@std@@V?$allocator@D@2@@std@@V?$map@V?$basic_string@DU?$char_traits@D@std@@V?$allocator@D@2@@std@@PAXU?$less@V?$basic_string@DU?$char_traits@D@std@@V?$allocator@D@2@@std@@@2@V?$allocator@U?$pair@$$CBV?$basic_string@DU?$char_traits@D@std@@V?$allocator@D@2@@std@@PAX@std@@@2@@2@@std@@QAE@ABU?$pair@V?$basic_string@DU?$char_traits@D@std@@V?$allocator@D@2@@std@@V?$map@V?$basic_string@DU?$char_traits@D@std@@V?$allocator@D@2@@std@@PAXU?$less@V?$basic_string@DU?$char_traits@D@std@@V?$allocator@D@2@@std@@@2@V?$allocator@U?$pair@$$CBV?$basic_string@DU?$char_traits@D@std@@V?$allocator@D@2@@std@@PAX@std@@@2@@2@@1@@Z 100386e9 f   ObjCache.obj
 0001:000376e9       __ehhandler$??1?$pair@V?$basic_string@DU?$char_traits@D@std@@V?$allocator@D@2@@std@@VSingelRecord@@@std@@QAE@XZ 100386e9 f   ObjCache.obj
 0001:000376e9       __ehhandler$??1?$pair@V?$basic_string@DU?$char_traits@D@std@@V?$allocator@D@2@@std@@V12@@std@@QAE@XZ 100386e9 f   ObjCache.obj
 0001:00037700       $L64871                    10038700 f   ObjCache.obj
 0001:00037700       $L64788                    10038700 f   ObjCache.obj
 0001:00037708       $L64872                    10038708 f   ObjCache.obj
 0001:00037708       $L64789                    10038708 f   ObjCache.obj
 0001:00037711       $L64790                    10038711 f   ObjCache.obj
 0001:00037711       $L64873                    10038711 f   ObjCache.obj
 0001:0003772a       __ehhandler$??$make_pair@V?$basic_string@DU?$char_traits@D@std@@V?$allocator@D@2@@std@@VVerOBJECT@@@std@@YA?AU?$pair@V?$basic_string@DU?$char_traits@D@std@@V?$allocator@D@2@@std@@VVerOBJECT@@@0@V?$basic_string@DU?$char_traits@D@std@@V?$allocator@D@2@@0@VVerOBJECT@@@Z 1003872a f   ObjCache.obj
 0001:0003772a       __ehhandler$??$make_pair@V?$basic_string@DU?$char_traits@D@std@@V?$allocator@D@2@@std@@VSingelRecord@@@std@@YA?AU?$pair@V?$basic_string@DU?$char_traits@D@std@@V?$allocator@D@2@@std@@VSingelRecord@@@0@V?$basic_string@DU?$char_traits@D@std@@V?$allocator@D@2@@0@VSingelRecord@@@Z 1003872a f   ObjCache.obj
 0001:00037740       $L64812                    10038740 f   ObjCache.obj
 0001:00037749       $L64813                    10038749 f   ObjCache.obj
 0001:00037762       __ehhandler$??$make_pair@V?$basic_string@DU?$char_traits@D@std@@V?$allocator@D@2@@std@@PAX@std@@YA?AU?$pair@V?$basic_string@DU?$char_traits@D@std@@V?$allocator@D@2@@std@@PAX@0@V?$basic_string@DU?$char_traits@D@std@@V?$allocator@D@2@@0@PAX@Z 10038762 f   ObjCache.obj
 0001:00037770       $L64829                    10038770 f   ObjCache.obj
 0001:00037779       $L64830                    10038779 f   ObjCache.obj
 0001:00037782       $L64835                    10038782 f   ObjCache.obj
 0001:0003778b       $L64831                    1003878b f   ObjCache.obj
 0001:000377a4       __ehhandler$??$make_pair@V?$basic_string@DU?$char_traits@D@std@@V?$allocator@D@2@@std@@V12@@std@@YA?AU?$pair@V?$basic_string@DU?$char_traits@D@std@@V?$allocator@D@2@@std@@V12@@0@V?$basic_string@DU?$char_traits@D@std@@V?$allocator@D@2@@0@0@Z 100387a4 f   ObjCache.obj
 0001:000377b0       $L64854                    100387b0 f   ObjCache.obj
 0001:000377b9       $L64855                    100387b9 f   ObjCache.obj
 0001:000377d2       __ehhandler$??$make_pair@PBDV?$basic_string@DU?$char_traits@D@std@@V?$allocator@D@2@@std@@@std@@YA?AU?$pair@PBDV?$basic_string@DU?$char_traits@D@std@@V?$allocator@D@2@@std@@@0@PBDV?$basic_string@DU?$char_traits@D@std@@V?$allocator@D@2@@0@@Z 100387d2 f   ObjCache.obj
 0001:000377e0       $L66219                    100387e0 f   ObjCache.obj
 0001:000377f1       __ehhandler$?_Buynode@?$_Tree@V?$_Tmap_traits@V?$basic_string@DU?$char_traits@D@std@@V?$allocator@D@2@@std@@PAXU?$less@V?$basic_string@DU?$char_traits@D@std@@V?$allocator@D@2@@std@@@2@V?$allocator@U?$pair@$$CBV?$basic_string@DU?$char_traits@D@std@@V?$allocator@D@2@@std@@PAX@std@@@2@$0A@@std@@@std@@IAEPAU_Node@?$_Tree_nod@V?$_Tmap_traits@V?$basic_string@DU?$char_traits@D@std@@V?$allocator@D@2@@std@@PAXU?$less@V?$basic_string@DU?$char_traits@D@std@@V?$allocator@D@2@@std@@@2@V?$allocator@U?$pair@$$CBV?$basic_string@DU?$char_traits@D@std@@V?$allocator@D@2@@std@@PAX@std@@@2@$0A@@std@@@2@PAU342@00ABU?$pair@$$CBV?$basic_string@DU?$char_traits@D@std@@V?$allocator@D@2@@std@@PAX@2@D@Z 100387f1 f   ObjCache.obj
 0001:00037800       $L66287                    10038800 f   ObjCache.obj
 0001:00037811       __ehhandler$?_Buynode@?$_Tree@V?$_Tmap_traits@V?$basic_string@DU?$char_traits@D@std@@V?$allocator@D@2@@std@@VVerOBJECT@@U?$less@V?$basic_string@DU?$char_traits@D@std@@V?$allocator@D@2@@std@@@2@V?$allocator@U?$pair@$$CBV?$basic_string@DU?$char_traits@D@std@@V?$allocator@D@2@@std@@VVerOBJECT@@@std@@@2@$0A@@std@@@std@@IAEPAU_Node@?$_Tree_nod@V?$_Tmap_traits@V?$basic_string@DU?$char_traits@D@std@@V?$allocator@D@2@@std@@VVerOBJECT@@U?$less@V?$basic_string@DU?$char_traits@D@std@@V?$allocator@D@2@@std@@@2@V?$allocator@U?$pair@$$CBV?$basic_string@DU?$char_traits@D@std@@V?$allocator@D@2@@std@@VVerOBJECT@@@std@@@2@$0A@@std@@@2@PAU342@00ABU?$pair@$$CBV?$basic_string@DU?$char_traits@D@std@@V?$allocator@D@2@@std@@VVerOBJECT@@@2@D@Z 10038811 f   ObjCache.obj
 0001:00037820       $L66324                    10038820 f   ObjCache.obj
 0001:00037831       __ehhandler$?_Buynode@?$_Tree@V?$_Tmap_traits@V?$basic_string@DU?$char_traits@D@std@@V?$allocator@D@2@@std@@VSingelRecord@@U?$less@V?$basic_string@DU?$char_traits@D@std@@V?$allocator@D@2@@std@@@2@V?$allocator@U?$pair@$$CBV?$basic_string@DU?$char_traits@D@std@@V?$allocator@D@2@@std@@VSingelRecord@@@std@@@2@$0A@@std@@@std@@IAEPAU_Node@?$_Tree_nod@V?$_Tmap_traits@V?$basic_string@DU?$char_traits@D@std@@V?$allocator@D@2@@std@@VSingelRecord@@U?$less@V?$basic_string@DU?$char_traits@D@std@@V?$allocator@D@2@@std@@@2@V?$allocator@U?$pair@$$CBV?$basic_string@DU?$char_traits@D@std@@V?$allocator@D@2@@std@@VSingelRecord@@@std@@@2@$0A@@std@@@2@PAU342@00ABU?$pair@$$CBV?$basic_string@DU?$char_traits@D@std@@V?$allocator@D@2@@std@@VSingelRecord@@@2@D@Z 10038831 f   ObjCache.obj
 0001:00037840       $L66389                    10038840 f   ObjCache.obj
 0001:00037851       __ehhandler$?_Buynode@?$list@VSingelRecord@@V?$allocator@VSingelRecord@@@std@@@std@@IAEPAU_Node@?$_List_nod@VSingelRecord@@V?$allocator@VSingelRecord@@@std@@@2@PAU342@0ABVSingelRecord@@@Z 10038851 f   ObjCache.obj
 0001:00037860       $L72402                    10038860 f   ObjCache.obj
 0001:00037860       $L71282                    10038860 f   ObjCache.obj
 0001:00037869       $L71292                    10038869 f   ObjCache.obj
 0001:00037869       $L72412                    10038869 f   ObjCache.obj
 0001:00037872       $L72783                    10038872 f   ObjCache.obj
 0001:00037872       $L71663                    10038872 f   ObjCache.obj
 0001:0003787b       __ehhandler$?erase@?$_Tree@V?$_Tmap_traits@V?$basic_string@DU?$char_traits@D@std@@V?$allocator@D@2@@std@@VSingelRecord@@U?$less@V?$basic_string@DU?$char_traits@D@std@@V?$allocator@D@2@@std@@@2@V?$allocator@U?$pair@$$CBV?$basic_string@DU?$char_traits@D@std@@V?$allocator@D@2@@std@@VSingelRecord@@@std@@@2@$0A@@std@@@std@@QAE?AViterator@12@V312@@Z 1003887b f   ObjCache.obj
 0001:0003787b       __ehhandler$?erase@?$_Tree@V?$_Tmap_traits@V?$basic_string@DU?$char_traits@D@std@@V?$allocator@D@2@@std@@VVerOBJECT@@U?$less@V?$basic_string@DU?$char_traits@D@std@@V?$allocator@D@2@@std@@@2@V?$allocator@U?$pair@$$CBV?$basic_string@DU?$char_traits@D@std@@V?$allocator@D@2@@std@@VVerOBJECT@@@std@@@2@$0A@@std@@@std@@QAE?AViterator@12@V312@@Z 1003887b f   ObjCache.obj
 0001:00037890       __ehhandler$?_Copy@?$_Tree@V?$_Tmap_traits@V?$basic_string@DU?$char_traits@D@std@@V?$allocator@D@2@@std@@PAXU?$less@V?$basic_string@DU?$char_traits@D@std@@V?$allocator@D@2@@std@@@2@V?$allocator@U?$pair@$$CBV?$basic_string@DU?$char_traits@D@std@@V?$allocator@D@2@@std@@PAX@std@@@2@$0A@@std@@@std@@IAEPAU_Node@?$_Tree_nod@V?$_Tmap_traits@V?$basic_string@DU?$char_traits@D@std@@V?$allocator@D@2@@std@@PAXU?$less@V?$basic_string@DU?$char_traits@D@std@@V?$allocator@D@2@@std@@@2@V?$allocator@U?$pair@$$CBV?$basic_string@DU?$char_traits@D@std@@V?$allocator@D@2@@std@@PAX@std@@@2@$0A@@std@@@2@PAU342@0@Z 10038890 f   ObjCache.obj
 0001:000378a0       $L77061                    100388a0 f   ObjCache.obj
 0001:000378a0       $L76812                    100388a0 f   ObjCache.obj
 0001:000378a0       $L76466                    100388a0 f   ObjCache.obj
 0001:000378a0       $L76117                    100388a0 f   ObjCache.obj
 0001:000378a0       $L75522                    100388a0 f   ObjCache.obj
 0001:000378a0       $L75868                    100388a0 f   ObjCache.obj
 0001:000378a9       $L75523                    100388a9 f   ObjCache.obj
 0001:000378a9       $L76813                    100388a9 f   ObjCache.obj
 0001:000378a9       $L75869                    100388a9 f   ObjCache.obj
 0001:000378a9       $L76118                    100388a9 f   ObjCache.obj
 0001:000378a9       $L76467                    100388a9 f   ObjCache.obj
 0001:000378a9       $L77062                    100388a9 f   ObjCache.obj
 0001:000378b5       $L75870                    100388b5 f   ObjCache.obj
 0001:000378b5       $L75525                    100388b5 f   ObjCache.obj
 0001:000378b5       $L76120                    100388b5 f   ObjCache.obj
 0001:000378b5       $L76814                    100388b5 f   ObjCache.obj
 0001:000378b5       $L77064                    100388b5 f   ObjCache.obj
 0001:000378b5       $L76469                    100388b5 f   ObjCache.obj
 0001:000378c1       $L75871                    100388c1 f   ObjCache.obj
 0001:000378c1       $L76121                    100388c1 f   ObjCache.obj
 0001:000378c1       $L75526                    100388c1 f   ObjCache.obj
 0001:000378c1       $L76470                    100388c1 f   ObjCache.obj
 0001:000378c1       $L76815                    100388c1 f   ObjCache.obj
 0001:000378c1       $L77065                    100388c1 f   ObjCache.obj
 0001:000378cd       $L75873                    100388cd f   ObjCache.obj
 0001:000378cd       $L76123                    100388cd f   ObjCache.obj
 0001:000378cd       $L77067                    100388cd f   ObjCache.obj
 0001:000378cd       $L75528                    100388cd f   ObjCache.obj
 0001:000378cd       $L76817                    100388cd f   ObjCache.obj
 0001:000378cd       $L76472                    100388cd f   ObjCache.obj
 0001:000378d8       $L76818                    100388d8 f   ObjCache.obj
 0001:000378d8       $L76473                    100388d8 f   ObjCache.obj
 0001:000378d8       $L75529                    100388d8 f   ObjCache.obj
 0001:000378d8       $L75874                    100388d8 f   ObjCache.obj
 0001:000378d8       $L77068                    100388d8 f   ObjCache.obj
 0001:000378d8       $L76124                    100388d8 f   ObjCache.obj
 0001:000378e3       $L75876                    100388e3 f   ObjCache.obj
 0001:000378e3       $L76126                    100388e3 f   ObjCache.obj
 0001:000378e3       $L77070                    100388e3 f   ObjCache.obj
 0001:000378e3       $L75531                    100388e3 f   ObjCache.obj
 0001:000378e3       $L76820                    100388e3 f   ObjCache.obj
 0001:000378e3       $L76475                    100388e3 f   ObjCache.obj
 0001:000378ee       $L76476                    100388ee f   ObjCache.obj
 0001:000378ee       $L76127                    100388ee f   ObjCache.obj
 0001:000378ee       $L77071                    100388ee f   ObjCache.obj
 0001:000378ee       $L75877                    100388ee f   ObjCache.obj
 0001:000378ee       $L75532                    100388ee f   ObjCache.obj
 0001:000378ee       $L76821                    100388ee f   ObjCache.obj
 0001:000378f9       __ehhandler$?RefreshFastGetEntity@ObjectCache@@SAPAXV?$basic_string@DU?$char_traits@D@std@@V?$allocator@D@2@@std@@@Z 100388f9 f   ObjCache.obj
 0001:000378f9       __ehhandler$?FastGetSVSE@ObjectCache@@SAPAXV?$basic_string@DU?$char_traits@D@std@@V?$allocator@D@2@@std@@@Z 100388f9 f   ObjCache.obj
 0001:000378f9       __ehhandler$?FastGetEntity@ObjectCache@@SAPAXV?$basic_string@DU?$char_traits@D@std@@V?$allocator@D@2@@std@@@Z 100388f9 f   ObjCache.obj
 0001:000378f9       __ehhandler$?FastGetGroup@ObjectCache@@SAPAXV?$basic_string@DU?$char_traits@D@std@@V?$allocator@D@2@@std@@@Z 100388f9 f   ObjCache.obj
 0001:000378f9       __ehhandler$?RefreshFastGetMonitor@ObjectCache@@SAPAXV?$basic_string@DU?$char_traits@D@std@@V?$allocator@D@2@@std@@@Z 100388f9 f   ObjCache.obj
 0001:000378f9       __ehhandler$?FastGetMonitor@ObjectCache@@SAPAXV?$basic_string@DU?$char_traits@D@std@@V?$allocator@D@2@@std@@@Z 100388f9 f   ObjCache.obj
 0001:00037910       $L77401                    10038910 f   ObjCache.obj
 0001:00037919       $L77403                    10038919 f   ObjCache.obj
 0001:00037922       __ehhandler$?FastGetMonitorTPL@ObjectCache@@SAPAXH@Z 10038922 f   ObjCache.obj
 0001:00037930       $L77702                    10038930 f   ObjCache.obj
 0001:00037930       $L77491                    10038930 f   ObjCache.obj
 0001:00037939       $L77492                    10038939 f   ObjCache.obj
 0001:00037939       $L77703                    10038939 f   ObjCache.obj
 0001:00037942       $L77493                    10038942 f   ObjCache.obj
 0001:00037942       $L77704                    10038942 f   ObjCache.obj
 0001:0003794b       $L77706                    1003894b f   ObjCache.obj
 0001:0003794b       $L77495                    1003894b f   ObjCache.obj
 0001:00037954       $L77497                    10038954 f   ObjCache.obj
 0001:00037954       $L77708                    10038954 f   ObjCache.obj
 0001:0003795c       $L77498                    1003895c f   ObjCache.obj
 0001:0003795c       $L77709                    1003895c f   ObjCache.obj
 0001:00037964       __ehhandler$?FastGetEntityTPL@ObjectCache@@SAPAXV?$basic_string@DU?$char_traits@D@std@@V?$allocator@D@2@@std@@@Z 10038964 f   ObjCache.obj
 0001:00037964       __ehhandler$?FastGetEntityGroup@ObjectCache@@SAPAXV?$basic_string@DU?$char_traits@D@std@@V?$allocator@D@2@@std@@@Z 10038964 f   ObjCache.obj
 0001:00037970       $L77912                    10038970 f   ObjCache.obj
 0001:00037979       $L77913                    10038979 f   ObjCache.obj
 0001:00037982       $L77915                    10038982 f   ObjCache.obj
 0001:0003798b       $L77917                    1003898b f   ObjCache.obj
 0001:00037993       $L77918                    10038993 f   ObjCache.obj
 0001:0003799b       __ehhandler$?FastLoadResource@ObjectCache@@SAPAXV?$basic_string@DU?$char_traits@D@std@@V?$allocator@D@2@@std@@@Z 1003899b f   ObjCache.obj
 0001:000379b0       $L78111                    100389b0 f   ObjCache.obj
 0001:000379b0       $L79714                    100389b0 f   ObjCache.obj
 0001:000379b8       __ehhandler$??1?$hashtable@Vword@svutil@@V12@@svutil@@QAE@XZ 100389b8 f   ObjCache.obj
 0001:000379b8       __ehhandler$??0?$hashtable@Vword@svutil@@V12@@svutil@@QAE@H@Z 100389b8 f   ObjCache.obj
 0001:000379d0       $L82080                    100389d0 f   ObjCache.obj
 0001:000379d9       $L82081                    100389d9 f   ObjCache.obj
 0001:000379e1       __ehhandler$?FastGetSVDYN@ObjectCache@@SA_NV?$basic_string@DU?$char_traits@D@std@@V?$allocator@D@2@@std@@AAUsv_dyn@@@Z 100389e1 f   ObjCache.obj
 0001:000379f0       $L82556                    100389f0 f   ObjCache.obj
 0001:000379f9       $L82557                    100389f9 f   ObjCache.obj
 0001:00037a04       $L82558                    10038a04 f   ObjCache.obj
 0001:00037a0f       $L82559                    10038a0f f   ObjCache.obj
 0001:00037a1a       $L82561                    10038a1a f   ObjCache.obj
 0001:00037a25       $L82562                    10038a25 f   ObjCache.obj
 0001:00037a2d       __ehhandler$?QuerySVDYNs@ObjectCache@@SA_NV?$basic_string@DU?$char_traits@D@std@@V?$allocator@D@2@@std@@AAV?$list@VSingelRecord@@V?$allocator@VSingelRecord@@@std@@@3@1@Z 10038a2d f   ObjCache.obj
 0001:00037a40       $L82956                    10038a40 f   ObjCache.obj
 0001:00037a49       $L82957                    10038a49 f   ObjCache.obj
 0001:00037a54       $L82958                    10038a54 f   ObjCache.obj
 0001:00037a5f       $L82959                    10038a5f f   ObjCache.obj
 0001:00037a6a       $L82961                    10038a6a f   ObjCache.obj
 0001:00037a75       $L82962                    10038a75 f   ObjCache.obj
 0001:00037a7d       __ehhandler$?QueryMassMonitor@ObjectCache@@SA_NV?$basic_string@DU?$char_traits@D@std@@V?$allocator@D@2@@std@@AAVStringMap@@AAV?$list@VSingelRecord@@V?$allocator@VSingelRecord@@@std@@@3@@Z 10038a7d f   ObjCache.obj
 0001:00037a90       $L83355                    10038a90 f   ObjCache.obj
 0001:00037a99       $L83356                    10038a99 f   ObjCache.obj
 0001:00037aa4       $L83357                    10038aa4 f   ObjCache.obj
 0001:00037aaf       $L83358                    10038aaf f   ObjCache.obj
 0001:00037aba       $L83360                    10038aba f   ObjCache.obj
 0001:00037ac5       $L83361                    10038ac5 f   ObjCache.obj
 0001:00037acd       __ehhandler$?QueryMassEntity@ObjectCache@@SA_NV?$basic_string@DU?$char_traits@D@std@@V?$allocator@D@2@@std@@AAVStringMap@@AAV?$list@VSingelRecord@@V?$allocator@VSingelRecord@@@std@@@3@@Z 10038acd f   ObjCache.obj
 0001:00037ae0       $L83753                    10038ae0 f   ObjCache.obj
 0001:00037ae8       __ehhandler$??A?$hashtable@Vword@svutil@@V12@@svutil@@QAEAAVword@1@ABV21@@Z 10038ae8 f   ObjCache.obj
 0001:00037b00       __ehhandler$??0?$_Tree@V?$_Tmap_traits@V?$basic_string@DU?$char_traits@D@std@@V?$allocator@D@2@@std@@PAXU?$less@V?$basic_string@DU?$char_traits@D@std@@V?$allocator@D@2@@std@@@2@V?$allocator@U?$pair@$$CBV?$basic_string@DU?$char_traits@D@std@@V?$allocator@D@2@@std@@PAX@std@@@2@$0A@@std@@@std@@QAE@ABV01@@Z 10038b00 f   ObjCache.obj
 0001:00037b10       $L84810                    10038b10 f   ObjCache.obj
 0001:00037b10       $L84981                    10038b10 f   ObjCache.obj
 0001:00037b19       __ehhandler$??1?$pair@$$CBV?$basic_string@DU?$char_traits@D@std@@V?$allocator@D@2@@std@@V?$map@V?$basic_string@DU?$char_traits@D@std@@V?$allocator@D@2@@std@@PAXU?$less@V?$basic_string@DU?$char_traits@D@std@@V?$allocator@D@2@@std@@@2@V?$allocator@U?$pair@$$CBV?$basic_string@DU?$char_traits@D@std@@V?$allocator@D@2@@std@@PAX@std@@@2@@2@@std@@QAE@XZ 10038b19 f   ObjCache.obj
 0001:00037b19       __ehhandler$??1?$pair@V?$basic_string@DU?$char_traits@D@std@@V?$allocator@D@2@@std@@V?$map@V?$basic_string@DU?$char_traits@D@std@@V?$allocator@D@2@@std@@PAXU?$less@V?$basic_string@DU?$char_traits@D@std@@V?$allocator@D@2@@std@@@2@V?$allocator@U?$pair@$$CBV?$basic_string@DU?$char_traits@D@std@@V?$allocator@D@2@@std@@PAX@std@@@2@@2@@std@@QAE@XZ 10038b19 f   ObjCache.obj
 0001:00037b30       $L85188                    10038b30 f   ObjCache.obj
 0001:00037b39       $L85189                    10038b39 f   ObjCache.obj
 0001:00037b44       $L85191                    10038b44 f   ObjCache.obj
 0001:00037b64       $L85194                    10038b64 f   ObjCache.obj
 0001:00037b6f       $L85195                    10038b6f f   ObjCache.obj
 0001:00037b7a       $L85197                    10038b7a f   ObjCache.obj
 0001:00037b86       $L85198                    10038b86 f   ObjCache.obj
 0001:00037b94       $L85199                    10038b94 f   ObjCache.obj
 0001:00037b9c       $L85200                    10038b9c f   ObjCache.obj
 0001:00037ba7       $L85202                    10038ba7 f   ObjCache.obj
 0001:00037bb2       $L85203                    10038bb2 f   ObjCache.obj
 0001:00037bbd       __ehhandler$?RefreshMonitors_new@ObjectCache@@SA_NV?$basic_string@DU?$char_traits@D@std@@V?$allocator@D@2@@std@@@Z 10038bbd f   ObjCache.obj
 0001:00037bd0       $L86163                    10038bd0 f   ObjCache.obj
 0001:00037bd9       $L86164                    10038bd9 f   ObjCache.obj
 0001:00037be4       $L86166                    10038be4 f   ObjCache.obj
 0001:00037c04       $L86169                    10038c04 f   ObjCache.obj
 0001:00037c0f       $L86170                    10038c0f f   ObjCache.obj
 0001:00037c1a       $L86172                    10038c1a f   ObjCache.obj
 0001:00037c26       $L86173                    10038c26 f   ObjCache.obj
 0001:00037c34       $L86174                    10038c34 f   ObjCache.obj
 0001:00037c3c       $L86175                    10038c3c f   ObjCache.obj
 0001:00037c47       $L86177                    10038c47 f   ObjCache.obj
 0001:00037c52       $L86178                    10038c52 f   ObjCache.obj
 0001:00037c5d       __ehhandler$?RefreshEntities_new@ObjectCache@@SA_NV?$basic_string@DU?$char_traits@D@std@@V?$allocator@D@2@@std@@@Z 10038c5d f   ObjCache.obj
 0001:00037c70       $L88566                    10038c70 f   ObjCache.obj
 0001:00037c78       $L88567                    10038c78 f   ObjCache.obj
 0001:00037c81       $L88572                    10038c81 f   ObjCache.obj
 0001:00037c8a       $L88568                    10038c8a f   ObjCache.obj
 0001:00037ca3       __ehhandler$??$make_pair@V?$basic_string@DU?$char_traits@D@std@@V?$allocator@D@2@@std@@V?$map@V?$basic_string@DU?$char_traits@D@std@@V?$allocator@D@2@@std@@PAXU?$less@V?$basic_string@DU?$char_traits@D@std@@V?$allocator@D@2@@std@@@2@V?$allocator@U?$pair@$$CBV?$basic_string@DU?$char_traits@D@std@@V?$allocator@D@2@@std@@PAX@std@@@2@@2@@std@@YA?AU?$pair@V?$basic_string@DU?$char_traits@D@std@@V?$allocator@D@2@@std@@V?$map@V?$basic_string@DU?$char_traits@D@std@@V?$allocator@D@2@@std@@PAXU?$less@V?$basic_string@DU?$char_traits@D@std@@V?$allocator@D@2@@std@@@2@V?$allocator@U?$pair@$$CBV?$basic_string@DU?$char_traits@D@std@@V?$allocator@D@2@@std@@PAX@std@@@2@@2@@0@V?$basic_string@DU?$char_traits@D@std@@V?$allocator@D@2@@0@V?$map@V?$basic_string@DU?$char_traits@D@std@@V?$allocator@D@2@@std@@PAXU?$less@V?$basic_string@DU?$char_traits@D@std@@V?$allocator@D@2@@std@@@2@V?$allocator@U?$pair@$$CBV?$basic_string@DU?$char_traits@D@std@@V?$allocator@D@2@@std@@PAX@std@@@2@@0@@Z 10038ca3 f   ObjCache.obj
 0001:00037cb0       $L88797                    10038cb0 f   ObjCache.obj
 0001:00037cc1       __ehhandler$?_Buynode@?$_Tree@V?$_Tmap_traits@V?$basic_string@DU?$char_traits@D@std@@V?$allocator@D@2@@std@@V?$map@V?$basic_string@DU?$char_traits@D@std@@V?$allocator@D@2@@std@@PAXU?$less@V?$basic_string@DU?$char_traits@D@std@@V?$allocator@D@2@@std@@@2@V?$allocator@U?$pair@$$CBV?$basic_string@DU?$char_traits@D@std@@V?$allocator@D@2@@std@@PAX@std@@@2@@2@U?$less@V?$basic_string@DU?$char_traits@D@std@@V?$allocator@D@2@@std@@@2@V?$allocator@U?$pair@$$CBV?$basic_string@DU?$char_traits@D@std@@V?$allocator@D@2@@std@@V?$map@V?$basic_string@DU?$char_traits@D@std@@V?$allocator@D@2@@std@@PAXU?$less@V?$basic_string@DU?$char_traits@D@std@@V?$allocator@D@2@@std@@@2@V?$allocator@U?$pair@$$CBV?$basic_string@DU?$char_traits@D@std@@V?$allocator@D@2@@std@@PAX@std@@@2@@2@@std@@@2@$0A@@std@@@std@@IAEPAU_Node@?$_Tree_nod@V?$_Tmap_traits@V?$basic_string@DU?$char_traits@D@std@@V?$allocator@D@2@@std@@V?$map@V?$basic_string@DU?$char_traits@D@std@@V?$allocator@D@2@@std@@PAXU?$less@V?$basic_string@DU?$char_traits@D@std@@V?$allocator@D@2@@std@@@2@V?$allocator@U?$pair@$$CBV?$basic_string@DU?$char_traits@D@std@@V?$allocator@D@2@@std@@PAX@std@@@2@@2@U?$less@V?$basic_string@DU?$char_traits@D@std@@V?$allocator@D@2@@std@@@2@V?$allocator@U?$pair@$$CBV?$basic_string@DU?$char_traits@D@std@@V?$allocator@D@2@@std@@V?$map@V?$basic_string@DU?$char_traits@D@std@@V?$allocator@D@2@@std@@PAXU?$less@V?$basic_string@DU?$char_traits@D@std@@V?$allocator@D@2@@std@@@2@V?$allocator@U?$pair@$$CBV?$basic_string@DU?$char_traits@D@std@@V?$allocator@D@2@@std@@PAX@std@@@2@@2@@std@@@2@$0A@@std@@@2@PAU342@00ABU?$pair@$$CBV?$basic_string@DU?$char_traits@D@std@@V?$allocator@D@2@@std@@V?$map@V?$basic_string@DU?$char_traits@D@std@@V?$allocator@D@2@@std@@PAXU?$less@V?$basic_string@DU?$char_traits@D@std@@V?$allocator@D@2@@std@@@2@V?$allocator@U?$pair@$$CBV?$basic_string@DU?$char_traits@D@std@@V?$allocator@D@2@@std@@PAX@std@@@2@@2@@2@D@Z 10038cc1 f   ObjCache.obj
 0001:00037cd0       $L70841                    10038cd0 f   ObjCache.obj
 0001:00037cd0       $L89030                    10038cd0 f   ObjCache.obj
 0001:00037cd0       $L68903                    10038cd0 f   ObjCache.obj
 0001:00037cd0       $L89364                    10038cd0 f   ObjCache.obj
 0001:00037cd0       $L70437                    10038cd0 f   ObjCache.obj
 0001:00037cd0       $L68169                    10038cd0 f   ObjCache.obj
 0001:00037cd0       $L69522                    10038cd0 f   ObjCache.obj
 0001:00037cd0       $L91370                    10038cd0 f   ObjCache.obj
 0001:00037cd0       $L69229                    10038cd0 f   ObjCache.obj
 0001:00037cd0       $L68592                    10038cd0 f   ObjCache.obj
 0001:00037cd0       $L66429                    10038cd0 f   ObjCache.obj
 0001:00037cd9       $L69542                    10038cd9 f   ObjCache.obj
 0001:00037cd9       $L70851                    10038cd9 f   ObjCache.obj
 0001:00037cd9       $L69249                    10038cd9 f   ObjCache.obj
 0001:00037cd9       $L91380                    10038cd9 f   ObjCache.obj
 0001:00037cd9       $L66449                    10038cd9 f   ObjCache.obj
 0001:00037cd9       $L68189                    10038cd9 f   ObjCache.obj
 0001:00037cd9       $L70447                    10038cd9 f   ObjCache.obj
 0001:00037cd9       $L89374                    10038cd9 f   ObjCache.obj
 0001:00037cd9       $L68923                    10038cd9 f   ObjCache.obj
 0001:00037cd9       $L68612                    10038cd9 f   ObjCache.obj
 0001:00037cd9       $L89050                    10038cd9 f   ObjCache.obj
 0001:00037ce2       __ehhandler$?_Insert@?$_Tree@V?$_Tmap_traits@HPAXU?$less@H@std@@V?$allocator@U?$pair@$$CBHPAX@std@@@2@$0A@@std@@@std@@IAE?AViterator@12@_NPAU_Node@?$_Tree_nod@V?$_Tmap_traits@HPAXU?$less@H@std@@V?$allocator@U?$pair@$$CBHPAX@std@@@2@$0A@@std@@@2@ABU?$pair@$$CBHPAX@2@@Z 10038ce2 f   ObjCache.obj
 0001:00037ce2       __ehhandler$?_Insert@?$_Tree@V?$_Tmap_traits@V?$basic_string@DU?$char_traits@D@std@@V?$allocator@D@2@@std@@V12@U?$less@V?$basic_string@DU?$char_traits@D@std@@V?$allocator@D@2@@std@@@2@V?$allocator@U?$pair@$$CBV?$basic_string@DU?$char_traits@D@std@@V?$allocator@D@2@@std@@V12@@std@@@2@$0A@@std@@@std@@IAE?AViterator@12@_NPAU_Node@?$_Tree_nod@V?$_Tmap_traits@V?$basic_string@DU?$char_traits@D@std@@V?$allocator@D@2@@std@@V12@U?$less@V?$basic_string@DU?$char_traits@D@std@@V?$allocator@D@2@@std@@@2@V?$allocator@U?$pair@$$CBV?$basic_string@DU?$char_traits@D@std@@V?$allocator@D@2@@std@@V12@@std@@@2@$0A@@std@@@2@ABU?$pair@$$CBV?$basic_string@DU?$char_traits@D@std@@V?$allocator@D@2@@std@@V12@@2@@Z 10038ce2 f   ObjCache.obj
 0001:00037ce2       __ehhandler$?_Insert@?$_Tree@V?$_Tmap_traits@V?$basic_string@DU?$char_traits@D@std@@V?$allocator@D@2@@std@@PAXU?$less@V?$basic_string@DU?$char_traits@D@std@@V?$allocator@D@2@@std@@@2@V?$allocator@U?$pair@$$CBV?$basic_string@DU?$char_traits@D@std@@V?$allocator@D@2@@std@@PAX@std@@@2@$0A@@std@@@std@@IAE?AViterator@12@_NPAU_Node@?$_Tree_nod@V?$_Tmap_traits@V?$basic_string@DU?$char_traits@D@std@@V?$allocator@D@2@@std@@PAXU?$less@V?$basic_string@DU?$char_traits@D@std@@V?$allocator@D@2@@std@@@2@V?$allocator@U?$pair@$$CBV?$basic_string@DU?$char_traits@D@std@@V?$allocator@D@2@@std@@PAX@std@@@2@$0A@@std@@@2@ABU?$pair@$$CBV?$basic_string@DU?$char_traits@D@std@@V?$allocator@D@2@@std@@PAX@2@@Z 10038ce2 f   ObjCache.obj
 0001:00037ce2       __ehhandler$?erase@?$_Tree@V?$_Tmap_traits@V?$basic_string@DU?$char_traits@D@std@@V?$allocator@D@2@@std@@V?$map@V?$basic_string@DU?$char_traits@D@std@@V?$allocator@D@2@@std@@V12@U?$less@V?$basic_string@DU?$char_traits@D@std@@V?$allocator@D@2@@std@@@2@V?$allocator@U?$pair@$$CBV?$basic_string@DU?$char_traits@D@std@@V?$allocator@D@2@@std@@V12@@std@@@2@@2@U?$less@V?$basic_string@DU?$char_traits@D@std@@V?$allocator@D@2@@std@@@2@V?$allocator@U?$pair@$$CBV?$basic_string@DU?$char_traits@D@std@@V?$allocator@D@2@@std@@V?$map@V?$basic_string@DU?$char_traits@D@std@@V?$allocator@D@2@@std@@V12@U?$less@V?$basic_string@DU?$char_traits@D@std@@V?$allocator@D@2@@std@@@2@V?$allocator@U?$pair@$$CBV?$basic_string@DU?$char_traits@D@std@@V?$allocator@D@2@@std@@V12@@std@@@2@@2@@std@@@2@$0A@@std@@@std@@QAE?AViterator@12@V312@@Z 10038ce2 f   ObjCache.obj
 0001:00037ce2       __ehhandler$?_Incsize@?$list@VSingelRecord@@V?$allocator@VSingelRecord@@@std@@@std@@IAEXI@Z 10038ce2 f   ObjCache.obj
 0001:00037ce2       __ehhandler$?_Insert@?$_Tree@V?$_Tmap_traits@V?$basic_string@DU?$char_traits@D@std@@V?$allocator@D@2@@std@@VVerOBJECT@@U?$less@V?$basic_string@DU?$char_traits@D@std@@V?$allocator@D@2@@std@@@2@V?$allocator@U?$pair@$$CBV?$basic_string@DU?$char_traits@D@std@@V?$allocator@D@2@@std@@VVerOBJECT@@@std@@@2@$0A@@std@@@std@@IAE?AViterator@12@_NPAU_Node@?$_Tree_nod@V?$_Tmap_traits@V?$basic_string@DU?$char_traits@D@std@@V?$allocator@D@2@@std@@VVerOBJECT@@U?$less@V?$basic_string@DU?$char_traits@D@std@@V?$allocator@D@2@@std@@@2@V?$allocator@U?$pair@$$CBV?$basic_string@DU?$char_traits@D@std@@V?$allocator@D@2@@std@@VVerOBJECT@@@std@@@2@$0A@@std@@@2@ABU?$pair@$$CBV?$basic_string@DU?$char_traits@D@std@@V?$allocator@D@2@@std@@VVerOBJECT@@@2@@Z 10038ce2 f   ObjCache.obj
 0001:00037ce2       __ehhandler$?erase@?$_Tree@V?$_Tmap_traits@HPAXU?$less@H@std@@V?$allocator@U?$pair@$$CBHPAX@std@@@2@$0A@@std@@@std@@QAE?AViterator@12@V312@@Z 10038ce2 f   ObjCache.obj
 0001:00037ce2       __ehhandler$?erase@?$_Tree@V?$_Tmap_traits@V?$basic_string@DU?$char_traits@D@std@@V?$allocator@D@2@@std@@V?$map@V?$basic_string@DU?$char_traits@D@std@@V?$allocator@D@2@@std@@PAXU?$less@V?$basic_string@DU?$char_traits@D@std@@V?$allocator@D@2@@std@@@2@V?$allocator@U?$pair@$$CBV?$basic_string@DU?$char_traits@D@std@@V?$allocator@D@2@@std@@PAX@std@@@2@@2@U?$less@V?$basic_string@DU?$char_traits@D@std@@V?$allocator@D@2@@std@@@2@V?$allocator@U?$pair@$$CBV?$basic_string@DU?$char_traits@D@std@@V?$allocator@D@2@@std@@V?$map@V?$basic_string@DU?$char_traits@D@std@@V?$allocator@D@2@@std@@PAXU?$less@V?$basic_string@DU?$char_traits@D@std@@V?$allocator@D@2@@std@@@2@V?$allocator@U?$pair@$$CBV?$basic_string@DU?$char_traits@D@std@@V?$allocator@D@2@@std@@PAX@std@@@2@@2@@std@@@2@$0A@@std@@@std@@QAE?AViterator@12@V312@@Z 10038ce2 f   ObjCache.obj
 0001:00037ce2       __ehhandler$?_Insert@?$_Tree@V?$_Tmap_traits@V?$basic_string@DU?$char_traits@D@std@@V?$allocator@D@2@@std@@V?$map@V?$basic_string@DU?$char_traits@D@std@@V?$allocator@D@2@@std@@PAXU?$less@V?$basic_string@DU?$char_traits@D@std@@V?$allocator@D@2@@std@@@2@V?$allocator@U?$pair@$$CBV?$basic_string@DU?$char_traits@D@std@@V?$allocator@D@2@@std@@PAX@std@@@2@@2@U?$less@V?$basic_string@DU?$char_traits@D@std@@V?$allocator@D@2@@std@@@2@V?$allocator@U?$pair@$$CBV?$basic_string@DU?$char_traits@D@std@@V?$allocator@D@2@@std@@V?$map@V?$basic_string@DU?$char_traits@D@std@@V?$allocator@D@2@@std@@PAXU?$less@V?$basic_string@DU?$char_traits@D@std@@V?$allocator@D@2@@std@@@2@V?$allocator@U?$pair@$$CBV?$basic_string@DU?$char_traits@D@std@@V?$allocator@D@2@@std@@PAX@std@@@2@@2@@std@@@2@$0A@@std@@@std@@IAE?AViterator@12@_NPAU_Node@?$_Tree_nod@V?$_Tmap_traits@V?$basic_string@DU?$char_traits@D@std@@V?$allocator@D@2@@std@@V?$map@V?$basic_string@DU?$char_traits@D@std@@V?$allocator@D@2@@std@@PAXU?$less@V?$basic_string@DU?$char_traits@D@std@@V?$allocator@D@2@@std@@@2@V?$allocator@U?$pair@$$CBV?$basic_string@DU?$char_traits@D@std@@V?$allocator@D@2@@std@@PAX@std@@@2@@2@U?$less@V?$basic_string@DU?$char_traits@D@std@@V?$allocator@D@2@@std@@@2@V?$allocator@U?$pair@$$CBV?$basic_string@DU?$char_traits@D@std@@V?$allocator@D@2@@std@@V?$map@V?$basic_string@DU?$char_traits@D@std@@V?$allocator@D@2@@std@@PAXU?$less@V?$basic_string@DU?$char_traits@D@std@@V?$allocator@D@2@@std@@@2@V?$allocator@U?$pair@$$CBV?$basic_string@DU?$char_traits@D@std@@V?$allocator@D@2@@std@@PAX@std@@@2@@2@@std@@@2@$0A@@std@@@2@ABU?$pair@$$CBV?$basic_string@DU?$char_traits@D@std@@V?$allocator@D@2@@std@@V?$map@V?$basic_string@DU?$char_traits@D@std@@V?$allocator@D@2@@std@@PAXU?$less@V?$basic_string@DU?$char_traits@D@std@@V?$allocator@D@2@@std@@@2@V?$allocator@U?$pair@$$CBV?$basic_string@DU?$char_traits@D@std@@V?$allocator@D@2@@std@@PAX@std@@@2@@2@@2@@Z 10038ce2 f   ObjCache.obj
 0001:00037ce2       __ehhandler$?erase@?$_Tree@V?$_Tmap_traits@V?$basic_string@DU?$char_traits@D@std@@V?$allocator@D@2@@std@@PAXU?$less@V?$basic_string@DU?$char_traits@D@std@@V?$allocator@D@2@@std@@@2@V?$allocator@U?$pair@$$CBV?$basic_string@DU?$char_traits@D@std@@V?$allocator@D@2@@std@@PAX@std@@@2@$0A@@std@@@std@@QAE?AViterator@12@V312@@Z 10038ce2 f   ObjCache.obj
 0001:00037ce2       __ehhandler$?_Insert@?$_Tree@V?$_Tmap_traits@V?$basic_string@DU?$char_traits@D@std@@V?$allocator@D@2@@std@@VSingelRecord@@U?$less@V?$basic_string@DU?$char_traits@D@std@@V?$allocator@D@2@@std@@@2@V?$allocator@U?$pair@$$CBV?$basic_string@DU?$char_traits@D@std@@V?$allocator@D@2@@std@@VSingelRecord@@@std@@@2@$0A@@std@@@std@@IAE?AViterator@12@_NPAU_Node@?$_Tree_nod@V?$_Tmap_traits@V?$basic_string@DU?$char_traits@D@std@@V?$allocator@D@2@@std@@VSingelRecord@@U?$less@V?$basic_string@DU?$char_traits@D@std@@V?$allocator@D@2@@std@@@2@V?$allocator@U?$pair@$$CBV?$basic_string@DU?$char_traits@D@std@@V?$allocator@D@2@@std@@VSingelRecord@@@std@@@2@$0A@@std@@@2@ABU?$pair@$$CBV?$basic_string@DU?$char_traits@D@std@@V?$allocator@D@2@@std@@VSingelRecord@@@2@@Z 10038ce2 f   ObjCache.obj
 0001:00037cf0       $L90280                    10038cf0 f   ObjCache.obj
 0001:00037cf9       $L90281                    10038cf9 f   ObjCache.obj
 0001:00037d02       $L90282                    10038d02 f   ObjCache.obj
 0001:00037d0b       $L90283                    10038d0b f   ObjCache.obj
 0001:00037d14       $L90285                    10038d14 f   ObjCache.obj
 0001:00037d1d       $L90286                    10038d1d f   ObjCache.obj
 0001:00037d25       $L90287                    10038d25 f   ObjCache.obj
 0001:00037d2d       $L90289                    10038d2d f   ObjCache.obj
 0001:00037d35       $L90290                    10038d35 f   ObjCache.obj
 0001:00037d3d       $L90292                    10038d3d f   ObjCache.obj
 0001:00037d45       $L90293                    10038d45 f   ObjCache.obj
 0001:00037d4d       __ehhandler$?FastLoadResourceByKeys@ObjectCache@@SAPAXV?$basic_string@DU?$char_traits@D@std@@V?$allocator@D@2@@std@@0@Z 10038d4d f   ObjCache.obj
 0001:00037d60       $L91839                    10038d60 f   ObjCache.obj
 0001:00037d69       $L91840                    10038d69 f   ObjCache.obj
 0001:00037d72       $L94224                    10038d72 f   ObjCache.obj
 0001:00037d7b       $L94628                    10038d7b f   ObjCache.obj
 0001:00037d84       $L95032                    10038d84 f   ObjCache.obj
 0001:00037d8d       $L95436                    10038d8d f   ObjCache.obj
 0001:00037d96       $L95864                    10038d96 f   ObjCache.obj
 0001:00037d9f       __ehhandler$?SetUserAddr@ObjectCache@@SAXV?$basic_string@DU?$char_traits@D@std@@V?$allocator@D@2@@std@@0@Z 10038d9f f   ObjCache.obj
 0001:00037db0       $L96161                    10038db0 f   ObjCache.obj
 0001:00037dbb       $L96162                    10038dbb f   ObjCache.obj
 0001:00037dc6       $L96163                    10038dc6 f   ObjCache.obj
 0001:00037dd2       $L96164                    10038dd2 f   ObjCache.obj
 0001:00037dde       $L96166                    10038dde f   ObjCache.obj
 0001:00037dea       $L96168                    10038dea f   ObjCache.obj
 0001:00037df5       $L96169                    10038df5 f   ObjCache.obj
 0001:00037e00       $L96170                    10038e00 f   ObjCache.obj
 0001:00037e09       $L96171                    10038e09 f   ObjCache.obj
 0001:00037e14       $L96172                    10038e14 f   ObjCache.obj
 0001:00037e1f       $L96173                    10038e1f f   ObjCache.obj
 0001:00037e2a       $L96174                    10038e2a f   ObjCache.obj
 0001:00037e35       $L96175                    10038e35 f   ObjCache.obj
 0001:00037e41       $L96176                    10038e41 f   ObjCache.obj
 0001:00037e4d       $L96178                    10038e4d f   ObjCache.obj
 0001:00037e58       $L96179                    10038e58 f   ObjCache.obj
 0001:00037e63       $L96180                    10038e63 f   ObjCache.obj
 0001:00037e6c       $L96182                    10038e6c f   ObjCache.obj
 0001:00037e77       $L96183                    10038e77 f   ObjCache.obj
 0001:00037e82       $L96184                    10038e82 f   ObjCache.obj
 0001:00037e8d       $L96185                    10038e8d f   ObjCache.obj
 0001:00037e98       $L96186                    10038e98 f   ObjCache.obj
 0001:00037ea1       $L96187                    10038ea1 f   ObjCache.obj
 0001:00037ead       $L96190                    10038ead f   ObjCache.obj
 0001:00037eb9       $L96191                    10038eb9 f   ObjCache.obj
 0001:00037ec5       $L96193                    10038ec5 f   ObjCache.obj
 0001:00037ed0       $L98206                    10038ed0 f   ObjCache.obj
 0001:00037edc       $L96194                    10038edc f   ObjCache.obj
 0001:00037ee7       $L98212                    10038ee7 f   ObjCache.obj
 0001:00037ef3       $L98217                    10038ef3 f   ObjCache.obj
 0001:00037eff       $L96196                    10038eff f   ObjCache.obj
 0001:00037f0a       $L98295                    10038f0a f   ObjCache.obj
 0001:00037f16       $L96197                    10038f16 f   ObjCache.obj
 0001:00037f21       $L98301                    10038f21 f   ObjCache.obj
 0001:00037f2d       $L96199                    10038f2d f   ObjCache.obj
 0001:00037f38       $L98335                    10038f38 f   ObjCache.obj
 0001:00037f44       $L96200                    10038f44 f   ObjCache.obj
 0001:00037f4f       $L98341                    10038f4f f   ObjCache.obj
 0001:00037f5b       $L96201                    10038f5b f   ObjCache.obj
 0001:00037f66       $L96203                    10038f66 f   ObjCache.obj
 0001:00037f71       $L96204                    10038f71 f   ObjCache.obj
 0001:00037f7c       $L96205                    10038f7c f   ObjCache.obj
 0001:00037f87       $L96207                    10038f87 f   ObjCache.obj
 0001:00037f92       $L96208                    10038f92 f   ObjCache.obj
 0001:00037f9d       __ehhandler$?SetLatestRecords@ObjectCache@@CA_NAAV?$list@VSingelRecord@@V?$allocator@VSingelRecord@@@std@@@std@@AAV?$map@V?$basic_string@DU?$char_traits@D@std@@V?$allocator@D@2@@std@@V?$map@V?$basic_string@DU?$char_traits@D@std@@V?$allocator@D@2@@std@@V12@U?$less@V?$basic_string@DU?$char_traits@D@std@@V?$allocator@D@2@@std@@@2@V?$allocator@U?$pair@$$CBV?$basic_string@DU?$char_traits@D@std@@V?$allocator@D@2@@std@@V12@@std@@@2@@2@U?$less@V?$basic_string@DU?$char_traits@D@std@@V?$allocator@D@2@@std@@@2@V?$allocator@U?$pair@$$CBV?$basic_string@DU?$char_traits@D@std@@V?$allocator@D@2@@std@@V?$map@V?$basic_string@DU?$char_traits@D@std@@V?$allocator@D@2@@std@@V12@U?$less@V?$basic_string@DU?$char_traits@D@std@@V?$allocator@D@2@@std@@@2@V?$allocator@U?$pair@$$CBV?$basic_string@DU?$char_traits@D@std@@V?$allocator@D@2@@std@@V12@@std@@@2@@2@@std@@@2@@3@H@Z 10038f9d f   ObjCache.obj
 0001:00037fb0       $L98798                    10038fb0 f   ObjCache.obj
 0001:00037fb9       $L98799                    10038fb9 f   ObjCache.obj
 0001:00037fc1       $L98800                    10038fc1 f   ObjCache.obj
 0001:00037fcd       $L98801                    10038fcd f   ObjCache.obj
 0001:00037fd5       $L98802                    10038fd5 f   ObjCache.obj
 0001:00037fdd       $L98803                    10038fdd f   ObjCache.obj
 0001:00037fe5       $L98805                    10038fe5 f   ObjCache.obj
 0001:00037fee       $L98806                    10038fee f   ObjCache.obj
 0001:00037ff9       $L98808                    10038ff9 f   ObjCache.obj
 0001:00038004       $L98809                    10039004 f   ObjCache.obj
 0001:0003800c       __ehhandler$?RefreshLatestRecords@ObjectCache@@SA_NV?$basic_string@DU?$char_traits@D@std@@V?$allocator@D@2@@std@@AAV?$map@V?$basic_string@DU?$char_traits@D@std@@V?$allocator@D@2@@std@@V?$map@V?$basic_string@DU?$char_traits@D@std@@V?$allocator@D@2@@std@@V12@U?$less@V?$basic_string@DU?$char_traits@D@std@@V?$allocator@D@2@@std@@@2@V?$allocator@U?$pair@$$CBV?$basic_string@DU?$char_traits@D@std@@V?$allocator@D@2@@std@@V12@@std@@@2@@2@U?$less@V?$basic_string@DU?$char_traits@D@std@@V?$allocator@D@2@@std@@@2@V?$allocator@U?$pair@$$CBV?$basic_string@DU?$char_traits@D@std@@V?$allocator@D@2@@std@@V?$map@V?$basic_string@DU?$char_traits@D@std@@V?$allocator@D@2@@std@@V12@U?$less@V?$basic_string@DU?$char_traits@D@std@@V?$allocator@D@2@@std@@@2@V?$allocator@U?$pair@$$CBV?$basic_string@DU?$char_traits@D@std@@V?$allocator@D@2@@std@@V12@@std@@@2@@2@@std@@@2@@3@H_N@Z 1003900c f   ObjCache.obj
 0001:00038020       $L99919                    10039020 f   ObjCache.obj
 0001:00038029       $L99920                    10039029 f   ObjCache.obj
 0001:00038032       $L99921                    10039032 f   ObjCache.obj
 0001:0003803b       __ehhandler$?SetCacheUserAddr@@YAXV?$basic_string@DU?$char_traits@D@std@@V?$allocator@D@2@@std@@0@Z 1003903b f   ObjCache.obj
 0001:00038050       $L101233                   10039050 f   ObjCache.obj
 0001:00038059       $L101234                   10039059 f   ObjCache.obj
 0001:00038061       __ehhandler$?RefreshSVDYNs@ObjectCache@@SA_NV?$basic_string@DU?$char_traits@D@std@@V?$allocator@D@2@@std@@@Z 10039061 f   ObjCache.obj
 0001:00038070       $L87117                    10039070 f   ObjCache.obj
 0001:00038070       $L99934                    10039070 f   ObjCache.obj
 0001:00038070       $L87104                    10039070 f   ObjCache.obj
 0001:00038070       $L83741                    10039070 f   ObjCache.obj
 0001:00038070       $L101616                   10039070 f   ObjCache.obj
 0001:00038079       __ehhandler$?CacheRefreshSVDYNs@@YA_NV?$basic_string@DU?$char_traits@D@std@@V?$allocator@D@2@@std@@@Z 10039079 f   ObjCache.obj
 0001:00038079       __ehhandler$?Cache_GetSVDYN@@YA_NV?$basic_string@DU?$char_traits@D@std@@V?$allocator@D@2@@std@@AAUsv_dyn@@@Z 10039079 f   ObjCache.obj
 0001:00038079       __ehhandler$?CacheRefreshMonitors@@YA_NV?$basic_string@DU?$char_traits@D@std@@V?$allocator@D@2@@std@@@Z 10039079 f   ObjCache.obj
 0001:00038079       __ehhandler$?CacheRefreshLatestRecords@@YA_NV?$basic_string@DU?$char_traits@D@std@@V?$allocator@D@2@@std@@AAV?$map@V?$basic_string@DU?$char_traits@D@std@@V?$allocator@D@2@@std@@V?$map@V?$basic_string@DU?$char_traits@D@std@@V?$allocator@D@2@@std@@V12@U?$less@V?$basic_string@DU?$char_traits@D@std@@V?$allocator@D@2@@std@@@2@V?$allocator@U?$pair@$$CBV?$basic_string@DU?$char_traits@D@std@@V?$allocator@D@2@@std@@V12@@std@@@2@@2@U?$less@V?$basic_string@DU?$char_traits@D@std@@V?$allocator@D@2@@std@@@2@V?$allocator@U?$pair@$$CBV?$basic_string@DU?$char_traits@D@std@@V?$allocator@D@2@@std@@V?$map@V?$basic_string@DU?$char_traits@D@std@@V?$allocator@D@2@@std@@V12@U?$less@V?$basic_string@DU?$char_traits@D@std@@V?$allocator@D@2@@std@@@2@V?$allocator@U?$pair@$$CBV?$basic_string@DU?$char_traits@D@std@@V?$allocator@D@2@@std@@V12@@std@@@2@@2@@std@@@2@@2@H@Z 10039079 f   ObjCache.obj
 0001:00038079       __ehhandler$?CacheRefreshEntities@@YA_NV?$basic_string@DU?$char_traits@D@std@@V?$allocator@D@2@@std@@@Z 10039079 f   ObjCache.obj
 0001:00038090       __ehhandler$?WriteData@MyTCPStream@@QAEIPBXIK@Z 10039090 f   QueryData.obj
 0001:000380a0       __ehhandler$?ReadData@MyTCPStream@@QAEIPAXIDK@Z 100390a0 f   QueryData.obj
 0001:000380b0       __ehhandler$?SetNoDelay@MyTCPStream@@QAE_N_N@Z 100390b0 f   QueryData.obj
 0001:000380c0       $L43943                    100390c0 f   QueryData.obj
 0001:000380c9       $L43944                    100390c9 f   QueryData.obj
 0001:000380d2       $L43945                    100390d2 f   QueryData.obj
 0001:000380da       __ehhandler$?QueryBySocket@QueryData@@IAE_NPAUsvdbquery@@PAPAXAAIV?$basic_string@DU?$char_traits@D@std@@V?$allocator@D@2@@std@@I@Z 100390da f   QueryData.obj
 0001:000380f0       $L44113                    100390f0 f   QueryData.obj
 0001:000380f9       $L44114                    100390f9 f   QueryData.obj
 0001:00038102       $L44115                    10039102 f   QueryData.obj
 0001:0003810a       __ehhandler$?QueryBySocket@QueryData@@IAE_NPAUsvdbquery@@PBDIPAPAXAAIV?$basic_string@DU?$char_traits@D@std@@V?$allocator@D@2@@std@@I@Z 1003910a f   QueryData.obj
 0001:00038120       $L44208                    10039120 f   QueryData.obj
 0001:00038129       $L44209                    10039129 f   QueryData.obj
 0001:00038132       $L44210                    10039132 f   QueryData.obj
 0001:0003813a       __ehhandler$?QueryBySocket@QueryData@@IAE_NPAUsvdbquery@@PAUinifilequery@@PAPAXAAIV?$basic_string@DU?$char_traits@D@std@@V?$allocator@D@2@@std@@I@Z 1003913a f   QueryData.obj
 0001:00038150       $L44303                    10039150 f   QueryData.obj
 0001:00038159       $L44304                    10039159 f   QueryData.obj
 0001:00038162       $L44305                    10039162 f   QueryData.obj
 0001:0003816a       __ehhandler$?QueryBySocket@QueryData@@IAE_NPAUsvdbquery@@PAUdbquery@@PAPAXAAIV?$basic_string@DU?$char_traits@D@std@@V?$allocator@D@2@@std@@I@Z 1003916a f   QueryData.obj
 0001:00038180       $L46039                    10039180 f   QueryData.obj
 0001:00038180       $L44398                    10039180 f   QueryData.obj
 0001:00038189       __ehhandler$?Query@QueryData@@QAE_NPAUsvdbquery@@PAPAXAAIV?$basic_string@DU?$char_traits@D@std@@V?$allocator@D@2@@std@@@Z 10039189 f   QueryData.obj
 0001:00038189       __ehhandler$?QueryByPipe@QueryData@@IAE_NPAUsvdbquery@@PAPAXAAIV?$basic_string@DU?$char_traits@D@std@@V?$allocator@D@2@@std@@I@Z 10039189 f   QueryData.obj
 0001:000381a0       $L44417                    100391a0 f   QueryData.obj
 0001:000381a0       $L46169                    100391a0 f   QueryData.obj
 0001:000381a9       __ehhandler$?Query@QueryData@@QAE_NPAUsvdbquery@@PBDIPAPAXAAIV?$basic_string@DU?$char_traits@D@std@@V?$allocator@D@2@@std@@@Z 100391a9 f   QueryData.obj
 0001:000381a9       __ehhandler$?QueryByPipe@QueryData@@IAE_NPAUsvdbquery@@PBDIPAPAXAAIV?$basic_string@DU?$char_traits@D@std@@V?$allocator@D@2@@std@@I@Z 100391a9 f   QueryData.obj
 0001:000381c0       $L46234                    100391c0 f   QueryData.obj
 0001:000381c0       $L46299                    100391c0 f   QueryData.obj
 0001:000381c0       $L44437                    100391c0 f   QueryData.obj
 0001:000381c0       $L44481                    100391c0 f   QueryData.obj
 0001:000381c0       $L44457                    100391c0 f   QueryData.obj
 0001:000381c0       $L46429                    100391c0 f   QueryData.obj
 0001:000381c9       __ehhandler$?UpdateByPipe@QueryData@@IAE_NPAUsvdbquery@@PBDIPAUsvdbresult@@V?$basic_string@DU?$char_traits@D@std@@V?$allocator@D@2@@std@@I@Z 100391c9 f   QueryData.obj
 0001:000381c9       __ehhandler$?Query@QueryData@@QAE_NPAUsvdbquery@@PAUdbquery@@PAPAXAAIV?$basic_string@DU?$char_traits@D@std@@V?$allocator@D@2@@std@@@Z 100391c9 f   QueryData.obj
 0001:000381c9       __ehhandler$?QueryByPipe@QueryData@@IAE_NPAUsvdbquery@@PAUdbquery@@PAPAXAAIV?$basic_string@DU?$char_traits@D@std@@V?$allocator@D@2@@std@@I@Z 100391c9 f   QueryData.obj
 0001:000381c9       __ehhandler$?QueryByPipe@QueryData@@IAE_NPAUsvdbquery@@PAUinifilequery@@PAPAXAAIV?$basic_string@DU?$char_traits@D@std@@V?$allocator@D@2@@std@@I@Z 100391c9 f   QueryData.obj
 0001:000381c9       __ehhandler$?Update@QueryData@@QAE_NPAUsvdbquery@@PBDIPAUsvdbresult@@V?$basic_string@DU?$char_traits@D@std@@V?$allocator@D@2@@std@@@Z 100391c9 f   QueryData.obj
 0001:000381c9       __ehhandler$?Query@QueryData@@QAE_NPAUsvdbquery@@PAUinifilequery@@PAPAXAAIV?$basic_string@DU?$char_traits@D@std@@V?$allocator@D@2@@std@@@Z 100391c9 f   QueryData.obj
 0001:000381e0       $L44606                    100391e0 f   QueryData.obj
 0001:000381e9       $L44607                    100391e9 f   QueryData.obj
 0001:000381f2       $L44608                    100391f2 f   QueryData.obj
 0001:000381fa       __ehhandler$?UpdateBySocket@QueryData@@IAE_NPAUsvdbquery@@PBDIPAUsvdbresult@@V?$basic_string@DU?$char_traits@D@std@@V?$allocator@D@2@@std@@I@Z 100391fa f   QueryData.obj
 0001:00038210       __ehhandler$?CreateObjectByRawData@QueueRecord@@QAEHPBDI@Z 10039210 f   QueueRecord.obj
 0001:00038220       $L41613                    10039220 f   QueueRecord.obj
 0001:00038229       $L41614                    10039229 f   QueueRecord.obj
 0001:00038235       __ehhandler$??0QueueRecord@@QAE@V?$basic_string@DU?$char_traits@D@std@@V?$allocator@D@2@@std@@VTTime@svutil@@PBDIH@Z 10039235 f   QueueRecord.obj
 0001:00038240       $L47988                    10039240 f   RecordSet.obj
 0001:00038240       $L48162                    10039240 f   RecordSet.obj
 0001:00038240       $L50995                    10039240 f   RecordSet.obj
 0001:00038248       __ehhandler$??0?$hashelement@Vword@svutil@@PAVRecordValue@@@svutil@@QAE@ABVword@1@ABQAVRecordValue@@@Z 10039248 f   RecordSet.obj
 0001:00038248       __ehhandler$??0?$hashelement@Vword@svutil@@PAVRecordValue@@@svutil@@QAE@ABVword@1@@Z 10039248 f   RecordSet.obj
 0001:00038248       __ehhandler$??1?$hashnode@Vword@svutil@@PAVRecordValue@@@svutil@@QAE@XZ 10039248 f   RecordSet.obj
 0001:00038260       $L48289                    10039260 f   RecordSet.obj
 0001:00038260       $L48326                    10039260 f   RecordSet.obj
 0001:00038268       __ehhandler$??O?$treenode@V?$hashelement@Vword@svutil@@PAVRecordValue@@@svutil@@@svutil@@QAE_NV01@@Z 10039268 f   RecordSet.obj
 0001:00038268       __ehhandler$??M?$treenode@V?$hashelement@Vword@svutil@@PAVRecordValue@@@svutil@@@svutil@@QAE_NV01@@Z 10039268 f   RecordSet.obj
 0001:00038280       $L48618                    10039280 f   RecordSet.obj
 0001:00038280       $L49318                    10039280 f   RecordSet.obj
 0001:0003828b       __ehhandler$??0?$treenode@V?$hashelement@Vword@svutil@@PAVRecordValue@@@svutil@@@svutil@@QAE@ABV?$hashelement@Vword@svutil@@PAVRecordValue@@@1@@Z 1003928b f   RecordSet.obj
 0001:0003828b       __ehhandler$??0?$treenode@V?$hashelement@Vword@svutil@@PAVRecordValue@@@svutil@@@svutil@@QAE@ABV01@@Z 1003928b f   RecordSet.obj
 0001:000382a0       $L47956                    100392a0 f   RecordSet.obj
 0001:000382a0       $L48133                    100392a0 f   RecordSet.obj
 0001:000382a0       $L50859                    100392a0 f   RecordSet.obj
 0001:000382a9       $L47960                    100392a9 f   RecordSet.obj
 0001:000382a9       $L50879                    100392a9 f   RecordSet.obj
 0001:000382a9       $L48137                    100392a9 f   RecordSet.obj
 0001:000382b2       __ehhandler$?_Xlen@?$vector@PAVDataType@@V?$allocator@PAVDataType@@@std@@@std@@IBEXXZ 100392b2 f   RecordSet.obj
 0001:000382b2       __ehhandler$?_Xlen@?$vector@PAV?$hashnode@Vword@svutil@@PAVRecordValue@@@svutil@@V?$allocator@PAV?$hashnode@Vword@svutil@@PAVRecordValue@@@svutil@@@std@@@std@@IBEXXZ 100392b2 f   RecordSet.obj
 0001:000382b2       __ehhandler$?_Incsize@?$list@PAVRecord@@V?$allocator@PAVRecord@@@std@@@std@@IAEXI@Z 100392b2 f   RecordSet.obj
 0001:000382c0       $L51068                    100392c0 f   RecordSet.obj
 0001:000382c0       $L52071                    100392c0 f   RecordSet.obj
 0001:000382c8       __ehhandler$?find@?$hashnode@Vword@svutil@@PAVRecordValue@@@svutil@@QAE_NABVword@2@PAPAV?$hashelement@Vword@svutil@@PAVRecordValue@@@2@@Z 100392c8 f   RecordSet.obj
 0001:000382c8       __ehhandler$?insert@?$hashnode@Vword@svutil@@PAVRecordValue@@@svutil@@QAEAAV?$hashelement@Vword@svutil@@PAVRecordValue@@@2@ABVword@2@ABQAVRecordValue@@@Z 100392c8 f   RecordSet.obj
 0001:000382e0       $L52323                    100392e0 f   RecordSet.obj
 0001:000382ec       $L52324                    100392ec f   RecordSet.obj
 0001:000382f7       __ehhandler$??0RecordType@@QAE@XZ 100392f7 f   RecordSet.obj
 0001:00038310       $L52445                    10039310 f   RecordSet.obj
 0001:00038318       __ehhandler$??0RecordSet@@QAE@XZ 10039318 f   RecordSet.obj
 0001:00038330       $L52542                    10039330 f   RecordSet.obj
 0001:00038339       $L52543                    10039339 f   RecordSet.obj
 0001:00038353       $L52546                    10039353 f   RecordSet.obj
 0001:0003835b       __ehhandler$?FindLabelInresMap@@YA?AV?$basic_string@DU?$char_traits@D@std@@V?$allocator@D@2@@std@@V12@PAVStringMap@@@Z 1003935b f   RecordSet.obj
 0001:00038370       $L53001                    10039370 f   RecordSet.obj
 0001:0003837b       __ehhandler$??1Record@@QAE@XZ 1003937b f   RecordSet.obj
 0001:00038390       $L52579                    10039390 f   RecordSet.obj
 0001:00038390       $L53050                    10039390 f   RecordSet.obj
 0001:00038398       __ehhandler$??1?$hashtable@Vword@svutil@@PAVRecordValue@@@svutil@@QAE@XZ 10039398 f   RecordSet.obj
 0001:00038398       __ehhandler$??0?$hashtable@Vword@svutil@@PAVRecordValue@@@svutil@@QAE@XZ 10039398 f   RecordSet.obj
 0001:000383b0       $L50415                    100393b0 f   RecordSet.obj
 0001:000383b0       $L53148                    100393b0 f   RecordSet.obj
 0001:000383bb       __ehhandler$?insert@?$hashtable@Vword@svutil@@PAVRecordValue@@@svutil@@QAEAAPAVRecordValue@@ABVword@2@ABQAV3@@Z 100393bb f   RecordSet.obj
 0001:000383bb       __ehhandler$??$CreateNode@V?$hashelement@Vword@svutil@@PAVRecordValue@@@svutil@@@?$sorttree@V?$hashelement@Vword@svutil@@PAVRecordValue@@@svutil@@@svutil@@SAPAV?$treenode@V?$hashelement@Vword@svutil@@PAVRecordValue@@@svutil@@@1@ABV?$hashelement@Vword@svutil@@PAVRecordValue@@@1@@Z 100393bb f   RecordSet.obj
 0001:000383d0       $L53375                    100393d0 f   RecordSet.obj
 0001:000383d8       $L53376                    100393d8 f   RecordSet.obj
 0001:000383e3       __ehhandler$??1RecordSet@@QAE@XZ 100393e3 f   RecordSet.obj
 0001:000383f0       $L53700                    100393f0 f   RecordSet.obj
 0001:000383f9       $L53701                    100393f9 f   RecordSet.obj
 0001:00038407       $L53702                    10039407 f   RecordSet.obj
 0001:00038410       $L53705                    10039410 f   RecordSet.obj
 0001:0003841c       $L53706                    1003941c f   RecordSet.obj
 0001:00038427       __ehhandler$?CreateObjectByRawData@RecordSet@@QAE_NPAVStringMap@@PBDI@Z 10039427 f   RecordSet.obj
 0001:00038440       __ehhandler$?CreateObjectByRawData@RecordType@@QAE_NPBDI@Z 10039440 f   RecordType.obj
 0001:00038450       $L45401                    10039450 f   Resource.obj
 0001:00038450       $L45383                    10039450 f   Resource.obj
 0001:0003845b       __ehhandler$??0Resource@@QAE@XZ 1003945b f   Resource.obj
 0001:0003845b       __ehhandler$??1Resource@@QAE@XZ 1003945b f   Resource.obj
 0001:00038470       __ehhandler$?CreateObjectByRawData@Resource@@UAEHPBDI@Z 10039470 f   Resource.obj
 0001:00038480       $L49422                    10039480 f   Resource.obj
 0001:00038489       $L49432                    10039489 f   Resource.obj
 0001:00038492       __ehhandler$?erase@?$_Tree@V?$_Tset_traits@V?$basic_string@DU?$char_traits@D@std@@V?$allocator@D@2@@std@@U?$less@V?$basic_string@DU?$char_traits@D@std@@V?$allocator@D@2@@std@@@2@V?$allocator@V?$basic_string@DU?$char_traits@D@std@@V?$allocator@D@2@@std@@@2@$0A@@std@@@std@@QAE?AViterator@12@V312@@Z 10039492 f   Resource.obj
 0001:000384a0       $L48964                    100394a0 f   ResourceAPI.obj
 0001:000384a8       __ehhandler$?PutLanguageType@Resource@@QAEXVword@svutil@@@Z 100394a8 f   ResourceAPI.obj
 0001:000384c0       $L48994                    100394c0 f   ResourceAPI.obj
 0001:000384c9       $L48995                    100394c9 f   ResourceAPI.obj
 0001:000384d2       $L48996                    100394d2 f   ResourceAPI.obj
 0001:000384db       __ehhandler$?Cache_LoadResourceByKeys@@YAPAXV?$basic_string@DU?$char_traits@D@std@@V?$allocator@D@2@@std@@0@Z 100394db f   ResourceAPI.obj
 0001:000384f0       $L49023                    100394f0 f   ResourceAPI.obj
 0001:000384f9       $L49024                    100394f9 f   ResourceAPI.obj
 0001:00038502       $L49025                    10039502 f   ResourceAPI.obj
 0001:0003850b       $L49026                    1003950b f   ResourceAPI.obj
 0001:00038516       $L49027                    10039516 f   ResourceAPI.obj
 0001:00038521       $L49029                    10039521 f   ResourceAPI.obj
 0001:0003852f       __ehhandler$?LoadResourceByKeys@@YAPAXV?$basic_string@DU?$char_traits@D@std@@V?$allocator@D@2@@std@@00@Z 1003952f f   ResourceAPI.obj
 0001:00038540       $L49105                    10039540 f   ResourceAPI.obj
 0001:00038549       __ehhandler$?Cache_LoadResource@@YAPAXV?$basic_string@DU?$char_traits@D@std@@V?$allocator@D@2@@std@@@Z 10039549 f   ResourceAPI.obj
 0001:00038560       $L49130                    10039560 f   ResourceAPI.obj
 0001:00038569       $L49131                    10039569 f   ResourceAPI.obj
 0001:00038572       $L49132                    10039572 f   ResourceAPI.obj
 0001:0003857d       $L49134                    1003957d f   ResourceAPI.obj
 0001:0003858b       __ehhandler$?LoadResource@@YAPAXV?$basic_string@DU?$char_traits@D@std@@V?$allocator@D@2@@std@@0@Z 1003958b f   ResourceAPI.obj
 0001:000385a0       $L49185                    100395a0 f   ResourceAPI.obj
 0001:000385a9       $L49186                    100395a9 f   ResourceAPI.obj
 0001:000385b4       __ehhandler$?CreateResource@@YAPAXV?$basic_string@DU?$char_traits@D@std@@V?$allocator@D@2@@std@@@Z 100395b4 f   ResourceAPI.obj
 0001:000385c0       __ehhandler$?EnumResourceAttrib@@YA_NPAXAAV?$list@Usv_pair@@V?$allocator@Usv_pair@@@std@@@std@@@Z 100395c0 f   ResourceAPI.obj
 0001:000385d0       $L49244                    100395d0 f   ResourceAPI.obj
 0001:000385d9       $L49245                    100395d9 f   ResourceAPI.obj
 0001:000385e2       $L49246                    100395e2 f   ResourceAPI.obj
 0001:000385ed       __ehhandler$?DeleteResource@@YA_NV?$basic_string@DU?$char_traits@D@std@@V?$allocator@D@2@@std@@0@Z 100395ed f   ResourceAPI.obj
 0001:00038600       $L49294                    10039600 f   ResourceAPI.obj
 0001:00038609       $L49295                    10039609 f   ResourceAPI.obj
 0001:00038614       $L49296                    10039614 f   ResourceAPI.obj
 0001:0003861d       $L49297                    1003961d f   ResourceAPI.obj
 0001:00038628       $L49299                    10039628 f   ResourceAPI.obj
 0001:00038633       __ehhandler$?SubmitResource@@YA_NPAXV?$basic_string@DU?$char_traits@D@std@@V?$allocator@D@2@@std@@@Z 10039633 f   ResourceAPI.obj
 0001:00038640       $L49741                    10039640 f   ResourceAPI.obj
 0001:00038649       $L49742                    10039649 f   ResourceAPI.obj
 0001:00038654       $L49744                    10039654 f   ResourceAPI.obj
 0001:00038662       __ehhandler$?GetAllResourceInfo@@YA_NAAV?$list@Usv_pair@@V?$allocator@Usv_pair@@@std@@@std@@V?$basic_string@DU?$char_traits@D@std@@V?$allocator@D@2@@2@@Z 10039662 f   ResourceAPI.obj
 0001:00038670       __ehhandler$?CloseResource@@YA_NAAPAX@Z 10039670 f   ResourceAPI.obj
 0001:00038680       __ehhandler$?CreateObjectByRawData@CommonData@@UAEHPBDI@Z 10039680 f   Section.obj
 0001:00038690       $L47932                    10039690 f   Section.obj
 0001:00038690       $L47945                    10039690 f   Section.obj
 0001:00038690       $L50892                    10039690 f   Section.obj
 0001:00038698       __ehhandler$??1?$hashnode@Vword@svutil@@PAVCommonData@@@svutil@@QAE@XZ 10039698 f   Section.obj
 0001:00038698       __ehhandler$??0?$hashelement@Vword@svutil@@PAVCommonData@@@svutil@@QAE@ABVword@1@ABQAVCommonData@@@Z 10039698 f   Section.obj
 0001:00038698       __ehhandler$??0?$hashelement@Vword@svutil@@PAVCommonData@@@svutil@@QAE@ABVword@1@@Z 10039698 f   Section.obj
 0001:000386b0       $L48044                    100396b0 f   Section.obj
 0001:000386b9       $L48048                    100396b9 f   Section.obj
 0001:000386c2       __ehhandler$?_Xlen@?$vector@PAV?$hashnode@Vword@svutil@@PAVCommonData@@@svutil@@V?$allocator@PAV?$hashnode@Vword@svutil@@PAVCommonData@@@svutil@@@std@@@std@@IBEXXZ 100396c2 f   Section.obj
 0001:000386d0       $L48141                    100396d0 f   Section.obj
 0001:000386d0       $L48178                    100396d0 f   Section.obj
 0001:000386d8       __ehhandler$??O?$treenode@V?$hashelement@Vword@svutil@@PAVCommonData@@@svutil@@@svutil@@QAE_NV01@@Z 100396d8 f   Section.obj
 0001:000386d8       __ehhandler$??M?$treenode@V?$hashelement@Vword@svutil@@PAVCommonData@@@svutil@@@svutil@@QAE_NV01@@Z 100396d8 f   Section.obj
 0001:000386f0       $L48490                    100396f0 f   Section.obj
 0001:000386f0       $L48214                    100396f0 f   Section.obj
 0001:000386fb       __ehhandler$??0?$treenode@V?$hashelement@Vword@svutil@@PAVCommonData@@@svutil@@@svutil@@QAE@ABV01@@Z 100396fb f   Section.obj
 0001:000386fb       __ehhandler$??0?$treenode@V?$hashelement@Vword@svutil@@PAVCommonData@@@svutil@@@svutil@@QAE@ABV?$hashelement@Vword@svutil@@PAVCommonData@@@1@@Z 100396fb f   Section.obj
 0001:00038710       $L50146                    10039710 f   Section.obj
 0001:00038710       $L52680                    10039710 f   Section.obj
 0001:0003871b       __ehhandler$??$CreateNode@V?$hashelement@Vword@svutil@@PAVCommonData@@@svutil@@@?$sorttree@V?$hashelement@Vword@svutil@@PAVCommonData@@@svutil@@@svutil@@SAPAV?$treenode@V?$hashelement@Vword@svutil@@PAVCommonData@@@svutil@@@1@ABV?$hashelement@Vword@svutil@@PAVCommonData@@@1@@Z 1003971b f   Section.obj
 0001:0003871b       __ehhandler$?insert@?$hashtable@Vword@svutil@@PAVCommonData@@@svutil@@QAEAAPAVCommonData@@ABVword@2@ABQAV3@@Z 1003971b f   Section.obj
 0001:00038730       $L50963                    10039730 f   Section.obj
 0001:00038730       $L50570                    10039730 f   Section.obj
 0001:00038738       __ehhandler$?insert@?$hashnode@Vword@svutil@@PAVCommonData@@@svutil@@QAEAAV?$hashelement@Vword@svutil@@PAVCommonData@@@2@ABVword@2@ABQAVCommonData@@@Z 10039738 f   Section.obj
 0001:00038738       __ehhandler$?find@?$hashnode@Vword@svutil@@PAVCommonData@@@svutil@@QAE_NABVword@2@PAPAV?$hashelement@Vword@svutil@@PAVCommonData@@@2@@Z 10039738 f   Section.obj
 0001:00038750       $L52075                    10039750 f   Section.obj
 0001:00038750       $L52582                    10039750 f   Section.obj
 0001:00038758       __ehhandler$??0?$hashtable@Vword@svutil@@PAVCommonData@@@svutil@@QAE@XZ 10039758 f   Section.obj
 0001:00038758       __ehhandler$??1?$hashtable@Vword@svutil@@PAVCommonData@@@svutil@@QAE@XZ 10039758 f   Section.obj
 0001:00038770       $L52500                    10039770 f   Section.obj
 0001:0003877b       $L52501                    1003977b f   Section.obj
 0001:00038786       $L52502                    10039786 f   Section.obj
 0001:00038791       __ehhandler$??1Section@@QAE@XZ 10039791 f   Section.obj
 0001:000387a0       $L52895                    100397a0 f   Section.obj
 0001:000387ab       $L52896                    100397ab f   Section.obj
 0001:000387b6       $L52897                    100397b6 f   Section.obj
 0001:000387c1       __ehhandler$??0Section@@QAE@XZ 100397c1 f   Section.obj
 0001:000387d0       $L53017                    100397d0 f   Section.obj
 0001:000387d8       __ehhandler$?CreateObjectByRawData@Section@@UAEHPBDI@Z 100397d8 f   Section.obj
 0001:000387f0       $L73150                    100397f0 f   ShareMemFile.obj
 0001:000387f9       $L73160                    100397f9 f   ShareMemFile.obj
 0001:00038802       __ehhandler$?erase@?$_Tree@V?$_Tmap_traits@V?$basic_string@DU?$char_traits@D@std@@V?$allocator@D@2@@std@@KU?$less@V?$basic_string@DU?$char_traits@D@std@@V?$allocator@D@2@@std@@@2@V?$allocator@U?$pair@$$CBV?$basic_string@DU?$char_traits@D@std@@V?$allocator@D@2@@std@@K@std@@@2@$0A@@std@@@std@@QAE?AViterator@12@V312@@Z 10039802 f   ShareMemFile.obj
 0001:00038810       $L22541                    10039810 f   stlini.obj
 0001:00038821       __ehhandler$?_Buynode@?$_Tree@V?$_Tmap_traits@V?$basic_string@DU?$char_traits@D@std@@V?$allocator@D@2@@std@@V12@UStlIniCompareStringNoCase@@V?$allocator@U?$pair@$$CBV?$basic_string@DU?$char_traits@D@std@@V?$allocator@D@2@@std@@V12@@std@@@2@$0A@@std@@@std@@IAEPAU_Node@?$_Tree_nod@V?$_Tmap_traits@V?$basic_string@DU?$char_traits@D@std@@V?$allocator@D@2@@std@@V12@UStlIniCompareStringNoCase@@V?$allocator@U?$pair@$$CBV?$basic_string@DU?$char_traits@D@std@@V?$allocator@D@2@@std@@V12@@std@@@2@$0A@@std@@@2@PAU342@00ABU?$pair@$$CBV?$basic_string@DU?$char_traits@D@std@@V?$allocator@D@2@@std@@V12@@2@D@Z 10039821 f   stlini.obj
 0001:00038830       $L26869                    10039830 f   stlini.obj
 0001:00038830       $L22974                    10039830 f   stlini.obj
 0001:00038839       $L26889                    10039839 f   stlini.obj
 0001:00038839       $L22994                    10039839 f   stlini.obj
 0001:00038842       __ehhandler$?_Insert@?$_Tree@V?$_Tmap_traits@V?$basic_string@DU?$char_traits@D@std@@V?$allocator@D@2@@std@@V?$map@V?$basic_string@DU?$char_traits@D@std@@V?$allocator@D@2@@std@@V12@UStlIniCompareStringNoCase@@V?$allocator@U?$pair@$$CBV?$basic_string@DU?$char_traits@D@std@@V?$allocator@D@2@@std@@V12@@std@@@2@@2@UStlIniCompareStringNoCase@@V?$allocator@U?$pair@$$CBV?$basic_string@DU?$char_traits@D@std@@V?$allocator@D@2@@std@@V?$map@V?$basic_string@DU?$char_traits@D@std@@V?$allocator@D@2@@std@@V12@UStlIniCompareStringNoCase@@V?$allocator@U?$pair@$$CBV?$basic_string@DU?$char_traits@D@std@@V?$allocator@D@2@@std@@V12@@std@@@2@@2@@std@@@2@$0A@@std@@@std@@IAE?AViterator@12@_NPAU_Node@?$_Tree_nod@V?$_Tmap_traits@V?$basic_string@DU?$char_traits@D@std@@V?$allocator@D@2@@std@@V?$map@V?$basic_string@DU?$char_traits@D@std@@V?$allocator@D@2@@std@@V12@UStlIniCompareStringNoCase@@V?$allocator@U?$pair@$$CBV?$basic_string@DU?$char_traits@D@std@@V?$allocator@D@2@@std@@V12@@std@@@2@@2@UStlIniCompareStringNoCase@@V?$allocator@U?$pair@$$CBV?$basic_string@DU?$char_traits@D@std@@V?$allocator@D@2@@std@@V?$map@V?$basic_string@DU?$char_traits@D@std@@V?$allocator@D@2@@std@@V12@UStlIniCompareStringNoCase@@V?$allocator@U?$pair@$$CBV?$basic_string@DU?$char_traits@D@std@@V?$allocator@D@2@@std@@V12@@std@@@2@@2@@std@@@2@$0A@@std@@@2@ABU?$pair@$$CBV?$basic_string@DU?$char_traits@D@std@@V?$allocator@D@2@@std@@V?$map@V?$basic_string@DU?$char_traits@D@std@@V?$allocator@D@2@@std@@V12@UStlIniCompareStringNoCase@@V?$allocator@U?$pair@$$CBV?$basic_string@DU?$char_traits@D@std@@V?$allocator@D@2@@std@@V12@@std@@@2@@2@@2@@Z 10039842 f   stlini.obj
 0001:00038842       __ehhandler$?_Insert@?$_Tree@V?$_Tmap_traits@V?$basic_string@DU?$char_traits@D@std@@V?$allocator@D@2@@std@@V12@UStlIniCompareStringNoCase@@V?$allocator@U?$pair@$$CBV?$basic_string@DU?$char_traits@D@std@@V?$allocator@D@2@@std@@V12@@std@@@2@$0A@@std@@@std@@IAE?AViterator@12@_NPAU_Node@?$_Tree_nod@V?$_Tmap_traits@V?$basic_string@DU?$char_traits@D@std@@V?$allocator@D@2@@std@@V12@UStlIniCompareStringNoCase@@V?$allocator@U?$pair@$$CBV?$basic_string@DU?$char_traits@D@std@@V?$allocator@D@2@@std@@V12@@std@@@2@$0A@@std@@@2@ABU?$pair@$$CBV?$basic_string@DU?$char_traits@D@std@@V?$allocator@D@2@@std@@V12@@2@@Z 10039842 f   stlini.obj
 0001:00038850       $L23397                    10039850 f   stlini.obj
 0001:00038859       $L23400                    10039859 f   stlini.obj
 0001:00038873       __ehhandler$?GetIniSetting@@YA?AV?$basic_string@DU?$char_traits@D@std@@V?$allocator@D@2@@std@@AAV?$map@V?$basic_string@DU?$char_traits@D@std@@V?$allocator@D@2@@std@@V?$map@V?$basic_string@DU?$char_traits@D@std@@V?$allocator@D@2@@std@@V12@UStlIniCompareStringNoCase@@V?$allocator@U?$pair@$$CBV?$basic_string@DU?$char_traits@D@std@@V?$allocator@D@2@@std@@V12@@std@@@2@@2@UStlIniCompareStringNoCase@@V?$allocator@U?$pair@$$CBV?$basic_string@DU?$char_traits@D@std@@V?$allocator@D@2@@std@@V?$map@V?$basic_string@DU?$char_traits@D@std@@V?$allocator@D@2@@std@@V12@UStlIniCompareStringNoCase@@V?$allocator@U?$pair@$$CBV?$basic_string@DU?$char_traits@D@std@@V?$allocator@D@2@@std@@V12@@std@@@2@@2@@std@@@2@@2@PBD11@Z 10039873 f   stlini.obj
 0001:00038880       $L23653                    10039880 f   stlini.obj
 0001:0003888c       __ehhandler$?SaveIni@@YAXAAV?$map@V?$basic_string@DU?$char_traits@D@std@@V?$allocator@D@2@@std@@V?$map@V?$basic_string@DU?$char_traits@D@std@@V?$allocator@D@2@@std@@V12@UStlIniCompareStringNoCase@@V?$allocator@U?$pair@$$CBV?$basic_string@DU?$char_traits@D@std@@V?$allocator@D@2@@std@@V12@@std@@@2@@2@UStlIniCompareStringNoCase@@V?$allocator@U?$pair@$$CBV?$basic_string@DU?$char_traits@D@std@@V?$allocator@D@2@@std@@V?$map@V?$basic_string@DU?$char_traits@D@std@@V?$allocator@D@2@@std@@V12@UStlIniCompareStringNoCase@@V?$allocator@U?$pair@$$CBV?$basic_string@DU?$char_traits@D@std@@V?$allocator@D@2@@std@@V12@@std@@@2@@2@@std@@@2@@std@@PBD@Z 1003988c f   stlini.obj
 0001:000388a0       __ehhandler$?_Copy@?$_Tree@V?$_Tmap_traits@V?$basic_string@DU?$char_traits@D@std@@V?$allocator@D@2@@std@@V12@UStlIniCompareStringNoCase@@V?$allocator@U?$pair@$$CBV?$basic_string@DU?$char_traits@D@std@@V?$allocator@D@2@@std@@V12@@std@@@2@$0A@@std@@@std@@IAEPAU_Node@?$_Tree_nod@V?$_Tmap_traits@V?$basic_string@DU?$char_traits@D@std@@V?$allocator@D@2@@std@@V12@UStlIniCompareStringNoCase@@V?$allocator@U?$pair@$$CBV?$basic_string@DU?$char_traits@D@std@@V?$allocator@D@2@@std@@V12@@std@@@2@$0A@@std@@@2@PAU342@0@Z 100398a0 f   stlini.obj
 0001:000388b0       __ehhandler$??0?$_Tree@V?$_Tmap_traits@V?$basic_string@DU?$char_traits@D@std@@V?$allocator@D@2@@std@@V12@UStlIniCompareStringNoCase@@V?$allocator@U?$pair@$$CBV?$basic_string@DU?$char_traits@D@std@@V?$allocator@D@2@@std@@V12@@std@@@2@$0A@@std@@@std@@QAE@ABV01@@Z 100398b0 f   stlini.obj
 0001:000388c0       $L26252                    100398c0 f   stlini.obj
 0001:000388c9       __ehhandler$??1?$pair@V?$basic_string@DU?$char_traits@D@std@@V?$allocator@D@2@@std@@V?$map@V?$basic_string@DU?$char_traits@D@std@@V?$allocator@D@2@@std@@V12@UStlIniCompareStringNoCase@@V?$allocator@U?$pair@$$CBV?$basic_string@DU?$char_traits@D@std@@V?$allocator@D@2@@std@@V12@@std@@@2@@2@@std@@QAE@XZ 100398c9 f   stlini.obj
 0001:000388e0       $L26799                    100398e0 f   stlini.obj
 0001:000388e0       $L26779                    100398e0 f   stlini.obj
 0001:000388e0       $L26763                    100398e0 f   stlini.obj
 0001:000388e9       __ehhandler$??0?$pair@V?$basic_string@DU?$char_traits@D@std@@V?$allocator@D@2@@std@@V?$map@V?$basic_string@DU?$char_traits@D@std@@V?$allocator@D@2@@std@@V12@UStlIniCompareStringNoCase@@V?$allocator@U?$pair@$$CBV?$basic_string@DU?$char_traits@D@std@@V?$allocator@D@2@@std@@V12@@std@@@2@@2@@std@@QAE@ABV?$basic_string@DU?$char_traits@D@std@@V?$allocator@D@2@@1@ABV?$map@V?$basic_string@DU?$char_traits@D@std@@V?$allocator@D@2@@std@@V12@UStlIniCompareStringNoCase@@V?$allocator@U?$pair@$$CBV?$basic_string@DU?$char_traits@D@std@@V?$allocator@D@2@@std@@V12@@std@@@2@@1@@Z 100398e9 f   stlini.obj
 0001:000388e9       __ehhandler$??0?$pair@$$CBV?$basic_string@DU?$char_traits@D@std@@V?$allocator@D@2@@std@@V?$map@V?$basic_string@DU?$char_traits@D@std@@V?$allocator@D@2@@std@@V12@UStlIniCompareStringNoCase@@V?$allocator@U?$pair@$$CBV?$basic_string@DU?$char_traits@D@std@@V?$allocator@D@2@@std@@V12@@std@@@2@@2@@std@@QAE@ABU01@@Z 100398e9 f   stlini.obj
 0001:000388e9       __ehhandler$??$?0V?$basic_string@DU?$char_traits@D@std@@V?$allocator@D@2@@std@@V?$map@V?$basic_string@DU?$char_traits@D@std@@V?$allocator@D@2@@std@@V12@UStlIniCompareStringNoCase@@V?$allocator@U?$pair@$$CBV?$basic_string@DU?$char_traits@D@std@@V?$allocator@D@2@@std@@V12@@std@@@2@@1@@?$pair@$$CBV?$basic_string@DU?$char_traits@D@std@@V?$allocator@D@2@@std@@V?$map@V?$basic_string@DU?$char_traits@D@std@@V?$allocator@D@2@@std@@V12@UStlIniCompareStringNoCase@@V?$allocator@U?$pair@$$CBV?$basic_string@DU?$char_traits@D@std@@V?$allocator@D@2@@std@@V12@@std@@@2@@2@@std@@QAE@ABU?$pair@V?$basic_string@DU?$char_traits@D@std@@V?$allocator@D@2@@std@@V?$map@V?$basic_string@DU?$char_traits@D@std@@V?$allocator@D@2@@std@@V12@UStlIniCompareStringNoCase@@V?$allocator@U?$pair@$$CBV?$basic_string@DU?$char_traits@D@std@@V?$allocator@D@2@@std@@V12@@std@@@2@@2@@1@@Z 100398e9 f   stlini.obj
 0001:00038900       $L26829                    10039900 f   stlini.obj
 0001:00038911       __ehhandler$?_Buynode@?$_Tree@V?$_Tmap_traits@V?$basic_string@DU?$char_traits@D@std@@V?$allocator@D@2@@std@@V?$map@V?$basic_string@DU?$char_traits@D@std@@V?$allocator@D@2@@std@@V12@UStlIniCompareStringNoCase@@V?$allocator@U?$pair@$$CBV?$basic_string@DU?$char_traits@D@std@@V?$allocator@D@2@@std@@V12@@std@@@2@@2@UStlIniCompareStringNoCase@@V?$allocator@U?$pair@$$CBV?$basic_string@DU?$char_traits@D@std@@V?$allocator@D@2@@std@@V?$map@V?$basic_string@DU?$char_traits@D@std@@V?$allocator@D@2@@std@@V12@UStlIniCompareStringNoCase@@V?$allocator@U?$pair@$$CBV?$basic_string@DU?$char_traits@D@std@@V?$allocator@D@2@@std@@V12@@std@@@2@@2@@std@@@2@$0A@@std@@@std@@IAEPAU_Node@?$_Tree_nod@V?$_Tmap_traits@V?$basic_string@DU?$char_traits@D@std@@V?$allocator@D@2@@std@@V?$map@V?$basic_string@DU?$char_traits@D@std@@V?$allocator@D@2@@std@@V12@UStlIniCompareStringNoCase@@V?$allocator@U?$pair@$$CBV?$basic_string@DU?$char_traits@D@std@@V?$allocator@D@2@@std@@V12@@std@@@2@@2@UStlIniCompareStringNoCase@@V?$allocator@U?$pair@$$CBV?$basic_string@DU?$char_traits@D@std@@V?$allocator@D@2@@std@@V?$map@V?$basic_string@DU?$char_traits@D@std@@V?$allocator@D@2@@std@@V12@UStlIniCompareStringNoCase@@V?$allocator@U?$pair@$$CBV?$basic_string@DU?$char_traits@D@std@@V?$allocator@D@2@@std@@V12@@std@@@2@@2@@std@@@2@$0A@@std@@@2@PAU342@00ABU?$pair@$$CBV?$basic_string@DU?$char_traits@D@std@@V?$allocator@D@2@@std@@V?$map@V?$basic_string@DU?$char_traits@D@std@@V?$allocator@D@2@@std@@V12@UStlIniCompareStringNoCase@@V?$allocator@U?$pair@$$CBV?$basic_string@DU?$char_traits@D@std@@V?$allocator@D@2@@std@@V12@@std@@@2@@2@@2@D@Z 10039911 f   stlini.obj
 0001:00038920       $L27820                    10039920 f   stlini.obj
 0001:0003892b       $L27821                    1003992b f   stlini.obj
 0001:00038937       $L27822                    10039937 f   stlini.obj
 0001:00038943       $L27823                    10039943 f   stlini.obj
 0001:0003894e       $L27824                    1003994e f   stlini.obj
 0001:00038959       $L27825                    10039959 f   stlini.obj
 0001:00038965       $L27826                    10039965 f   stlini.obj
 0001:00038970       $L27827                    10039970 f   stlini.obj
 0001:0003897b       $L27829                    1003997b f   stlini.obj
 0001:00038984       $L27830                    10039984 f   stlini.obj
 0001:0003898d       $L27831                    1003998d f   stlini.obj
 0001:00038995       $L27832                    10039995 f   stlini.obj
 0001:000389a0       __ehhandler$?PutIniSetting@@YAXAAV?$map@V?$basic_string@DU?$char_traits@D@std@@V?$allocator@D@2@@std@@V?$map@V?$basic_string@DU?$char_traits@D@std@@V?$allocator@D@2@@std@@V12@UStlIniCompareStringNoCase@@V?$allocator@U?$pair@$$CBV?$basic_string@DU?$char_traits@D@std@@V?$allocator@D@2@@std@@V12@@std@@@2@@2@UStlIniCompareStringNoCase@@V?$allocator@U?$pair@$$CBV?$basic_string@DU?$char_traits@D@std@@V?$allocator@D@2@@std@@V?$map@V?$basic_string@DU?$char_traits@D@std@@V?$allocator@D@2@@std@@V12@UStlIniCompareStringNoCase@@V?$allocator@U?$pair@$$CBV?$basic_string@DU?$char_traits@D@std@@V?$allocator@D@2@@std@@V12@@std@@@2@@2@@std@@@2@@std@@PBD11@Z 100399a0 f   stlini.obj
 0001:000389b0       __ehhandler$?_Copy@?$_Tree@V?$_Tmap_traits@V?$basic_string@DU?$char_traits@D@std@@V?$allocator@D@2@@std@@V?$map@V?$basic_string@DU?$char_traits@D@std@@V?$allocator@D@2@@std@@V12@UStlIniCompareStringNoCase@@V?$allocator@U?$pair@$$CBV?$basic_string@DU?$char_traits@D@std@@V?$allocator@D@2@@std@@V12@@std@@@2@@2@UStlIniCompareStringNoCase@@V?$allocator@U?$pair@$$CBV?$basic_string@DU?$char_traits@D@std@@V?$allocator@D@2@@std@@V?$map@V?$basic_string@DU?$char_traits@D@std@@V?$allocator@D@2@@std@@V12@UStlIniCompareStringNoCase@@V?$allocator@U?$pair@$$CBV?$basic_string@DU?$char_traits@D@std@@V?$allocator@D@2@@std@@V12@@std@@@2@@2@@std@@@2@$0A@@std@@@std@@IAEPAU_Node@?$_Tree_nod@V?$_Tmap_traits@V?$basic_string@DU?$char_traits@D@std@@V?$allocator@D@2@@std@@V?$map@V?$basic_string@DU?$char_traits@D@std@@V?$allocator@D@2@@std@@V12@UStlIniCompareStringNoCase@@V?$allocator@U?$pair@$$CBV?$basic_string@DU?$char_traits@D@std@@V?$allocator@D@2@@std@@V12@@std@@@2@@2@UStlIniCompareStringNoCase@@V?$allocator@U?$pair@$$CBV?$basic_string@DU?$char_traits@D@std@@V?$allocator@D@2@@std@@V?$map@V?$basic_string@DU?$char_traits@D@std@@V?$allocator@D@2@@std@@V12@UStlIniCompareStringNoCase@@V?$allocator@U?$pair@$$CBV?$basic_string@DU?$char_traits@D@std@@V?$allocator@D@2@@std@@V12@@std@@@2@@2@@std@@@2@$0A@@std@@@2@PAU342@0@Z 100399b0 f   stlini.obj
 0001:000389c0       __ehhandler$??0?$_Tree@V?$_Tmap_traits@V?$basic_string@DU?$char_traits@D@std@@V?$allocator@D@2@@std@@V?$map@V?$basic_string@DU?$char_traits@D@std@@V?$allocator@D@2@@std@@V12@UStlIniCompareStringNoCase@@V?$allocator@U?$pair@$$CBV?$basic_string@DU?$char_traits@D@std@@V?$allocator@D@2@@std@@V12@@std@@@2@@2@UStlIniCompareStringNoCase@@V?$allocator@U?$pair@$$CBV?$basic_string@DU?$char_traits@D@std@@V?$allocator@D@2@@std@@V?$map@V?$basic_string@DU?$char_traits@D@std@@V?$allocator@D@2@@std@@V12@UStlIniCompareStringNoCase@@V?$allocator@U?$pair@$$CBV?$basic_string@DU?$char_traits@D@std@@V?$allocator@D@2@@std@@V12@@std@@@2@@2@@std@@@2@$0A@@std@@@std@@QAE@ABV01@@Z 100399c0 f   stlini.obj
 0001:000389d0       $L29620                    100399d0 f   stlini.obj
 0001:000389db       $L29621                    100399db f   stlini.obj
 0001:000389e7       $L29622                    100399e7 f   stlini.obj
 0001:000389f3       $L29623                    100399f3 f   stlini.obj
 0001:00038a12       __ehhandler$?LoadIni@@YA?AV?$map@V?$basic_string@DU?$char_traits@D@std@@V?$allocator@D@2@@std@@V?$map@V?$basic_string@DU?$char_traits@D@std@@V?$allocator@D@2@@std@@V12@UStlIniCompareStringNoCase@@V?$allocator@U?$pair@$$CBV?$basic_string@DU?$char_traits@D@std@@V?$allocator@D@2@@std@@V12@@std@@@2@@2@UStlIniCompareStringNoCase@@V?$allocator@U?$pair@$$CBV?$basic_string@DU?$char_traits@D@std@@V?$allocator@D@2@@std@@V?$map@V?$basic_string@DU?$char_traits@D@std@@V?$allocator@D@2@@std@@V12@UStlIniCompareStringNoCase@@V?$allocator@U?$pair@$$CBV?$basic_string@DU?$char_traits@D@std@@V?$allocator@D@2@@std@@V12@@std@@@2@@2@@std@@@2@@std@@PBD@Z 10039a12 f   stlini.obj
 0001:00038a20       __ehhandler$?GetRawData@StringMap@@UAEPADPADI@Z 10039a20 f   StringMap.obj
 0001:00038a30       $L47627                    10039a30 f   StringMap.obj
 0001:00038a38       __ehhandler$??0StringMap@@QAE@XZ 10039a38 f   StringMap.obj
 0001:00038a50       $L47770                    10039a50 f   StringMap.obj
 0001:00038a58       $L47771                    10039a58 f   StringMap.obj
 0001:00038a60       __ehhandler$?CreateObjectByRawData@StringMap@@UAEHPBDI@Z 10039a60 f   StringMap.obj
 0001:00038a70       __ehhandler$?BuildDynByData@@YA_NPBDIAAUsv_dyn@@@Z 10039a70 f   svdbapi.obj
 0001:00038a80       $L52226                    10039a80 f   svdbapi.obj
 0001:00038a89       $L52227                    10039a89 f   svdbapi.obj
 0001:00038a92       $L52228                    10039a92 f   svdbapi.obj
 0001:00038a9b       $L52229                    10039a9b f   svdbapi.obj
 0001:00038aa6       __ehhandler$?GetSVDYN@@YA_NV?$basic_string@DU?$char_traits@D@std@@V?$allocator@D@2@@std@@AAUsv_dyn@@00@Z 10039aa6 f   svdbapi.obj
 0001:00038ab0       $L52297                    10039ab0 f   svdbapi.obj
 0001:00038ab9       $L52298                    10039ab9 f   svdbapi.obj
 0001:00038ac2       $L52299                    10039ac2 f   svdbapi.obj
 0001:00038acb       $L52300                    10039acb f   svdbapi.obj
 0001:00038ad6       __ehhandler$?GetSVDYNNODisplayString@@YA_NV?$basic_string@DU?$char_traits@D@std@@V?$allocator@D@2@@std@@AAUsv_dyn@@00@Z 10039ad6 f   svdbapi.obj
 0001:00038ae0       $L52386                    10039ae0 f   svdbapi.obj
 0001:00038ae9       $L52387                    10039ae9 f   svdbapi.obj
 0001:00038af2       $L52388                    10039af2 f   svdbapi.obj
 0001:00038afb       $L52389                    10039afb f   svdbapi.obj
 0001:00038b06       $L52391                    10039b06 f   svdbapi.obj
 0001:00038b12       $L52393                    10039b12 f   svdbapi.obj
 0001:00038b20       __ehhandler$?QueryRecords@@YAPAXV?$basic_string@DU?$char_traits@D@std@@V?$allocator@D@2@@std@@H00@Z 10039b20 f   svdbapi.obj
 0001:00038b30       __ehhandler$?GetRecordSetMonitorID@@YA_NPAXAAV?$basic_string@DU?$char_traits@D@std@@V?$allocator@D@2@@std@@@Z 10039b30 f   svdbapi.obj
 0001:00038b40       $L52547                    10039b40 f   svdbapi.obj
 0001:00038b49       $L52546                    10039b49 f   svdbapi.obj
 0001:00038b52       __ehhandler$?GetRecordDisplayString@@YA_NPAXAAHAAV?$basic_string@DU?$char_traits@D@std@@V?$allocator@D@2@@std@@@Z 10039b52 f   svdbapi.obj
 0001:00038b60       $L52455                    10039b60 f   svdbapi.obj
 0001:00038b60       $L53940                    10039b60 f   svdbapi.obj
 0001:00038b60       $L52579                    10039b60 f   svdbapi.obj
 0001:00038b69       $L52580                    10039b69 f   svdbapi.obj
 0001:00038b69       $L52456                    10039b69 f   svdbapi.obj
 0001:00038b69       $L53941                    10039b69 f   svdbapi.obj
 0001:00038b72       $L52581                    10039b72 f   svdbapi.obj
 0001:00038b72       $L52457                    10039b72 f   svdbapi.obj
 0001:00038b72       $L53942                    10039b72 f   svdbapi.obj
 0001:00038b7b       $L52458                    10039b7b f   svdbapi.obj
 0001:00038b7b       $L53943                    10039b7b f   svdbapi.obj
 0001:00038b7b       $L52582                    10039b7b f   svdbapi.obj
 0001:00038b86       __ehhandler$?InsertTable@@YA_NV?$basic_string@DU?$char_traits@D@std@@V?$allocator@D@2@@std@@H00@Z 10039b86 f   svdbapi.obj
 0001:00038b86       __ehhandler$?DeleteRecords@@YA_NV?$basic_string@DU?$char_traits@D@std@@V?$allocator@D@2@@std@@VTTime@svutil@@00@Z 10039b86 f   svdbapi.obj
 0001:00038b86       __ehhandler$?QueryRecordCount@@YA_NV?$basic_string@DU?$char_traits@D@std@@V?$allocator@D@2@@std@@AAH00@Z 10039b86 f   svdbapi.obj
 0001:00038b90       $L52642                    10039b90 f   svdbapi.obj
 0001:00038b99       $L52643                    10039b99 f   svdbapi.obj
 0001:00038ba2       $L52644                    10039ba2 f   svdbapi.obj
 0001:00038bab       $L52645                    10039bab f   svdbapi.obj
 0001:00038bb6       __ehhandler$?DeleteTable@@YA_NV?$basic_string@DU?$char_traits@D@std@@V?$allocator@D@2@@std@@00@Z 10039bb6 f   svdbapi.obj
 0001:00038bc0       $L52702                    10039bc0 f   svdbapi.obj
 0001:00038bc9       $L52703                    10039bc9 f   svdbapi.obj
 0001:00038bd2       $L52704                    10039bd2 f   svdbapi.obj
 0001:00038bdb       $L52705                    10039bdb f   svdbapi.obj
 0001:00038be6       __ehhandler$?AppendRecord@@YA_NV?$basic_string@DU?$char_traits@D@std@@V?$allocator@D@2@@std@@PBDI00@Z 10039be6 f   svdbapi.obj
 0001:00038bf0       $L53711                    10039bf0 f   svdbapi.obj
 0001:00038bf9       __ehhandler$?MakeErrorRecord@@YA_NPADAAHHV?$basic_string@DU?$char_traits@D@std@@V?$allocator@D@2@@std@@@Z 10039bf9 f   svdbapi.obj
 0001:00038c10       $L53778                    10039c10 f   svdbapi.obj
 0001:00038c19       $L53779                    10039c19 f   svdbapi.obj
 0001:00038c22       $L53780                    10039c22 f   svdbapi.obj
