 svdb_comb

 Timestamp is 4ffe2c59 (Thu Jul 12 09:46:01 2012)

 Preferred load address is 00400000

 Start         Length     Name                   Class
 0001:00000000 0004eeb0H .text                   CODE
 0001:0004eeb0 00005a1eH .text$x                 CODE
 0001:000548d0 0000022bH .text$yc                CODE
 0001:00054b00 0000010aH .text$yd                CODE
 0002:00000000 00000368H .idata$5                DATA
 0002:00000370 00003cc5H .rdata                  DATA
 0002:00004038 0000006eH .rdata$debug            DATA
 0002:000040a8 00000044H .rdata$r                DATA
 0002:000040ec 00000004H .rtc$IAA                DATA
 0002:000040f0 00000004H .rtc$IMZ                DATA
 0002:000040f4 00000004H .rtc$IZZ                DATA
 0002:000040f8 00000004H .rtc$TAA                DATA
 0002:000040fc 00000004H .rtc$TMZ                DATA
 0002:00004100 00000004H .rtc$TZZ                DATA
 0002:00004104 00007ac0H .xdata$x                DATA
 0002:0000bbc4 0000008cH .idata$2                DATA
 0002:0000bc50 00000014H .idata$3                DATA
 0002:0000bc64 00000368H .idata$4                DATA
 0002:0000bfcc 00001c9aH .idata$6                DATA
 0002:0000dc66 00000000H .edata                  DATA
 0003:00000000 00000004H .CRT$XCA                DATA
 0003:00000004 00000004H .CRT$XCAA               DATA
 0003:00000008 00000048H .CRT$XCU                DATA
 0003:00000050 00000004H .CRT$XCZ                DATA
 0003:00000054 00000004H .CRT$XIA                DATA
 0003:00000058 00000004H .CRT$XIZ                DATA
 0003:00000060 0000023cH .data                   DATA
 0003:000002a0 0000030cH .bss                    DATA
 0004:00000000 00000080H .siteviewSvdbAlreadyRunSignal DATA

  Address         Publics by Value              Rva+Base     Lib:Object

 0000:00000000       ___safe_se_handler_table   00000000     <absolute>
 0000:00000000       __except_list              00000000     <absolute>
 0000:00000000       ___safe_se_handler_count   00000000     <absolute>
 0000:00009876       __ldused                   00009876     <absolute>
 0000:00009876       __fltused                  00009876     <absolute>
 0001:00000000       ??1QueryData@@QAE@XZ       00401000 f i QueryData.obj
 0001:00000000       ??1TTime@svutil@@QAE@XZ    00401000 f i DB.obj
 0001:00000000       ??3@YAXPAX0@Z              00401000 f i DB.obj
 0001:00000010       ??1logic_error@std@@UAE@XZ 00401010 f i DB.obj
 0001:00000070       ?what@logic_error@std@@UBEPBDXZ 00401070 f i DB.obj
 0001:00000080       ??_Elogic_error@std@@UAEPAXI@Z 00401080 f i DB.obj
 0001:00000080       ??_Glogic_error@std@@UAEPAXI@Z 00401080 f i DB.obj
 0001:000000a0       ??_Glength_error@std@@UAEPAXI@Z 004010a0 f i DB.obj
 0001:000000a0       ??_Elength_error@std@@UAEPAXI@Z 004010a0 f i DB.obj
 0001:000000c0       ??1length_error@std@@UAE@XZ 004010c0 f i DB.obj
 0001:000000d0       ??0word@svutil@@QAE@XZ     004010d0 f i DB.obj
 0001:000000f0       ??_Gword@svutil@@UAEPAXI@Z 004010f0 f i DB.obj
 0001:000000f0       ??_Eword@svutil@@UAEPAXI@Z 004010f0 f i DB.obj
 0001:00000120       ?GetCurrentTimeEx@TTime@svutil@@SA?AV12@XZ 00401120 f i DB.obj
 0001:00000150       ??0exception@svutil@@QAE@PBD0@Z 00401150 f i DB.obj
 0001:00000210       ?GetErrorType@exception@svutil@@UBEPBDXZ 00401210 f i DB.obj
 0001:00000220       ?GetDescription@exception@svutil@@UBEPBDXZ 00401220 f i DB.obj
 0001:00000230       ??_Eexception@svutil@@UAEPAXI@Z 00401230 f i DB.obj
 0001:00000230       ??_Gexception@svutil@@UAEPAXI@Z 00401230 f i DB.obj
 0001:00000250       ?_Xlen@?$vector@PAVDataType@@V?$allocator@PAVDataType@@@std@@@std@@IBEXXZ 00401250 f i DB.obj
 0001:00000250       ?_Xlen@?$vector@PAV?$hashnode@Vword@svutil@@PAVQueue@@@svutil@@V?$allocator@PAV?$hashnode@Vword@svutil@@PAVQueue@@@svutil@@@std@@@std@@IBEXXZ 00401250 f i DB.obj
 0001:00000250       ?_Xlen@?$vector@PAV?$hashnode@Vword@svutil@@PAVTable@@@svutil@@V?$allocator@PAV?$hashnode@Vword@svutil@@PAVTable@@@svutil@@@std@@@std@@IBEXXZ 00401250 f i DB.obj
 0001:000002d0       ??0logic_error@std@@QAE@ABV01@@Z 004012d0 f i DB.obj
 0001:00000330       ??0?$hashelement@Vword@svutil@@PAVTable@@@svutil@@QAE@ABVword@1@ABQAVTable@@@Z 00401330 f i DB.obj
 0001:00000330       ??0?$hashelement@Vword@svutil@@PAVQueue@@@svutil@@QAE@ABVword@1@ABQAVQueue@@@Z 00401330 f i DB.obj
 0001:000003a0       ??0?$hashelement@Vword@svutil@@PAVTable@@@svutil@@QAE@ABVword@1@@Z 004013a0 f i DB.obj
 0001:000003a0       ??0?$hashelement@Vword@svutil@@PAVQueue@@@svutil@@QAE@ABVword@1@@Z 004013a0 f i DB.obj
 0001:00000400       ??1sentry@?$basic_istream@DU?$char_traits@D@std@@@std@@QAE@XZ 00401400 f i DB.obj
 0001:00000400       ??1_Sentry_base@?$basic_ostream@DU?$char_traits@D@std@@@std@@QAE@XZ 00401400 f i DB.obj
 0001:00000400       ??1_Sentry_base@?$basic_istream@DU?$char_traits@D@std@@@std@@QAE@XZ 00401400 f i DB.obj
 0001:00000420       ??1?$treenode@V?$hashelement@Vword@svutil@@PAVTable@@@svutil@@@svutil@@UAE@XZ 00401420 f i DB.obj
 0001:00000440       ??1?$treenode@V?$hashelement@Vword@svutil@@PAVQueue@@@svutil@@@svutil@@UAE@XZ 00401440 f i DB.obj
 0001:00000460       ??_E?$treenode@V?$hashelement@Vword@svutil@@PAVTable@@@svutil@@@svutil@@UAEPAXI@Z 00401460 f i DB.obj
 0001:00000460       ??_G?$treenode@V?$hashelement@Vword@svutil@@PAVTable@@@svutil@@@svutil@@UAEPAXI@Z 00401460 f i DB.obj
 0001:00000480       ??_E?$treenode@V?$hashelement@Vword@svutil@@PAVQueue@@@svutil@@@svutil@@UAEPAXI@Z 00401480 f i DB.obj
 0001:00000480       ??_G?$treenode@V?$hashelement@Vword@svutil@@PAVQueue@@@svutil@@@svutil@@UAEPAXI@Z 00401480 f i DB.obj
 0001:000004a0       ??0?$hashelement@Vword@svutil@@V12@@svutil@@QAE@ABVword@1@@Z 004014a0 f i DB.obj
 0001:00000520       ??1?$hashelement@Vword@svutil@@V12@@svutil@@QAE@XZ 00401520 f i DB.obj
 0001:00000560       ??M?$treenode@V?$hashelement@Vword@svutil@@PAVTable@@@svutil@@@svutil@@QAE_NV01@@Z 00401560 f i DB.obj
 0001:000005d0       ??O?$treenode@V?$hashelement@Vword@svutil@@PAVTable@@@svutil@@@svutil@@QAE_NV01@@Z 004015d0 f i DB.obj
 0001:00000640       ??0?$treenode@V?$hashelement@Vword@svutil@@PAVTable@@@svutil@@@svutil@@QAE@ABV01@@Z 00401640 f i DB.obj
 0001:000006c0       ??M?$treenode@V?$hashelement@Vword@svutil@@PAVQueue@@@svutil@@@svutil@@QAE_NV01@@Z 004016c0 f i DB.obj
 0001:00000730       ??O?$treenode@V?$hashelement@Vword@svutil@@PAVQueue@@@svutil@@@svutil@@QAE_NV01@@Z 00401730 f i DB.obj
 0001:000007a0       ??0?$treenode@V?$hashelement@Vword@svutil@@PAVQueue@@@svutil@@@svutil@@QAE@ABV01@@Z 004017a0 f i DB.obj
 0001:00000820       ?CountNodes@?$sorttree@V?$hashelement@Vword@svutil@@PAVTable@@@svutil@@@svutil@@AAEXPAV?$treenode@V?$hashelement@Vword@svutil@@PAVTable@@@svutil@@@2@AAK@Z 00401820 f i DB.obj
 0001:00000850       ?CountNodes@?$sorttree@V?$hashelement@Vword@svutil@@PAVQueue@@@svutil@@@svutil@@AAEXPAV?$treenode@V?$hashelement@Vword@svutil@@PAVQueue@@@svutil@@@2@AAK@Z 00401850 f i DB.obj
 0001:00000880       ??$?HDU?$char_traits@D@std@@V?$allocator@D@1@@std@@YA?AV?$basic_string@DU?$char_traits@D@std@@V?$allocator@D@2@@0@ABV10@0@Z 00401880 f i DB.obj
 0001:00000900       ??$?HDU?$char_traits@D@std@@V?$allocator@D@1@@std@@YA?AV?$basic_string@DU?$char_traits@D@std@@V?$allocator@D@2@@0@ABV10@PBD@Z 00401900 f i DB.obj
 0001:00000980       ??0?$treenode@V?$hashelement@Vword@svutil@@PAVTable@@@svutil@@@svutil@@QAE@ABV?$hashelement@Vword@svutil@@PAVTable@@@1@@Z 00401980 f i DB.obj
 0001:00000a00       ??0?$treenode@V?$hashelement@Vword@svutil@@PAVQueue@@@svutil@@@svutil@@QAE@ABV?$hashelement@Vword@svutil@@PAVQueue@@@1@@Z 00401a00 f i DB.obj
 0001:00000a80       ?CreatePagePool@PagePool@@QAE_NHV?$basic_string@DU?$char_traits@D@std@@V?$allocator@D@2@@std@@HH@Z 00401a80 f i DB.obj
 0001:00000bc0       ?CreateNewEx@DB@@QAE_NV?$basic_string@DU?$char_traits@D@std@@V?$allocator@D@2@@std@@0HHH@Z 00401bc0 f   DB.obj
 0001:00000dc0       ??0sentry@?$basic_istream@DU?$char_traits@D@std@@@std@@QAE@AAV12@_N@Z 00401dc0 f i DB.obj
 0001:00000e30       ??0sentry@?$basic_ostream@DU?$char_traits@D@std@@@std@@QAE@AAV12@@Z 00401e30 f i DB.obj
 0001:00000ec0       ??1sentry@?$basic_ostream@DU?$char_traits@D@std@@@std@@QAE@XZ 00401ec0 f i DB.obj
 0001:00000f30       ??0length_error@std@@QAE@ABV01@@Z 00401f30 f i DB.obj
 0001:00000f50       ?DeleteTree@?$sorttree@V?$hashelement@Vword@svutil@@PAVTable@@@svutil@@@svutil@@QAEXPAV?$treenode@V?$hashelement@Vword@svutil@@PAVTable@@@svutil@@@2@@Z 00401f50 f i DB.obj
 0001:00000fa0       ?DeleteTree@?$sorttree@V?$hashelement@Vword@svutil@@PAVQueue@@@svutil@@@svutil@@QAEXPAV?$treenode@V?$hashelement@Vword@svutil@@PAVQueue@@@svutil@@@2@@Z 00401fa0 f i DB.obj
 0001:00000ff0       ?RomoveNode@?$sorttree@V?$hashelement@Vword@svutil@@PAVQueue@@@svutil@@@svutil@@QAEXABV?$hashelement@Vword@svutil@@PAVQueue@@@2@@Z 00401ff0 f i DB.obj
 0001:00000ff0       ?RomoveNode@?$sorttree@V?$hashelement@Vword@svutil@@PAVTable@@@svutil@@@svutil@@QAEXABV?$hashelement@Vword@svutil@@PAVTable@@@2@@Z 00401ff0 f i DB.obj
 0001:00001190       ?findnode@?$sorttree@V?$hashelement@Vword@svutil@@V12@@svutil@@@svutil@@QAEPAV?$treenode@V?$hashelement@Vword@svutil@@V12@@svutil@@@2@ABV?$hashelement@Vword@svutil@@V12@@2@PAV32@@Z 00402190 f i DB.obj
 0001:00001200       ?InsertNode@?$sorttree@V?$hashelement@Vword@svutil@@PAVTable@@@svutil@@@svutil@@QAEXPAV?$treenode@V?$hashelement@Vword@svutil@@PAVTable@@@svutil@@@2@0@Z 00402200 f i DB.obj
 0001:00001290       ?findnextnode@?$sorttree@V?$hashelement@Vword@svutil@@PAVTable@@@svutil@@@svutil@@ABEPAV?$treenode@V?$hashelement@Vword@svutil@@PAVTable@@@svutil@@@2@AAV?$hashelement@Vword@svutil@@PAVTable@@@2@AA_NPAV32@@Z 00402290 f i DB.obj
 0001:00001300       ?InsertNode@?$sorttree@V?$hashelement@Vword@svutil@@PAVQueue@@@svutil@@@svutil@@QAEXPAV?$treenode@V?$hashelement@Vword@svutil@@PAVQueue@@@svutil@@@2@0@Z 00402300 f i DB.obj
 0001:00001390       ?findnextnode@?$sorttree@V?$hashelement@Vword@svutil@@PAVQueue@@@svutil@@@svutil@@ABEPAV?$treenode@V?$hashelement@Vword@svutil@@PAVQueue@@@svutil@@@2@AAV?$hashelement@Vword@svutil@@PAVQueue@@@2@AA_NPAV32@@Z 00402390 f i DB.obj
 0001:00001400       ??$getline@DU?$char_traits@D@std@@V?$allocator@D@2@@std@@YAAAV?$basic_istream@DU?$char_traits@D@std@@@0@AAV10@AAV?$basic_string@DU?$char_traits@D@std@@V?$allocator@D@2@@0@D@Z 00402400 f i DB.obj
 0001:00001570       ??$?6DU?$char_traits@D@std@@V?$allocator@D@1@@std@@YAAAV?$basic_ostream@DU?$char_traits@D@std@@@0@AAV10@ABV?$basic_string@DU?$char_traits@D@std@@V?$allocator@D@2@@0@@Z 00402570 f i DB.obj
 0001:00001770       ??$CreateNode@V?$hashelement@Vword@svutil@@PAVTable@@@svutil@@@?$sorttree@V?$hashelement@Vword@svutil@@PAVTable@@@svutil@@@svutil@@SAPAV?$treenode@V?$hashelement@Vword@svutil@@PAVTable@@@svutil@@@1@ABV?$hashelement@Vword@svutil@@PAVTable@@@1@@Z 00402770 f i DB.obj
 0001:000017d0       ??$CreateNode@V?$hashelement@Vword@svutil@@PAVQueue@@@svutil@@@?$sorttree@V?$hashelement@Vword@svutil@@PAVQueue@@@svutil@@@svutil@@SAPAV?$treenode@V?$hashelement@Vword@svutil@@PAVQueue@@@svutil@@@1@ABV?$hashelement@Vword@svutil@@PAVQueue@@@1@@Z 004027d0 f i DB.obj
 0001:00001830       ??_E?$sorttree@V?$hashelement@Vword@svutil@@PAVTable@@@svutil@@@svutil@@UAEPAXI@Z 00402830 f i DB.obj
 0001:00001830       ??_G?$sorttree@V?$hashelement@Vword@svutil@@PAVTable@@@svutil@@@svutil@@UAEPAXI@Z 00402830 f i DB.obj
 0001:00001890       ??_G?$sorttree@V?$hashelement@Vword@svutil@@PAVQueue@@@svutil@@@svutil@@UAEPAXI@Z 00402890 f i DB.obj
 0001:00001890       ??_E?$sorttree@V?$hashelement@Vword@svutil@@PAVQueue@@@svutil@@@svutil@@UAEPAXI@Z 00402890 f i DB.obj
 0001:000018f0       ?clear@?$list@Viterator@?$list@VSingelRecord@@V?$allocator@VSingelRecord@@@std@@@std@@V?$allocator@Viterator@?$list@VSingelRecord@@V?$allocator@VSingelRecord@@@std@@@std@@@3@@std@@QAEXXZ 004028f0 f i WorkThread.obj
 0001:000018f0       ?clear@?$list@PAVStringMap@@V?$allocator@PAVStringMap@@@std@@@std@@QAEXXZ 004028f0 f i DB.obj
 0001:000018f0       ?clear@?$list@PAVThreadEx@@V?$allocator@PAVThreadEx@@@std@@@std@@QAEXXZ 004028f0 f i ThreadContrl.obj
 0001:000018f0       ?clear@?$list@HV?$allocator@H@std@@@std@@QAEXXZ 004028f0 f i EntityTemplet.obj
 0001:000018f0       ?clear@?$list@PAVEntityRelation@@V?$allocator@PAVEntityRelation@@@std@@@std@@QAEXXZ 004028f0 f i EntityEx.obj
 0001:000018f0       ?clear@?$list@PAVEdge@@V?$allocator@PAVEdge@@@std@@@std@@QAEXXZ 004028f0 f i TopologyChart.obj
 0001:000018f0       ?clear@?$list@PAVPage@@V?$allocator@PAVPage@@@std@@@std@@QAEXXZ 004028f0 f i PagePool.obj
 0001:00001930       ?_Buynode@?$list@V?$basic_string@DU?$char_traits@D@std@@V?$allocator@D@2@@std@@V?$allocator@V?$basic_string@DU?$char_traits@D@std@@V?$allocator@D@2@@std@@@2@@std@@IAEPAU_Node@?$_List_nod@V?$basic_string@DU?$char_traits@D@std@@V?$allocator@D@2@@std@@V?$allocator@V?$basic_string@DU?$char_traits@D@std@@V?$allocator@D@2@@std@@@2@@2@PAU342@0ABV?$basic_string@DU?$char_traits@D@std@@V?$allocator@D@2@@2@@Z 00402930 f i DB.obj
 0001:000019c0       ?_Incsize@?$list@V?$basic_string@DU?$char_traits@D@std@@V?$allocator@D@2@@std@@V?$allocator@V?$basic_string@DU?$char_traits@D@std@@V?$allocator@D@2@@std@@@2@@std@@IAEXI@Z 004029c0 f i DB.obj
 0001:00001a60       ?_Buynode@?$list@VSingelRecord@@V?$allocator@VSingelRecord@@@std@@@std@@IAEPAU_Node@?$_List_nod@VSingelRecord@@V?$allocator@VSingelRecord@@@std@@@2@PAU342@0ABVSingelRecord@@@Z 00402a60 f i DB.obj
 0001:00001b00       ?_Incsize@?$list@VSingelRecord@@V?$allocator@VSingelRecord@@@std@@@std@@IAEXI@Z 00402b00 f i DB.obj
 0001:00001ba0       ?find@?$hashnode@Vword@svutil@@V12@@svutil@@QAE_NABVword@2@PAPAV?$hashelement@Vword@svutil@@V12@@2@@Z 00402ba0 f i DB.obj
 0001:00001ca0       ?InsertNodeEx@?$sorttree@V?$hashelement@Vword@svutil@@PAVTable@@@svutil@@@svutil@@QAEAAV?$hashelement@Vword@svutil@@PAVTable@@@2@ABV32@@Z 00402ca0 f i DB.obj
 0001:00001d30       ??1exception@svutil@@UAE@XZ 00402d30 f i DB.obj
 0001:00001d40       ??0exception@svutil@@QAE@ABV01@@Z 00402d40 f i DB.obj
 0001:00001d90       ?find@?$hashnode@Vword@svutil@@PAVTable@@@svutil@@QAE_NABVword@2@PAPAV?$hashelement@Vword@svutil@@PAVTable@@@2@@Z 00402d90 f i DB.obj
 0001:00001d90       ?find@?$hashnode@Vword@svutil@@PAVQueue@@@svutil@@QAE_NABVword@2@PAPAV?$hashelement@Vword@svutil@@PAVQueue@@@2@@Z 00402d90 f i DB.obj
 0001:00001e60       ?InsertNodeEx@?$sorttree@V?$hashelement@Vword@svutil@@PAVQueue@@@svutil@@@svutil@@QAEAAV?$hashelement@Vword@svutil@@PAVQueue@@@2@ABV32@@Z 00402e60 f i DB.obj
 0001:00001ef0       ?erase@?$list@Viterator@?$list@VSingelRecord@@V?$allocator@VSingelRecord@@@std@@@std@@V?$allocator@Viterator@?$list@VSingelRecord@@V?$allocator@VSingelRecord@@@std@@@std@@@3@@std@@QAE?AViterator@12@V312@@Z 00402ef0 f i WorkThread.obj
 0001:00001ef0       ?erase@?$list@PAVStringMap@@V?$allocator@PAVStringMap@@@std@@@std@@QAE?AViterator@12@V312@@Z 00402ef0 f i DB.obj
 0001:00001f30       ?_Incsize@?$list@PAVStringMap@@V?$allocator@PAVStringMap@@@std@@@std@@IAEXI@Z 00402f30 f i DB.obj
 0001:00001fd0       ?find@?$hashnode@Vword@svutil@@V12@@svutil@@QAE_NABVword@2@PAPAV32@@Z 00402fd0 f i DB.obj
 0001:00002030       ??1?$hashnode@Vword@svutil@@PAVTable@@@svutil@@QAE@XZ 00403030 f i DB.obj
 0001:000020c0       ?insert@?$hashnode@Vword@svutil@@PAVTable@@@svutil@@QAEAAV?$hashelement@Vword@svutil@@PAVTable@@@2@ABVword@2@ABQAVTable@@@Z 004030c0 f i DB.obj
 0001:000021a0       ?find@?$hashnode@Vword@svutil@@PAVTable@@@svutil@@QAE_NABVword@2@PAPAPAVTable@@@Z 004031a0 f i DB.obj
 0001:000021a0       ?find@?$hashnode@Vword@svutil@@PAVQueue@@@svutil@@QAE_NABVword@2@PAPAPAVQueue@@@Z 004031a0 f i DB.obj
 0001:00002200       ??1?$hashnode@Vword@svutil@@PAVQueue@@@svutil@@QAE@XZ 00403200 f i DB.obj
 0001:00002290       ?insert@?$hashnode@Vword@svutil@@PAVQueue@@@svutil@@QAEAAV?$hashelement@Vword@svutil@@PAVQueue@@@2@ABVword@2@ABQAVQueue@@@Z 00403290 f i DB.obj
 0001:00002370       ?_Insert_n@?$vector@PAV?$hashnode@Vword@svutil@@PAVTable@@@svutil@@V?$allocator@PAV?$hashnode@Vword@svutil@@PAVTable@@@svutil@@@std@@@std@@IAEXViterator@12@IABQAV?$hashnode@Vword@svutil@@PAVTable@@@svutil@@@Z 00403370 f i DB.obj
 0001:00002370       ?_Insert_n@?$vector@PAV?$hashnode@Vword@svutil@@PAVQueue@@@svutil@@V?$allocator@PAV?$hashnode@Vword@svutil@@PAVQueue@@@svutil@@@std@@@std@@IAEXViterator@12@IABQAV?$hashnode@Vword@svutil@@PAVQueue@@@svutil@@@Z 00403370 f i DB.obj
 0001:00002370       ?_Insert_n@?$vector@PAVDataType@@V?$allocator@PAVDataType@@@std@@@std@@IAEXViterator@12@IABQAVDataType@@@Z 00403370 f i DB.obj
 0001:00002560       ?Find@MonitorTempletPool@@QAE_NH@Z 00403560 f i DB.obj
 0001:00002590       ?find@?$hashtable@Vword@svutil@@V12@@svutil@@QAEPAVword@2@ABV32@@Z 00403590 f i DB.obj
 0001:00002600       ?find@?$hashtable@Vword@svutil@@PAVTable@@@svutil@@QAEPAPAVTable@@ABVword@2@@Z 00403600 f i DB.obj
 0001:00002600       ?find@?$hashtable@Vword@svutil@@PAVQueue@@@svutil@@QAEPAPAVQueue@@ABVword@2@@Z 00403600 f i DB.obj
 0001:00002670       ?find@?$_Tree@V?$_Tmap_traits@V?$basic_string@DU?$char_traits@D@std@@V?$allocator@D@2@@std@@PAVDB@@U?$less@V?$basic_string@DU?$char_traits@D@std@@V?$allocator@D@2@@std@@@2@V?$allocator@U?$pair@$$CBV?$basic_string@DU?$char_traits@D@std@@V?$allocator@D@2@@std@@PAVDB@@@std@@@2@$0A@@std@@@std@@QAE?AViterator@12@ABV?$basic_string@DU?$char_traits@D@std@@V?$allocator@D@2@@2@@Z 00403670 f i WorkThread.obj
 0001:00002670       ?find@?$_Tree@V?$_Tmap_traits@V?$basic_string@DU?$char_traits@D@std@@V?$allocator@D@2@@std@@VTTime@svutil@@U?$less@V?$basic_string@DU?$char_traits@D@std@@V?$allocator@D@2@@std@@@2@V?$allocator@U?$pair@$$CBV?$basic_string@DU?$char_traits@D@std@@V?$allocator@D@2@@std@@VTTime@svutil@@@std@@@2@$0A@@std@@@std@@QAE?AViterator@12@ABV?$basic_string@DU?$char_traits@D@std@@V?$allocator@D@2@@2@@Z 00403670 f i DB.obj
 0001:000026d0       ?push_back@?$list@VSingelRecord@@V?$allocator@VSingelRecord@@@std@@@std@@QAEXABVSingelRecord@@@Z 004036d0 f i DB.obj
 0001:00002710       ?clearnodes@?$hashtable@Vword@svutil@@PAVTable@@@svutil@@IAEXXZ 00403710 f i DB.obj
 0001:00002780       ?clearnodes@?$hashtable@Vword@svutil@@PAVQueue@@@svutil@@IAEXXZ 00403780 f i DB.obj
 0001:000027f0       ?findnext@?$hashnode@Vword@svutil@@PAVTable@@@svutil@@QAE_NAAV?$hashelement@Vword@svutil@@PAVTable@@@2@PAPAV32@@Z 004037f0 f i DB.obj
 0001:000028a0       ?erase@?$hashnode@Vword@svutil@@PAVTable@@@svutil@@QAE_NABVword@2@@Z 004038a0 f i DB.obj
 0001:000029b0       ?findnext@?$hashnode@Vword@svutil@@PAVQueue@@@svutil@@QAE_NAAV?$hashelement@Vword@svutil@@PAVQueue@@@2@PAPAV32@@Z 004039b0 f i DB.obj
 0001:00002a60       ?erase@?$hashnode@Vword@svutil@@PAVQueue@@@svutil@@QAE_NABVword@2@@Z 00403a60 f i DB.obj
 0001:00002b70       ??$_Insert@Vconst_iterator@?$list@PAVStringMap@@V?$allocator@PAVStringMap@@@std@@@std@@@?$list@PAVStringMap@@V?$allocator@PAVStringMap@@@std@@@std@@QAEXViterator@01@Vconst_iterator@01@1Uforward_iterator_tag@1@@Z 00403b70 f i DB.obj
 0001:00002c20       ?QueryRecordByCount@DB@@QAEHV?$basic_string@DU?$char_traits@D@std@@V?$allocator@D@2@@std@@IAAVbuffer@svutil@@AAH@Z 00403c20 f   DB.obj
 0001:00002dd0       ?QueryRecordCount@DB@@QAE_NV?$basic_string@DU?$char_traits@D@std@@V?$allocator@D@2@@std@@AAH@Z 00403dd0 f   DB.obj
 0001:00002f00       ?QueryRecordByTimeEx@DB@@QAEHV?$basic_string@DU?$char_traits@D@std@@V?$allocator@D@2@@std@@VTTime@svutil@@1AAVbuffer@5@AAH@Z 00403f00 f   DB.obj
 0001:000030d0       ?QueryDyn@DB@@QAEHV?$basic_string@DU?$char_traits@D@std@@V?$allocator@D@2@@std@@PADAAI@Z 004040d0 f   DB.obj
 0001:000031f0       ?QueryDynNOStr@DB@@QAEHV?$basic_string@DU?$char_traits@D@std@@V?$allocator@D@2@@std@@PADAAI@Z 004041f0 f   DB.obj
 0001:00003310       ?DeleteRecordsByTime@DB@@QAE_NV?$basic_string@DU?$char_traits@D@std@@V?$allocator@D@2@@std@@VTTime@svutil@@@Z 00404310 f   DB.obj
 0001:00003430       ?GetQueueAllMessageLabels@DB@@QAE_NVword@svutil@@AAV?$list@V?$basic_string@DU?$char_traits@D@std@@V?$allocator@D@2@@std@@V?$allocator@V?$basic_string@DU?$char_traits@D@std@@V?$allocator@D@2@@std@@@2@@std@@@Z 00404430 f   DB.obj
 0001:00003550       ?AppendQueueMessage@DB@@QAE_NV?$basic_string@DU?$char_traits@D@std@@V?$allocator@D@2@@std@@PBDI@Z 00404550 f   DB.obj
 0001:00003670       ?PeekQueueMessage@DB@@QAEHV?$basic_string@DU?$char_traits@D@std@@V?$allocator@D@2@@std@@AAVbuffer@svutil@@AAI_NI@Z 00404670 f   DB.obj
 0001:00003780       ?PopQueueMessage@DB@@QAEHV?$basic_string@DU?$char_traits@D@std@@V?$allocator@D@2@@std@@AAVbuffer@svutil@@AAI_NI@Z 00404780 f   DB.obj
 0001:00003890       ?GetQueueRecordCount@DB@@QAEHV?$basic_string@DU?$char_traits@D@std@@V?$allocator@D@2@@std@@AAI@Z 00404890 f   DB.obj
 0001:000039a0       ?ClearQueueRecords@DB@@QAEHV?$basic_string@DU?$char_traits@D@std@@V?$allocator@D@2@@std@@@Z 004049a0 f   DB.obj
 0001:00003ac0       ?push_back@?$vector@PAVDataType@@V?$allocator@PAVDataType@@@std@@@std@@QAEXABQAVDataType@@@Z 00404ac0 f i DB.obj
 0001:00003b10       ??1?$hashtable@Vword@svutil@@PAVTable@@@svutil@@QAE@XZ 00404b10 f i DB.obj
 0001:00003b70       ?erase@?$hashtable@Vword@svutil@@PAVTable@@@svutil@@QAE_NABVword@2@@Z 00404b70 f i DB.obj
 0001:00003c10       ?findnext@?$hashtable@Vword@svutil@@PAVTable@@@svutil@@QAE_NAAViterator@12@@Z 00404c10 f i DB.obj
 0001:00003cb0       ??1?$hashtable@Vword@svutil@@PAVQueue@@@svutil@@QAE@XZ 00404cb0 f i DB.obj
 0001:00003d10       ?erase@?$hashtable@Vword@svutil@@PAVQueue@@@svutil@@QAE_NABVword@2@@Z 00404d10 f i DB.obj
 0001:00003db0       ?findnext@?$hashtable@Vword@svutil@@PAVQueue@@@svutil@@QAE_NAAViterator@12@@Z 00404db0 f i DB.obj
 0001:00003e50       ?resize@?$vector@PAV?$hashnode@Vword@svutil@@PAVQueue@@@svutil@@V?$allocator@PAV?$hashnode@Vword@svutil@@PAVQueue@@@svutil@@@std@@@std@@QAEXIPAV?$hashnode@Vword@svutil@@PAVQueue@@@svutil@@@Z 00404e50 f i DB.obj
 0001:00003e50       ?resize@?$vector@PAV?$hashnode@Vword@svutil@@PAVTable@@@svutil@@V?$allocator@PAV?$hashnode@Vword@svutil@@PAVTable@@@svutil@@@std@@@std@@QAEXIPAV?$hashnode@Vword@svutil@@PAVTable@@@svutil@@@Z 00404e50 f i DB.obj
 0001:00003ee0       ?FlushData@DB@@IAE_NXZ     00404ee0 f   DB.obj
 0001:00003f50       ?QueryMassDyn@DB@@QAEHV?$basic_string@DU?$char_traits@D@std@@V?$allocator@D@2@@std@@AAV?$map@V?$basic_string@DU?$char_traits@D@std@@V?$allocator@D@2@@std@@VTTime@svutil@@U?$less@V?$basic_string@DU?$char_traits@D@std@@V?$allocator@D@2@@std@@@2@V?$allocator@U?$pair@$$CBV?$basic_string@DU?$char_traits@D@std@@V?$allocator@D@2@@std@@VTTime@svutil@@@std@@@2@@3@AAV?$list@VSingelRecord@@V?$allocator@VSingelRecord@@@std@@@3@@Z 00404f50 f   DB.obj
 0001:000041b0       ?DeleteTable@DB@@QAE_NV?$basic_string@DU?$char_traits@D@std@@V?$allocator@D@2@@std@@@Z 004051b0 f   DB.obj
 0001:00004350       ?GetAllTableNames@DB@@QAE_NAAV?$list@V?$basic_string@DU?$char_traits@D@std@@V?$allocator@D@2@@std@@V?$allocator@V?$basic_string@DU?$char_traits@D@std@@V?$allocator@D@2@@std@@@2@@std@@@Z 00405350 f   DB.obj
 0001:00004440       ?GetAllQueueNames@DB@@QAE_NAAV?$list@V?$basic_string@DU?$char_traits@D@std@@V?$allocator@D@2@@std@@V?$allocator@V?$basic_string@DU?$char_traits@D@std@@V?$allocator@D@2@@std@@@2@@std@@@Z 00405440 f   DB.obj
 0001:00004530       ?DeleteQueue@DB@@QAEHV?$basic_string@DU?$char_traits@D@std@@V?$allocator@D@2@@std@@@Z 00405530 f   DB.obj
 0001:000046c0       ??0?$list@PAVStringMap@@V?$allocator@PAVStringMap@@@std@@@std@@QAE@ABV01@@Z 004056c0 f i DB.obj
 0001:00004740       ??0?$hashtable@Vword@svutil@@PAVQueue@@@svutil@@QAE@XZ 00405740 f i DB.obj
 0001:00004740       ??0?$hashtable@Vword@svutil@@PAVTable@@@svutil@@QAE@XZ 00405740 f i DB.obj
 0001:00004790       ?insert@?$hashtable@Vword@svutil@@PAVTable@@@svutil@@QAEAAPAVTable@@ABVword@2@ABQAV3@@Z 00405790 f i DB.obj
 0001:00004880       ??A?$hashtable@Vword@svutil@@PAVTable@@@svutil@@QAEAAPAVTable@@ABVword@1@@Z 00405880 f i DB.obj
 0001:000048b0       ?insert@?$hashtable@Vword@svutil@@PAVQueue@@@svutil@@QAEAAPAVQueue@@ABVword@2@ABQAV3@@Z 004058b0 f i DB.obj
 0001:000049a0       ??A?$hashtable@Vword@svutil@@PAVQueue@@@svutil@@QAEAAPAVQueue@@ABVword@1@@Z 004059a0 f i DB.obj
 0001:000049d0       ??0DB@@QAE@XZ              004059d0 f   DB.obj
 0001:00004ae0       ??1DB@@QAE@XZ              00405ae0 f   DB.obj
 0001:00004bb0       ?LoadEx@DB@@QAE_NXZ        00405bb0 f   DB.obj
 0001:00004fd0       ?CreateQueue@DB@@QAE_NV?$basic_string@DU?$char_traits@D@std@@V?$allocator@D@2@@std@@H@Z 00405fd0 f   DB.obj
 0001:00005290       ?InsertTableEx@DB@@QAE_NV?$basic_string@DU?$char_traits@D@std@@V?$allocator@D@2@@std@@H@Z 00406290 f   DB.obj
 0001:00005830       ?Init@DB@@QAE_NV?$basic_string@DU?$char_traits@D@std@@V?$allocator@D@2@@std@@PAVSvdbMain@@HH@Z 00406830 f   DB.obj
 0001:00005ad0       ?Init@DB@@QAE_NV?$basic_string@DU?$char_traits@D@std@@V?$allocator@D@2@@std@@0PAVSvdbMain@@HH@Z 00406ad0 f   DB.obj
 0001:00005d50       ?AppendRecord@DB@@QAEHV?$basic_string@DU?$char_traits@D@std@@V?$allocator@D@2@@std@@PBDI@Z 00406d50 f   DB.obj
 0001:00005fd0       ?AppendMassRecord@DB@@QAEHAAV?$list@VSingelRecord@@V?$allocator@VSingelRecord@@@std@@@std@@@Z 00406fd0 f   DB.obj
 0001:00006020       ??1_Node@?$_List_nod@Vword@svutil@@V?$allocator@Vword@svutil@@@std@@@std@@QAE@XZ 00407020 f i Entity.obj
 0001:00006040       ?_Buynode@?$list@Vword@svutil@@V?$allocator@Vword@svutil@@@std@@@std@@IAEPAU_Node@?$_List_nod@Vword@svutil@@V?$allocator@Vword@svutil@@@std@@@2@XZ 00407040 f i Entity.obj
 0001:00006060       ?_Buynode@?$list@Vword@svutil@@V?$allocator@Vword@svutil@@@std@@@std@@IAEPAU_Node@?$_List_nod@Vword@svutil@@V?$allocator@Vword@svutil@@@std@@@2@PAU342@0ABVword@svutil@@@Z 00407060 f i Entity.obj
 0001:000060f0       ?_Incsize@?$list@Vword@svutil@@V?$allocator@Vword@svutil@@@std@@@std@@IAEXI@Z 004070f0 f i Entity.obj
 0001:00006190       ?GetRawDataSize@Entity@@UAEIXZ 00407190 f   Entity.obj
 0001:000061e0       ?GetRawData@Entity@@UAEPADPADI@Z 004071e0 f   Entity.obj
 0001:000062e0       ?clear@?$list@Vword@svutil@@V?$allocator@Vword@svutil@@@std@@@std@@QAEXXZ 004072e0 f i Entity.obj
 0001:00006320       ?push_back@?$list@Vword@svutil@@V?$allocator@Vword@svutil@@@std@@@std@@QAEXABVword@svutil@@@Z 00407320 f i Entity.obj
 0001:00006360       ??1?$list@Vword@svutil@@V?$allocator@Vword@svutil@@@std@@@std@@QAE@XZ 00407360 f i Entity.obj
 0001:00006360       ?_Tidy@?$list@Vword@svutil@@V?$allocator@Vword@svutil@@@std@@@std@@IAEXXZ 00407360 f i Entity.obj
 0001:00006380       ?CreateObjectByRawData@Entity@@UAEHPBDI@Z 00407380 f   Entity.obj
 0001:000064f0       ??0Entity@@QAE@XZ          004074f0 f   Entity.obj
 0001:00006590       ??1Entity@@QAE@XZ          00407590 f   Entity.obj
 0001:00006610       ??1IdcUser@@QAE@XZ         00407610 f i EntityGroup.obj
 0001:00006620       ?CountNodes@?$sorttree@V?$hashelement@Vword@svutil@@V12@@svutil@@@svutil@@AAEXPAV?$treenode@V?$hashelement@Vword@svutil@@V12@@svutil@@@2@AAK@Z 00407620 f i EntityGroup.obj
 0001:00006650       ?findnextnode@?$sorttree@V?$hashelement@Vword@svutil@@V12@@svutil@@@svutil@@ABEPAV?$treenode@V?$hashelement@Vword@svutil@@V12@@svutil@@@2@AAV?$hashelement@Vword@svutil@@V12@@2@AA_NPAV32@@Z 00407650 f i EntityGroup.obj
 0001:000066c0       ?GetRawDataSize@EntityGroup@@UAEIXZ 004076c0 f   EntityGroup.obj
 0001:00006710       ?GetRawData@EntityGroup@@UAEPADPADI@Z 00407710 f   EntityGroup.obj
 0001:00006800       ?size@?$hashtable@Vword@svutil@@V12@@svutil@@QAEIXZ 00407800 f i EntityGroup.obj
 0001:000068a0       ?findnext@?$hashnode@Vword@svutil@@V12@@svutil@@QAE_NAAV?$hashelement@Vword@svutil@@V12@@2@PAPAV32@@Z 004078a0 f i EntityGroup.obj
 0001:00006950       ?CreateObjectByRawData@EntityGroup@@UAEHPBDI@Z 00407950 f   EntityGroup.obj
 0001:00006ab0       ?findnext@?$hashtable@Vword@svutil@@V12@@svutil@@QAE_NAAViterator@12@@Z 00407ab0 f i EntityGroup.obj
 0001:00006b50       ??0EntityGroup@@QAE@XZ     00407b50 f   EntityGroup.obj
 0001:00006be0       ??1EntityGroup@@QAE@XZ     00407be0 f   EntityGroup.obj
 0001:00006c60       ?ResolveIds@EntityGroup@@QAE_NPAVResource@@@Z 00407c60 f   EntityGroup.obj
 0001:00006d50       ?SaveNewIds@EntityGroup@@QAE_NPAVResource@@@Z 00407d50 f   EntityGroup.obj
 0001:00006f10       ??0PoolBase@@QAE@Vword@svutil@@@Z 00407f10 f i EntityGroupPool.obj
 0001:00006fb0       ?Load@EntityGroupPool@@UAE_NXZ 00407fb0 f   EntityGroupPool.obj
 0001:000070b0       ?Submit@EntityGroupPool@@UAE_NXZ 004080b0 f   EntityGroupPool.obj
 0001:000071f0       ??0?$hashelement@Vword@svutil@@PAVEntityGroup@@@svutil@@QAE@ABVword@1@@Z 004081f0 f i EntityGroupPool.obj
 0001:00007250       ??0?$hashelement@Vword@svutil@@PAVEntityGroup@@@svutil@@QAE@ABVword@1@ABQAVEntityGroup@@@Z 00408250 f i EntityGroupPool.obj
 0001:000072c0       ??1?$treenode@V?$hashelement@Vword@svutil@@PAVEntityGroup@@@svutil@@@svutil@@UAE@XZ 004082c0 f i EntityGroupPool.obj
 0001:000072e0       ??_E?$treenode@V?$hashelement@Vword@svutil@@PAVEntityGroup@@@svutil@@@svutil@@UAEPAXI@Z 004082e0 f i EntityGroupPool.obj
 0001:000072e0       ??_G?$treenode@V?$hashelement@Vword@svutil@@PAVEntityGroup@@@svutil@@@svutil@@UAEPAXI@Z 004082e0 f i EntityGroupPool.obj
 0001:00007300       ?_Xlen@?$vector@PAV?$hashnode@Vword@svutil@@PAVEntityGroup@@@svutil@@V?$allocator@PAV?$hashnode@Vword@svutil@@PAVEntityGroup@@@svutil@@@std@@@std@@IBEXXZ 00408300 f i EntityGroupPool.obj
 0001:00007380       ?CountNodes@?$sorttree@V?$hashelement@Vword@svutil@@PAVEntityGroup@@@svutil@@@svutil@@AAEXPAV?$treenode@V?$hashelement@Vword@svutil@@PAVEntityGroup@@@svutil@@@2@AAK@Z 00408380 f i EntityGroupPool.obj
 0001:000073b0       ??M?$treenode@V?$hashelement@Vword@svutil@@PAVEntityGroup@@@svutil@@@svutil@@QAE_NV01@@Z 004083b0 f i EntityGroupPool.obj
 0001:00007420       ??O?$treenode@V?$hashelement@Vword@svutil@@PAVEntityGroup@@@svutil@@@svutil@@QAE_NV01@@Z 00408420 f i EntityGroupPool.obj
 0001:00007490       ??0?$treenode@V?$hashelement@Vword@svutil@@PAVEntityGroup@@@svutil@@@svutil@@QAE@ABV01@@Z 00408490 f i EntityGroupPool.obj
 0001:00007510       ??0?$treenode@V?$hashelement@Vword@svutil@@PAVEntityGroup@@@svutil@@@svutil@@QAE@ABV?$hashelement@Vword@svutil@@PAVEntityGroup@@@1@@Z 00408510 f i EntityGroupPool.obj
 0001:00007590       ?DeleteTree@?$sorttree@V?$hashelement@Vword@svutil@@PAVEntityGroup@@@svutil@@@svutil@@QAEXPAV?$treenode@V?$hashelement@Vword@svutil@@PAVEntityGroup@@@svutil@@@2@@Z 00408590 f i EntityGroupPool.obj
 0001:000075e0       ?InsertNode@?$sorttree@V?$hashelement@Vword@svutil@@PAVEntityGroup@@@svutil@@@svutil@@QAEXPAV?$treenode@V?$hashelement@Vword@svutil@@PAVEntityGroup@@@svutil@@@2@0@Z 004085e0 f i EntityGroupPool.obj
 0001:00007670       ?findnextnode@?$sorttree@V?$hashelement@Vword@svutil@@PAVEntityGroup@@@svutil@@@svutil@@ABEPAV?$treenode@V?$hashelement@Vword@svutil@@PAVEntityGroup@@@svutil@@@2@AAV?$hashelement@Vword@svutil@@PAVEntityGroup@@@2@AA_NPAV32@@Z 00408670 f i EntityGroupPool.obj
 0001:000076e0       ??$CreateNode@V?$hashelement@Vword@svutil@@PAVEntityGroup@@@svutil@@@?$sorttree@V?$hashelement@Vword@svutil@@PAVEntityGroup@@@svutil@@@svutil@@SAPAV?$treenode@V?$hashelement@Vword@svutil@@PAVEntityGroup@@@svutil@@@1@ABV?$hashelement@Vword@svutil@@PAVEntityGroup@@@1@@Z 004086e0 f i EntityGroupPool.obj
 0001:00007740       ??_G?$sorttree@V?$hashelement@Vword@svutil@@PAVEntityGroup@@@svutil@@@svutil@@UAEPAXI@Z 00408740 f i EntityGroupPool.obj
 0001:00007740       ??_E?$sorttree@V?$hashelement@Vword@svutil@@PAVEntityGroup@@@svutil@@@svutil@@UAEPAXI@Z 00408740 f i EntityGroupPool.obj
 0001:000077a0       ?find@?$hashnode@Vword@svutil@@PAVEntityGroup@@@svutil@@QAE_NABVword@2@PAPAV?$hashelement@Vword@svutil@@PAVEntityGroup@@@2@@Z 004087a0 f i EntityGroupPool.obj
 0001:00007870       ?InsertNodeEx@?$sorttree@V?$hashelement@Vword@svutil@@PAVEntityGroup@@@svutil@@@svutil@@QAEAAV?$hashelement@Vword@svutil@@PAVEntityGroup@@@2@ABV32@@Z 00408870 f i EntityGroupPool.obj
 0001:00007900       ??1?$hashnode@Vword@svutil@@PAVEntityGroup@@@svutil@@QAE@XZ 00408900 f i EntityGroupPool.obj
 0001:00007990       ?insert@?$hashnode@Vword@svutil@@PAVEntityGroup@@@svutil@@QAEAAV?$hashelement@Vword@svutil@@PAVEntityGroup@@@2@ABVword@2@ABQAVEntityGroup@@@Z 00408990 f i EntityGroupPool.obj
 0001:00007a70       ?find@?$hashnode@Vword@svutil@@PAVEntityGroup@@@svutil@@QAE_NABVword@2@PAPAPAVEntityGroup@@@Z 00408a70 f i EntityGroupPool.obj
 0001:00007ad0       ?size@?$hashtable@Vword@svutil@@PAVEntityGroup@@@svutil@@QAEIXZ 00408ad0 f i EntityGroupPool.obj
 0001:00007b70       ?find@?$hashtable@Vword@svutil@@PAVEntityGroup@@@svutil@@QAEPAPAVEntityGroup@@ABVword@2@@Z 00408b70 f i EntityGroupPool.obj
 0001:00007be0       ?findnext@?$hashnode@Vword@svutil@@PAVEntityGroup@@@svutil@@QAE_NAAV?$hashelement@Vword@svutil@@PAVEntityGroup@@@2@PAPAV32@@Z 00408be0 f i EntityGroupPool.obj
 0001:00007c90       ?_Insert_n@?$vector@PAV?$hashnode@Vword@svutil@@PAVEntityGroup@@@svutil@@V?$allocator@PAV?$hashnode@Vword@svutil@@PAVEntityGroup@@@svutil@@@std@@@std@@IAEXViterator@12@IABQAV?$hashnode@Vword@svutil@@PAVEntityGroup@@@svutil@@@Z 00408c90 f i EntityGroupPool.obj
 0001:00007e80       ?GetEntityGroup@EntityGroupPool@@QAEPAVEntityGroup@@Vword@svutil@@@Z 00408e80 f i EntityGroupPool.obj
 0001:00007f20       ?SaveNewIds@EntityGroupPool@@QAE_NV?$basic_string@DU?$char_traits@D@std@@V?$allocator@D@2@@std@@PAVResource@@@Z 00408f20 f   EntityGroupPool.obj
 0001:00008000       ?findnext@?$hashtable@Vword@svutil@@PAVEntityGroup@@@svutil@@QAE_NAAViterator@12@@Z 00409000 f i EntityGroupPool.obj
 0001:000080a0       ?resize@?$vector@PAV?$hashnode@Vword@svutil@@PAVEntityGroup@@@svutil@@V?$allocator@PAV?$hashnode@Vword@svutil@@PAVEntityGroup@@@svutil@@@std@@@std@@QAEXIPAV?$hashnode@Vword@svutil@@PAVEntityGroup@@@svutil@@@Z 004090a0 f i EntityGroupPool.obj
 0001:00008130       ?GetRawDataSize@EntityGroupPool@@UAEIXZ 00409130 f   EntityGroupPool.obj
 0001:00008190       ?GetRawData@EntityGroupPool@@UAEPADPADI@Z 00409190 f   EntityGroupPool.obj
 0001:00008270       ?ResolveIds@EntityGroupPool@@QAE_NPAVResource@@@Z 00409270 f   EntityGroupPool.obj
 0001:00008300       ??0?$hashtable@Vword@svutil@@PAVEntityGroup@@@svutil@@QAE@XZ 00409300 f i EntityGroupPool.obj
 0001:00008350       ?insert@?$hashtable@Vword@svutil@@PAVEntityGroup@@@svutil@@QAEAAPAVEntityGroup@@ABVword@2@ABQAV3@@Z 00409350 f i EntityGroupPool.obj
 0001:00008440       ??0EntityGroupPool@@QAE@Vword@svutil@@_N@Z 00409440 f   EntityGroupPool.obj
 0001:000084e0       ?CreateObjectByRawData@EntityGroupPool@@UAEHPBDI@Z 004094e0 f   EntityGroupPool.obj
 0001:00008630       ?Push@EntityGroupPool@@QAE_NPAVEntityGroup@@@Z 00409630 f   EntityGroupPool.obj
 0001:00008750       ?Push@EntityGroupPool@@QAE_NPBDIPAVResource@@@Z 00409750 f   EntityGroupPool.obj
 0001:00008880       ??_Gout_of_range@std@@UAEPAXI@Z 00409880 f i EntityPool.obj
 0001:00008880       ??_Eout_of_range@std@@UAEPAXI@Z 00409880 f i EntityPool.obj
 0001:000088a0       ??1out_of_range@std@@UAE@XZ 004098a0 f i EntityPool.obj
 0001:000088b0       ?SubmitToFile@EntityPool@@QAE_NV?$basic_string@DU?$char_traits@D@std@@V?$allocator@D@2@@std@@PAV1@@Z 004098b0 f   EntityPool.obj
 0001:000089b0       ?LoadFile@EntityPool@@QAE_NV?$basic_string@DU?$char_traits@D@std@@V?$allocator@D@2@@std@@@Z 004099b0 f   EntityPool.obj
 0001:00008af0       ?Load@EntityPool@@UAE_NXZ  00409af0 f   EntityPool.obj
 0001:00008bf0       ?_Xlen@?$vector@PAV?$hashnode@Vword@svutil@@PAVEntity@@@svutil@@V?$allocator@PAV?$hashnode@Vword@svutil@@PAVEntity@@@svutil@@@std@@@std@@IBEXXZ 00409bf0 f i EntityPool.obj
 0001:00008bf0       ?_Xlen@?$vector@PAV?$hashnode@Vword@svutil@@V12@@svutil@@V?$allocator@PAV?$hashnode@Vword@svutil@@V12@@svutil@@@std@@@std@@IBEXXZ 00409bf0 f i EntityPool.obj
 0001:00008c70       ??0?$hashelement@Vword@svutil@@PAVEntity@@@svutil@@QAE@ABVword@1@@Z 00409c70 f i EntityPool.obj
 0001:00008cd0       ??0?$hashelement@Vword@svutil@@PAVEntity@@@svutil@@QAE@ABVword@1@ABQAVEntity@@@Z 00409cd0 f i EntityPool.obj
 0001:00008d40       ??1?$hashelement@Vword@svutil@@PAVCommonData@@@svutil@@QAE@XZ 00409d40 f i GeneralPool.obj
 0001:00008d40       ??1?$hashelement@Vword@svutil@@PAVResource@@@svutil@@QAE@XZ 00409d40 f i ResourcePool.obj
 0001:00008d40       ??1word@svutil@@UAE@XZ     00409d40 f i DB.obj
 0001:00008d40       ??1?$hashelement@Vword@svutil@@PAVGeneralPool@@@svutil@@QAE@XZ 00409d40 f i svdbmain.obj
 0001:00008d40       ??1?$hashelement@Vword@svutil@@PAVEntityGroup@@@svutil@@QAE@XZ 00409d40 f i EntityGroupPool.obj
 0001:00008d40       ??1?$hashelement@Vword@svutil@@PAVEntity@@@svutil@@QAE@XZ 00409d40 f i EntityPool.obj
 0001:00008d40       ??1?$hashelement@Vword@svutil@@PAVQueue@@@svutil@@QAE@XZ 00409d40 f i DB.obj
 0001:00008d40       ??1?$hashelement@Vword@svutil@@PAVSection@@@svutil@@QAE@XZ 00409d40 f i GeneralPool.obj
 0001:00008d40       ??1?$hashelement@Vword@svutil@@PAVTable@@@svutil@@QAE@XZ 00409d40 f i DB.obj
 0001:00008d40       ??1?$hashelement@Vword@svutil@@PAVEntityEx@@@svutil@@QAE@XZ 00409d40 f i svdb.obj
 0001:00008d40       ??1?$hashelement@Vword@svutil@@PAVVirtualGroup@@@svutil@@QAE@XZ 00409d40 f i svdb.obj
 0001:00008d40       ??1?$hashelement@Vword@svutil@@PAVMonitor@@@svutil@@QAE@XZ 00409d40 f i MonitorPool.obj
 0001:00008d40       ??1?$hashelement@Vword@svutil@@PAVGroup@@@svutil@@QAE@XZ 00409d40 f i GroupPool.obj
 0001:00008d40       ??1?$hashelement@Vword@svutil@@PAVTopologyChart@@@svutil@@QAE@XZ 00409d40 f i svdb.obj
 0001:00008d40       ??1?$hashelement@Vword@svutil@@PAVEntityTemplet@@@svutil@@QAE@XZ 00409d40 f i EntityTempletPool.obj
 0001:00008d40       ??1?$hashelement@Vword@svutil@@PAVPort@@@svutil@@QAE@XZ 00409d40 f i svdb.obj
 0001:00008d60       ??1?$treenode@V?$hashelement@Vword@svutil@@PAVEntity@@@svutil@@@svutil@@UAE@XZ 00409d60 f i EntityPool.obj
 0001:00008d80       ??_E?$treenode@V?$hashelement@Vword@svutil@@PAVEntity@@@svutil@@@svutil@@UAEPAXI@Z 00409d80 f i EntityPool.obj
 0001:00008d80       ??_G?$treenode@V?$hashelement@Vword@svutil@@PAVEntity@@@svutil@@@svutil@@UAEPAXI@Z 00409d80 f i EntityPool.obj
 0001:00008da0       ?_Min@?$_Tree@V?$_Tmap_traits@V?$basic_string@DU?$char_traits@D@std@@V?$allocator@D@2@@std@@PAVDB@@U?$less@V?$basic_string@DU?$char_traits@D@std@@V?$allocator@D@2@@std@@@2@V?$allocator@U?$pair@$$CBV?$basic_string@DU?$char_traits@D@std@@V?$allocator@D@2@@std@@PAVDB@@@std@@@2@$0A@@std@@@std@@KAPAU_Node@?$_Tree_nod@V?$_Tmap_traits@V?$basic_string@DU?$char_traits@D@std@@V?$allocator@D@2@@std@@PAVDB@@U?$less@V?$basic_string@DU?$char_traits@D@std@@V?$allocator@D@2@@std@@@2@V?$allocator@U?$pair@$$CBV?$basic_string@DU?$char_traits@D@std@@V?$allocator@D@2@@std@@PAVDB@@@std@@@2@$0A@@std@@@2@PAU342@@Z 00409da0 f i svdbmain.obj
 0001:00008da0       ?_Min@?$_Tree@V?$_Tmap_traits@V?$basic_string@DU?$char_traits@D@std@@V?$allocator@D@2@@std@@VTTime@svutil@@U?$less@V?$basic_string@DU?$char_traits@D@std@@V?$allocator@D@2@@std@@@2@V?$allocator@U?$pair@$$CBV?$basic_string@DU?$char_traits@D@std@@V?$allocator@D@2@@std@@VTTime@svutil@@@std@@@2@$0A@@std@@@std@@KAPAU_Node@?$_Tree_nod@V?$_Tmap_traits@V?$basic_string@DU?$char_traits@D@std@@V?$allocator@D@2@@std@@VTTime@svutil@@U?$less@V?$basic_string@DU?$char_traits@D@std@@V?$allocator@D@2@@std@@@2@V?$allocator@U?$pair@$$CBV?$basic_string@DU?$char_traits@D@std@@V?$allocator@D@2@@std@@VTTime@svutil@@@std@@@2@$0A@@std@@@2@PAU342@@Z 00409da0 f i WorkThread.obj
 0001:00008da0       ?_Min@?$_Tree@V?$_Tmap_traits@V?$basic_string@DU?$char_traits@D@std@@V?$allocator@D@2@@std@@IU?$less@V?$basic_string@DU?$char_traits@D@std@@V?$allocator@D@2@@std@@@2@V?$allocator@U?$pair@$$CBV?$basic_string@DU?$char_traits@D@std@@V?$allocator@D@2@@std@@I@std@@@2@$0A@@std@@@std@@KAPAU_Node@?$_Tree_nod@V?$_Tmap_traits@V?$basic_string@DU?$char_traits@D@std@@V?$allocator@D@2@@std@@IU?$less@V?$basic_string@DU?$char_traits@D@std@@V?$allocator@D@2@@std@@@2@V?$allocator@U?$pair@$$CBV?$basic_string@DU?$char_traits@D@std@@V?$allocator@D@2@@std@@I@std@@@2@$0A@@std@@@2@PAU342@@Z 00409da0 f i EntityPool.obj
 0001:00008dc0       ?_Min@?$_Tree@V?$_Tmap_traits@V?$basic_string@DU?$char_traits@D@std@@V?$allocator@D@2@@std@@V?$hashtable@Vword@svutil@@PAVMonitor@@@svutil@@U?$less@V?$basic_string@DU?$char_traits@D@std@@V?$allocator@D@2@@std@@@2@V?$allocator@U?$pair@$$CBV?$basic_string@DU?$char_traits@D@std@@V?$allocator@D@2@@std@@V?$hashtable@Vword@svutil@@PAVMonitor@@@svutil@@@std@@@2@$0A@@std@@@std@@KAPAU_Node@?$_Tree_nod@V?$_Tmap_traits@V?$basic_string@DU?$char_traits@D@std@@V?$allocator@D@2@@std@@V?$hashtable@Vword@svutil@@PAVMonitor@@@svutil@@U?$less@V?$basic_string@DU?$char_traits@D@std@@V?$allocator@D@2@@std@@@2@V?$allocator@U?$pair@$$CBV?$basic_string@DU?$char_traits@D@std@@V?$allocator@D@2@@std@@V?$hashtable@Vword@svutil@@PAVMonitor@@@svutil@@@std@@@2@$0A@@std@@@2@PAU342@@Z 00409dc0 f i MonitorPool.obj
 0001:00008dc0       ?_Min@?$_Tree@V?$_Tmap_traits@V?$basic_string@DU?$char_traits@D@std@@V?$allocator@D@2@@std@@V?$hashtable@Vword@svutil@@PAVEntity@@@svutil@@U?$less@V?$basic_string@DU?$char_traits@D@std@@V?$allocator@D@2@@std@@@2@V?$allocator@U?$pair@$$CBV?$basic_string@DU?$char_traits@D@std@@V?$allocator@D@2@@std@@V?$hashtable@Vword@svutil@@PAVEntity@@@svutil@@@std@@@2@$0A@@std@@@std@@KAPAU_Node@?$_Tree_nod@V?$_Tmap_traits@V?$basic_string@DU?$char_traits@D@std@@V?$allocator@D@2@@std@@V?$hashtable@Vword@svutil@@PAVEntity@@@svutil@@U?$less@V?$basic_string@DU?$char_traits@D@std@@V?$allocator@D@2@@std@@@2@V?$allocator@U?$pair@$$CBV?$basic_string@DU?$char_traits@D@std@@V?$allocator@D@2@@std@@V?$hashtable@Vword@svutil@@PAVEntity@@@svutil@@@std@@@2@$0A@@std@@@2@PAU342@@Z 00409dc0 f i EntityPool.obj
 0001:00008dc0       ?_Min@?$_Tree@V?$_Tmap_traits@V?$basic_string@DU?$char_traits@D@std@@V?$allocator@D@2@@std@@V?$hashtable@Vword@svutil@@PAVGroup@@@svutil@@U?$less@V?$basic_string@DU?$char_traits@D@std@@V?$allocator@D@2@@std@@@2@V?$allocator@U?$pair@$$CBV?$basic_string@DU?$char_traits@D@std@@V?$allocator@D@2@@std@@V?$hashtable@Vword@svutil@@PAVGroup@@@svutil@@@std@@@2@$0A@@std@@@std@@KAPAU_Node@?$_Tree_nod@V?$_Tmap_traits@V?$basic_string@DU?$char_traits@D@std@@V?$allocator@D@2@@std@@V?$hashtable@Vword@svutil@@PAVGroup@@@svutil@@U?$less@V?$basic_string@DU?$char_traits@D@std@@V?$allocator@D@2@@std@@@2@V?$allocator@U?$pair@$$CBV?$basic_string@DU?$char_traits@D@std@@V?$allocator@D@2@@std@@V?$hashtable@Vword@svutil@@PAVGroup@@@svutil@@@std@@@2@$0A@@std@@@2@PAU342@@Z 00409dc0 f i GroupPool.obj
 0001:00008de0       ?_Max@?$_Tree@V?$_Tmap_traits@IIU?$less@I@std@@V?$allocator@U?$pair@$$CBII@std@@@2@$0A@@std@@@std@@KAPAU_Node@?$_Tree_nod@V?$_Tmap_traits@IIU?$less@I@std@@V?$allocator@U?$pair@$$CBII@std@@@2@$0A@@std@@@2@PAU342@@Z 00409de0 f i EntityPool.obj
 0001:00008e00       ?_Min@?$_Tree@V?$_Tmap_traits@IIU?$less@I@std@@V?$allocator@U?$pair@$$CBII@std@@@2@$0A@@std@@@std@@KAPAU_Node@?$_Tree_nod@V?$_Tmap_traits@IIU?$less@I@std@@V?$allocator@U?$pair@$$CBII@std@@@2@$0A@@std@@@2@PAU342@@Z 00409e00 f i EntityPool.obj
 0001:00008e20       ?_Max@?$_Tree@V?$_Tmap_traits@V?$basic_string@DU?$char_traits@D@std@@V?$allocator@D@2@@std@@V?$hashtable@Vword@svutil@@PAVGroup@@@svutil@@U?$less@V?$basic_string@DU?$char_traits@D@std@@V?$allocator@D@2@@std@@@2@V?$allocator@U?$pair@$$CBV?$basic_string@DU?$char_traits@D@std@@V?$allocator@D@2@@std@@V?$hashtable@Vword@svutil@@PAVGroup@@@svutil@@@std@@@2@$0A@@std@@@std@@KAPAU_Node@?$_Tree_nod@V?$_Tmap_traits@V?$basic_string@DU?$char_traits@D@std@@V?$allocator@D@2@@std@@V?$hashtable@Vword@svutil@@PAVGroup@@@svutil@@U?$less@V?$basic_string@DU?$char_traits@D@std@@V?$allocator@D@2@@std@@@2@V?$allocator@U?$pair@$$CBV?$basic_string@DU?$char_traits@D@std@@V?$allocator@D@2@@std@@V?$hashtable@Vword@svutil@@PAVGroup@@@svutil@@@std@@@2@$0A@@std@@@2@PAU342@@Z 00409e20 f i GroupPool.obj
 0001:00008e20       ?_Max@?$_Tree@V?$_Tmap_traits@V?$basic_string@DU?$char_traits@D@std@@V?$allocator@D@2@@std@@V?$hashtable@Vword@svutil@@PAVMonitor@@@svutil@@U?$less@V?$basic_string@DU?$char_traits@D@std@@V?$allocator@D@2@@std@@@2@V?$allocator@U?$pair@$$CBV?$basic_string@DU?$char_traits@D@std@@V?$allocator@D@2@@std@@V?$hashtable@Vword@svutil@@PAVMonitor@@@svutil@@@std@@@2@$0A@@std@@@std@@KAPAU_Node@?$_Tree_nod@V?$_Tmap_traits@V?$basic_string@DU?$char_traits@D@std@@V?$allocator@D@2@@std@@V?$hashtable@Vword@svutil@@PAVMonitor@@@svutil@@U?$less@V?$basic_string@DU?$char_traits@D@std@@V?$allocator@D@2@@std@@@2@V?$allocator@U?$pair@$$CBV?$basic_string@DU?$char_traits@D@std@@V?$allocator@D@2@@std@@V?$hashtable@Vword@svutil@@PAVMonitor@@@svutil@@@std@@@2@$0A@@std@@@2@PAU342@@Z 00409e20 f i MonitorPool.obj
 0001:00008e20       ?_Max@?$_Tree@V?$_Tmap_traits@V?$basic_string@DU?$char_traits@D@std@@V?$allocator@D@2@@std@@V?$hashtable@Vword@svutil@@PAVEntity@@@svutil@@U?$less@V?$basic_string@DU?$char_traits@D@std@@V?$allocator@D@2@@std@@@2@V?$allocator@U?$pair@$$CBV?$basic_string@DU?$char_traits@D@std@@V?$allocator@D@2@@std@@V?$hashtable@Vword@svutil@@PAVEntity@@@svutil@@@std@@@2@$0A@@std@@@std@@KAPAU_Node@?$_Tree_nod@V?$_Tmap_traits@V?$basic_string@DU?$char_traits@D@std@@V?$allocator@D@2@@std@@V?$hashtable@Vword@svutil@@PAVEntity@@@svutil@@U?$less@V?$basic_string@DU?$char_traits@D@std@@V?$allocator@D@2@@std@@@2@V?$allocator@U?$pair@$$CBV?$basic_string@DU?$char_traits@D@std@@V?$allocator@D@2@@std@@V?$hashtable@Vword@svutil@@PAVEntity@@@svutil@@@std@@@2@$0A@@std@@@2@PAU342@@Z 00409e20 f i EntityPool.obj
 0001:00008e40       ?CountNodes@?$sorttree@V?$hashelement@Vword@svutil@@PAVEntity@@@svutil@@@svutil@@AAEXPAV?$treenode@V?$hashelement@Vword@svutil@@PAVEntity@@@svutil@@@2@AAK@Z 00409e40 f i EntityPool.obj
 0001:00008e70       ??M?$treenode@V?$hashelement@Vword@svutil@@PAVEntity@@@svutil@@@svutil@@QAE_NV01@@Z 00409e70 f i EntityPool.obj
 0001:00008ee0       ??O?$treenode@V?$hashelement@Vword@svutil@@PAVEntity@@@svutil@@@svutil@@QAE_NV01@@Z 00409ee0 f i EntityPool.obj
 0001:00008f50       ??0?$treenode@V?$hashelement@Vword@svutil@@PAVEntity@@@svutil@@@svutil@@QAE@ABV01@@Z 00409f50 f i EntityPool.obj
 0001:00008fd0       ?_Inc@const_iterator@?$_Tree@V?$_Tmap_traits@IIU?$less@I@std@@V?$allocator@U?$pair@$$CBII@std@@@2@$0A@@std@@@std@@QAEXXZ 00409fd0 f i EntityPool.obj
 0001:00009030       ??1_Node@?$_Tree_nod@V?$_Tmap_traits@V?$basic_string@DU?$char_traits@D@std@@V?$allocator@D@2@@std@@VTTime@svutil@@U?$less@V?$basic_string@DU?$char_traits@D@std@@V?$allocator@D@2@@std@@@2@V?$allocator@U?$pair@$$CBV?$basic_string@DU?$char_traits@D@std@@V?$allocator@D@2@@std@@VTTime@svutil@@@std@@@2@$0A@@std@@@std@@QAE@XZ 0040a030 f i WorkThread.obj
 0001:00009030       ??1_Node@?$_Tree_nod@V?$_Tmap_traits@V?$basic_string@DU?$char_traits@D@std@@V?$allocator@D@2@@std@@IU?$less@V?$basic_string@DU?$char_traits@D@std@@V?$allocator@D@2@@std@@@2@V?$allocator@U?$pair@$$CBV?$basic_string@DU?$char_traits@D@std@@V?$allocator@D@2@@std@@I@std@@@2@$0A@@std@@@std@@QAE@XZ 0040a030 f i EntityPool.obj
 0001:00009030       ??1_Node@?$_Tree_nod@V?$_Tset_traits@V?$basic_string@DU?$char_traits@D@std@@V?$allocator@D@2@@std@@U?$less@V?$basic_string@DU?$char_traits@D@std@@V?$allocator@D@2@@std@@@2@V?$allocator@V?$basic_string@DU?$char_traits@D@std@@V?$allocator@D@2@@std@@@2@$0A@@std@@@std@@QAE@XZ 0040a030 f i Resource.obj
 0001:00009030       ??1_Node@?$_Tree_nod@V?$_Tmap_traits@V?$basic_string@DU?$char_traits@D@std@@V?$allocator@D@2@@std@@PAVDB@@U?$less@V?$basic_string@DU?$char_traits@D@std@@V?$allocator@D@2@@std@@@2@V?$allocator@U?$pair@$$CBV?$basic_string@DU?$char_traits@D@std@@V?$allocator@D@2@@std@@PAVDB@@@std@@@2@$0A@@std@@@std@@QAE@XZ 0040a030 f i svdbmain.obj
 0001:00009040       ??0?$treenode@V?$hashelement@Vword@svutil@@PAVEntity@@@svutil@@@svutil@@QAE@ABV?$hashelement@Vword@svutil@@PAVEntity@@@1@@Z 0040a040 f i EntityPool.obj
 0001:000090c0       ?_Rrotate@?$_Tree@V?$_Tmap_traits@V?$basic_string@DU?$char_traits@D@std@@V?$allocator@D@2@@std@@PAVDB@@U?$less@V?$basic_string@DU?$char_traits@D@std@@V?$allocator@D@2@@std@@@2@V?$allocator@U?$pair@$$CBV?$basic_string@DU?$char_traits@D@std@@V?$allocator@D@2@@std@@PAVDB@@@std@@@2@$0A@@std@@@std@@IAEXPAU_Node@?$_Tree_nod@V?$_Tmap_traits@V?$basic_string@DU?$char_traits@D@std@@V?$allocator@D@2@@std@@PAVDB@@U?$less@V?$basic_string@DU?$char_traits@D@std@@V?$allocator@D@2@@std@@@2@V?$allocator@U?$pair@$$CBV?$basic_string@DU?$char_traits@D@std@@V?$allocator@D@2@@std@@PAVDB@@@std@@@2@$0A@@std@@@2@@Z 0040a0c0 f i svdbmain.obj
 0001:000090c0       ?_Rrotate@?$_Tree@V?$_Tmap_traits@V?$basic_string@DU?$char_traits@D@std@@V?$allocator@D@2@@std@@VTTime@svutil@@U?$less@V?$basic_string@DU?$char_traits@D@std@@V?$allocator@D@2@@std@@@2@V?$allocator@U?$pair@$$CBV?$basic_string@DU?$char_traits@D@std@@V?$allocator@D@2@@std@@VTTime@svutil@@@std@@@2@$0A@@std@@@std@@IAEXPAU_Node@?$_Tree_nod@V?$_Tmap_traits@V?$basic_string@DU?$char_traits@D@std@@V?$allocator@D@2@@std@@VTTime@svutil@@U?$less@V?$basic_string@DU?$char_traits@D@std@@V?$allocator@D@2@@std@@@2@V?$allocator@U?$pair@$$CBV?$basic_string@DU?$char_traits@D@std@@V?$allocator@D@2@@std@@VTTime@svutil@@@std@@@2@$0A@@std@@@2@@Z 0040a0c0 f i WorkThread.obj
 0001:000090c0       ?_Rrotate@?$_Tree@V?$_Tmap_traits@V?$basic_string@DU?$char_traits@D@std@@V?$allocator@D@2@@std@@IU?$less@V?$basic_string@DU?$char_traits@D@std@@V?$allocator@D@2@@std@@@2@V?$allocator@U?$pair@$$CBV?$basic_string@DU?$char_traits@D@std@@V?$allocator@D@2@@std@@I@std@@@2@$0A@@std@@@std@@IAEXPAU_Node@?$_Tree_nod@V?$_Tmap_traits@V?$basic_string@DU?$char_traits@D@std@@V?$allocator@D@2@@std@@IU?$less@V?$basic_string@DU?$char_traits@D@std@@V?$allocator@D@2@@std@@@2@V?$allocator@U?$pair@$$CBV?$basic_string@DU?$char_traits@D@std@@V?$allocator@D@2@@std@@I@std@@@2@$0A@@std@@@2@@Z 0040a0c0 f i EntityPool.obj
 0001:00009120       ?_Lrotate@?$_Tree@V?$_Tmap_traits@IIU?$less@I@std@@V?$allocator@U?$pair@$$CBII@std@@@2@$0A@@std@@@std@@IAEXPAU_Node@?$_Tree_nod@V?$_Tmap_traits@IIU?$less@I@std@@V?$allocator@U?$pair@$$CBII@std@@@2@$0A@@std@@@2@@Z 0040a120 f i EntityPool.obj
 0001:00009180       ?_Rrotate@?$_Tree@V?$_Tmap_traits@IIU?$less@I@std@@V?$allocator@U?$pair@$$CBII@std@@@2@$0A@@std@@@std@@IAEXPAU_Node@?$_Tree_nod@V?$_Tmap_traits@IIU?$less@I@std@@V?$allocator@U?$pair@$$CBII@std@@@2@$0A@@std@@@2@@Z 0040a180 f i EntityPool.obj
 0001:000091e0       ?DeleteTree@?$sorttree@V?$hashelement@Vword@svutil@@V12@@svutil@@@svutil@@QAEXPAV?$treenode@V?$hashelement@Vword@svutil@@V12@@svutil@@@2@@Z 0040a1e0 f i EntityPool.obj
 0001:00009230       ?DeleteTree@?$sorttree@V?$hashelement@Vword@svutil@@PAVEntity@@@svutil@@@svutil@@QAEXPAV?$treenode@V?$hashelement@Vword@svutil@@PAVEntity@@@svutil@@@2@@Z 0040a230 f i EntityPool.obj
 0001:00009280       ?RomoveNode@?$sorttree@V?$hashelement@Vword@svutil@@PAVEntity@@@svutil@@@svutil@@QAEXABV?$hashelement@Vword@svutil@@PAVEntity@@@2@@Z 0040a280 f i EntityPool.obj
 0001:00009420       ?_Ubound@?$_Tree@V?$_Tmap_traits@V?$basic_string@DU?$char_traits@D@std@@V?$allocator@D@2@@std@@IU?$less@V?$basic_string@DU?$char_traits@D@std@@V?$allocator@D@2@@std@@@2@V?$allocator@U?$pair@$$CBV?$basic_string@DU?$char_traits@D@std@@V?$allocator@D@2@@std@@I@std@@@2@$0A@@std@@@std@@IBEPAU_Node@?$_Tree_nod@V?$_Tmap_traits@V?$basic_string@DU?$char_traits@D@std@@V?$allocator@D@2@@std@@IU?$less@V?$basic_string@DU?$char_traits@D@std@@V?$allocator@D@2@@std@@@2@V?$allocator@U?$pair@$$CBV?$basic_string@DU?$char_traits@D@std@@V?$allocator@D@2@@std@@I@std@@@2@$0A@@std@@@2@ABV?$basic_string@DU?$char_traits@D@std@@V?$allocator@D@2@@2@@Z 0040a420 f i EntityPool.obj
 0001:00009470       ?_Dec@const_iterator@?$_Tree@V?$_Tmap_traits@V?$basic_string@DU?$char_traits@D@std@@V?$allocator@D@2@@std@@V?$hashtable@Vword@svutil@@PAVMonitor@@@svutil@@U?$less@V?$basic_string@DU?$char_traits@D@std@@V?$allocator@D@2@@std@@@2@V?$allocator@U?$pair@$$CBV?$basic_string@DU?$char_traits@D@std@@V?$allocator@D@2@@std@@V?$hashtable@Vword@svutil@@PAVMonitor@@@svutil@@@std@@@2@$0A@@std@@@std@@QAEXXZ 0040a470 f i MonitorPool.obj
 0001:00009470       ?_Dec@const_iterator@?$_Tree@V?$_Tmap_traits@V?$basic_string@DU?$char_traits@D@std@@V?$allocator@D@2@@std@@V?$hashtable@Vword@svutil@@PAVGroup@@@svutil@@U?$less@V?$basic_string@DU?$char_traits@D@std@@V?$allocator@D@2@@std@@@2@V?$allocator@U?$pair@$$CBV?$basic_string@DU?$char_traits@D@std@@V?$allocator@D@2@@std@@V?$hashtable@Vword@svutil@@PAVGroup@@@svutil@@@std@@@2@$0A@@std@@@std@@QAEXXZ 0040a470 f i GroupPool.obj
 0001:00009470       ?_Dec@const_iterator@?$_Tree@V?$_Tmap_traits@V?$basic_string@DU?$char_traits@D@std@@V?$allocator@D@2@@std@@V?$hashtable@Vword@svutil@@PAVEntity@@@svutil@@U?$less@V?$basic_string@DU?$char_traits@D@std@@V?$allocator@D@2@@std@@@2@V?$allocator@U?$pair@$$CBV?$basic_string@DU?$char_traits@D@std@@V?$allocator@D@2@@std@@V?$hashtable@Vword@svutil@@PAVEntity@@@svutil@@@std@@@2@$0A@@std@@@std@@QAEXXZ 0040a470 f i EntityPool.obj
 0001:000094d0       ?InsertNode@?$sorttree@V?$hashelement@Vword@svutil@@PAVEntity@@@svutil@@@svutil@@QAEXPAV?$treenode@V?$hashelement@Vword@svutil@@PAVEntity@@@svutil@@@2@0@Z 0040a4d0 f i EntityPool.obj
 0001:00009560       ?findnextnode@?$sorttree@V?$hashelement@Vword@svutil@@PAVEntity@@@svutil@@@svutil@@ABEPAV?$treenode@V?$hashelement@Vword@svutil@@PAVEntity@@@svutil@@@2@AAV?$hashelement@Vword@svutil@@PAVEntity@@@2@AA_NPAV32@@Z 0040a560 f i EntityPool.obj
 0001:000095d0       ??$CreateNode@V?$hashelement@Vword@svutil@@PAVEntity@@@svutil@@@?$sorttree@V?$hashelement@Vword@svutil@@PAVEntity@@@svutil@@@svutil@@SAPAV?$treenode@V?$hashelement@Vword@svutil@@PAVEntity@@@svutil@@@1@ABV?$hashelement@Vword@svutil@@PAVEntity@@@1@@Z 0040a5d0 f i EntityPool.obj
 0001:00009630       ??_E?$sorttree@V?$hashelement@Vword@svutil@@V12@@svutil@@@svutil@@UAEPAXI@Z 0040a630 f i EntityPool.obj
 0001:00009630       ??_G?$sorttree@V?$hashelement@Vword@svutil@@V12@@svutil@@@svutil@@UAEPAXI@Z 0040a630 f i EntityPool.obj
 0001:00009690       ??_G?$sorttree@V?$hashelement@Vword@svutil@@PAVEntity@@@svutil@@@svutil@@UAEPAXI@Z 0040a690 f i EntityPool.obj
 0001:00009690       ??_E?$sorttree@V?$hashelement@Vword@svutil@@PAVEntity@@@svutil@@@svutil@@UAEPAXI@Z 0040a690 f i EntityPool.obj
 0001:000096f0       ?_Buynode@?$_Tree@V?$_Tmap_traits@V?$basic_string@DU?$char_traits@D@std@@V?$allocator@D@2@@std@@IU?$less@V?$basic_string@DU?$char_traits@D@std@@V?$allocator@D@2@@std@@@2@V?$allocator@U?$pair@$$CBV?$basic_string@DU?$char_traits@D@std@@V?$allocator@D@2@@std@@I@std@@@2@$0A@@std@@@std@@IAEPAU_Node@?$_Tree_nod@V?$_Tmap_traits@V?$basic_string@DU?$char_traits@D@std@@V?$allocator@D@2@@std@@IU?$less@V?$basic_string@DU?$char_traits@D@std@@V?$allocator@D@2@@std@@@2@V?$allocator@U?$pair@$$CBV?$basic_string@DU?$char_traits@D@std@@V?$allocator@D@2@@std@@I@std@@@2@$0A@@std@@@2@PAU342@00ABU?$pair@$$CBV?$basic_string@DU?$char_traits@D@std@@V?$allocator@D@2@@std@@I@2@D@Z 0040a6f0 f i EntityPool.obj
 0001:00009790       ??1?$hashnode@Vword@svutil@@V12@@svutil@@QAE@XZ 0040a790 f i EntityPool.obj
 0001:00009840       ?find@?$hashnode@Vword@svutil@@PAVEntity@@@svutil@@QAE_NABVword@2@PAPAV?$hashelement@Vword@svutil@@PAVEntity@@@2@@Z 0040a840 f i EntityPool.obj
 0001:00009910       ?InsertNodeEx@?$sorttree@V?$hashelement@Vword@svutil@@PAVEntity@@@svutil@@@svutil@@QAEAAV?$hashelement@Vword@svutil@@PAVEntity@@@2@ABV32@@Z 0040a910 f i EntityPool.obj
 0001:000099a0       ?_Buynode@?$_Tree@V?$_Tmap_traits@IIU?$less@I@std@@V?$allocator@U?$pair@$$CBII@std@@@2@$0A@@std@@@std@@IAEPAU_Node@?$_Tree_nod@V?$_Tmap_traits@IIU?$less@I@std@@V?$allocator@U?$pair@$$CBII@std@@@2@$0A@@std@@@2@XZ 0040a9a0 f i EntityPool.obj
 0001:000099e0       ?_Erase@?$_Tree@V?$_Tmap_traits@IIU?$less@I@std@@V?$allocator@U?$pair@$$CBII@std@@@2@$0A@@std@@@std@@IAEXPAU_Node@?$_Tree_nod@V?$_Tmap_traits@IIU?$less@I@std@@V?$allocator@U?$pair@$$CBII@std@@@2@$0A@@std@@@2@@Z 0040a9e0 f i EntityPool.obj
 0001:00009a20       ??$_Uninit_copy@Vconst_iterator@?$vector@PAV?$hashnode@Vword@svutil@@PAVGroup@@@svutil@@V?$allocator@PAV?$hashnode@Vword@svutil@@PAVGroup@@@svutil@@@std@@@std@@PAPAV?$hashnode@Vword@svutil@@PAVGroup@@@svutil@@V?$allocator@PAV?$hashnode@Vword@svutil@@PAVGroup@@@svutil@@@3@@std@@YAPAPAV?$hashnode@Vword@svutil@@PAVGroup@@@svutil@@Vconst_iterator@?$vector@PAV?$hashnode@Vword@svutil@@PAVGroup@@@svutil@@V?$allocator@PAV?$hashnode@Vword@svutil@@PAVGroup@@@svutil@@@std@@@0@0PAPAV12@AAV?$allocator@PAV?$hashnode@Vword@svutil@@PAVGroup@@@svutil@@@0@U_Nonscalar_ptr_iterator_tag@0@@Z 0040aa20 f i GroupPool.obj
 0001:00009a20       ??$_Uninit_copy@Vconst_iterator@?$vector@PAV?$hashnode@Vword@svutil@@PAVEntity@@@svutil@@V?$allocator@PAV?$hashnode@Vword@svutil@@PAVEntity@@@svutil@@@std@@@std@@PAPAV?$hashnode@Vword@svutil@@PAVEntity@@@svutil@@V?$allocator@PAV?$hashnode@Vword@svutil@@PAVEntity@@@svutil@@@3@@std@@YAPAPAV?$hashnode@Vword@svutil@@PAVEntity@@@svutil@@Vconst_iterator@?$vector@PAV?$hashnode@Vword@svutil@@PAVEntity@@@svutil@@V?$allocator@PAV?$hashnode@Vword@svutil@@PAVEntity@@@svutil@@@std@@@0@0PAPAV12@AAV?$allocator@PAV?$hashnode@Vword@svutil@@PAVEntity@@@svutil@@@0@U_Nonscalar_ptr_iterator_tag@0@@Z 0040aa20 f i EntityPool.obj
 0001:00009a20       ??$_Uninit_copy@Vconst_iterator@?$vector@PAV?$hashnode@Vword@svutil@@PAVMonitor@@@svutil@@V?$allocator@PAV?$hashnode@Vword@svutil@@PAVMonitor@@@svutil@@@std@@@std@@PAPAV?$hashnode@Vword@svutil@@PAVMonitor@@@svutil@@V?$allocator@PAV?$hashnode@Vword@svutil@@PAVMonitor@@@svutil@@@3@@std@@YAPAPAV?$hashnode@Vword@svutil@@PAVMonitor@@@svutil@@Vconst_iterator@?$vector@PAV?$hashnode@Vword@svutil@@PAVMonitor@@@svutil@@V?$allocator@PAV?$hashnode@Vword@svutil@@PAVMonitor@@@svutil@@@std@@@0@0PAPAV12@AAV?$allocator@PAV?$hashnode@Vword@svutil@@PAVMonitor@@@svutil@@@0@U_Nonscalar_ptr_iterator_tag@0@@Z 0040aa20 f i MonitorPool.obj
 0001:00009a50       ?_Insert@?$_Tree@V?$_Tmap_traits@V?$basic_string@DU?$char_traits@D@std@@V?$allocator@D@2@@std@@IU?$less@V?$basic_string@DU?$char_traits@D@std@@V?$allocator@D@2@@std@@@2@V?$allocator@U?$pair@$$CBV?$basic_string@DU?$char_traits@D@std@@V?$allocator@D@2@@std@@I@std@@@2@$0A@@std@@@std@@IAE?AViterator@12@_NPAU_Node@?$_Tree_nod@V?$_Tmap_traits@V?$basic_string@DU?$char_traits@D@std@@V?$allocator@D@2@@std@@IU?$less@V?$basic_string@DU?$char_traits@D@std@@V?$allocator@D@2@@std@@@2@V?$allocator@U?$pair@$$CBV?$basic_string@DU?$char_traits@D@std@@V?$allocator@D@2@@std@@I@std@@@2@$0A@@std@@@2@ABU?$pair@$$CBV?$basic_string@DU?$char_traits@D@std@@V?$allocator@D@2@@std@@I@2@@Z 0040aa50 f i EntityPool.obj
 0001:00009c10       ??1?$hashnode@Vword@svutil@@PAVEntity@@@svutil@@QAE@XZ 0040ac10 f i EntityPool.obj
 0001:00009ca0       ?insert@?$hashnode@Vword@svutil@@PAVEntity@@@svutil@@QAEAAV?$hashelement@Vword@svutil@@PAVEntity@@@2@ABVword@2@ABQAVEntity@@@Z 0040aca0 f i EntityPool.obj
 0001:00009d80       ?find@?$hashnode@Vword@svutil@@PAVEntity@@@svutil@@QAE_NABVword@2@PAPAPAVEntity@@@Z 0040ad80 f i EntityPool.obj
 0001:00009de0       ?erase@?$_Tree@V?$_Tmap_traits@IIU?$less@I@std@@V?$allocator@U?$pair@$$CBII@std@@@2@$0A@@std@@@std@@QAE?AViterator@12@V312@@Z 0040ade0 f i EntityPool.obj
 0001:0000a0b0       ??0out_of_range@std@@QAE@ABV01@@Z 0040b0b0 f i EntityPool.obj
 0001:0000a0d0       ??$_Distance@Viterator@?$_Tree@V?$_Tmap_traits@V?$basic_string@DU?$char_traits@D@std@@V?$allocator@D@2@@std@@IU?$less@V?$basic_string@DU?$char_traits@D@std@@V?$allocator@D@2@@std@@@2@V?$allocator@U?$pair@$$CBV?$basic_string@DU?$char_traits@D@std@@V?$allocator@D@2@@std@@I@std@@@2@$0A@@std@@@std@@I@std@@YAXViterator@?$_Tree@V?$_Tmap_traits@V?$basic_string@DU?$char_traits@D@std@@V?$allocator@D@2@@std@@IU?$less@V?$basic_string@DU?$char_traits@D@std@@V?$allocator@D@2@@std@@@2@V?$allocator@U?$pair@$$CBV?$basic_string@DU?$char_traits@D@std@@V?$allocator@D@2@@std@@I@std@@@2@$0A@@std@@@0@0AAI@Z 0040b0d0 f i EntityPool.obj
 0001:0000a110       ?GetVersion@PoolBase2@@QAEIVword@svutil@@@Z 0040b110 f i EntityPool.obj
 0001:0000a1f0       ?insert@?$_Tree@V?$_Tmap_traits@V?$basic_string@DU?$char_traits@D@std@@V?$allocator@D@2@@std@@IU?$less@V?$basic_string@DU?$char_traits@D@std@@V?$allocator@D@2@@std@@@2@V?$allocator@U?$pair@$$CBV?$basic_string@DU?$char_traits@D@std@@V?$allocator@D@2@@std@@I@std@@@2@$0A@@std@@@std@@QAE?AU?$pair@Viterator@?$_Tree@V?$_Tmap_traits@V?$basic_string@DU?$char_traits@D@std@@V?$allocator@D@2@@std@@IU?$less@V?$basic_string@DU?$char_traits@D@std@@V?$allocator@D@2@@std@@@2@V?$allocator@U?$pair@$$CBV?$basic_string@DU?$char_traits@D@std@@V?$allocator@D@2@@std@@I@std@@@2@$0A@@std@@@std@@_N@2@ABU?$pair@$$CBV?$basic_string@DU?$char_traits@D@std@@V?$allocator@D@2@@std@@I@2@@Z 0040b1f0 f i EntityPool.obj
 0001:0000a2d0       ?size@?$hashtable@Vword@svutil@@PAVEntity@@@svutil@@QAEIXZ 0040b2d0 f i EntityPool.obj
 0001:0000a370       ?find@?$hashtable@Vword@svutil@@PAVEntity@@@svutil@@QAEPAPAVEntity@@ABVword@2@@Z 0040b370 f i EntityPool.obj
 0001:0000a3e0       ?clearnodes@?$hashtable@Vword@svutil@@V12@@svutil@@IAEXXZ 0040b3e0 f i EntityPool.obj
 0001:0000a450       ?clearnodes@?$hashtable@Vword@svutil@@PAVEntity@@@svutil@@IAEXXZ 0040b450 f i EntityPool.obj
 0001:0000a4c0       ?findnext@?$hashnode@Vword@svutil@@PAVEntity@@@svutil@@QAE_NAAV?$hashelement@Vword@svutil@@PAVEntity@@@2@PAPAV32@@Z 0040b4c0 f i EntityPool.obj
 0001:0000a570       ?erase@?$hashnode@Vword@svutil@@PAVEntity@@@svutil@@QAE_NABVword@2@@Z 0040b570 f i EntityPool.obj
 0001:0000a680       ?erase@?$_Tree@V?$_Tmap_traits@V?$basic_string@DU?$char_traits@D@std@@V?$allocator@D@2@@std@@IU?$less@V?$basic_string@DU?$char_traits@D@std@@V?$allocator@D@2@@std@@@2@V?$allocator@U?$pair@$$CBV?$basic_string@DU?$char_traits@D@std@@V?$allocator@D@2@@std@@I@std@@@2@$0A@@std@@@std@@QAE?AViterator@12@V312@@Z 0040b680 f i EntityPool.obj
 0001:0000a960       ?erase@?$_Tree@V?$_Tmap_traits@IIU?$less@I@std@@V?$allocator@U?$pair@$$CBII@std@@@2@$0A@@std@@@std@@QAE?AViterator@12@V312@0@Z 0040b960 f i EntityPool.obj
 0001:0000aa20       ?_Insert_n@?$vector@PAV?$hashnode@Vword@svutil@@PAVEntity@@@svutil@@V?$allocator@PAV?$hashnode@Vword@svutil@@PAVEntity@@@svutil@@@std@@@std@@IAEXViterator@12@IABQAV?$hashnode@Vword@svutil@@PAVEntity@@@svutil@@@Z 0040ba20 f i EntityPool.obj
 0001:0000aa20       ?_Insert_n@?$vector@PAV?$hashnode@Vword@svutil@@V12@@svutil@@V?$allocator@PAV?$hashnode@Vword@svutil@@V12@@svutil@@@std@@@std@@IAEXViterator@12@IABQAV?$hashnode@Vword@svutil@@V12@@svutil@@@Z 0040ba20 f i EntityPool.obj
 0001:0000ac10       ?_Erase@?$_Tree@V?$_Tmap_traits@V?$basic_string@DU?$char_traits@D@std@@V?$allocator@D@2@@std@@IU?$less@V?$basic_string@DU?$char_traits@D@std@@V?$allocator@D@2@@std@@@2@V?$allocator@U?$pair@$$CBV?$basic_string@DU?$char_traits@D@std@@V?$allocator@D@2@@std@@I@std@@@2@$0A@@std@@@std@@IAEXPAU_Node@?$_Tree_nod@V?$_Tmap_traits@V?$basic_string@DU?$char_traits@D@std@@V?$allocator@D@2@@std@@IU?$less@V?$basic_string@DU?$char_traits@D@std@@V?$allocator@D@2@@std@@@2@V?$allocator@U?$pair@$$CBV?$basic_string@DU?$char_traits@D@std@@V?$allocator@D@2@@std@@I@std@@@2@$0A@@std@@@2@@Z 0040bc10 f i EntityPool.obj
 0001:0000ac50       ?NewVersion@PoolBase2@@QAE_NVword@svutil@@@Z 0040bc50 f i EntityPool.obj
 0001:0000ad50       ?GetEntityData@EntityPool@@QAE_NVword@svutil@@PADAAI@Z 0040bd50 f   EntityPool.obj
 0001:0000ae40       ??1?$hashtable@Vword@svutil@@V12@@svutil@@QAE@XZ 0040be40 f i EntityPool.obj
 0001:0000aea0       ??1?$hashtable@Vword@svutil@@PAVEntity@@@svutil@@QAE@XZ 0040bea0 f i EntityPool.obj
 0001:0000af00       ?erase@?$hashtable@Vword@svutil@@PAVEntity@@@svutil@@QAE_NABVword@2@@Z 0040bf00 f i EntityPool.obj
 0001:0000afa0       ?findnext@?$hashtable@Vword@svutil@@PAVEntity@@@svutil@@QAE_NAAViterator@12@@Z 0040bfa0 f i EntityPool.obj
 0001:0000b040       ??0?$vector@PAV?$hashnode@Vword@svutil@@PAVEntity@@@svutil@@V?$allocator@PAV?$hashnode@Vword@svutil@@PAVEntity@@@svutil@@@std@@@std@@QAE@ABV01@@Z 0040c040 f i EntityPool.obj
 0001:0000b100       ?resize@?$vector@PAV?$hashnode@Vword@svutil@@V12@@svutil@@V?$allocator@PAV?$hashnode@Vword@svutil@@V12@@svutil@@@std@@@std@@QAEXIPAV?$hashnode@Vword@svutil@@V12@@svutil@@@Z 0040c100 f i EntityPool.obj
 0001:0000b100       ?resize@?$vector@PAV?$hashnode@Vword@svutil@@PAVEntity@@@svutil@@V?$allocator@PAV?$hashnode@Vword@svutil@@PAVEntity@@@svutil@@@std@@@std@@QAEXIPAV?$hashnode@Vword@svutil@@PAVEntity@@@svutil@@@Z 0040c100 f i EntityPool.obj
 0001:0000b190       ??1EntityPool@@QAE@XZ      0040c190 f   EntityPool.obj
 0001:0000b280       ??1?$pair@$$CBV?$basic_string@DU?$char_traits@D@std@@V?$allocator@D@2@@std@@V?$hashtable@Vword@svutil@@PAVEntity@@@svutil@@@std@@QAE@XZ 0040c280 f i EntityPool.obj
 0001:0000b280       ??1?$pair@V?$basic_string@DU?$char_traits@D@std@@V?$allocator@D@2@@std@@V?$hashtable@Vword@svutil@@PAVEntity@@@svutil@@@std@@QAE@XZ 0040c280 f i EntityPool.obj
 0001:0000b2d0       ?GetRawDataSize@EntityPool@@UAEIXZ 0040c2d0 f   EntityPool.obj
 0001:0000b330       ?GetRawData@EntityPool@@UAEPADPADI@Z 0040c330 f   EntityPool.obj
 0001:0000b420       ??0?$hashtable@Vword@svutil@@V12@@svutil@@QAE@H@Z 0040c420 f i EntityPool.obj
 0001:0000b480       ??0?$hashtable@Vword@svutil@@PAVEntity@@@svutil@@QAE@XZ 0040c480 f i EntityPool.obj
 0001:0000b4d0       ?insert@?$hashtable@Vword@svutil@@PAVEntity@@@svutil@@QAEAAPAVEntity@@ABVword@2@ABQAV3@@Z 0040c4d0 f i EntityPool.obj
 0001:0000b5c0       ?erase@?$_Tree@V?$_Tmap_traits@V?$basic_string@DU?$char_traits@D@std@@V?$allocator@D@2@@std@@IU?$less@V?$basic_string@DU?$char_traits@D@std@@V?$allocator@D@2@@std@@@2@V?$allocator@U?$pair@$$CBV?$basic_string@DU?$char_traits@D@std@@V?$allocator@D@2@@std@@I@std@@@2@$0A@@std@@@std@@QAE?AViterator@12@V312@0@Z 0040c5c0 f i EntityPool.obj
 0001:0000b680       ??0?$pair@$$CBV?$basic_string@DU?$char_traits@D@std@@V?$allocator@D@2@@std@@V?$hashtable@Vword@svutil@@PAVEntity@@@svutil@@@std@@QAE@ABU01@@Z 0040c680 f i EntityPool.obj
 0001:0000b680       ??$?0V?$basic_string@DU?$char_traits@D@std@@V?$allocator@D@2@@std@@V?$hashtable@Vword@svutil@@PAVEntity@@@svutil@@@?$pair@$$CBV?$basic_string@DU?$char_traits@D@std@@V?$allocator@D@2@@std@@V?$hashtable@Vword@svutil@@PAVEntity@@@svutil@@@std@@QAE@ABU?$pair@V?$basic_string@DU?$char_traits@D@std@@V?$allocator@D@2@@std@@V?$hashtable@Vword@svutil@@PAVEntity@@@svutil@@@1@@Z 0040c680 f i EntityPool.obj
 0001:0000b6e0       ??1_Node@?$_Tree_nod@V?$_Tmap_traits@V?$basic_string@DU?$char_traits@D@std@@V?$allocator@D@2@@std@@V?$hashtable@Vword@svutil@@PAVEntity@@@svutil@@U?$less@V?$basic_string@DU?$char_traits@D@std@@V?$allocator@D@2@@std@@@2@V?$allocator@U?$pair@$$CBV?$basic_string@DU?$char_traits@D@std@@V?$allocator@D@2@@std@@V?$hashtable@Vword@svutil@@PAVEntity@@@svutil@@@std@@@2@$0A@@std@@@std@@QAE@XZ 0040c6e0 f i EntityPool.obj
 0001:0000b6f0       ??0?$pair@V?$basic_string@DU?$char_traits@D@std@@V?$allocator@D@2@@std@@V?$hashtable@Vword@svutil@@PAVEntity@@@svutil@@@std@@QAE@ABV?$basic_string@DU?$char_traits@D@std@@V?$allocator@D@2@@1@ABV?$hashtable@Vword@svutil@@PAVEntity@@@svutil@@@Z 0040c6f0 f i EntityPool.obj
 0001:0000b750       ??1?$map@IIU?$less@I@std@@V?$allocator@U?$pair@$$CBII@std@@@2@@std@@QAE@XZ 0040c750 f i EntityPool.obj
 0001:0000b780       ??0EntityPool@@QAE@AAV?$hashtable@Vword@svutil@@PAVEntity@@@svutil@@@Z 0040c780 f i EntityPool.obj
 0001:0000b890       ??0EntityPool@@QAE@XZ      0040c890 f   EntityPool.obj
 0001:0000b920       ?QueryMassEntity@EntityPool@@QAEHV?$basic_string@DU?$char_traits@D@std@@V?$allocator@D@2@@std@@PBDIAAV?$list@VSingelRecord@@V?$allocator@VSingelRecord@@@std@@@3@@Z 0040c920 f   EntityPool.obj
 0001:0000bc40       ?CreateObjectByRawData@EntityPool@@UAEHPBDI@Z 0040cc40 f   EntityPool.obj
 0001:0000be10       ?push@EntityPool@@QAE_NPAVEntity@@@Z 0040ce10 f   EntityPool.obj
 0001:0000bfa0       ?PushData@EntityPool@@QAE_NPBDI@Z 0040cfa0 f   EntityPool.obj
 0001:0000c070       ?erase@?$_Tree@V?$_Tmap_traits@V?$basic_string@DU?$char_traits@D@std@@V?$allocator@D@2@@std@@IU?$less@V?$basic_string@DU?$char_traits@D@std@@V?$allocator@D@2@@std@@@2@V?$allocator@U?$pair@$$CBV?$basic_string@DU?$char_traits@D@std@@V?$allocator@D@2@@std@@I@std@@@2@$0A@@std@@@std@@QAEIABV?$basic_string@DU?$char_traits@D@std@@V?$allocator@D@2@@2@@Z 0040d070 f i EntityPool.obj
 0001:0000c0c0       ??$make_pair@V?$basic_string@DU?$char_traits@D@std@@V?$allocator@D@2@@std@@V?$hashtable@Vword@svutil@@PAVEntity@@@svutil@@@std@@YA?AU?$pair@V?$basic_string@DU?$char_traits@D@std@@V?$allocator@D@2@@std@@V?$hashtable@Vword@svutil@@PAVEntity@@@svutil@@@0@V?$basic_string@DU?$char_traits@D@std@@V?$allocator@D@2@@0@V?$hashtable@Vword@svutil@@PAVEntity@@@svutil@@@Z 0040d0c0 f i EntityPool.obj
 0001:0000c140       ??1?$map@V?$basic_string@DU?$char_traits@D@std@@V?$allocator@D@2@@std@@IU?$less@V?$basic_string@DU?$char_traits@D@std@@V?$allocator@D@2@@std@@@2@V?$allocator@U?$pair@$$CBV?$basic_string@DU?$char_traits@D@std@@V?$allocator@D@2@@std@@I@std@@@2@@std@@QAE@XZ 0040d140 f i EntityPool.obj
 0001:0000c170       ?DeleteEntity@EntityPool@@QAE_NVword@svutil@@@Z 0040d170 f   EntityPool.obj
 0001:0000c2a0       ?_Buynode@?$_Tree@V?$_Tmap_traits@V?$basic_string@DU?$char_traits@D@std@@V?$allocator@D@2@@std@@V?$hashtable@Vword@svutil@@PAVEntity@@@svutil@@U?$less@V?$basic_string@DU?$char_traits@D@std@@V?$allocator@D@2@@std@@@2@V?$allocator@U?$pair@$$CBV?$basic_string@DU?$char_traits@D@std@@V?$allocator@D@2@@std@@V?$hashtable@Vword@svutil@@PAVEntity@@@svutil@@@std@@@2@$0A@@std@@@std@@IAEPAU_Node@?$_Tree_nod@V?$_Tmap_traits@V?$basic_string@DU?$char_traits@D@std@@V?$allocator@D@2@@std@@V?$hashtable@Vword@svutil@@PAVEntity@@@svutil@@U?$less@V?$basic_string@DU?$char_traits@D@std@@V?$allocator@D@2@@std@@@2@V?$allocator@U?$pair@$$CBV?$basic_string@DU?$char_traits@D@std@@V?$allocator@D@2@@std@@V?$hashtable@Vword@svutil@@PAVEntity@@@svutil@@@std@@@2@$0A@@std@@@2@PAU342@00ABU?$pair@$$CBV?$basic_string@DU?$char_traits@D@std@@V?$allocator@D@2@@std@@V?$hashtable@Vword@svutil@@PAVEntity@@@svutil@@@2@D@Z 0040d2a0 f i EntityPool.obj
 0001:0000c340       ??0PoolBase2@@QAE@Vword@svutil@@@Z 0040d340 f i EntityPool.obj
 0001:0000c440       ??0EntityPool@@QAE@Vword@svutil@@@Z 0040d440 f   EntityPool.obj
 0001:0000c510       ?_Insert@?$_Tree@V?$_Tmap_traits@V?$basic_string@DU?$char_traits@D@std@@V?$allocator@D@2@@std@@V?$hashtable@Vword@svutil@@PAVEntity@@@svutil@@U?$less@V?$basic_string@DU?$char_traits@D@std@@V?$allocator@D@2@@std@@@2@V?$allocator@U?$pair@$$CBV?$basic_string@DU?$char_traits@D@std@@V?$allocator@D@2@@std@@V?$hashtable@Vword@svutil@@PAVEntity@@@svutil@@@std@@@2@$0A@@std@@@std@@IAE?AViterator@12@_NPAU_Node@?$_Tree_nod@V?$_Tmap_traits@V?$basic_string@DU?$char_traits@D@std@@V?$allocator@D@2@@std@@V?$hashtable@Vword@svutil@@PAVEntity@@@svutil@@U?$less@V?$basic_string@DU?$char_traits@D@std@@V?$allocator@D@2@@std@@@2@V?$allocator@U?$pair@$$CBV?$basic_string@DU?$char_traits@D@std@@V?$allocator@D@2@@std@@V?$hashtable@Vword@svutil@@PAVEntity@@@svutil@@@std@@@2@$0A@@std@@@2@ABU?$pair@$$CBV?$basic_string@DU?$char_traits@D@std@@V?$allocator@D@2@@std@@V?$hashtable@Vword@svutil@@PAVEntity@@@svutil@@@2@@Z 0040d510 f i EntityPool.obj
 0001:0000c6d0       ?insert@?$_Tree@V?$_Tmap_traits@V?$basic_string@DU?$char_traits@D@std@@V?$allocator@D@2@@std@@V?$hashtable@Vword@svutil@@PAVEntity@@@svutil@@U?$less@V?$basic_string@DU?$char_traits@D@std@@V?$allocator@D@2@@std@@@2@V?$allocator@U?$pair@$$CBV?$basic_string@DU?$char_traits@D@std@@V?$allocator@D@2@@std@@V?$hashtable@Vword@svutil@@PAVEntity@@@svutil@@@std@@@2@$0A@@std@@@std@@QAE?AU?$pair@Viterator@?$_Tree@V?$_Tmap_traits@V?$basic_string@DU?$char_traits@D@std@@V?$allocator@D@2@@std@@V?$hashtable@Vword@svutil@@PAVEntity@@@svutil@@U?$less@V?$basic_string@DU?$char_traits@D@std@@V?$allocator@D@2@@std@@@2@V?$allocator@U?$pair@$$CBV?$basic_string@DU?$char_traits@D@std@@V?$allocator@D@2@@std@@V?$hashtable@Vword@svutil@@PAVEntity@@@svutil@@@std@@@2@$0A@@std@@@std@@_N@2@ABU?$pair@$$CBV?$basic_string@DU?$char_traits@D@std@@V?$allocator@D@2@@std@@V?$hashtable@Vword@svutil@@PAVEntity@@@svutil@@@2@@Z 0040d6d0 f i EntityPool.obj
 0001:0000c7b0       ?erase@?$_Tree@V?$_Tmap_traits@V?$basic_string@DU?$char_traits@D@std@@V?$allocator@D@2@@std@@V?$hashtable@Vword@svutil@@PAVEntity@@@svutil@@U?$less@V?$basic_string@DU?$char_traits@D@std@@V?$allocator@D@2@@std@@@2@V?$allocator@U?$pair@$$CBV?$basic_string@DU?$char_traits@D@std@@V?$allocator@D@2@@std@@V?$hashtable@Vword@svutil@@PAVEntity@@@svutil@@@std@@@2@$0A@@std@@@std@@QAE?AViterator@12@V312@@Z 0040d7b0 f i EntityPool.obj
 0001:0000cad0       ?_Erase@?$_Tree@V?$_Tmap_traits@V?$basic_string@DU?$char_traits@D@std@@V?$allocator@D@2@@std@@V?$hashtable@Vword@svutil@@PAVEntity@@@svutil@@U?$less@V?$basic_string@DU?$char_traits@D@std@@V?$allocator@D@2@@std@@@2@V?$allocator@U?$pair@$$CBV?$basic_string@DU?$char_traits@D@std@@V?$allocator@D@2@@std@@V?$hashtable@Vword@svutil@@PAVEntity@@@svutil@@@std@@@2@$0A@@std@@@std@@IAEXPAU_Node@?$_Tree_nod@V?$_Tmap_traits@V?$basic_string@DU?$char_traits@D@std@@V?$allocator@D@2@@std@@V?$hashtable@Vword@svutil@@PAVEntity@@@svutil@@U?$less@V?$basic_string@DU?$char_traits@D@std@@V?$allocator@D@2@@std@@@2@V?$allocator@U?$pair@$$CBV?$basic_string@DU?$char_traits@D@std@@V?$allocator@D@2@@std@@V?$hashtable@Vword@svutil@@PAVEntity@@@svutil@@@std@@@2@$0A@@std@@@2@@Z 0040dad0 f i EntityPool.obj
 0001:0000cb10       ?erase@?$_Tree@V?$_Tmap_traits@V?$basic_string@DU?$char_traits@D@std@@V?$allocator@D@2@@std@@V?$hashtable@Vword@svutil@@PAVEntity@@@svutil@@U?$less@V?$basic_string@DU?$char_traits@D@std@@V?$allocator@D@2@@std@@@2@V?$allocator@U?$pair@$$CBV?$basic_string@DU?$char_traits@D@std@@V?$allocator@D@2@@std@@V?$hashtable@Vword@svutil@@PAVEntity@@@svutil@@@std@@@2@$0A@@std@@@std@@QAE?AViterator@12@V312@0@Z 0040db10 f i EntityPool.obj
 0001:0000cbd0       ??1?$map@V?$basic_string@DU?$char_traits@D@std@@V?$allocator@D@2@@std@@V?$hashtable@Vword@svutil@@PAVEntity@@@svutil@@U?$less@V?$basic_string@DU?$char_traits@D@std@@V?$allocator@D@2@@std@@@2@V?$allocator@U?$pair@$$CBV?$basic_string@DU?$char_traits@D@std@@V?$allocator@D@2@@std@@V?$hashtable@Vword@svutil@@PAVEntity@@@svutil@@@std@@@2@@std@@QAE@XZ 0040dbd0 f i EntityPool.obj
 0001:0000cc00       ?Submit@EntityPool@@UAE_NV?$basic_string@DU?$char_traits@D@std@@V?$allocator@D@2@@std@@@Z 0040dc00 f   EntityPool.obj
 0001:0000d2f0       ?_Incsize@?$list@HV?$allocator@H@std@@@std@@IAEXI@Z 0040e2f0 f i EntityTemplet.obj
 0001:0000d390       ?GetRawDataSize@EntityTemplet@@UAEIXZ 0040e390 f   EntityTemplet.obj
 0001:0000d3e0       ?GetRawData@EntityTemplet@@UAEPADPADI@Z 0040e3e0 f   EntityTemplet.obj
 0001:0000d530       ?push_back@?$list@PAVStringMap@@V?$allocator@PAVStringMap@@@std@@@std@@QAEXABQAVStringMap@@@Z 0040e530 f i EntityTemplet.obj
 0001:0000d570       ?push_back@?$list@HV?$allocator@H@std@@@std@@QAEXABH@Z 0040e570 f i EntityTemplet.obj
 0001:0000d5b0       ??0EntityTemplet@@QAE@XZ   0040e5b0 f   EntityTemplet.obj
 0001:0000d650       ??1EntityTemplet@@QAE@XZ   0040e650 f   EntityTemplet.obj
 0001:0000d760       ?CreateObjectByRawData@EntityTemplet@@UAEHPBDI@Z 0040e760 f   EntityTemplet.obj
 0001:0000d930       ?ResolveIds@EntityTemplet@@QAE_NPAVResource@@@Z 0040e930 f   EntityTemplet.obj
 0001:0000daf0       ?SaveNewIds@EntityTemplet@@QAE_NPAVResource@@@Z 0040eaf0 f   EntityTemplet.obj
 0001:0000de20       ?Load@EntityTempletPool@@UAE_NXZ 0040ee20 f   EntityTempletPool.obj
 0001:0000df20       ?Submit@EntityTempletPool@@UAE_NXZ 0040ef20 f   EntityTempletPool.obj
 0001:0000e060       ??0?$hashelement@Vword@svutil@@PAVEntityTemplet@@@svutil@@QAE@ABVword@1@@Z 0040f060 f i EntityTempletPool.obj
 0001:0000e0c0       ??0?$hashelement@Vword@svutil@@PAVEntityTemplet@@@svutil@@QAE@ABVword@1@ABQAVEntityTemplet@@@Z 0040f0c0 f i EntityTempletPool.obj
 0001:0000e130       ??1?$treenode@V?$hashelement@Vword@svutil@@PAVEntityTemplet@@@svutil@@@svutil@@UAE@XZ 0040f130 f i EntityTempletPool.obj
 0001:0000e150       ??_G?$treenode@V?$hashelement@Vword@svutil@@PAVEntityTemplet@@@svutil@@@svutil@@UAEPAXI@Z 0040f150 f i EntityTempletPool.obj
 0001:0000e150       ??_E?$treenode@V?$hashelement@Vword@svutil@@PAVEntityTemplet@@@svutil@@@svutil@@UAEPAXI@Z 0040f150 f i EntityTempletPool.obj
 0001:0000e170       ?_Xlen@?$vector@PAV?$hashnode@Vword@svutil@@PAVEntityTemplet@@@svutil@@V?$allocator@PAV?$hashnode@Vword@svutil@@PAVEntityTemplet@@@svutil@@@std@@@std@@IBEXXZ 0040f170 f i EntityTempletPool.obj
 0001:0000e1f0       ?CountNodes@?$sorttree@V?$hashelement@Vword@svutil@@PAVEntityTemplet@@@svutil@@@svutil@@AAEXPAV?$treenode@V?$hashelement@Vword@svutil@@PAVEntityTemplet@@@svutil@@@2@AAK@Z 0040f1f0 f i EntityTempletPool.obj
 0001:0000e220       ??M?$treenode@V?$hashelement@Vword@svutil@@PAVEntityTemplet@@@svutil@@@svutil@@QAE_NV01@@Z 0040f220 f i EntityTempletPool.obj
 0001:0000e290       ??O?$treenode@V?$hashelement@Vword@svutil@@PAVEntityTemplet@@@svutil@@@svutil@@QAE_NV01@@Z 0040f290 f i EntityTempletPool.obj
 0001:0000e300       ??0?$treenode@V?$hashelement@Vword@svutil@@PAVEntityTemplet@@@svutil@@@svutil@@QAE@ABV01@@Z 0040f300 f i EntityTempletPool.obj
 0001:0000e380       ??0?$treenode@V?$hashelement@Vword@svutil@@PAVEntityTemplet@@@svutil@@@svutil@@QAE@ABV?$hashelement@Vword@svutil@@PAVEntityTemplet@@@1@@Z 0040f380 f i EntityTempletPool.obj
 0001:0000e400       ?DeleteTree@?$sorttree@V?$hashelement@Vword@svutil@@PAVEntityTemplet@@@svutil@@@svutil@@QAEXPAV?$treenode@V?$hashelement@Vword@svutil@@PAVEntityTemplet@@@svutil@@@2@@Z 0040f400 f i EntityTempletPool.obj
 0001:0000e450       ?InsertNode@?$sorttree@V?$hashelement@Vword@svutil@@PAVEntityTemplet@@@svutil@@@svutil@@QAEXPAV?$treenode@V?$hashelement@Vword@svutil@@PAVEntityTemplet@@@svutil@@@2@0@Z 0040f450 f i EntityTempletPool.obj
 0001:0000e4e0       ?findnextnode@?$sorttree@V?$hashelement@Vword@svutil@@PAVEntityTemplet@@@svutil@@@svutil@@ABEPAV?$treenode@V?$hashelement@Vword@svutil@@PAVEntityTemplet@@@svutil@@@2@AAV?$hashelement@Vword@svutil@@PAVEntityTemplet@@@2@AA_NPAV32@@Z 0040f4e0 f i EntityTempletPool.obj
 0001:0000e550       ??$CreateNode@V?$hashelement@Vword@svutil@@PAVEntityTemplet@@@svutil@@@?$sorttree@V?$hashelement@Vword@svutil@@PAVEntityTemplet@@@svutil@@@svutil@@SAPAV?$treenode@V?$hashelement@Vword@svutil@@PAVEntityTemplet@@@svutil@@@1@ABV?$hashelement@Vword@svutil@@PAVEntityTemplet@@@1@@Z 0040f550 f i EntityTempletPool.obj
 0001:0000e5b0       ??_E?$sorttree@V?$hashelement@Vword@svutil@@PAVEntityTemplet@@@svutil@@@svutil@@UAEPAXI@Z 0040f5b0 f i EntityTempletPool.obj
 0001:0000e5b0       ??_G?$sorttree@V?$hashelement@Vword@svutil@@PAVEntityTemplet@@@svutil@@@svutil@@UAEPAXI@Z 0040f5b0 f i EntityTempletPool.obj
 0001:0000e610       ?find@?$hashnode@Vword@svutil@@PAVEntityTemplet@@@svutil@@QAE_NABVword@2@PAPAV?$hashelement@Vword@svutil@@PAVEntityTemplet@@@2@@Z 0040f610 f i EntityTempletPool.obj
 0001:0000e6e0       ?InsertNodeEx@?$sorttree@V?$hashelement@Vword@svutil@@PAVEntityTemplet@@@svutil@@@svutil@@QAEAAV?$hashelement@Vword@svutil@@PAVEntityTemplet@@@2@ABV32@@Z 0040f6e0 f i EntityTempletPool.obj
 0001:0000e770       ??1?$hashnode@Vword@svutil@@PAVEntityTemplet@@@svutil@@QAE@XZ 0040f770 f i EntityTempletPool.obj
 0001:0000e800       ?insert@?$hashnode@Vword@svutil@@PAVEntityTemplet@@@svutil@@QAEAAV?$hashelement@Vword@svutil@@PAVEntityTemplet@@@2@ABVword@2@ABQAVEntityTemplet@@@Z 0040f800 f i EntityTempletPool.obj
 0001:0000e8e0       ?find@?$hashnode@Vword@svutil@@PAVEntityTemplet@@@svutil@@QAE_NABVword@2@PAPAPAVEntityTemplet@@@Z 0040f8e0 f i EntityTempletPool.obj
 0001:0000e940       ?size@?$hashtable@Vword@svutil@@PAVEntityTemplet@@@svutil@@QAEIXZ 0040f940 f i EntityTempletPool.obj
 0001:0000e9e0       ?find@?$hashtable@Vword@svutil@@PAVEntityTemplet@@@svutil@@QAEPAPAVEntityTemplet@@ABVword@2@@Z 0040f9e0 f i EntityTempletPool.obj
 0001:0000ea50       ?clearnodes@?$hashtable@Vword@svutil@@PAVEntityTemplet@@@svutil@@IAEXXZ 0040fa50 f i EntityTempletPool.obj
 0001:0000eac0       ?findnext@?$hashnode@Vword@svutil@@PAVEntityTemplet@@@svutil@@QAE_NAAV?$hashelement@Vword@svutil@@PAVEntityTemplet@@@2@PAPAV32@@Z 0040fac0 f i EntityTempletPool.obj
 0001:0000eb70       ?_Insert_n@?$vector@PAV?$hashnode@Vword@svutil@@PAVEntityTemplet@@@svutil@@V?$allocator@PAV?$hashnode@Vword@svutil@@PAVEntityTemplet@@@svutil@@@std@@@std@@IAEXViterator@12@IABQAV?$hashnode@Vword@svutil@@PAVEntityTemplet@@@svutil@@@Z 0040fb70 f i EntityTempletPool.obj
 0001:0000ed60       ?GetEntityTemplet@EntityTempletPool@@QAEPAVEntityTemplet@@Vword@svutil@@@Z 0040fd60 f i EntityTempletPool.obj
 0001:0000ee00       ?SaveNewIds@EntityTempletPool@@QAE_NV?$basic_string@DU?$char_traits@D@std@@V?$allocator@D@2@@std@@PAVResource@@@Z 0040fe00 f   EntityTempletPool.obj
 0001:0000eee0       ??1?$hashtable@Vword@svutil@@PAVEntityTemplet@@@svutil@@QAE@XZ 0040fee0 f i EntityTempletPool.obj
 0001:0000ef40       ?findnext@?$hashtable@Vword@svutil@@PAVEntityTemplet@@@svutil@@QAE_NAAViterator@12@@Z 0040ff40 f i EntityTempletPool.obj
 0001:0000efe0       ?resize@?$vector@PAV?$hashnode@Vword@svutil@@PAVEntityTemplet@@@svutil@@V?$allocator@PAV?$hashnode@Vword@svutil@@PAVEntityTemplet@@@svutil@@@std@@@std@@QAEXIPAV?$hashnode@Vword@svutil@@PAVEntityTemplet@@@svutil@@@Z 0040ffe0 f i EntityTempletPool.obj
 0001:0000f070       ?GetRawDataSize@EntityTempletPool@@UAEIXZ 00410070 f   EntityTempletPool.obj
 0001:0000f0d0       ?GetRawData@EntityTempletPool@@UAEPADPADI@Z 004100d0 f   EntityTempletPool.obj
 0001:0000f1b0       ?ResolveIds@EntityTempletPool@@QAE_NPAVResource@@@Z 004101b0 f   EntityTempletPool.obj
 0001:0000f240       ??0?$hashtable@Vword@svutil@@PAVEntityTemplet@@@svutil@@QAE@XZ 00410240 f i EntityTempletPool.obj
 0001:0000f290       ?insert@?$hashtable@Vword@svutil@@PAVEntityTemplet@@@svutil@@QAEAAPAVEntityTemplet@@ABVword@2@ABQAV3@@Z 00410290 f i EntityTempletPool.obj
 0001:0000f380       ?CreateObjectByRawData@EntityTempletPool@@UAEHPBDI@Z 00410380 f   EntityTempletPool.obj
 0001:0000f4d0       ?Push@EntityTempletPool@@QAE_NPAVEntityTemplet@@@Z 004104d0 f   EntityTempletPool.obj
 0001:0000f5f0       ?Push@EntityTempletPool@@QAE_NPBDIPAVResource@@@Z 004105f0 f   EntityTempletPool.obj
 0001:0000f720       ??0CommonData@@QAE@PBXIH@Z 00410720 f i GeneralPool.obj
 0001:0000f7a0       ?PutSection@Section@@QAEXVword@svutil@@@Z 004107a0 f i GeneralPool.obj
 0001:0000f800       ?Load@GeneralPool@@UAE_NXZ 00410800 f   GeneralPool.obj
 0001:0000f920       ?Submit@GeneralPool@@UAE_NXZ 00410920 f   GeneralPool.obj
 0001:0000fa60       ??0?$hashelement@Vword@svutil@@PAVSection@@@svutil@@QAE@ABVword@1@@Z 00410a60 f i GeneralPool.obj
 0001:0000fa60       ??0?$hashelement@Vword@svutil@@PAVCommonData@@@svutil@@QAE@ABVword@1@@Z 00410a60 f i GeneralPool.obj
 0001:0000fac0       ??0?$hashelement@Vword@svutil@@PAVCommonData@@@svutil@@QAE@ABVword@1@ABQAVCommonData@@@Z 00410ac0 f i GeneralPool.obj
 0001:0000fac0       ??0?$hashelement@Vword@svutil@@PAVSection@@@svutil@@QAE@ABVword@1@ABQAVSection@@@Z 00410ac0 f i GeneralPool.obj
 0001:0000fb30       ??1?$treenode@V?$hashelement@Vword@svutil@@PAVSection@@@svutil@@@svutil@@UAE@XZ 00410b30 f i GeneralPool.obj
 0001:0000fb50       ??_G?$treenode@V?$hashelement@Vword@svutil@@PAVSection@@@svutil@@@svutil@@UAEPAXI@Z 00410b50 f i GeneralPool.obj
 0001:0000fb50       ??_E?$treenode@V?$hashelement@Vword@svutil@@PAVSection@@@svutil@@@svutil@@UAEPAXI@Z 00410b50 f i GeneralPool.obj
 0001:0000fb70       ??1?$treenode@V?$hashelement@Vword@svutil@@PAVCommonData@@@svutil@@@svutil@@UAE@XZ 00410b70 f i GeneralPool.obj
 0001:0000fb90       ??_E?$treenode@V?$hashelement@Vword@svutil@@PAVCommonData@@@svutil@@@svutil@@UAEPAXI@Z 00410b90 f i GeneralPool.obj
 0001:0000fb90       ??_G?$treenode@V?$hashelement@Vword@svutil@@PAVCommonData@@@svutil@@@svutil@@UAEPAXI@Z 00410b90 f i GeneralPool.obj
 0001:0000fbb0       ?_Xlen@?$vector@PAV?$hashnode@Vword@svutil@@PAVSection@@@svutil@@V?$allocator@PAV?$hashnode@Vword@svutil@@PAVSection@@@svutil@@@std@@@std@@IBEXXZ 00410bb0 f i GeneralPool.obj
 0001:0000fbb0       ?_Xlen@?$vector@PAV?$hashnode@Vword@svutil@@PAVCommonData@@@svutil@@V?$allocator@PAV?$hashnode@Vword@svutil@@PAVCommonData@@@svutil@@@std@@@std@@IBEXXZ 00410bb0 f i GeneralPool.obj
 0001:0000fc30       ??M?$treenode@V?$hashelement@Vword@svutil@@PAVSection@@@svutil@@@svutil@@QAE_NV01@@Z 00410c30 f i GeneralPool.obj
 0001:0000fca0       ??O?$treenode@V?$hashelement@Vword@svutil@@PAVSection@@@svutil@@@svutil@@QAE_NV01@@Z 00410ca0 f i GeneralPool.obj
 0001:0000fd10       ??0?$treenode@V?$hashelement@Vword@svutil@@PAVSection@@@svutil@@@svutil@@QAE@ABV01@@Z 00410d10 f i GeneralPool.obj
 0001:0000fd90       ?CountNodes@?$sorttree@V?$hashelement@Vword@svutil@@PAVSection@@@svutil@@@svutil@@AAEXPAV?$treenode@V?$hashelement@Vword@svutil@@PAVSection@@@svutil@@@2@AAK@Z 00410d90 f i GeneralPool.obj
 0001:0000fdc0       ??M?$treenode@V?$hashelement@Vword@svutil@@PAVCommonData@@@svutil@@@svutil@@QAE_NV01@@Z 00410dc0 f i GeneralPool.obj
 0001:0000fe30       ??O?$treenode@V?$hashelement@Vword@svutil@@PAVCommonData@@@svutil@@@svutil@@QAE_NV01@@Z 00410e30 f i GeneralPool.obj
 0001:0000fea0       ??0?$treenode@V?$hashelement@Vword@svutil@@PAVCommonData@@@svutil@@@svutil@@QAE@ABV01@@Z 00410ea0 f i GeneralPool.obj
 0001:0000ff20       ??0?$treenode@V?$hashelement@Vword@svutil@@PAVSection@@@svutil@@@svutil@@QAE@ABV?$hashelement@Vword@svutil@@PAVSection@@@1@@Z 00410f20 f i GeneralPool.obj
 0001:0000ffa0       ??0?$treenode@V?$hashelement@Vword@svutil@@PAVCommonData@@@svutil@@@svutil@@QAE@ABV?$hashelement@Vword@svutil@@PAVCommonData@@@1@@Z 00410fa0 f i GeneralPool.obj
 0001:00010020       ?DeleteTree@?$sorttree@V?$hashelement@Vword@svutil@@PAVCommonData@@@svutil@@@svutil@@QAEXPAV?$treenode@V?$hashelement@Vword@svutil@@PAVCommonData@@@svutil@@@2@@Z 00411020 f i GeneralPool.obj
 0001:00010070       ?DeleteTree@?$sorttree@V?$hashelement@Vword@svutil@@PAVSection@@@svutil@@@svutil@@QAEXPAV?$treenode@V?$hashelement@Vword@svutil@@PAVSection@@@svutil@@@2@@Z 00411070 f i GeneralPool.obj
 0001:000100c0       ?InsertNode@?$sorttree@V?$hashelement@Vword@svutil@@PAVSection@@@svutil@@@svutil@@QAEXPAV?$treenode@V?$hashelement@Vword@svutil@@PAVSection@@@svutil@@@2@0@Z 004110c0 f i GeneralPool.obj
 0001:00010150       ?findnextnode@?$sorttree@V?$hashelement@Vword@svutil@@PAVSection@@@svutil@@@svutil@@ABEPAV?$treenode@V?$hashelement@Vword@svutil@@PAVSection@@@svutil@@@2@AAV?$hashelement@Vword@svutil@@PAVSection@@@2@AA_NPAV32@@Z 00411150 f i GeneralPool.obj
 0001:000101c0       ?InsertNode@?$sorttree@V?$hashelement@Vword@svutil@@PAVCommonData@@@svutil@@@svutil@@QAEXPAV?$treenode@V?$hashelement@Vword@svutil@@PAVCommonData@@@svutil@@@2@0@Z 004111c0 f i GeneralPool.obj
 0001:00010250       ??$CreateNode@V?$hashelement@Vword@svutil@@PAVSection@@@svutil@@@?$sorttree@V?$hashelement@Vword@svutil@@PAVSection@@@svutil@@@svutil@@SAPAV?$treenode@V?$hashelement@Vword@svutil@@PAVSection@@@svutil@@@1@ABV?$hashelement@Vword@svutil@@PAVSection@@@1@@Z 00411250 f i GeneralPool.obj
 0001:000102b0       ??$CreateNode@V?$hashelement@Vword@svutil@@PAVCommonData@@@svutil@@@?$sorttree@V?$hashelement@Vword@svutil@@PAVCommonData@@@svutil@@@svutil@@SAPAV?$treenode@V?$hashelement@Vword@svutil@@PAVCommonData@@@svutil@@@1@ABV?$hashelement@Vword@svutil@@PAVCommonData@@@1@@Z 004112b0 f i GeneralPool.obj
 0001:00010310       ??_G?$sorttree@V?$hashelement@Vword@svutil@@PAVCommonData@@@svutil@@@svutil@@UAEPAXI@Z 00411310 f i GeneralPool.obj
 0001:00010310       ??_E?$sorttree@V?$hashelement@Vword@svutil@@PAVCommonData@@@svutil@@@svutil@@UAEPAXI@Z 00411310 f i GeneralPool.obj
 0001:00010370       ??_G?$sorttree@V?$hashelement@Vword@svutil@@PAVSection@@@svutil@@@svutil@@UAEPAXI@Z 00411370 f i GeneralPool.obj
 0001:00010370       ??_E?$sorttree@V?$hashelement@Vword@svutil@@PAVSection@@@svutil@@@svutil@@UAEPAXI@Z 00411370 f i GeneralPool.obj
 0001:000103d0       ?find@?$hashnode@Vword@svutil@@PAVSection@@@svutil@@QAE_NABVword@2@PAPAV?$hashelement@Vword@svutil@@PAVSection@@@2@@Z 004113d0 f i GeneralPool.obj
 0001:000103d0       ?find@?$hashnode@Vword@svutil@@PAVCommonData@@@svutil@@QAE_NABVword@2@PAPAV?$hashelement@Vword@svutil@@PAVCommonData@@@2@@Z 004113d0 f i GeneralPool.obj
 0001:000104a0       ?InsertNodeEx@?$sorttree@V?$hashelement@Vword@svutil@@PAVSection@@@svutil@@@svutil@@QAEAAV?$hashelement@Vword@svutil@@PAVSection@@@2@ABV32@@Z 004114a0 f i GeneralPool.obj
 0001:00010530       ?InsertNodeEx@?$sorttree@V?$hashelement@Vword@svutil@@PAVCommonData@@@svutil@@@svutil@@QAEAAV?$hashelement@Vword@svutil@@PAVCommonData@@@2@ABV32@@Z 00411530 f i GeneralPool.obj
 0001:000105c0       ?find@?$hashnode@Vword@svutil@@PAVSection@@@svutil@@QAE_NABVword@2@PAPAPAVSection@@@Z 004115c0 f i GeneralPool.obj
 0001:000105c0       ?find@?$hashnode@Vword@svutil@@PAVCommonData@@@svutil@@QAE_NABVword@2@PAPAPAVCommonData@@@Z 004115c0 f i GeneralPool.obj
 0001:00010620       ??1?$hashnode@Vword@svutil@@PAVSection@@@svutil@@QAE@XZ 00411620 f i GeneralPool.obj
 0001:000106b0       ?insert@?$hashnode@Vword@svutil@@PAVSection@@@svutil@@QAEAAV?$hashelement@Vword@svutil@@PAVSection@@@2@ABVword@2@ABQAVSection@@@Z 004116b0 f i GeneralPool.obj
 0001:00010790       ?insert@?$hashnode@Vword@svutil@@PAVCommonData@@@svutil@@QAEAAV?$hashelement@Vword@svutil@@PAVCommonData@@@2@ABVword@2@ABQAVCommonData@@@Z 00411790 f i GeneralPool.obj
 0001:00010870       ?erase@?$list@Vword@svutil@@V?$allocator@Vword@svutil@@@std@@@std@@QAE?AViterator@12@V312@@Z 00411870 f i GeneralPool.obj
 0001:000108c0       ?find@?$hashtable@Vword@svutil@@PAVCommonData@@@svutil@@QAEPAPAVCommonData@@ABVword@2@@Z 004118c0 f i GeneralPool.obj
 0001:000108c0       ?find@?$hashtable@Vword@svutil@@PAVSection@@@svutil@@QAEPAPAVSection@@ABVword@2@@Z 004118c0 f i GeneralPool.obj
 0001:00010930       ?clearnodes@?$hashtable@Vword@svutil@@PAVSection@@@svutil@@IAEXXZ 00411930 f i GeneralPool.obj
 0001:000109a0       ?findnext@?$hashnode@Vword@svutil@@PAVSection@@@svutil@@QAE_NAAV?$hashelement@Vword@svutil@@PAVSection@@@2@PAPAV32@@Z 004119a0 f i GeneralPool.obj
 0001:00010a50       ?_Insert_n@?$vector@PAV?$hashnode@Vword@svutil@@PAVCommonData@@@svutil@@V?$allocator@PAV?$hashnode@Vword@svutil@@PAVCommonData@@@svutil@@@std@@@std@@IAEXViterator@12@IABQAV?$hashnode@Vword@svutil@@PAVCommonData@@@svutil@@@Z 00411a50 f i GeneralPool.obj
 0001:00010a50       ?_Insert_n@?$vector@PAV?$hashnode@Vword@svutil@@PAVSection@@@svutil@@V?$allocator@PAV?$hashnode@Vword@svutil@@PAVSection@@@svutil@@@std@@@std@@IAEXViterator@12@IABQAV?$hashnode@Vword@svutil@@PAVSection@@@svutil@@@Z 00411a50 f i GeneralPool.obj
 0001:00010c40       ?Find@Section@@QAE_NVword@svutil@@@Z 00411c40 f i GeneralPool.obj
 0001:00010ca0       ?GetKeys@Section@@QAE_NAAV?$list@V?$basic_string@DU?$char_traits@D@std@@V?$allocator@D@2@@std@@V?$allocator@V?$basic_string@DU?$char_traits@D@std@@V?$allocator@D@2@@std@@@2@@std@@@Z 00411ca0 f i GeneralPool.obj
 0001:00010d50       ?DeleteKeyInKeyOrder@Section@@IAE_NVword@svutil@@@Z 00411d50 f i GeneralPool.obj
 0001:00010e40       ?Find@GeneralPool@@QAE_NVword@svutil@@@Z 00411e40 f i GeneralPool.obj
 0001:00010ea0       ?GetRawDataSize@GeneralPool@@UAEIXZ 00411ea0 f   GeneralPool.obj
 0001:00010ee0       ?GetRawData@GeneralPool@@UAEPADPADI@Z 00411ee0 f   GeneralPool.obj
 0001:00010fb0       ?GetSectionsName@GeneralPool@@QAE_NAAV?$list@V?$basic_string@DU?$char_traits@D@std@@V?$allocator@D@2@@std@@V?$allocator@V?$basic_string@DU?$char_traits@D@std@@V?$allocator@D@2@@std@@@2@@std@@@Z 00411fb0 f   GeneralPool.obj
 0001:00011060       ??1?$hashtable@Vword@svutil@@PAVSection@@@svutil@@QAE@XZ 00412060 f i GeneralPool.obj
 0001:000110c0       ?findnext@?$hashtable@Vword@svutil@@PAVSection@@@svutil@@QAE_NAAViterator@12@@Z 004120c0 f i GeneralPool.obj
 0001:00011160       ?resize@?$vector@PAV?$hashnode@Vword@svutil@@PAVSection@@@svutil@@V?$allocator@PAV?$hashnode@Vword@svutil@@PAVSection@@@svutil@@@std@@@std@@QAEXIPAV?$hashnode@Vword@svutil@@PAVSection@@@svutil@@@Z 00412160 f i GeneralPool.obj
 0001:00011160       ?resize@?$vector@PAV?$hashnode@Vword@svutil@@PAVCommonData@@@svutil@@V?$allocator@PAV?$hashnode@Vword@svutil@@PAVCommonData@@@svutil@@@std@@@std@@QAEXIPAV?$hashnode@Vword@svutil@@PAVCommonData@@@svutil@@@Z 00412160 f i GeneralPool.obj
 0001:000111f0       ??1GeneralPool@@QAE@XZ     004121f0 f   GeneralPool.obj
 0001:000112e0       ??0?$hashtable@Vword@svutil@@PAVSection@@@svutil@@QAE@XZ 004122e0 f i GeneralPool.obj
 0001:00011330       ?insert@?$hashtable@Vword@svutil@@PAVSection@@@svutil@@QAEAAPAVSection@@ABVword@2@ABQAV3@@Z 00412330 f i GeneralPool.obj
 0001:00011420       ?insert@?$hashtable@Vword@svutil@@PAVCommonData@@@svutil@@QAEAAPAVCommonData@@ABVword@2@ABQAV3@@Z 00412420 f i GeneralPool.obj
 0001:00011510       ??0GeneralPool@@QAE@Vword@svutil@@@Z 00412510 f   GeneralPool.obj
 0001:00011600       ?CreateObjectByRawData@GeneralPool@@UAEHPBDI@Z 00412600 f   GeneralPool.obj
 0001:000117e0       ?GetKeysName@GeneralPool@@QAE_NVword@svutil@@AAV?$list@V?$basic_string@DU?$char_traits@D@std@@V?$allocator@D@2@@std@@V?$allocator@V?$basic_string@DU?$char_traits@D@std@@V?$allocator@D@2@@std@@@2@@std@@@Z 004127e0 f   GeneralPool.obj
 0001:000118b0       ?Push@Section@@QAE_NVword@svutil@@PAVCommonData@@@Z 004128b0 f i GeneralPool.obj
 0001:000119b0       ?Push@Section@@QAE_NVword@svutil@@PBDI@Z 004129b0 f i GeneralPool.obj
 0001:00011a90       ?Push@Section@@QAE_NVword@svutil@@0@Z 00412a90 f i GeneralPool.obj
 0001:00011bc0       ?Push@Section@@QAE_NVword@svutil@@H@Z 00412bc0 f i GeneralPool.obj
 0001:00011cd0       ?Pop@Section@@QAE_NVword@svutil@@AAH@Z 00412cd0 f i GeneralPool.obj
 0001:00011e00       ?Pop@Section@@QAE_NVword@svutil@@PAPAXAAI@Z 00412e00 f i GeneralPool.obj
 0001:00011f00       ?Pop@Section@@QAE_NVword@svutil@@AAV23@@Z 00412f00 f i GeneralPool.obj
 0001:00012020       ?GetValueTypeByKey@Section@@QAEHVword@svutil@@@Z 00413020 f i GeneralPool.obj
 0001:000120f0       ?WriteData@GeneralPool@@QAE_NVword@svutil@@0PAXI@Z 004130f0 f   GeneralPool.obj
 0001:00012350       ?GetData@GeneralPool@@QAE_NVword@svutil@@0PAXAAI@Z 00413350 f   GeneralPool.obj
 0001:000124c0       ?WriteString@GeneralPool@@QAE_NVword@svutil@@00@Z 004134c0 f   GeneralPool.obj
 0001:00012770       ?GetString@GeneralPool@@QAE?AVword@svutil@@V23@00@Z 00413770 f   GeneralPool.obj
 0001:000128d0       ?WriteInt@GeneralPool@@QAE_NVword@svutil@@0H@Z 004138d0 f   GeneralPool.obj
 0001:00012b20       ?GetInt@GeneralPool@@QAEHVword@svutil@@0H@Z 00413b20 f   GeneralPool.obj
 0001:00012c50       ?GetValueTypeBySectionAndKey@GeneralPool@@QAEHVword@svutil@@0@Z 00413c50 f   GeneralPool.obj
 0001:00012d70       ?GetRawDataSize@Group@@UAEIXZ 00413d70 f   Group.obj
 0001:00012df0       ?GetRawData@Group@@UAEPADPADI@Z 00413df0 f   Group.obj
 0001:00012f50       ?CreateObjectByRawData@Group@@UAEHPBDI@Z 00413f50 f   Group.obj
 0001:00013150       ??0Group@@QAE@XZ           00414150 f   Group.obj
 0001:000131e0       ??1Group@@QAE@XZ           004141e0 f   Group.obj
 0001:00013280       ?CreatDir@IdcUser@@QAE_NV?$basic_string@DU?$char_traits@D@std@@V?$allocator@D@2@@std@@@Z 00414280 f i GroupPool.obj
 0001:00013350       ?Load@GroupPool@@UAE_NXZ   00414350 f   GroupPool.obj
 0001:00013450       ?SubmitToFile@GroupPool@@QAE_NV?$basic_string@DU?$char_traits@D@std@@V?$allocator@D@2@@std@@PAV1@@Z 00414450 f   GroupPool.obj
 0001:00013550       ?LoadFile@GroupPool@@QAE_NV?$basic_string@DU?$char_traits@D@std@@V?$allocator@D@2@@std@@@Z 00414550 f   GroupPool.obj
 0001:00013690       ?_Xlen@?$vector@PAV?$hashnode@Vword@svutil@@PAVGroup@@@svutil@@V?$allocator@PAV?$hashnode@Vword@svutil@@PAVGroup@@@svutil@@@std@@@std@@IBEXXZ 00414690 f i GroupPool.obj
 0001:00013710       ??0?$hashelement@Vword@svutil@@PAVGroup@@@svutil@@QAE@ABVword@1@@Z 00414710 f i GroupPool.obj
 0001:00013770       ??0?$hashelement@Vword@svutil@@PAVGroup@@@svutil@@QAE@ABVword@1@ABQAVGroup@@@Z 00414770 f i GroupPool.obj
 0001:000137e0       ??1?$treenode@V?$hashelement@Vword@svutil@@PAVGroup@@@svutil@@@svutil@@UAE@XZ 004147e0 f i GroupPool.obj
 0001:00013800       ??_E?$treenode@V?$hashelement@Vword@svutil@@PAVGroup@@@svutil@@@svutil@@UAEPAXI@Z 00414800 f i GroupPool.obj
 0001:00013800       ??_G?$treenode@V?$hashelement@Vword@svutil@@PAVGroup@@@svutil@@@svutil@@UAEPAXI@Z 00414800 f i GroupPool.obj
 0001:00013820       ?CountNodes@?$sorttree@V?$hashelement@Vword@svutil@@PAVGroup@@@svutil@@@svutil@@AAEXPAV?$treenode@V?$hashelement@Vword@svutil@@PAVGroup@@@svutil@@@2@AAK@Z 00414820 f i GroupPool.obj
 0001:00013850       ??M?$treenode@V?$hashelement@Vword@svutil@@PAVGroup@@@svutil@@@svutil@@QAE_NV01@@Z 00414850 f i GroupPool.obj
 0001:000138c0       ??O?$treenode@V?$hashelement@Vword@svutil@@PAVGroup@@@svutil@@@svutil@@QAE_NV01@@Z 004148c0 f i GroupPool.obj
 0001:00013930       ??0?$treenode@V?$hashelement@Vword@svutil@@PAVGroup@@@svutil@@@svutil@@QAE@ABV01@@Z 00414930 f i GroupPool.obj
 0001:000139b0       ??0?$treenode@V?$hashelement@Vword@svutil@@PAVGroup@@@svutil@@@svutil@@QAE@ABV?$hashelement@Vword@svutil@@PAVGroup@@@1@@Z 004149b0 f i GroupPool.obj
 0001:00013a30       ?_Lrotate@?$_Tree@V?$_Tmap_traits@V?$basic_string@DU?$char_traits@D@std@@V?$allocator@D@2@@std@@V?$hashtable@Vword@svutil@@PAVGroup@@@svutil@@U?$less@V?$basic_string@DU?$char_traits@D@std@@V?$allocator@D@2@@std@@@2@V?$allocator@U?$pair@$$CBV?$basic_string@DU?$char_traits@D@std@@V?$allocator@D@2@@std@@V?$hashtable@Vword@svutil@@PAVGroup@@@svutil@@@std@@@2@$0A@@std@@@std@@IAEXPAU_Node@?$_Tree_nod@V?$_Tmap_traits@V?$basic_string@DU?$char_traits@D@std@@V?$allocator@D@2@@std@@V?$hashtable@Vword@svutil@@PAVGroup@@@svutil@@U?$less@V?$basic_string@DU?$char_traits@D@std@@V?$allocator@D@2@@std@@@2@V?$allocator@U?$pair@$$CBV?$basic_string@DU?$char_traits@D@std@@V?$allocator@D@2@@std@@V?$hashtable@Vword@svutil@@PAVGroup@@@svutil@@@std@@@2@$0A@@std@@@2@@Z 00414a30 f i GroupPool.obj
 0001:00013a30       ?_Lrotate@?$_Tree@V?$_Tmap_traits@V?$basic_string@DU?$char_traits@D@std@@V?$allocator@D@2@@std@@V?$hashtable@Vword@svutil@@PAVEntity@@@svutil@@U?$less@V?$basic_string@DU?$char_traits@D@std@@V?$allocator@D@2@@std@@@2@V?$allocator@U?$pair@$$CBV?$basic_string@DU?$char_traits@D@std@@V?$allocator@D@2@@std@@V?$hashtable@Vword@svutil@@PAVEntity@@@svutil@@@std@@@2@$0A@@std@@@std@@IAEXPAU_Node@?$_Tree_nod@V?$_Tmap_traits@V?$basic_string@DU?$char_traits@D@std@@V?$allocator@D@2@@std@@V?$hashtable@Vword@svutil@@PAVEntity@@@svutil@@U?$less@V?$basic_string@DU?$char_traits@D@std@@V?$allocator@D@2@@std@@@2@V?$allocator@U?$pair@$$CBV?$basic_string@DU?$char_traits@D@std@@V?$allocator@D@2@@std@@V?$hashtable@Vword@svutil@@PAVEntity@@@svutil@@@std@@@2@$0A@@std@@@2@@Z 00414a30 f i EntityPool.obj
 0001:00013a30       ?_Lrotate@?$_Tree@V?$_Tmap_traits@V?$basic_string@DU?$char_traits@D@std@@V?$allocator@D@2@@std@@V?$hashtable@Vword@svutil@@PAVMonitor@@@svutil@@U?$less@V?$basic_string@DU?$char_traits@D@std@@V?$allocator@D@2@@std@@@2@V?$allocator@U?$pair@$$CBV?$basic_string@DU?$char_traits@D@std@@V?$allocator@D@2@@std@@V?$hashtable@Vword@svutil@@PAVMonitor@@@svutil@@@std@@@2@$0A@@std@@@std@@IAEXPAU_Node@?$_Tree_nod@V?$_Tmap_traits@V?$basic_string@DU?$char_traits@D@std@@V?$allocator@D@2@@std@@V?$hashtable@Vword@svutil@@PAVMonitor@@@svutil@@U?$less@V?$basic_string@DU?$char_traits@D@std@@V?$allocator@D@2@@std@@@2@V?$allocator@U?$pair@$$CBV?$basic_string@DU?$char_traits@D@std@@V?$allocator@D@2@@std@@V?$hashtable@Vword@svutil@@PAVMonitor@@@svutil@@@std@@@2@$0A@@std@@@2@@Z 00414a30 f i MonitorPool.obj
 0001:00013a90       ?DeleteTree@?$sorttree@V?$hashelement@Vword@svutil@@PAVGroup@@@svutil@@@svutil@@QAEXPAV?$treenode@V?$hashelement@Vword@svutil@@PAVGroup@@@svutil@@@2@@Z 00414a90 f i GroupPool.obj
 0001:00013ae0       ?RomoveNode@?$sorttree@V?$hashelement@Vword@svutil@@PAVGroup@@@svutil@@@svutil@@QAEXABV?$hashelement@Vword@svutil@@PAVGroup@@@2@@Z 00414ae0 f i GroupPool.obj
 0001:00013c80       ?InsertNode@?$sorttree@V?$hashelement@Vword@svutil@@PAVGroup@@@svutil@@@svutil@@QAEXPAV?$treenode@V?$hashelement@Vword@svutil@@PAVGroup@@@svutil@@@2@0@Z 00414c80 f i GroupPool.obj
 0001:00013d10       ?findnextnode@?$sorttree@V?$hashelement@Vword@svutil@@PAVGroup@@@svutil@@@svutil@@ABEPAV?$treenode@V?$hashelement@Vword@svutil@@PAVGroup@@@svutil@@@2@AAV?$hashelement@Vword@svutil@@PAVGroup@@@2@AA_NPAV32@@Z 00414d10 f i GroupPool.obj
 0001:00013d80       ??$CreateNode@V?$hashelement@Vword@svutil@@PAVGroup@@@svutil@@@?$sorttree@V?$hashelement@Vword@svutil@@PAVGroup@@@svutil@@@svutil@@SAPAV?$treenode@V?$hashelement@Vword@svutil@@PAVGroup@@@svutil@@@1@ABV?$hashelement@Vword@svutil@@PAVGroup@@@1@@Z 00414d80 f i GroupPool.obj
 0001:00013de0       ??_E?$sorttree@V?$hashelement@Vword@svutil@@PAVGroup@@@svutil@@@svutil@@UAEPAXI@Z 00414de0 f i GroupPool.obj
 0001:00013de0       ??_G?$sorttree@V?$hashelement@Vword@svutil@@PAVGroup@@@svutil@@@svutil@@UAEPAXI@Z 00414de0 f i GroupPool.obj
 0001:00013e40       ?find@?$hashnode@Vword@svutil@@PAVGroup@@@svutil@@QAE_NABVword@2@PAPAV?$hashelement@Vword@svutil@@PAVGroup@@@2@@Z 00414e40 f i GroupPool.obj
 0001:00013f10       ?InsertNodeEx@?$sorttree@V?$hashelement@Vword@svutil@@PAVGroup@@@svutil@@@svutil@@QAEAAV?$hashelement@Vword@svutil@@PAVGroup@@@2@ABV32@@Z 00414f10 f i GroupPool.obj
 0001:00013fa0       ?_Buynode@?$_Tree@V?$_Tmap_traits@V?$basic_string@DU?$char_traits@D@std@@V?$allocator@D@2@@std@@V?$hashtable@Vword@svutil@@PAVMonitor@@@svutil@@U?$less@V?$basic_string@DU?$char_traits@D@std@@V?$allocator@D@2@@std@@@2@V?$allocator@U?$pair@$$CBV?$basic_string@DU?$char_traits@D@std@@V?$allocator@D@2@@std@@V?$hashtable@Vword@svutil@@PAVMonitor@@@svutil@@@std@@@2@$0A@@std@@@std@@IAEPAU_Node@?$_Tree_nod@V?$_Tmap_traits@V?$basic_string@DU?$char_traits@D@std@@V?$allocator@D@2@@std@@V?$hashtable@Vword@svutil@@PAVMonitor@@@svutil@@U?$less@V?$basic_string@DU?$char_traits@D@std@@V?$allocator@D@2@@std@@@2@V?$allocator@U?$pair@$$CBV?$basic_string@DU?$char_traits@D@std@@V?$allocator@D@2@@std@@V?$hashtable@Vword@svutil@@PAVMonitor@@@svutil@@@std@@@2@$0A@@std@@@2@XZ 00414fa0 f i MonitorPool.obj
 0001:00013fa0       ?_Buynode@?$_Tree@V?$_Tmap_traits@V?$basic_string@DU?$char_traits@D@std@@V?$allocator@D@2@@std@@V?$hashtable@Vword@svutil@@PAVEntity@@@svutil@@U?$less@V?$basic_string@DU?$char_traits@D@std@@V?$allocator@D@2@@std@@@2@V?$allocator@U?$pair@$$CBV?$basic_string@DU?$char_traits@D@std@@V?$allocator@D@2@@std@@V?$hashtable@Vword@svutil@@PAVEntity@@@svutil@@@std@@@2@$0A@@std@@@std@@IAEPAU_Node@?$_Tree_nod@V?$_Tmap_traits@V?$basic_string@DU?$char_traits@D@std@@V?$allocator@D@2@@std@@V?$hashtable@Vword@svutil@@PAVEntity@@@svutil@@U?$less@V?$basic_string@DU?$char_traits@D@std@@V?$allocator@D@2@@std@@@2@V?$allocator@U?$pair@$$CBV?$basic_string@DU?$char_traits@D@std@@V?$allocator@D@2@@std@@V?$hashtable@Vword@svutil@@PAVEntity@@@svutil@@@std@@@2@$0A@@std@@@2@XZ 00414fa0 f i EntityPool.obj
 0001:00013fa0       ?_Buynode@?$_Tree@V?$_Tmap_traits@V?$basic_string@DU?$char_traits@D@std@@V?$allocator@D@2@@std@@V?$hashtable@Vword@svutil@@PAVGroup@@@svutil@@U?$less@V?$basic_string@DU?$char_traits@D@std@@V?$allocator@D@2@@std@@@2@V?$allocator@U?$pair@$$CBV?$basic_string@DU?$char_traits@D@std@@V?$allocator@D@2@@std@@V?$hashtable@Vword@svutil@@PAVGroup@@@svutil@@@std@@@2@$0A@@std@@@std@@IAEPAU_Node@?$_Tree_nod@V?$_Tmap_traits@V?$basic_string@DU?$char_traits@D@std@@V?$allocator@D@2@@std@@V?$hashtable@Vword@svutil@@PAVGroup@@@svutil@@U?$less@V?$basic_string@DU?$char_traits@D@std@@V?$allocator@D@2@@std@@@2@V?$allocator@U?$pair@$$CBV?$basic_string@DU?$char_traits@D@std@@V?$allocator@D@2@@std@@V?$hashtable@Vword@svutil@@PAVGroup@@@svutil@@@std@@@2@$0A@@std@@@2@XZ 00414fa0 f i GroupPool.obj
 0001:00013fe0       ??1?$hashnode@Vword@svutil@@PAVGroup@@@svutil@@QAE@XZ 00414fe0 f i GroupPool.obj
 0001:00014070       ?insert@?$hashnode@Vword@svutil@@PAVGroup@@@svutil@@QAEAAV?$hashelement@Vword@svutil@@PAVGroup@@@2@ABVword@2@ABQAVGroup@@@Z 00415070 f i GroupPool.obj
 0001:00014150       ?find@?$hashnode@Vword@svutil@@PAVGroup@@@svutil@@QAE_NABVword@2@PAPAPAVGroup@@@Z 00415150 f i GroupPool.obj
 0001:000141b0       ?size@?$hashtable@Vword@svutil@@PAVGroup@@@svutil@@QAEIXZ 004151b0 f i GroupPool.obj
 0001:00014250       ?find@?$hashtable@Vword@svutil@@PAVGroup@@@svutil@@QAEPAPAVGroup@@ABVword@2@@Z 00415250 f i GroupPool.obj
 0001:000142c0       ?clearnodes@?$hashtable@Vword@svutil@@PAVGroup@@@svutil@@IAEXXZ 004152c0 f i GroupPool.obj
 0001:00014330       ?findnext@?$hashnode@Vword@svutil@@PAVGroup@@@svutil@@QAE_NAAV?$hashelement@Vword@svutil@@PAVGroup@@@2@PAPAV32@@Z 00415330 f i GroupPool.obj
 0001:000143e0       ?erase@?$hashnode@Vword@svutil@@PAVGroup@@@svutil@@QAE_NABVword@2@@Z 004153e0 f i GroupPool.obj
 0001:000144f0       ?_Insert_n@?$vector@PAV?$hashnode@Vword@svutil@@PAVGroup@@@svutil@@V?$allocator@PAV?$hashnode@Vword@svutil@@PAVGroup@@@svutil@@@std@@@std@@IAEXViterator@12@IABQAV?$hashnode@Vword@svutil@@PAVGroup@@@svutil@@@Z 004154f0 f i GroupPool.obj
 0001:000146e0       ?GetGroupData@GroupPool@@QAE_NVword@svutil@@PADAAI@Z 004156e0 f   GroupPool.obj
 0001:000147d0       ??1?$hashtable@Vword@svutil@@PAVGroup@@@svutil@@QAE@XZ 004157d0 f i GroupPool.obj
 0001:00014830       ?erase@?$hashtable@Vword@svutil@@PAVGroup@@@svutil@@QAE_NABVword@2@@Z 00415830 f i GroupPool.obj
 0001:000148d0       ?findnext@?$hashtable@Vword@svutil@@PAVGroup@@@svutil@@QAE_NAAViterator@12@@Z 004158d0 f i GroupPool.obj
 0001:00014970       ??0?$vector@PAV?$hashnode@Vword@svutil@@PAVGroup@@@svutil@@V?$allocator@PAV?$hashnode@Vword@svutil@@PAVGroup@@@svutil@@@std@@@std@@QAE@ABV01@@Z 00415970 f i GroupPool.obj
 0001:00014a30       ?resize@?$vector@PAV?$hashnode@Vword@svutil@@PAVGroup@@@svutil@@V?$allocator@PAV?$hashnode@Vword@svutil@@PAVGroup@@@svutil@@@std@@@std@@QAEXIPAV?$hashnode@Vword@svutil@@PAVGroup@@@svutil@@@Z 00415a30 f i GroupPool.obj
 0001:00014ac0       ??1GroupPool@@QAE@XZ       00415ac0 f   GroupPool.obj
 0001:00014bb0       ??1?$pair@V?$basic_string@DU?$char_traits@D@std@@V?$allocator@D@2@@std@@V?$hashtable@Vword@svutil@@PAVGroup@@@svutil@@@std@@QAE@XZ 00415bb0 f i GroupPool.obj
 0001:00014bb0       ??1?$pair@$$CBV?$basic_string@DU?$char_traits@D@std@@V?$allocator@D@2@@std@@V?$hashtable@Vword@svutil@@PAVGroup@@@svutil@@@std@@QAE@XZ 00415bb0 f i GroupPool.obj
 0001:00014c00       ?GetRawDataSize@GroupPool@@UAEIXZ 00415c00 f   GroupPool.obj
 0001:00014c60       ?GetRawData@GroupPool@@UAEPADPADI@Z 00415c60 f   GroupPool.obj
 0001:00014d50       ??0?$hashtable@Vword@svutil@@PAVGroup@@@svutil@@QAE@XZ 00415d50 f i GroupPool.obj
 0001:00014da0       ?insert@?$hashtable@Vword@svutil@@PAVGroup@@@svutil@@QAEAAPAVGroup@@ABVword@2@ABQAV3@@Z 00415da0 f i GroupPool.obj
 0001:00014e90       ??0?$pair@$$CBV?$basic_string@DU?$char_traits@D@std@@V?$allocator@D@2@@std@@V?$hashtable@Vword@svutil@@PAVGroup@@@svutil@@@std@@QAE@ABU01@@Z 00415e90 f i GroupPool.obj
 0001:00014e90       ??$?0V?$basic_string@DU?$char_traits@D@std@@V?$allocator@D@2@@std@@V?$hashtable@Vword@svutil@@PAVGroup@@@svutil@@@?$pair@$$CBV?$basic_string@DU?$char_traits@D@std@@V?$allocator@D@2@@std@@V?$hashtable@Vword@svutil@@PAVGroup@@@svutil@@@std@@QAE@ABU?$pair@V?$basic_string@DU?$char_traits@D@std@@V?$allocator@D@2@@std@@V?$hashtable@Vword@svutil@@PAVGroup@@@svutil@@@1@@Z 00415e90 f i GroupPool.obj
 0001:00014ef0       ??1_Node@?$_Tree_nod@V?$_Tmap_traits@V?$basic_string@DU?$char_traits@D@std@@V?$allocator@D@2@@std@@V?$hashtable@Vword@svutil@@PAVGroup@@@svutil@@U?$less@V?$basic_string@DU?$char_traits@D@std@@V?$allocator@D@2@@std@@@2@V?$allocator@U?$pair@$$CBV?$basic_string@DU?$char_traits@D@std@@V?$allocator@D@2@@std@@V?$hashtable@Vword@svutil@@PAVGroup@@@svutil@@@std@@@2@$0A@@std@@@std@@QAE@XZ 00415ef0 f i GroupPool.obj
 0001:00014f00       ??0?$pair@V?$basic_string@DU?$char_traits@D@std@@V?$allocator@D@2@@std@@V?$hashtable@Vword@svutil@@PAVGroup@@@svutil@@@std@@QAE@ABV?$basic_string@DU?$char_traits@D@std@@V?$allocator@D@2@@1@ABV?$hashtable@Vword@svutil@@PAVGroup@@@svutil@@@Z 00415f00 f i GroupPool.obj
 0001:00014f60       ??0GroupPool@@QAE@AAV?$hashtable@Vword@svutil@@PAVGroup@@@svutil@@@Z 00415f60 f i GroupPool.obj
 0001:00015070       ??0GroupPool@@QAE@XZ       00416070 f   GroupPool.obj
 0001:00015100       ?CreateObjectByRawData@GroupPool@@UAEHPBDI@Z 00416100 f   GroupPool.obj
 0001:000152d0       ?push@GroupPool@@QAE_NPAVGroup@@@Z 004162d0 f   GroupPool.obj
 0001:00015460       ?PushData@GroupPool@@QAE_NPBDI@Z 00416460 f   GroupPool.obj
 0001:00015530       ??$make_pair@V?$basic_string@DU?$char_traits@D@std@@V?$allocator@D@2@@std@@V?$hashtable@Vword@svutil@@PAVGroup@@@svutil@@@std@@YA?AU?$pair@V?$basic_string@DU?$char_traits@D@std@@V?$allocator@D@2@@std@@V?$hashtable@Vword@svutil@@PAVGroup@@@svutil@@@0@V?$basic_string@DU?$char_traits@D@std@@V?$allocator@D@2@@0@V?$hashtable@Vword@svutil@@PAVGroup@@@svutil@@@Z 00416530 f i GroupPool.obj
 0001:000155b0       ?DeleteGroup@GroupPool@@QAE_NVword@svutil@@@Z 004165b0 f   GroupPool.obj
 0001:000156e0       ?_Buynode@?$_Tree@V?$_Tmap_traits@V?$basic_string@DU?$char_traits@D@std@@V?$allocator@D@2@@std@@V?$hashtable@Vword@svutil@@PAVGroup@@@svutil@@U?$less@V?$basic_string@DU?$char_traits@D@std@@V?$allocator@D@2@@std@@@2@V?$allocator@U?$pair@$$CBV?$basic_string@DU?$char_traits@D@std@@V?$allocator@D@2@@std@@V?$hashtable@Vword@svutil@@PAVGroup@@@svutil@@@std@@@2@$0A@@std@@@std@@IAEPAU_Node@?$_Tree_nod@V?$_Tmap_traits@V?$basic_string@DU?$char_traits@D@std@@V?$allocator@D@2@@std@@V?$hashtable@Vword@svutil@@PAVGroup@@@svutil@@U?$less@V?$basic_string@DU?$char_traits@D@std@@V?$allocator@D@2@@std@@@2@V?$allocator@U?$pair@$$CBV?$basic_string@DU?$char_traits@D@std@@V?$allocator@D@2@@std@@V?$hashtable@Vword@svutil@@PAVGroup@@@svutil@@@std@@@2@$0A@@std@@@2@PAU342@00ABU?$pair@$$CBV?$basic_string@DU?$char_traits@D@std@@V?$allocator@D@2@@std@@V?$hashtable@Vword@svutil@@PAVGroup@@@svutil@@@2@D@Z 004166e0 f i GroupPool.obj
 0001:00015780       ??0GroupPool@@QAE@Vword@svutil@@@Z 00416780 f   GroupPool.obj
 0001:00015850       ?_Insert@?$_Tree@V?$_Tmap_traits@V?$basic_string@DU?$char_traits@D@std@@V?$allocator@D@2@@std@@V?$hashtable@Vword@svutil@@PAVGroup@@@svutil@@U?$less@V?$basic_string@DU?$char_traits@D@std@@V?$allocator@D@2@@std@@@2@V?$allocator@U?$pair@$$CBV?$basic_string@DU?$char_traits@D@std@@V?$allocator@D@2@@std@@V?$hashtable@Vword@svutil@@PAVGroup@@@svutil@@@std@@@2@$0A@@std@@@std@@IAE?AViterator@12@_NPAU_Node@?$_Tree_nod@V?$_Tmap_traits@V?$basic_string@DU?$char_traits@D@std@@V?$allocator@D@2@@std@@V?$hashtable@Vword@svutil@@PAVGroup@@@svutil@@U?$less@V?$basic_string@DU?$char_traits@D@std@@V?$allocator@D@2@@std@@@2@V?$allocator@U?$pair@$$CBV?$basic_string@DU?$char_traits@D@std@@V?$allocator@D@2@@std@@V?$hashtable@Vword@svutil@@PAVGroup@@@svutil@@@std@@@2@$0A@@std@@@2@ABU?$pair@$$CBV?$basic_string@DU?$char_traits@D@std@@V?$allocator@D@2@@std@@V?$hashtable@Vword@svutil@@PAVGroup@@@svutil@@@2@@Z 00416850 f i GroupPool.obj
 0001:00015a10       ?insert@?$_Tree@V?$_Tmap_traits@V?$basic_string@DU?$char_traits@D@std@@V?$allocator@D@2@@std@@V?$hashtable@Vword@svutil@@PAVGroup@@@svutil@@U?$less@V?$basic_string@DU?$char_traits@D@std@@V?$allocator@D@2@@std@@@2@V?$allocator@U?$pair@$$CBV?$basic_string@DU?$char_traits@D@std@@V?$allocator@D@2@@std@@V?$hashtable@Vword@svutil@@PAVGroup@@@svutil@@@std@@@2@$0A@@std@@@std@@QAE?AU?$pair@Viterator@?$_Tree@V?$_Tmap_traits@V?$basic_string@DU?$char_traits@D@std@@V?$allocator@D@2@@std@@V?$hashtable@Vword@svutil@@PAVGroup@@@svutil@@U?$less@V?$basic_string@DU?$char_traits@D@std@@V?$allocator@D@2@@std@@@2@V?$allocator@U?$pair@$$CBV?$basic_string@DU?$char_traits@D@std@@V?$allocator@D@2@@std@@V?$hashtable@Vword@svutil@@PAVGroup@@@svutil@@@std@@@2@$0A@@std@@@std@@_N@2@ABU?$pair@$$CBV?$basic_string@DU?$char_traits@D@std@@V?$allocator@D@2@@std@@V?$hashtable@Vword@svutil@@PAVGroup@@@svutil@@@2@@Z 00416a10 f i GroupPool.obj
 0001:00015af0       ?erase@?$_Tree@V?$_Tmap_traits@V?$basic_string@DU?$char_traits@D@std@@V?$allocator@D@2@@std@@V?$hashtable@Vword@svutil@@PAVGroup@@@svutil@@U?$less@V?$basic_string@DU?$char_traits@D@std@@V?$allocator@D@2@@std@@@2@V?$allocator@U?$pair@$$CBV?$basic_string@DU?$char_traits@D@std@@V?$allocator@D@2@@std@@V?$hashtable@Vword@svutil@@PAVGroup@@@svutil@@@std@@@2@$0A@@std@@@std@@QAE?AViterator@12@V312@@Z 00416af0 f i GroupPool.obj
 0001:00015e10       ?_Erase@?$_Tree@V?$_Tmap_traits@V?$basic_string@DU?$char_traits@D@std@@V?$allocator@D@2@@std@@V?$hashtable@Vword@svutil@@PAVGroup@@@svutil@@U?$less@V?$basic_string@DU?$char_traits@D@std@@V?$allocator@D@2@@std@@@2@V?$allocator@U?$pair@$$CBV?$basic_string@DU?$char_traits@D@std@@V?$allocator@D@2@@std@@V?$hashtable@Vword@svutil@@PAVGroup@@@svutil@@@std@@@2@$0A@@std@@@std@@IAEXPAU_Node@?$_Tree_nod@V?$_Tmap_traits@V?$basic_string@DU?$char_traits@D@std@@V?$allocator@D@2@@std@@V?$hashtable@Vword@svutil@@PAVGroup@@@svutil@@U?$less@V?$basic_string@DU?$char_traits@D@std@@V?$allocator@D@2@@std@@@2@V?$allocator@U?$pair@$$CBV?$basic_string@DU?$char_traits@D@std@@V?$allocator@D@2@@std@@V?$hashtable@Vword@svutil@@PAVGroup@@@svutil@@@std@@@2@$0A@@std@@@2@@Z 00416e10 f i GroupPool.obj
 0001:00015e50       ?erase@?$_Tree@V?$_Tmap_traits@V?$basic_string@DU?$char_traits@D@std@@V?$allocator@D@2@@std@@V?$hashtable@Vword@svutil@@PAVGroup@@@svutil@@U?$less@V?$basic_string@DU?$char_traits@D@std@@V?$allocator@D@2@@std@@@2@V?$allocator@U?$pair@$$CBV?$basic_string@DU?$char_traits@D@std@@V?$allocator@D@2@@std@@V?$hashtable@Vword@svutil@@PAVGroup@@@svutil@@@std@@@2@$0A@@std@@@std@@QAE?AViterator@12@V312@0@Z 00416e50 f i GroupPool.obj
 0001:00015f10       ??1?$map@V?$basic_string@DU?$char_traits@D@std@@V?$allocator@D@2@@std@@V?$hashtable@Vword@svutil@@PAVGroup@@@svutil@@U?$less@V?$basic_string@DU?$char_traits@D@std@@V?$allocator@D@2@@std@@@2@V?$allocator@U?$pair@$$CBV?$basic_string@DU?$char_traits@D@std@@V?$allocator@D@2@@std@@V?$hashtable@Vword@svutil@@PAVGroup@@@svutil@@@std@@@2@@std@@QAE@XZ 00416f10 f i GroupPool.obj
 0001:00015f40       ?Submit@GroupPool@@UAE_NV?$basic_string@DU?$char_traits@D@std@@V?$allocator@D@2@@std@@@Z 00416f40 f   GroupPool.obj
 0001:000165d0       ??0Monitor@@QAE@XZ         004175d0 f   Monitor.obj
 0001:00016680       ??1Monitor@@QAE@XZ         00417680 f   Monitor.obj
 0001:00016710       ?GetRawDataSize@Monitor@@UAEIXZ 00417710 f   Monitor.obj
 0001:00016770       ?GetRawData@Monitor@@UAEPADPADI@Z 00417770 f   Monitor.obj
 0001:000168d0       ?CreateObjectByRawData@Monitor@@UAEHPBDI@Z 004178d0 f   Monitor.obj
 0001:00016a60       ?GetID@TopologyChart@@QAE?AVword@svutil@@XZ 00417a60 f i TopologyChartPool.obj
 0001:00016a60       ?GetID@EntityGroup@@QAE?AVword@svutil@@XZ 00417a60 f i EntityGroupPool.obj
 0001:00016a60       ?GetLanguageType@Resource@@QAE?AVword@svutil@@XZ 00417a60 f i ResourcePool.obj
 0001:00016a60       ?GetID@Port@@QBE?AVword@svutil@@XZ 00417a60 f i svdb.obj
 0001:00016a60       ?GetID@Monitor@@QAE?AVword@svutil@@XZ 00417a60 f i MonitorPool.obj
 0001:00016a60       ?GetID@EntityTemplet@@QAE?AVword@svutil@@XZ 00417a60 f i EntityTempletPool.obj
 0001:00016a60       ?GetID@VirtualGroup@@QAE?AVword@svutil@@XZ 00417a60 f i VirtualGroupPool.obj
 0001:00016a80       ?SubmitToFile@MonitorPool@@QAE_NV?$basic_string@DU?$char_traits@D@std@@V?$allocator@D@2@@std@@PAV1@@Z 00417a80 f   MonitorPool.obj
 0001:00016b80       ?LoadFile@MonitorPool@@QAE_NV?$basic_string@DU?$char_traits@D@std@@V?$allocator@D@2@@std@@@Z 00417b80 f   MonitorPool.obj
 0001:00016cc0       ?Load@MonitorPool@@UAE_NXZ 00417cc0 f   MonitorPool.obj
 0001:00016dc0       ?_Xlen@?$vector@PAV?$hashnode@Vword@svutil@@PAVMonitor@@@svutil@@V?$allocator@PAV?$hashnode@Vword@svutil@@PAVMonitor@@@svutil@@@std@@@std@@IBEXXZ 00417dc0 f i MonitorPool.obj
 0001:00016e40       ??0?$hashelement@Vword@svutil@@PAVMonitor@@@svutil@@QAE@ABVword@1@@Z 00417e40 f i MonitorPool.obj
 0001:00016ea0       ??0?$hashelement@Vword@svutil@@PAVMonitor@@@svutil@@QAE@ABVword@1@ABQAVMonitor@@@Z 00417ea0 f i MonitorPool.obj
 0001:00016f10       ??1?$treenode@V?$hashelement@Vword@svutil@@PAVMonitor@@@svutil@@@svutil@@UAE@XZ 00417f10 f i MonitorPool.obj
 0001:00016f30       ??_E?$treenode@V?$hashelement@Vword@svutil@@PAVMonitor@@@svutil@@@svutil@@UAEPAXI@Z 00417f30 f i MonitorPool.obj
 0001:00016f30       ??_G?$treenode@V?$hashelement@Vword@svutil@@PAVMonitor@@@svutil@@@svutil@@UAEPAXI@Z 00417f30 f i MonitorPool.obj
 0001:00016f50       ?CountNodes@?$sorttree@V?$hashelement@Vword@svutil@@PAVMonitor@@@svutil@@@svutil@@AAEXPAV?$treenode@V?$hashelement@Vword@svutil@@PAVMonitor@@@svutil@@@2@AAK@Z 00417f50 f i MonitorPool.obj
 0001:00016f80       ??M?$treenode@V?$hashelement@Vword@svutil@@PAVMonitor@@@svutil@@@svutil@@QAE_NV01@@Z 00417f80 f i MonitorPool.obj
 0001:00016ff0       ??O?$treenode@V?$hashelement@Vword@svutil@@PAVMonitor@@@svutil@@@svutil@@QAE_NV01@@Z 00417ff0 f i MonitorPool.obj
 0001:00017060       ??0?$treenode@V?$hashelement@Vword@svutil@@PAVMonitor@@@svutil@@@svutil@@QAE@ABV01@@Z 00418060 f i MonitorPool.obj
 0001:000170e0       ??0?$treenode@V?$hashelement@Vword@svutil@@PAVMonitor@@@svutil@@@svutil@@QAE@ABV?$hashelement@Vword@svutil@@PAVMonitor@@@1@@Z 004180e0 f i MonitorPool.obj
 0001:00017160       ?_Lbound@?$_Tree@V?$_Tmap_traits@V?$basic_string@DU?$char_traits@D@std@@V?$allocator@D@2@@std@@V?$hashtable@Vword@svutil@@PAVGroup@@@svutil@@U?$less@V?$basic_string@DU?$char_traits@D@std@@V?$allocator@D@2@@std@@@2@V?$allocator@U?$pair@$$CBV?$basic_string@DU?$char_traits@D@std@@V?$allocator@D@2@@std@@V?$hashtable@Vword@svutil@@PAVGroup@@@svutil@@@std@@@2@$0A@@std@@@std@@IBEPAU_Node@?$_Tree_nod@V?$_Tmap_traits@V?$basic_string@DU?$char_traits@D@std@@V?$allocator@D@2@@std@@V?$hashtable@Vword@svutil@@PAVGroup@@@svutil@@U?$less@V?$basic_string@DU?$char_traits@D@std@@V?$allocator@D@2@@std@@@2@V?$allocator@U?$pair@$$CBV?$basic_string@DU?$char_traits@D@std@@V?$allocator@D@2@@std@@V?$hashtable@Vword@svutil@@PAVGroup@@@svutil@@@std@@@2@$0A@@std@@@2@ABV?$basic_string@DU?$char_traits@D@std@@V?$allocator@D@2@@2@@Z 00418160 f i GroupPool.obj
 0001:00017160       ?_Lbound@?$_Tree@V?$_Tmap_traits@V?$basic_string@DU?$char_traits@D@std@@V?$allocator@D@2@@std@@V?$hashtable@Vword@svutil@@PAVMonitor@@@svutil@@U?$less@V?$basic_string@DU?$char_traits@D@std@@V?$allocator@D@2@@std@@@2@V?$allocator@U?$pair@$$CBV?$basic_string@DU?$char_traits@D@std@@V?$allocator@D@2@@std@@V?$hashtable@Vword@svutil@@PAVMonitor@@@svutil@@@std@@@2@$0A@@std@@@std@@IBEPAU_Node@?$_Tree_nod@V?$_Tmap_traits@V?$basic_string@DU?$char_traits@D@std@@V?$allocator@D@2@@std@@V?$hashtable@Vword@svutil@@PAVMonitor@@@svutil@@U?$less@V?$basic_string@DU?$char_traits@D@std@@V?$allocator@D@2@@std@@@2@V?$allocator@U?$pair@$$CBV?$basic_string@DU?$char_traits@D@std@@V?$allocator@D@2@@std@@V?$hashtable@Vword@svutil@@PAVMonitor@@@svutil@@@std@@@2@$0A@@std@@@2@ABV?$basic_string@DU?$char_traits@D@std@@V?$allocator@D@2@@2@@Z 00418160 f i MonitorPool.obj
 0001:00017160       ?_Lbound@?$_Tree@V?$_Tmap_traits@V?$basic_string@DU?$char_traits@D@std@@V?$allocator@D@2@@std@@V?$hashtable@Vword@svutil@@PAVEntity@@@svutil@@U?$less@V?$basic_string@DU?$char_traits@D@std@@V?$allocator@D@2@@std@@@2@V?$allocator@U?$pair@$$CBV?$basic_string@DU?$char_traits@D@std@@V?$allocator@D@2@@std@@V?$hashtable@Vword@svutil@@PAVEntity@@@svutil@@@std@@@2@$0A@@std@@@std@@IBEPAU_Node@?$_Tree_nod@V?$_Tmap_traits@V?$basic_string@DU?$char_traits@D@std@@V?$allocator@D@2@@std@@V?$hashtable@Vword@svutil@@PAVEntity@@@svutil@@U?$less@V?$basic_string@DU?$char_traits@D@std@@V?$allocator@D@2@@std@@@2@V?$allocator@U?$pair@$$CBV?$basic_string@DU?$char_traits@D@std@@V?$allocator@D@2@@std@@V?$hashtable@Vword@svutil@@PAVEntity@@@svutil@@@std@@@2@$0A@@std@@@2@ABV?$basic_string@DU?$char_traits@D@std@@V?$allocator@D@2@@2@@Z 00418160 f i EntityPool.obj
 0001:000171b0       ?_Rrotate@?$_Tree@V?$_Tmap_traits@V?$basic_string@DU?$char_traits@D@std@@V?$allocator@D@2@@std@@V?$hashtable@Vword@svutil@@PAVMonitor@@@svutil@@U?$less@V?$basic_string@DU?$char_traits@D@std@@V?$allocator@D@2@@std@@@2@V?$allocator@U?$pair@$$CBV?$basic_string@DU?$char_traits@D@std@@V?$allocator@D@2@@std@@V?$hashtable@Vword@svutil@@PAVMonitor@@@svutil@@@std@@@2@$0A@@std@@@std@@IAEXPAU_Node@?$_Tree_nod@V?$_Tmap_traits@V?$basic_string@DU?$char_traits@D@std@@V?$allocator@D@2@@std@@V?$hashtable@Vword@svutil@@PAVMonitor@@@svutil@@U?$less@V?$basic_string@DU?$char_traits@D@std@@V?$allocator@D@2@@std@@@2@V?$allocator@U?$pair@$$CBV?$basic_string@DU?$char_traits@D@std@@V?$allocator@D@2@@std@@V?$hashtable@Vword@svutil@@PAVMonitor@@@svutil@@@std@@@2@$0A@@std@@@2@@Z 004181b0 f i MonitorPool.obj
 0001:000171b0       ?_Rrotate@?$_Tree@V?$_Tmap_traits@V?$basic_string@DU?$char_traits@D@std@@V?$allocator@D@2@@std@@V?$hashtable@Vword@svutil@@PAVGroup@@@svutil@@U?$less@V?$basic_string@DU?$char_traits@D@std@@V?$allocator@D@2@@std@@@2@V?$allocator@U?$pair@$$CBV?$basic_string@DU?$char_traits@D@std@@V?$allocator@D@2@@std@@V?$hashtable@Vword@svutil@@PAVGroup@@@svutil@@@std@@@2@$0A@@std@@@std@@IAEXPAU_Node@?$_Tree_nod@V?$_Tmap_traits@V?$basic_string@DU?$char_traits@D@std@@V?$allocator@D@2@@std@@V?$hashtable@Vword@svutil@@PAVGroup@@@svutil@@U?$less@V?$basic_string@DU?$char_traits@D@std@@V?$allocator@D@2@@std@@@2@V?$allocator@U?$pair@$$CBV?$basic_string@DU?$char_traits@D@std@@V?$allocator@D@2@@std@@V?$hashtable@Vword@svutil@@PAVGroup@@@svutil@@@std@@@2@$0A@@std@@@2@@Z 004181b0 f i GroupPool.obj
 0001:000171b0       ?_Rrotate@?$_Tree@V?$_Tmap_traits@V?$basic_string@DU?$char_traits@D@std@@V?$allocator@D@2@@std@@V?$hashtable@Vword@svutil@@PAVEntity@@@svutil@@U?$less@V?$basic_string@DU?$char_traits@D@std@@V?$allocator@D@2@@std@@@2@V?$allocator@U?$pair@$$CBV?$basic_string@DU?$char_traits@D@std@@V?$allocator@D@2@@std@@V?$hashtable@Vword@svutil@@PAVEntity@@@svutil@@@std@@@2@$0A@@std@@@std@@IAEXPAU_Node@?$_Tree_nod@V?$_Tmap_traits@V?$basic_string@DU?$char_traits@D@std@@V?$allocator@D@2@@std@@V?$hashtable@Vword@svutil@@PAVEntity@@@svutil@@U?$less@V?$basic_string@DU?$char_traits@D@std@@V?$allocator@D@2@@std@@@2@V?$allocator@U?$pair@$$CBV?$basic_string@DU?$char_traits@D@std@@V?$allocator@D@2@@std@@V?$hashtable@Vword@svutil@@PAVEntity@@@svutil@@@std@@@2@$0A@@std@@@2@@Z 004181b0 f i EntityPool.obj
 0001:00017210       ?_Inc@const_iterator@?$_Tree@V?$_Tmap_traits@V?$basic_string@DU?$char_traits@D@std@@V?$allocator@D@2@@std@@V?$hashtable@Vword@svutil@@PAVGroup@@@svutil@@U?$less@V?$basic_string@DU?$char_traits@D@std@@V?$allocator@D@2@@std@@@2@V?$allocator@U?$pair@$$CBV?$basic_string@DU?$char_traits@D@std@@V?$allocator@D@2@@std@@V?$hashtable@Vword@svutil@@PAVGroup@@@svutil@@@std@@@2@$0A@@std@@@std@@QAEXXZ 00418210 f i GroupPool.obj
 0001:00017210       ?_Inc@const_iterator@?$_Tree@V?$_Tmap_traits@V?$basic_string@DU?$char_traits@D@std@@V?$allocator@D@2@@std@@V?$hashtable@Vword@svutil@@PAVMonitor@@@svutil@@U?$less@V?$basic_string@DU?$char_traits@D@std@@V?$allocator@D@2@@std@@@2@V?$allocator@U?$pair@$$CBV?$basic_string@DU?$char_traits@D@std@@V?$allocator@D@2@@std@@V?$hashtable@Vword@svutil@@PAVMonitor@@@svutil@@@std@@@2@$0A@@std@@@std@@QAEXXZ 00418210 f i MonitorPool.obj
 0001:00017210       ?_Inc@const_iterator@?$_Tree@V?$_Tmap_traits@V?$basic_string@DU?$char_traits@D@std@@V?$allocator@D@2@@std@@V?$hashtable@Vword@svutil@@PAVEntity@@@svutil@@U?$less@V?$basic_string@DU?$char_traits@D@std@@V?$allocator@D@2@@std@@@2@V?$allocator@U?$pair@$$CBV?$basic_string@DU?$char_traits@D@std@@V?$allocator@D@2@@std@@V?$hashtable@Vword@svutil@@PAVEntity@@@svutil@@@std@@@2@$0A@@std@@@std@@QAEXXZ 00418210 f i EntityPool.obj
 0001:00017270       ?DeleteTree@?$sorttree@V?$hashelement@Vword@svutil@@PAVMonitor@@@svutil@@@svutil@@QAEXPAV?$treenode@V?$hashelement@Vword@svutil@@PAVMonitor@@@svutil@@@2@@Z 00418270 f i MonitorPool.obj
 0001:000172c0       ?RomoveNode@?$sorttree@V?$hashelement@Vword@svutil@@PAVMonitor@@@svutil@@@svutil@@QAEXABV?$hashelement@Vword@svutil@@PAVMonitor@@@2@@Z 004182c0 f i MonitorPool.obj
 0001:00017460       ?InsertNode@?$sorttree@V?$hashelement@Vword@svutil@@PAVMonitor@@@svutil@@@svutil@@QAEXPAV?$treenode@V?$hashelement@Vword@svutil@@PAVMonitor@@@svutil@@@2@0@Z 00418460 f i MonitorPool.obj
 0001:000174f0       ?findnextnode@?$sorttree@V?$hashelement@Vword@svutil@@PAVMonitor@@@svutil@@@svutil@@ABEPAV?$treenode@V?$hashelement@Vword@svutil@@PAVMonitor@@@svutil@@@2@AAV?$hashelement@Vword@svutil@@PAVMonitor@@@2@AA_NPAV32@@Z 004184f0 f i MonitorPool.obj
 0001:00017560       ??$CreateNode@V?$hashelement@Vword@svutil@@PAVMonitor@@@svutil@@@?$sorttree@V?$hashelement@Vword@svutil@@PAVMonitor@@@svutil@@@svutil@@SAPAV?$treenode@V?$hashelement@Vword@svutil@@PAVMonitor@@@svutil@@@1@ABV?$hashelement@Vword@svutil@@PAVMonitor@@@1@@Z 00418560 f i MonitorPool.obj
 0001:000175c0       ??_E?$sorttree@V?$hashelement@Vword@svutil@@PAVMonitor@@@svutil@@@svutil@@UAEPAXI@Z 004185c0 f i MonitorPool.obj
 0001:000175c0       ??_G?$sorttree@V?$hashelement@Vword@svutil@@PAVMonitor@@@svutil@@@svutil@@UAEPAXI@Z 004185c0 f i MonitorPool.obj
 0001:00017620       ?find@?$hashnode@Vword@svutil@@PAVMonitor@@@svutil@@QAE_NABVword@2@PAPAV?$hashelement@Vword@svutil@@PAVMonitor@@@2@@Z 00418620 f i MonitorPool.obj
 0001:000176f0       ?InsertNodeEx@?$sorttree@V?$hashelement@Vword@svutil@@PAVMonitor@@@svutil@@@svutil@@QAEAAV?$hashelement@Vword@svutil@@PAVMonitor@@@2@ABV32@@Z 004186f0 f i MonitorPool.obj
 0001:00017780       ??1?$hashnode@Vword@svutil@@PAVMonitor@@@svutil@@QAE@XZ 00418780 f i MonitorPool.obj
 0001:00017810       ?insert@?$hashnode@Vword@svutil@@PAVMonitor@@@svutil@@QAEAAV?$hashelement@Vword@svutil@@PAVMonitor@@@2@ABVword@2@ABQAVMonitor@@@Z 00418810 f i MonitorPool.obj
 0001:000178f0       ?find@?$hashnode@Vword@svutil@@PAVMonitor@@@svutil@@QAE_NABVword@2@PAPAPAVMonitor@@@Z 004188f0 f i MonitorPool.obj
 0001:00017950       ?size@?$hashtable@Vword@svutil@@PAVMonitor@@@svutil@@QAEIXZ 00418950 f i MonitorPool.obj
 0001:000179f0       ?find@?$hashtable@Vword@svutil@@PAVMonitor@@@svutil@@QAEPAPAVMonitor@@ABVword@2@@Z 004189f0 f i MonitorPool.obj
 0001:00017a60       ?clearnodes@?$hashtable@Vword@svutil@@PAVMonitor@@@svutil@@IAEXXZ 00418a60 f i MonitorPool.obj
 0001:00017ad0       ?findnext@?$hashnode@Vword@svutil@@PAVMonitor@@@svutil@@QAE_NAAV?$hashelement@Vword@svutil@@PAVMonitor@@@2@PAPAV32@@Z 00418ad0 f i MonitorPool.obj
 0001:00017b80       ?erase@?$hashnode@Vword@svutil@@PAVMonitor@@@svutil@@QAE_NABVword@2@@Z 00418b80 f i MonitorPool.obj
 0001:00017c90       ?_Insert_n@?$vector@PAV?$hashnode@Vword@svutil@@PAVMonitor@@@svutil@@V?$allocator@PAV?$hashnode@Vword@svutil@@PAVMonitor@@@svutil@@@std@@@std@@IAEXViterator@12@IABQAV?$hashnode@Vword@svutil@@PAVMonitor@@@svutil@@@Z 00418c90 f i MonitorPool.obj
 0001:00017e80       ?GetMonitorData@MonitorPool@@QAE_NVword@svutil@@PADAAI@Z 00418e80 f   MonitorPool.obj
 0001:00017f70       ??1?$hashtable@Vword@svutil@@PAVMonitor@@@svutil@@QAE@XZ 00418f70 f i MonitorPool.obj
 0001:00017fd0       ?erase@?$hashtable@Vword@svutil@@PAVMonitor@@@svutil@@QAE_NABVword@2@@Z 00418fd0 f i MonitorPool.obj
 0001:00018070       ?findnext@?$hashtable@Vword@svutil@@PAVMonitor@@@svutil@@QAE_NAAViterator@12@@Z 00419070 f i MonitorPool.obj
 0001:00018110       ??0?$vector@PAV?$hashnode@Vword@svutil@@PAVMonitor@@@svutil@@V?$allocator@PAV?$hashnode@Vword@svutil@@PAVMonitor@@@svutil@@@std@@@std@@QAE@ABV01@@Z 00419110 f i MonitorPool.obj
 0001:000181d0       ?resize@?$vector@PAV?$hashnode@Vword@svutil@@PAVMonitor@@@svutil@@V?$allocator@PAV?$hashnode@Vword@svutil@@PAVMonitor@@@svutil@@@std@@@std@@QAEXIPAV?$hashnode@Vword@svutil@@PAVMonitor@@@svutil@@@Z 004191d0 f i MonitorPool.obj
 0001:00018260       ??1MonitorPool@@QAE@XZ     00419260 f   MonitorPool.obj
 0001:00018350       ??1?$pair@V?$basic_string@DU?$char_traits@D@std@@V?$allocator@D@2@@std@@V?$hashtable@Vword@svutil@@PAVMonitor@@@svutil@@@std@@QAE@XZ 00419350 f i MonitorPool.obj
 0001:00018350       ??1?$pair@$$CBV?$basic_string@DU?$char_traits@D@std@@V?$allocator@D@2@@std@@V?$hashtable@Vword@svutil@@PAVMonitor@@@svutil@@@std@@QAE@XZ 00419350 f i MonitorPool.obj
 0001:000183a0       ?GetRawDataSize@MonitorPool@@UAEIXZ 004193a0 f   MonitorPool.obj
 0001:00018400       ?GetRawData@MonitorPool@@UAEPADPADI@Z 00419400 f   MonitorPool.obj
 0001:000184f0       ??0?$hashtable@Vword@svutil@@PAVMonitor@@@svutil@@QAE@XZ 004194f0 f i MonitorPool.obj
 0001:00018540       ?insert@?$hashtable@Vword@svutil@@PAVMonitor@@@svutil@@QAEAAPAVMonitor@@ABVword@2@ABQAV3@@Z 00419540 f i MonitorPool.obj
 0001:00018630       ??$?0V?$basic_string@DU?$char_traits@D@std@@V?$allocator@D@2@@std@@V?$hashtable@Vword@svutil@@PAVMonitor@@@svutil@@@?$pair@$$CBV?$basic_string@DU?$char_traits@D@std@@V?$allocator@D@2@@std@@V?$hashtable@Vword@svutil@@PAVMonitor@@@svutil@@@std@@QAE@ABU?$pair@V?$basic_string@DU?$char_traits@D@std@@V?$allocator@D@2@@std@@V?$hashtable@Vword@svutil@@PAVMonitor@@@svutil@@@1@@Z 00419630 f i MonitorPool.obj
 0001:00018630       ??0?$pair@$$CBV?$basic_string@DU?$char_traits@D@std@@V?$allocator@D@2@@std@@V?$hashtable@Vword@svutil@@PAVMonitor@@@svutil@@@std@@QAE@ABU01@@Z 00419630 f i MonitorPool.obj
 0001:00018690       ??1_Node@?$_Tree_nod@V?$_Tmap_traits@V?$basic_string@DU?$char_traits@D@std@@V?$allocator@D@2@@std@@V?$hashtable@Vword@svutil@@PAVMonitor@@@svutil@@U?$less@V?$basic_string@DU?$char_traits@D@std@@V?$allocator@D@2@@std@@@2@V?$allocator@U?$pair@$$CBV?$basic_string@DU?$char_traits@D@std@@V?$allocator@D@2@@std@@V?$hashtable@Vword@svutil@@PAVMonitor@@@svutil@@@std@@@2@$0A@@std@@@std@@QAE@XZ 00419690 f i MonitorPool.obj
 0001:000186a0       ??0?$pair@V?$basic_string@DU?$char_traits@D@std@@V?$allocator@D@2@@std@@V?$hashtable@Vword@svutil@@PAVMonitor@@@svutil@@@std@@QAE@ABV?$basic_string@DU?$char_traits@D@std@@V?$allocator@D@2@@1@ABV?$hashtable@Vword@svutil@@PAVMonitor@@@svutil@@@Z 004196a0 f i MonitorPool.obj
 0001:00018700       ??0MonitorPool@@QAE@AAV?$hashtable@Vword@svutil@@PAVMonitor@@@svutil@@@Z 00419700 f i MonitorPool.obj
 0001:00018810       ?QueryMassMonitor@MonitorPool@@QAEHV?$basic_string@DU?$char_traits@D@std@@V?$allocator@D@2@@std@@PBDIAAV?$list@VSingelRecord@@V?$allocator@VSingelRecord@@@std@@@3@@Z 00419810 f   MonitorPool.obj
 0001:00018b30       ?CreateObjectByRawData@MonitorPool@@UAEHPBDI@Z 00419b30 f   MonitorPool.obj
 0001:00018d00       ?push@MonitorPool@@QAE_NPAVMonitor@@@Z 00419d00 f   MonitorPool.obj
 0001:00018e90       ?PushData@MonitorPool@@QAE_NPBDI@Z 00419e90 f   MonitorPool.obj
 0001:00018f60       ??$make_pair@V?$basic_string@DU?$char_traits@D@std@@V?$allocator@D@2@@std@@V?$hashtable@Vword@svutil@@PAVMonitor@@@svutil@@@std@@YA?AU?$pair@V?$basic_string@DU?$char_traits@D@std@@V?$allocator@D@2@@std@@V?$hashtable@Vword@svutil@@PAVMonitor@@@svutil@@@0@V?$basic_string@DU?$char_traits@D@std@@V?$allocator@D@2@@0@V?$hashtable@Vword@svutil@@PAVMonitor@@@svutil@@@Z 00419f60 f i MonitorPool.obj
 0001:00018fe0       ?DeleteMonitor@MonitorPool@@QAE_NVword@svutil@@@Z 00419fe0 f   MonitorPool.obj
 0001:00019110       ?_Buynode@?$_Tree@V?$_Tmap_traits@V?$basic_string@DU?$char_traits@D@std@@V?$allocator@D@2@@std@@V?$hashtable@Vword@svutil@@PAVMonitor@@@svutil@@U?$less@V?$basic_string@DU?$char_traits@D@std@@V?$allocator@D@2@@std@@@2@V?$allocator@U?$pair@$$CBV?$basic_string@DU?$char_traits@D@std@@V?$allocator@D@2@@std@@V?$hashtable@Vword@svutil@@PAVMonitor@@@svutil@@@std@@@2@$0A@@std@@@std@@IAEPAU_Node@?$_Tree_nod@V?$_Tmap_traits@V?$basic_string@DU?$char_traits@D@std@@V?$allocator@D@2@@std@@V?$hashtable@Vword@svutil@@PAVMonitor@@@svutil@@U?$less@V?$basic_string@DU?$char_traits@D@std@@V?$allocator@D@2@@std@@@2@V?$allocator@U?$pair@$$CBV?$basic_string@DU?$char_traits@D@std@@V?$allocator@D@2@@std@@V?$hashtable@Vword@svutil@@PAVMonitor@@@svutil@@@std@@@2@$0A@@std@@@2@PAU342@00ABU?$pair@$$CBV?$basic_string@DU?$char_traits@D@std@@V?$allocator@D@2@@std@@V?$hashtable@Vword@svutil@@PAVMonitor@@@svutil@@@2@D@Z 0041a110 f i MonitorPool.obj
 0001:000191b0       ??0MonitorPool@@QAE@Vword@svutil@@@Z 0041a1b0 f   MonitorPool.obj
 0001:00019280       ?_Insert@?$_Tree@V?$_Tmap_traits@V?$basic_string@DU?$char_traits@D@std@@V?$allocator@D@2@@std@@V?$hashtable@Vword@svutil@@PAVMonitor@@@svutil@@U?$less@V?$basic_string@DU?$char_traits@D@std@@V?$allocator@D@2@@std@@@2@V?$allocator@U?$pair@$$CBV?$basic_string@DU?$char_traits@D@std@@V?$allocator@D@2@@std@@V?$hashtable@Vword@svutil@@PAVMonitor@@@svutil@@@std@@@2@$0A@@std@@@std@@IAE?AViterator@12@_NPAU_Node@?$_Tree_nod@V?$_Tmap_traits@V?$basic_string@DU?$char_traits@D@std@@V?$allocator@D@2@@std@@V?$hashtable@Vword@svutil@@PAVMonitor@@@svutil@@U?$less@V?$basic_string@DU?$char_traits@D@std@@V?$allocator@D@2@@std@@@2@V?$allocator@U?$pair@$$CBV?$basic_string@DU?$char_traits@D@std@@V?$allocator@D@2@@std@@V?$hashtable@Vword@svutil@@PAVMonitor@@@svutil@@@std@@@2@$0A@@std@@@2@ABU?$pair@$$CBV?$basic_string@DU?$char_traits@D@std@@V?$allocator@D@2@@std@@V?$hashtable@Vword@svutil@@PAVMonitor@@@svutil@@@2@@Z 0041a280 f i MonitorPool.obj
 0001:00019440       ?insert@?$_Tree@V?$_Tmap_traits@V?$basic_string@DU?$char_traits@D@std@@V?$allocator@D@2@@std@@V?$hashtable@Vword@svutil@@PAVMonitor@@@svutil@@U?$less@V?$basic_string@DU?$char_traits@D@std@@V?$allocator@D@2@@std@@@2@V?$allocator@U?$pair@$$CBV?$basic_string@DU?$char_traits@D@std@@V?$allocator@D@2@@std@@V?$hashtable@Vword@svutil@@PAVMonitor@@@svutil@@@std@@@2@$0A@@std@@@std@@QAE?AU?$pair@Viterator@?$_Tree@V?$_Tmap_traits@V?$basic_string@DU?$char_traits@D@std@@V?$allocator@D@2@@std@@V?$hashtable@Vword@svutil@@PAVMonitor@@@svutil@@U?$less@V?$basic_string@DU?$char_traits@D@std@@V?$allocator@D@2@@std@@@2@V?$allocator@U?$pair@$$CBV?$basic_string@DU?$char_traits@D@std@@V?$allocator@D@2@@std@@V?$hashtable@Vword@svutil@@PAVMonitor@@@svutil@@@std@@@2@$0A@@std@@@std@@_N@2@ABU?$pair@$$CBV?$basic_string@DU?$char_traits@D@std@@V?$allocator@D@2@@std@@V?$hashtable@Vword@svutil@@PAVMonitor@@@svutil@@@2@@Z 0041a440 f i MonitorPool.obj
 0001:00019520       ?erase@?$_Tree@V?$_Tmap_traits@V?$basic_string@DU?$char_traits@D@std@@V?$allocator@D@2@@std@@V?$hashtable@Vword@svutil@@PAVMonitor@@@svutil@@U?$less@V?$basic_string@DU?$char_traits@D@std@@V?$allocator@D@2@@std@@@2@V?$allocator@U?$pair@$$CBV?$basic_string@DU?$char_traits@D@std@@V?$allocator@D@2@@std@@V?$hashtable@Vword@svutil@@PAVMonitor@@@svutil@@@std@@@2@$0A@@std@@@std@@QAE?AViterator@12@V312@@Z 0041a520 f i MonitorPool.obj
 0001:00019840       ?_Erase@?$_Tree@V?$_Tmap_traits@V?$basic_string@DU?$char_traits@D@std@@V?$allocator@D@2@@std@@V?$hashtable@Vword@svutil@@PAVMonitor@@@svutil@@U?$less@V?$basic_string@DU?$char_traits@D@std@@V?$allocator@D@2@@std@@@2@V?$allocator@U?$pair@$$CBV?$basic_string@DU?$char_traits@D@std@@V?$allocator@D@2@@std@@V?$hashtable@Vword@svutil@@PAVMonitor@@@svutil@@@std@@@2@$0A@@std@@@std@@IAEXPAU_Node@?$_Tree_nod@V?$_Tmap_traits@V?$basic_string@DU?$char_traits@D@std@@V?$allocator@D@2@@std@@V?$hashtable@Vword@svutil@@PAVMonitor@@@svutil@@U?$less@V?$basic_string@DU?$char_traits@D@std@@V?$allocator@D@2@@std@@@2@V?$allocator@U?$pair@$$CBV?$basic_string@DU?$char_traits@D@std@@V?$allocator@D@2@@std@@V?$hashtable@Vword@svutil@@PAVMonitor@@@svutil@@@std@@@2@$0A@@std@@@2@@Z 0041a840 f i MonitorPool.obj
 0001:00019880       ?erase@?$_Tree@V?$_Tmap_traits@V?$basic_string@DU?$char_traits@D@std@@V?$allocator@D@2@@std@@V?$hashtable@Vword@svutil@@PAVMonitor@@@svutil@@U?$less@V?$basic_string@DU?$char_traits@D@std@@V?$allocator@D@2@@std@@@2@V?$allocator@U?$pair@$$CBV?$basic_string@DU?$char_traits@D@std@@V?$allocator@D@2@@std@@V?$hashtable@Vword@svutil@@PAVMonitor@@@svutil@@@std@@@2@$0A@@std@@@std@@QAE?AViterator@12@V312@0@Z 0041a880 f i MonitorPool.obj
 0001:00019940       ??1?$map@V?$basic_string@DU?$char_traits@D@std@@V?$allocator@D@2@@std@@V?$hashtable@Vword@svutil@@PAVMonitor@@@svutil@@U?$less@V?$basic_string@DU?$char_traits@D@std@@V?$allocator@D@2@@std@@@2@V?$allocator@U?$pair@$$CBV?$basic_string@DU?$char_traits@D@std@@V?$allocator@D@2@@std@@V?$hashtable@Vword@svutil@@PAVMonitor@@@svutil@@@std@@@2@@std@@QAE@XZ 0041a940 f i MonitorPool.obj
 0001:00019970       ?Submit@MonitorPool@@UAE_NV?$basic_string@DU?$char_traits@D@std@@V?$allocator@D@2@@std@@@Z 0041a970 f   MonitorPool.obj
 0001:0001a080       ?GetRawDataSize@MonitorTemplet@@UAEIXZ 0041b080 f   MonitorTemplet.obj
 0001:0001a120       ?GetRawData@MonitorTemplet@@UAEPADPADI@Z 0041b120 f   MonitorTemplet.obj
 0001:0001a320       ??0MonitorTemplet@@QAE@XZ  0041b320 f   MonitorTemplet.obj
 0001:0001a3f0       ??1MonitorTemplet@@QAE@XZ  0041b3f0 f   MonitorTemplet.obj
 0001:0001a5a0       ?CreateObjectByRawData@MonitorTemplet@@UAEHPBDI@Z 0041b5a0 f   MonitorTemplet.obj
 0001:0001a8e0       ?ResolveIds@MonitorTemplet@@QAE_NPAVResource@@@Z 0041b8e0 f   MonitorTemplet.obj
 0001:0001aca0       ?SaveNewIds@MonitorTemplet@@QAE_NPAVResource@@@Z 0041bca0 f   MonitorTemplet.obj
 0001:0001b3c0       ?Load@MonitorTempletPool@@UAE_NXZ 0041c3c0 f   MonitorTempletPool.obj
 0001:0001b4c0       ?Submit@MonitorTempletPool@@UAE_NXZ 0041c4c0 f   MonitorTempletPool.obj
 0001:0001b600       ?_Xlen@?$vector@PAVMonitorTemplet@@V?$allocator@PAVMonitorTemplet@@@std@@@std@@IBEXXZ 0041c600 f i MonitorTempletPool.obj
 0001:0001b680       ??0?$hashelement@Vword@svutil@@V12@@svutil@@QAE@ABVword@1@0@Z 0041c680 f i MonitorTempletPool.obj
 0001:0001b710       ??0?$treenode@V?$hashelement@Vword@svutil@@V12@@svutil@@@svutil@@QAE@ABV?$hashelement@Vword@svutil@@V12@@1@@Z 0041c710 f i MonitorTempletPool.obj
 0001:0001b7b0       ??1?$treenode@V?$hashelement@Vword@svutil@@V12@@svutil@@@svutil@@UAE@XZ 0041c7b0 f i MonitorTempletPool.obj
 0001:0001b7f0       ??_E?$treenode@V?$hashelement@Vword@svutil@@V12@@svutil@@@svutil@@UAEPAXI@Z 0041c7f0 f i MonitorTempletPool.obj
 0001:0001b7f0       ??_G?$treenode@V?$hashelement@Vword@svutil@@V12@@svutil@@@svutil@@UAEPAXI@Z 0041c7f0 f i MonitorTempletPool.obj
 0001:0001b810       ??M?$treenode@V?$hashelement@Vword@svutil@@V12@@svutil@@@svutil@@QAE_NV01@@Z 0041c810 f i MonitorTempletPool.obj
 0001:0001b890       ??O?$treenode@V?$hashelement@Vword@svutil@@V12@@svutil@@@svutil@@QAE_NV01@@Z 0041c890 f i MonitorTempletPool.obj
 0001:0001b910       ??0?$treenode@V?$hashelement@Vword@svutil@@V12@@svutil@@@svutil@@QAE@ABV01@@Z 0041c910 f i MonitorTempletPool.obj
 0001:0001b9b0       ??$CreateNode@V?$hashelement@Vword@svutil@@V12@@svutil@@@?$sorttree@V?$hashelement@Vword@svutil@@V12@@svutil@@@svutil@@SAPAV?$treenode@V?$hashelement@Vword@svutil@@V12@@svutil@@@1@ABV?$hashelement@Vword@svutil@@V12@@1@@Z 0041c9b0 f i MonitorTempletPool.obj
 0001:0001ba10       ?InsertNode@?$sorttree@V?$hashelement@Vword@svutil@@V12@@svutil@@@svutil@@QAEXPAV?$treenode@V?$hashelement@Vword@svutil@@V12@@svutil@@@2@0@Z 0041ca10 f i MonitorTempletPool.obj
 0001:0001baa0       ?InsertNodeEx@?$sorttree@V?$hashelement@Vword@svutil@@V12@@svutil@@@svutil@@QAEAAV?$hashelement@Vword@svutil@@V12@@2@ABV32@@Z 0041caa0 f i MonitorTempletPool.obj
 0001:0001bb30       ?GetRawDataSize@MonitorTempletPool@@UAEIXZ 0041cb30 f   MonitorTempletPool.obj
 0001:0001bb70       ?GetRawData@MonitorTempletPool@@UAEPADPADI@Z 0041cb70 f   MonitorTempletPool.obj
 0001:0001bc80       ?GetMonitorTempletData@MonitorTempletPool@@QAE_NHPADAAI@Z 0041cc80 f   MonitorTempletPool.obj
 0001:0001bd00       ?ResolveIds@MonitorTempletPool@@QAE_NPAVResource@@@Z 0041cd00 f   MonitorTempletPool.obj
 0001:0001bd70       ?SaveNewIds@MonitorTempletPool@@QAE_NHPAVResource@@@Z 0041cd70 f   MonitorTempletPool.obj
 0001:0001bdd0       ?_Insert_n@?$vector@PAVMonitorTemplet@@V?$allocator@PAVMonitorTemplet@@@std@@@std@@IAEXViterator@12@IABQAVMonitorTemplet@@@Z 0041cdd0 f i MonitorTempletPool.obj
 0001:0001bfc0       ?insert@?$hashnode@Vword@svutil@@V12@@svutil@@QAEAAV?$hashelement@Vword@svutil@@V12@@2@ABVword@2@0@Z 0041cfc0 f i MonitorTempletPool.obj
 0001:0001c0c0       ?resize@?$vector@PAVMonitorTemplet@@V?$allocator@PAVMonitorTemplet@@@std@@@std@@QAEXIPAVMonitorTemplet@@@Z 0041d0c0 f i MonitorTempletPool.obj
 0001:0001c150       ?push@MonitorTempletPool@@QAE_NPAVMonitorTemplet@@@Z 0041d150 f i MonitorTempletPool.obj
 0001:0001c260       ?PushData@MonitorTempletPool@@QAE_NPBDIPAVResource@@@Z 0041d260 f   MonitorTempletPool.obj
 0001:0001c350       ?insert@?$hashtable@Vword@svutil@@V12@@svutil@@QAEAAVword@2@ABV32@0@Z 0041d350 f i MonitorTempletPool.obj
 0001:0001c440       ?CreateObjectByRawData@MonitorTempletPool@@UAEHPBDI@Z 0041d440 f   MonitorTempletPool.obj
 0001:0001c570       ??A?$hashtable@Vword@svutil@@V12@@svutil@@QAEAAVword@1@ABV21@@Z 0041d570 f i MonitorTempletPool.obj
 0001:0001c600       ?GetInfo@MonitorTempletPool@@QAE_NVword@svutil@@AAVStringMap@@@Z 0041d600 f   MonitorTempletPool.obj
 0001:0001c7a0       ??0MySocket@@QAE@XZ        0041d7a0 f   MySocket.obj
 0001:0001c7c0       ??1MySocket@@UAE@XZ        0041d7c0 f   MySocket.obj
 0001:0001c7d0       ??_GMySocket@@UAEPAXI@Z    0041d7d0 f i MySocket.obj
 0001:0001c7d0       ??_EMySocket@@UAEPAXI@Z    0041d7d0 f i MySocket.obj
 0001:0001c7f0       ??0MyTCPStream@@QAE@ABVIPV4Host@ost@@GI@Z 0041d7f0 f   MyTCPStream.obj
 0001:0001c820       ??1MyTCPStream@@UAE@XZ     0041d820 f   MyTCPStream.obj
 0001:0001c830       ??_EMyTCPStream@@UAEPAXI@Z 0041d830 f i MyTCPStream.obj
 0001:0001c830       ??_GMyTCPStream@@UAEPAXI@Z 0041d830 f i MyTCPStream.obj
 0001:0001c850       ?_Max@?$_Tree@V?$_Tmap_traits@V?$basic_string@DU?$char_traits@D@std@@V?$allocator@D@2@@std@@V?$map@V?$basic_string@DU?$char_traits@D@std@@V?$allocator@D@2@@std@@V12@UStlIniCompareStringNoCase@@V?$allocator@U?$pair@$$CBV?$basic_string@DU?$char_traits@D@std@@V?$allocator@D@2@@std@@V12@@std@@@2@@2@UStlIniCompareStringNoCase@@V?$allocator@U?$pair@$$CBV?$basic_string@DU?$char_traits@D@std@@V?$allocator@D@2@@std@@V?$map@V?$basic_string@DU?$char_traits@D@std@@V?$allocator@D@2@@std@@V12@UStlIniCompareStringNoCase@@V?$allocator@U?$pair@$$CBV?$basic_string@DU?$char_traits@D@std@@V?$allocator@D@2@@std@@V12@@std@@@2@@2@@std@@@2@$0A@@std@@@std@@KAPAU_Node@?$_Tree_nod@V?$_Tmap_traits@V?$basic_string@DU?$char_traits@D@std@@V?$allocator@D@2@@std@@V?$map@V?$basic_string@DU?$char_traits@D@std@@V?$allocator@D@2@@std@@V12@UStlIniCompareStringNoCase@@V?$allocator@U?$pair@$$CBV?$basic_string@DU?$char_traits@D@std@@V?$allocator@D@2@@std@@V12@@std@@@2@@2@UStlIniCompareStringNoCase@@V?$allocator@U?$pair@$$CBV?$basic_string@DU?$char_traits@D@std@@V?$allocator@D@2@@std@@V?$map@V?$basic_string@DU?$char_traits@D@std@@V?$allocator@D@2@@std@@V12@UStlIniCompareStringNoCase@@V?$allocator@U?$pair@$$CBV?$basic_string@DU?$char_traits@D@std@@V?$allocator@D@2@@std@@V12@@std@@@2@@2@@std@@@2@$0A@@std@@@2@PAU342@@Z 0041d850 f i Option.obj
 0001:0001c850       ?_Max@?$_Tree@V?$_Tmap_traits@V?$basic_string@DU?$char_traits@D@std@@V?$allocator@D@2@@std@@V?$list@Viterator@?$list@VSingelRecord@@V?$allocator@VSingelRecord@@@std@@@std@@V?$allocator@Viterator@?$list@VSingelRecord@@V?$allocator@VSingelRecord@@@std@@@std@@@3@@2@U?$less@V?$basic_string@DU?$char_traits@D@std@@V?$allocator@D@2@@std@@@2@V?$allocator@U?$pair@$$CBV?$basic_string@DU?$char_traits@D@std@@V?$allocator@D@2@@std@@V?$list@Viterator@?$list@VSingelRecord@@V?$allocator@VSingelRecord@@@std@@@std@@V?$allocator@Viterator@?$list@VSingelRecord@@V?$allocator@VSingelRecord@@@std@@@std@@@3@@2@@std@@@2@$0A@@std@@@std@@KAPAU_Node@?$_Tree_nod@V?$_Tmap_traits@V?$basic_string@DU?$char_traits@D@std@@V?$allocator@D@2@@std@@V?$list@Viterator@?$list@VSingelRecord@@V?$allocator@VSingelRecord@@@std@@@std@@V?$allocator@Viterator@?$list@VSingelRecord@@V?$allocator@VSingelRecord@@@std@@@std@@@3@@2@U?$less@V?$basic_string@DU?$char_traits@D@std@@V?$allocator@D@2@@std@@@2@V?$allocator@U?$pair@$$CBV?$basic_string@DU?$char_traits@D@std@@V?$allocator@D@2@@std@@V?$list@Viterator@?$list@VSingelRecord@@V?$allocator@VSingelRecord@@@std@@@std@@V?$allocator@Viterator@?$list@VSingelRecord@@V?$allocator@VSingelRecord@@@std@@@std@@@3@@2@@std@@@2@$0A@@std@@@2@PAU342@@Z 0041d850 f i WorkThread.obj
 0001:0001c870       ?_Min@?$_Tree@V?$_Tmap_traits@V?$basic_string@DU?$char_traits@D@std@@V?$allocator@D@2@@std@@V?$map@V?$basic_string@DU?$char_traits@D@std@@V?$allocator@D@2@@std@@V12@UStlIniCompareStringNoCase@@V?$allocator@U?$pair@$$CBV?$basic_string@DU?$char_traits@D@std@@V?$allocator@D@2@@std@@V12@@std@@@2@@2@UStlIniCompareStringNoCase@@V?$allocator@U?$pair@$$CBV?$basic_string@DU?$char_traits@D@std@@V?$allocator@D@2@@std@@V?$map@V?$basic_string@DU?$char_traits@D@std@@V?$allocator@D@2@@std@@V12@UStlIniCompareStringNoCase@@V?$allocator@U?$pair@$$CBV?$basic_string@DU?$char_traits@D@std@@V?$allocator@D@2@@std@@V12@@std@@@2@@2@@std@@@2@$0A@@std@@@std@@KAPAU_Node@?$_Tree_nod@V?$_Tmap_traits@V?$basic_string@DU?$char_traits@D@std@@V?$allocator@D@2@@std@@V?$map@V?$basic_string@DU?$char_traits@D@std@@V?$allocator@D@2@@std@@V12@UStlIniCompareStringNoCase@@V?$allocator@U?$pair@$$CBV?$basic_string@DU?$char_traits@D@std@@V?$allocator@D@2@@std@@V12@@std@@@2@@2@UStlIniCompareStringNoCase@@V?$allocator@U?$pair@$$CBV?$basic_string@DU?$char_traits@D@std@@V?$allocator@D@2@@std@@V?$map@V?$basic_string@DU?$char_traits@D@std@@V?$allocator@D@2@@std@@V12@UStlIniCompareStringNoCase@@V?$allocator@U?$pair@$$CBV?$basic_string@DU?$char_traits@D@std@@V?$allocator@D@2@@std@@V12@@std@@@2@@2@@std@@@2@$0A@@std@@@2@PAU342@@Z 0041d870 f i Option.obj
 0001:0001c870       ?_Min@?$_Tree@V?$_Tmap_traits@V?$basic_string@DU?$char_traits@D@std@@V?$allocator@D@2@@std@@V?$list@Viterator@?$list@VSingelRecord@@V?$allocator@VSingelRecord@@@std@@@std@@V?$allocator@Viterator@?$list@VSingelRecord@@V?$allocator@VSingelRecord@@@std@@@std@@@3@@2@U?$less@V?$basic_string@DU?$char_traits@D@std@@V?$allocator@D@2@@std@@@2@V?$allocator@U?$pair@$$CBV?$basic_string@DU?$char_traits@D@std@@V?$allocator@D@2@@std@@V?$list@Viterator@?$list@VSingelRecord@@V?$allocator@VSingelRecord@@@std@@@std@@V?$allocator@Viterator@?$list@VSingelRecord@@V?$allocator@VSingelRecord@@@std@@@std@@@3@@2@@std@@@2@$0A@@std@@@std@@KAPAU_Node@?$_Tree_nod@V?$_Tmap_traits@V?$basic_string@DU?$char_traits@D@std@@V?$allocator@D@2@@std@@V?$list@Viterator@?$list@VSingelRecord@@V?$allocator@VSingelRecord@@@std@@@std@@V?$allocator@Viterator@?$list@VSingelRecord@@V?$allocator@VSingelRecord@@@std@@@std@@@3@@2@U?$less@V?$basic_string@DU?$char_traits@D@std@@V?$allocator@D@2@@std@@@2@V?$allocator@U?$pair@$$CBV?$basic_string@DU?$char_traits@D@std@@V?$allocator@D@2@@std@@V?$list@Viterator@?$list@VSingelRecord@@V?$allocator@VSingelRecord@@@std@@@std@@V?$allocator@Viterator@?$list@VSingelRecord@@V?$allocator@VSingelRecord@@@std@@@std@@@3@@2@@std@@@2@$0A@@std@@@2@PAU342@@Z 0041d870 f i WorkThread.obj
 0001:0001c890       ?_Max@?$_Tree@V?$_Tmap_traits@V?$basic_string@DU?$char_traits@D@std@@V?$allocator@D@2@@std@@V12@U?$less@V?$basic_string@DU?$char_traits@D@std@@V?$allocator@D@2@@std@@@2@V?$allocator@U?$pair@$$CBV?$basic_string@DU?$char_traits@D@std@@V?$allocator@D@2@@std@@V12@@std@@@2@$0A@@std@@@std@@KAPAU_Node@?$_Tree_nod@V?$_Tmap_traits@V?$basic_string@DU?$char_traits@D@std@@V?$allocator@D@2@@std@@V12@U?$less@V?$basic_string@DU?$char_traits@D@std@@V?$allocator@D@2@@std@@@2@V?$allocator@U?$pair@$$CBV?$basic_string@DU?$char_traits@D@std@@V?$allocator@D@2@@std@@V12@@std@@@2@$0A@@std@@@2@PAU342@@Z 0041d890 f i ResourcePool.obj
 0001:0001c890       ?_Max@?$_Tree@V?$_Tmap_traits@V?$basic_string@DU?$char_traits@D@std@@V?$allocator@D@2@@std@@V12@UStlIniCompareStringNoCase@@V?$allocator@U?$pair@$$CBV?$basic_string@DU?$char_traits@D@std@@V?$allocator@D@2@@std@@V12@@std@@@2@$0A@@std@@@std@@KAPAU_Node@?$_Tree_nod@V?$_Tmap_traits@V?$basic_string@DU?$char_traits@D@std@@V?$allocator@D@2@@std@@V12@UStlIniCompareStringNoCase@@V?$allocator@U?$pair@$$CBV?$basic_string@DU?$char_traits@D@std@@V?$allocator@D@2@@std@@V12@@std@@@2@$0A@@std@@@2@PAU342@@Z 0041d890 f i Option.obj
 0001:0001c8b0       ?_Rrotate@?$_Tree@V?$_Tmap_traits@V?$basic_string@DU?$char_traits@D@std@@V?$allocator@D@2@@std@@V12@U?$less@V?$basic_string@DU?$char_traits@D@std@@V?$allocator@D@2@@std@@@2@V?$allocator@U?$pair@$$CBV?$basic_string@DU?$char_traits@D@std@@V?$allocator@D@2@@std@@V12@@std@@@2@$0A@@std@@@std@@IAEXPAU_Node@?$_Tree_nod@V?$_Tmap_traits@V?$basic_string@DU?$char_traits@D@std@@V?$allocator@D@2@@std@@V12@U?$less@V?$basic_string@DU?$char_traits@D@std@@V?$allocator@D@2@@std@@@2@V?$allocator@U?$pair@$$CBV?$basic_string@DU?$char_traits@D@std@@V?$allocator@D@2@@std@@V12@@std@@@2@$0A@@std@@@2@@Z 0041d8b0 f i ResourcePool.obj
 0001:0001c8b0       ?_Rrotate@?$_Tree@V?$_Tmap_traits@V?$basic_string@DU?$char_traits@D@std@@V?$allocator@D@2@@std@@V12@UStlIniCompareStringNoCase@@V?$allocator@U?$pair@$$CBV?$basic_string@DU?$char_traits@D@std@@V?$allocator@D@2@@std@@V12@@std@@@2@$0A@@std@@@std@@IAEXPAU_Node@?$_Tree_nod@V?$_Tmap_traits@V?$basic_string@DU?$char_traits@D@std@@V?$allocator@D@2@@std@@V12@UStlIniCompareStringNoCase@@V?$allocator@U?$pair@$$CBV?$basic_string@DU?$char_traits@D@std@@V?$allocator@D@2@@std@@V12@@std@@@2@$0A@@std@@@2@@Z 0041d8b0 f i Option.obj
 0001:0001c910       ?_Inc@const_iterator@?$_Tree@V?$_Tmap_traits@V?$basic_string@DU?$char_traits@D@std@@V?$allocator@D@2@@std@@V12@U?$less@V?$basic_string@DU?$char_traits@D@std@@V?$allocator@D@2@@std@@@2@V?$allocator@U?$pair@$$CBV?$basic_string@DU?$char_traits@D@std@@V?$allocator@D@2@@std@@V12@@std@@@2@$0A@@std@@@std@@QAEXXZ 0041d910 f i ResourcePool.obj
 0001:0001c910       ?_Inc@const_iterator@?$_Tree@V?$_Tmap_traits@V?$basic_string@DU?$char_traits@D@std@@V?$allocator@D@2@@std@@V12@UStlIniCompareStringNoCase@@V?$allocator@U?$pair@$$CBV?$basic_string@DU?$char_traits@D@std@@V?$allocator@D@2@@std@@V12@@std@@@2@$0A@@std@@@std@@QAEXXZ 0041d910 f i Option.obj
 0001:0001c970       ??1?$pair@$$CBV?$basic_string@DU?$char_traits@D@std@@V?$allocator@D@2@@std@@V12@@std@@QAE@XZ 0041d970 f i Option.obj
 0001:0001c9c0       ?_Lrotate@?$_Tree@V?$_Tmap_traits@V?$basic_string@DU?$char_traits@D@std@@V?$allocator@D@2@@std@@V12@UStlIniCompareStringNoCase@@V?$allocator@U?$pair@$$CBV?$basic_string@DU?$char_traits@D@std@@V?$allocator@D@2@@std@@V12@@std@@@2@$0A@@std@@@std@@IAEXPAU_Node@?$_Tree_nod@V?$_Tmap_traits@V?$basic_string@DU?$char_traits@D@std@@V?$allocator@D@2@@std@@V12@UStlIniCompareStringNoCase@@V?$allocator@U?$pair@$$CBV?$basic_string@DU?$char_traits@D@std@@V?$allocator@D@2@@std@@V12@@std@@@2@$0A@@std@@@2@@Z 0041d9c0 f i Option.obj
 0001:0001c9c0       ?_Lrotate@?$_Tree@V?$_Tmap_traits@V?$basic_string@DU?$char_traits@D@std@@V?$allocator@D@2@@std@@V12@U?$less@V?$basic_string@DU?$char_traits@D@std@@V?$allocator@D@2@@std@@@2@V?$allocator@U?$pair@$$CBV?$basic_string@DU?$char_traits@D@std@@V?$allocator@D@2@@std@@V12@@std@@@2@$0A@@std@@@std@@IAEXPAU_Node@?$_Tree_nod@V?$_Tmap_traits@V?$basic_string@DU?$char_traits@D@std@@V?$allocator@D@2@@std@@V12@U?$less@V?$basic_string@DU?$char_traits@D@std@@V?$allocator@D@2@@std@@@2@V?$allocator@U?$pair@$$CBV?$basic_string@DU?$char_traits@D@std@@V?$allocator@D@2@@std@@V12@@std@@@2@$0A@@std@@@2@@Z 0041d9c0 f i ResourcePool.obj
 0001:0001ca20       ?erase@?$_Tree@V?$_Tmap_traits@V?$basic_string@DU?$char_traits@D@std@@V?$allocator@D@2@@std@@V12@UStlIniCompareStringNoCase@@V?$allocator@U?$pair@$$CBV?$basic_string@DU?$char_traits@D@std@@V?$allocator@D@2@@std@@V12@@std@@@2@$0A@@std@@@std@@QAE?AViterator@12@V312@@Z 0041da20 f i Option.obj
 0001:0001cd20       ?_Erase@?$_Tree@V?$_Tmap_traits@V?$basic_string@DU?$char_traits@D@std@@V?$allocator@D@2@@std@@V12@UStlIniCompareStringNoCase@@V?$allocator@U?$pair@$$CBV?$basic_string@DU?$char_traits@D@std@@V?$allocator@D@2@@std@@V12@@std@@@2@$0A@@std@@@std@@IAEXPAU_Node@?$_Tree_nod@V?$_Tmap_traits@V?$basic_string@DU?$char_traits@D@std@@V?$allocator@D@2@@std@@V12@UStlIniCompareStringNoCase@@V?$allocator@U?$pair@$$CBV?$basic_string@DU?$char_traits@D@std@@V?$allocator@D@2@@std@@V12@@std@@@2@$0A@@std@@@2@@Z 0041dd20 f i Option.obj
 0001:0001cd60       ?erase@?$_Tree@V?$_Tmap_traits@V?$basic_string@DU?$char_traits@D@std@@V?$allocator@D@2@@std@@V12@UStlIniCompareStringNoCase@@V?$allocator@U?$pair@$$CBV?$basic_string@DU?$char_traits@D@std@@V?$allocator@D@2@@std@@V12@@std@@@2@$0A@@std@@@std@@QAE?AViterator@12@V312@0@Z 0041dd60 f i Option.obj
 0001:0001ce20       ??1?$map@V?$basic_string@DU?$char_traits@D@std@@V?$allocator@D@2@@std@@V12@UStlIniCompareStringNoCase@@V?$allocator@U?$pair@$$CBV?$basic_string@DU?$char_traits@D@std@@V?$allocator@D@2@@std@@V12@@std@@@2@@std@@QAE@XZ 0041de20 f i Option.obj
 0001:0001ce20       ?_Tidy@?$_Tree@V?$_Tmap_traits@V?$basic_string@DU?$char_traits@D@std@@V?$allocator@D@2@@std@@V12@UStlIniCompareStringNoCase@@V?$allocator@U?$pair@$$CBV?$basic_string@DU?$char_traits@D@std@@V?$allocator@D@2@@std@@V12@@std@@@2@$0A@@std@@@std@@IAEXXZ 0041de20 f i Option.obj
 0001:0001ce50       ??1?$pair@$$CBV?$basic_string@DU?$char_traits@D@std@@V?$allocator@D@2@@std@@V?$map@V?$basic_string@DU?$char_traits@D@std@@V?$allocator@D@2@@std@@V12@UStlIniCompareStringNoCase@@V?$allocator@U?$pair@$$CBV?$basic_string@DU?$char_traits@D@std@@V?$allocator@D@2@@std@@V12@@std@@@2@@2@@std@@QAE@XZ 0041de50 f i Option.obj
 0001:0001ced0       ??1_Node@?$_Tree_nod@V?$_Tmap_traits@V?$basic_string@DU?$char_traits@D@std@@V?$allocator@D@2@@std@@V?$map@V?$basic_string@DU?$char_traits@D@std@@V?$allocator@D@2@@std@@V12@UStlIniCompareStringNoCase@@V?$allocator@U?$pair@$$CBV?$basic_string@DU?$char_traits@D@std@@V?$allocator@D@2@@std@@V12@@std@@@2@@2@UStlIniCompareStringNoCase@@V?$allocator@U?$pair@$$CBV?$basic_string@DU?$char_traits@D@std@@V?$allocator@D@2@@std@@V?$map@V?$basic_string@DU?$char_traits@D@std@@V?$allocator@D@2@@std@@V12@UStlIniCompareStringNoCase@@V?$allocator@U?$pair@$$CBV?$basic_string@DU?$char_traits@D@std@@V?$allocator@D@2@@std@@V12@@std@@@2@@2@@std@@@2@$0A@@std@@@std@@QAE@XZ 0041ded0 f i Option.obj
 0001:0001cee0       ?erase@?$_Tree@V?$_Tmap_traits@V?$basic_string@DU?$char_traits@D@std@@V?$allocator@D@2@@std@@V?$map@V?$basic_string@DU?$char_traits@D@std@@V?$allocator@D@2@@std@@V12@UStlIniCompareStringNoCase@@V?$allocator@U?$pair@$$CBV?$basic_string@DU?$char_traits@D@std@@V?$allocator@D@2@@std@@V12@@std@@@2@@2@UStlIniCompareStringNoCase@@V?$allocator@U?$pair@$$CBV?$basic_string@DU?$char_traits@D@std@@V?$allocator@D@2@@std@@V?$map@V?$basic_string@DU?$char_traits@D@std@@V?$allocator@D@2@@std@@V12@UStlIniCompareStringNoCase@@V?$allocator@U?$pair@$$CBV?$basic_string@DU?$char_traits@D@std@@V?$allocator@D@2@@std@@V12@@std@@@2@@2@@std@@@2@$0A@@std@@@std@@QAE?AViterator@12@V312@@Z 0041dee0 f i Option.obj
 0001:0001d1c0       ?_Erase@?$_Tree@V?$_Tmap_traits@V?$basic_string@DU?$char_traits@D@std@@V?$allocator@D@2@@std@@V?$map@V?$basic_string@DU?$char_traits@D@std@@V?$allocator@D@2@@std@@V12@UStlIniCompareStringNoCase@@V?$allocator@U?$pair@$$CBV?$basic_string@DU?$char_traits@D@std@@V?$allocator@D@2@@std@@V12@@std@@@2@@2@UStlIniCompareStringNoCase@@V?$allocator@U?$pair@$$CBV?$basic_string@DU?$char_traits@D@std@@V?$allocator@D@2@@std@@V?$map@V?$basic_string@DU?$char_traits@D@std@@V?$allocator@D@2@@std@@V12@UStlIniCompareStringNoCase@@V?$allocator@U?$pair@$$CBV?$basic_string@DU?$char_traits@D@std@@V?$allocator@D@2@@std@@V12@@std@@@2@@2@@std@@@2@$0A@@std@@@std@@IAEXPAU_Node@?$_Tree_nod@V?$_Tmap_traits@V?$basic_string@DU?$char_traits@D@std@@V?$allocator@D@2@@std@@V?$map@V?$basic_string@DU?$char_traits@D@std@@V?$allocator@D@2@@std@@V12@UStlIniCompareStringNoCase@@V?$allocator@U?$pair@$$CBV?$basic_string@DU?$char_traits@D@std@@V?$allocator@D@2@@std@@V12@@std@@@2@@2@UStlIniCompareStringNoCase@@V?$allocator@U?$pair@$$CBV?$basic_string@DU?$char_traits@D@std@@V?$allocator@D@2@@std@@V?$map@V?$basic_string@DU?$char_traits@D@std@@V?$allocator@D@2@@std@@V12@UStlIniCompareStringNoCase@@V?$allocator@U?$pair@$$CBV?$basic_string@DU?$char_traits@D@std@@V?$allocator@D@2@@std@@V12@@std@@@2@@2@@std@@@2@$0A@@std@@@2@@Z 0041e1c0 f i Option.obj
 0001:0001d200       ?erase@?$_Tree@V?$_Tmap_traits@V?$basic_string@DU?$char_traits@D@std@@V?$allocator@D@2@@std@@V?$map@V?$basic_string@DU?$char_traits@D@std@@V?$allocator@D@2@@std@@V12@UStlIniCompareStringNoCase@@V?$allocator@U?$pair@$$CBV?$basic_string@DU?$char_traits@D@std@@V?$allocator@D@2@@std@@V12@@std@@@2@@2@UStlIniCompareStringNoCase@@V?$allocator@U?$pair@$$CBV?$basic_string@DU?$char_traits@D@std@@V?$allocator@D@2@@std@@V?$map@V?$basic_string@DU?$char_traits@D@std@@V?$allocator@D@2@@std@@V12@UStlIniCompareStringNoCase@@V?$allocator@U?$pair@$$CBV?$basic_string@DU?$char_traits@D@std@@V?$allocator@D@2@@std@@V12@@std@@@2@@2@@std@@@2@$0A@@std@@@std@@QAE?AViterator@12@V312@0@Z 0041e200 f i Option.obj
 0001:0001d2c0       ?_Tidy@?$_Tree@V?$_Tmap_traits@V?$basic_string@DU?$char_traits@D@std@@V?$allocator@D@2@@std@@V?$map@V?$basic_string@DU?$char_traits@D@std@@V?$allocator@D@2@@std@@V12@UStlIniCompareStringNoCase@@V?$allocator@U?$pair@$$CBV?$basic_string@DU?$char_traits@D@std@@V?$allocator@D@2@@std@@V12@@std@@@2@@2@UStlIniCompareStringNoCase@@V?$allocator@U?$pair@$$CBV?$basic_string@DU?$char_traits@D@std@@V?$allocator@D@2@@std@@V?$map@V?$basic_string@DU?$char_traits@D@std@@V?$allocator@D@2@@std@@V12@UStlIniCompareStringNoCase@@V?$allocator@U?$pair@$$CBV?$basic_string@DU?$char_traits@D@std@@V?$allocator@D@2@@std@@V12@@std@@@2@@2@@std@@@2@$0A@@std@@@std@@IAEXXZ 0041e2c0 f i Option.obj
 0001:0001d2c0       ??1?$map@V?$basic_string@DU?$char_traits@D@std@@V?$allocator@D@2@@std@@V?$map@V?$basic_string@DU?$char_traits@D@std@@V?$allocator@D@2@@std@@V12@UStlIniCompareStringNoCase@@V?$allocator@U?$pair@$$CBV?$basic_string@DU?$char_traits@D@std@@V?$allocator@D@2@@std@@V12@@std@@@2@@2@UStlIniCompareStringNoCase@@V?$allocator@U?$pair@$$CBV?$basic_string@DU?$char_traits@D@std@@V?$allocator@D@2@@std@@V?$map@V?$basic_string@DU?$char_traits@D@std@@V?$allocator@D@2@@std@@V12@UStlIniCompareStringNoCase@@V?$allocator@U?$pair@$$CBV?$basic_string@DU?$char_traits@D@std@@V?$allocator@D@2@@std@@V12@@std@@@2@@2@@std@@@2@@std@@QAE@XZ 0041e2c0 f i Option.obj
 0001:0001d2f0       ?LoadOption@Option@@QAE_NXZ 0041e2f0 f   Option.obj
 0001:0001df30       ??0Page@@QAE@PAVPagePool@@H@Z 0041ef30 f   Page.obj
 0001:0001df60       ?swapout@Page@@QAE_N_N@Z   0041ef60 f   Page.obj
 0001:0001e080       ??1Page@@QAE@XZ            0041f080 f   Page.obj
 0001:0001e0b0       ?swapinex@Page@@QAE_NXZ    0041f0b0 f   Page.obj
 0001:0001e210       ?swapoutex@Page@@QAE_N_N@Z 0041f210 f   Page.obj
 0001:0001e380       ??4PagePoolHead@PagePool@@QAEAAU01@ABU01@@Z 0041f380 f i PagePool.obj
 0001:0001e3e0       ??0SubPool@PagePool@@QAE@XZ 0041f3e0 f i PagePool.obj
 0001:0001e420       ?Put@PagePool@@QAE_NPAVPage@@_N1@Z 0041f420 f   PagePool.obj
 0001:0001e520       ?GetPagePoolHead@PagePool@@QAEAAUPagePoolHead@1@XZ 0041f520 f   PagePool.obj
 0001:0001e530       ?_Xlen@?$vector@PAUSubPool@PagePool@@V?$allocator@PAUSubPool@PagePool@@@std@@@std@@IBEXXZ 0041f530 f i PagePool.obj
 0001:0001e530       ?_Xlen@?$vector@PAVPage@@V?$allocator@PAVPage@@@std@@@std@@IBEXXZ 0041f530 f i PagePool.obj
 0001:0001e5b0       ?_Incsize@?$list@PAVPage@@V?$allocator@PAVPage@@@std@@@std@@IAEXI@Z 0041f5b0 f i PagePool.obj
 0001:0001e650       ??$_Ucopy@PAPAV?$hashnode@Vword@svutil@@PAVMonitor@@@svutil@@@?$vector@PAV?$hashnode@Vword@svutil@@PAVMonitor@@@svutil@@V?$allocator@PAV?$hashnode@Vword@svutil@@PAVMonitor@@@svutil@@@std@@@std@@IAEPAPAV?$hashnode@Vword@svutil@@PAVMonitor@@@svutil@@PAPAV23@00@Z 0041f650 f i MonitorPool.obj
 0001:0001e650       ??$_Ucopy@PAPAV?$hashnode@Vword@svutil@@PAVEntityGroup@@@svutil@@@?$vector@PAV?$hashnode@Vword@svutil@@PAVEntityGroup@@@svutil@@V?$allocator@PAV?$hashnode@Vword@svutil@@PAVEntityGroup@@@svutil@@@std@@@std@@IAEPAPAV?$hashnode@Vword@svutil@@PAVEntityGroup@@@svutil@@PAPAV23@00@Z 0041f650 f i EntityGroupPool.obj
 0001:0001e650       ??$_Ucopy@PAPAVMonitorTemplet@@@?$vector@PAVMonitorTemplet@@V?$allocator@PAVMonitorTemplet@@@std@@@std@@IAEPAPAVMonitorTemplet@@PAPAV2@00@Z 0041f650 f i MonitorTempletPool.obj
 0001:0001e650       ??$_Ucopy@PAPAUSubPool@PagePool@@@?$vector@PAUSubPool@PagePool@@V?$allocator@PAUSubPool@PagePool@@@std@@@std@@IAEPAPAUSubPool@PagePool@@PAPAU23@00@Z 0041f650 f i PagePool.obj
 0001:0001e650       ??$_Ucopy@PAPAV?$hashnode@Vword@svutil@@PAVQueue@@@svutil@@@?$vector@PAV?$hashnode@Vword@svutil@@PAVQueue@@@svutil@@V?$allocator@PAV?$hashnode@Vword@svutil@@PAVQueue@@@svutil@@@std@@@std@@IAEPAPAV?$hashnode@Vword@svutil@@PAVQueue@@@svutil@@PAPAV23@00@Z 0041f650 f i DB.obj
 0001:0001e650       ??$_Ucopy@PAPAVPage@@@?$vector@PAVPage@@V?$allocator@PAVPage@@@std@@@std@@IAEPAPAVPage@@PAPAV2@00@Z 0041f650 f i PagePool.obj
 0001:0001e650       ??$_Ucopy@PAPAV?$hashnode@Vword@svutil@@PAVGroup@@@svutil@@@?$vector@PAV?$hashnode@Vword@svutil@@PAVGroup@@@svutil@@V?$allocator@PAV?$hashnode@Vword@svutil@@PAVGroup@@@svutil@@@std@@@std@@IAEPAPAV?$hashnode@Vword@svutil@@PAVGroup@@@svutil@@PAPAV23@00@Z 0041f650 f i GroupPool.obj
 0001:0001e650       ??$_Ucopy@PAPAV?$hashnode@Vword@svutil@@PAVResource@@@svutil@@@?$vector@PAV?$hashnode@Vword@svutil@@PAVResource@@@svutil@@V?$allocator@PAV?$hashnode@Vword@svutil@@PAVResource@@@svutil@@@std@@@std@@IAEPAPAV?$hashnode@Vword@svutil@@PAVResource@@@svutil@@PAPAV23@00@Z 0041f650 f i ResourcePool.obj
 0001:0001e650       ??$_Ucopy@PAPAVSVSE@@@?$vector@PAVSVSE@@V?$allocator@PAVSVSE@@@std@@@std@@IAEPAPAVSVSE@@PAPAV2@00@Z 0041f650 f i svdbmain.obj
 0001:0001e650       ??$_Ucopy@PAPAV?$hashnode@Vword@svutil@@PAVEntityTemplet@@@svutil@@@?$vector@PAV?$hashnode@Vword@svutil@@PAVEntityTemplet@@@svutil@@V?$allocator@PAV?$hashnode@Vword@svutil@@PAVEntityTemplet@@@svutil@@@std@@@std@@IAEPAPAV?$hashnode@Vword@svutil@@PAVEntityTemplet@@@svutil@@PAPAV23@00@Z 0041f650 f i EntityTempletPool.obj
 0001:0001e650       ??$_Ucopy@PAPAV?$hashnode@Vword@svutil@@PAVEntity@@@svutil@@@?$vector@PAV?$hashnode@Vword@svutil@@PAVEntity@@@svutil@@V?$allocator@PAV?$hashnode@Vword@svutil@@PAVEntity@@@svutil@@@std@@@std@@IAEPAPAV?$hashnode@Vword@svutil@@PAVEntity@@@svutil@@PAPAV23@00@Z 0041f650 f i EntityPool.obj
 0001:0001e650       ??$_Ucopy@PAPAV?$hashnode@Vword@svutil@@PAVGeneralPool@@@svutil@@@?$vector@PAV?$hashnode@Vword@svutil@@PAVGeneralPool@@@svutil@@V?$allocator@PAV?$hashnode@Vword@svutil@@PAVGeneralPool@@@svutil@@@std@@@std@@IAEPAPAV?$hashnode@Vword@svutil@@PAVGeneralPool@@@svutil@@PAPAV23@00@Z 0041f650 f i svdbmain.obj
 0001:0001e650       ??$_Ucopy@PAPAV?$hashnode@Vword@svutil@@V12@@svutil@@@?$vector@PAV?$hashnode@Vword@svutil@@V12@@svutil@@V?$allocator@PAV?$hashnode@Vword@svutil@@V12@@svutil@@@std@@@std@@IAEPAPAV?$hashnode@Vword@svutil@@V12@@svutil@@PAPAV23@00@Z 0041f650 f i EntityPool.obj
 0001:0001e650       ??$_Ucopy@PAPAVDataType@@@?$vector@PAVDataType@@V?$allocator@PAVDataType@@@std@@@std@@IAEPAPAVDataType@@PAPAV2@00@Z 0041f650 f i DB.obj
 0001:0001e650       ??$_Ucopy@PAPAV?$hashnode@Vword@svutil@@PAVSection@@@svutil@@@?$vector@PAV?$hashnode@Vword@svutil@@PAVSection@@@svutil@@V?$allocator@PAV?$hashnode@Vword@svutil@@PAVSection@@@svutil@@@std@@@std@@IAEPAPAV?$hashnode@Vword@svutil@@PAVSection@@@svutil@@PAPAV23@00@Z 0041f650 f i GeneralPool.obj
 0001:0001e650       ??$_Ucopy@PAPAV?$hashnode@Vword@svutil@@PAVCommonData@@@svutil@@@?$vector@PAV?$hashnode@Vword@svutil@@PAVCommonData@@@svutil@@V?$allocator@PAV?$hashnode@Vword@svutil@@PAVCommonData@@@svutil@@@std@@@std@@IAEPAPAV?$hashnode@Vword@svutil@@PAVCommonData@@@svutil@@PAPAV23@00@Z 0041f650 f i GeneralPool.obj
 0001:0001e650       ??$_Ucopy@PAPAV?$hashnode@Vword@svutil@@PAVTopologyChart@@@svutil@@@?$vector@PAV?$hashnode@Vword@svutil@@PAVTopologyChart@@@svutil@@V?$allocator@PAV?$hashnode@Vword@svutil@@PAVTopologyChart@@@svutil@@@std@@@std@@IAEPAPAV?$hashnode@Vword@svutil@@PAVTopologyChart@@@svutil@@PAPAV23@00@Z 0041f650 f i TopologyChartPool.obj
 0001:0001e650       ??$_Ucopy@PAPAV?$hashnode@Vword@svutil@@PAVEntityEx@@@svutil@@@?$vector@PAV?$hashnode@Vword@svutil@@PAVEntityEx@@@svutil@@V?$allocator@PAV?$hashnode@Vword@svutil@@PAVEntityEx@@@svutil@@@std@@@std@@IAEPAPAV?$hashnode@Vword@svutil@@PAVEntityEx@@@svutil@@PAPAV23@00@Z 0041f650 f i EntityPoolEx.obj
 0001:0001e650       ??$_Ucopy@PAPAV?$hashnode@Vword@svutil@@PAVTable@@@svutil@@@?$vector@PAV?$hashnode@Vword@svutil@@PAVTable@@@svutil@@V?$allocator@PAV?$hashnode@Vword@svutil@@PAVTable@@@svutil@@@std@@@std@@IAEPAPAV?$hashnode@Vword@svutil@@PAVTable@@@svutil@@PAPAV23@00@Z 0041f650 f i DB.obj
 0001:0001e650       ??$_Ucopy@PAPAV?$hashnode@Vword@svutil@@PAVPort@@@svutil@@@?$vector@PAV?$hashnode@Vword@svutil@@PAVPort@@@svutil@@V?$allocator@PAV?$hashnode@Vword@svutil@@PAVPort@@@svutil@@@std@@@std@@IAEPAPAV?$hashnode@Vword@svutil@@PAVPort@@@svutil@@PAPAV23@00@Z 0041f650 f i svdb.obj
 0001:0001e650       ??$_Ucopy@PAPAV?$hashnode@Vword@svutil@@PAVVirtualGroup@@@svutil@@@?$vector@PAV?$hashnode@Vword@svutil@@PAVVirtualGroup@@@svutil@@V?$allocator@PAV?$hashnode@Vword@svutil@@PAVVirtualGroup@@@svutil@@@std@@@std@@IAEPAPAV?$hashnode@Vword@svutil@@PAVVirtualGroup@@@svutil@@PAPAV23@00@Z 0041f650 f i VirtualGroupPool.obj
 0001:0001e680       ?RemoveFromFreePages@PagePool@@QAE_NH@Z 0041f680 f   PagePool.obj
 0001:0001e730       ?Get@PagePool@@QAEPAVPage@@H@Z 0041f730 f   PagePool.obj
 0001:0001e7f0       ?Get@PagePool@@QAEPAVPage@@H_N@Z 0041f7f0 f   PagePool.obj
 0001:0001e830       ?FlushFileHead@PagePool@@IAEXH@Z 0041f830 f   PagePool.obj
 0001:0001e960       ??1?$vector@PAVDataType@@V?$allocator@PAVDataType@@@std@@@std@@QAE@XZ 0041f960 f i RecordSet.obj
 0001:0001e960       ??1?$vector@PAVSVSE@@V?$allocator@PAVSVSE@@@std@@@std@@QAE@XZ 0041f960 f i svdbmain.obj
 0001:0001e960       ??1?$vector@PAV?$hashnode@Vword@svutil@@PAVResource@@@svutil@@V?$allocator@PAV?$hashnode@Vword@svutil@@PAVResource@@@svutil@@@std@@@std@@QAE@XZ 0041f960 f i ResourcePool.obj
 0001:0001e960       ?_Tidy@?$vector@PAV?$hashnode@Vword@svutil@@PAVEntity@@@svutil@@V?$allocator@PAV?$hashnode@Vword@svutil@@PAVEntity@@@svutil@@@std@@@std@@IAEXXZ 0041f960 f i EntityPool.obj
 0001:0001e960       ?_Tidy@?$vector@PAV?$hashnode@Vword@svutil@@PAVMonitor@@@svutil@@V?$allocator@PAV?$hashnode@Vword@svutil@@PAVMonitor@@@svutil@@@std@@@std@@IAEXXZ 0041f960 f i MonitorPool.obj
 0001:0001e960       ??1?$vector@PAV?$hashnode@Vword@svutil@@PAVMonitor@@@svutil@@V?$allocator@PAV?$hashnode@Vword@svutil@@PAVMonitor@@@svutil@@@std@@@std@@QAE@XZ 0041f960 f i MonitorPool.obj
 0001:0001e960       ??1?$vector@PAV?$hashnode@Vword@svutil@@PAVGeneralPool@@@svutil@@V?$allocator@PAV?$hashnode@Vword@svutil@@PAVGeneralPool@@@svutil@@@std@@@std@@QAE@XZ 0041f960 f i svdbmain.obj
 0001:0001e960       ??1?$vector@PAV?$hashnode@Vword@svutil@@PAVTable@@@svutil@@V?$allocator@PAV?$hashnode@Vword@svutil@@PAVTable@@@svutil@@@std@@@std@@QAE@XZ 0041f960 f i DB.obj
 0001:0001e960       ??1?$vector@PAV?$hashnode@Vword@svutil@@PAVSection@@@svutil@@V?$allocator@PAV?$hashnode@Vword@svutil@@PAVSection@@@svutil@@@std@@@std@@QAE@XZ 0041f960 f i GeneralPool.obj
 0001:0001e960       ??1?$vector@PAUSubPool@PagePool@@V?$allocator@PAUSubPool@PagePool@@@std@@@std@@QAE@XZ 0041f960 f i PagePool.obj
 0001:0001e960       ??1?$vector@PAV?$hashnode@Vword@svutil@@V12@@svutil@@V?$allocator@PAV?$hashnode@Vword@svutil@@V12@@svutil@@@std@@@std@@QAE@XZ 0041f960 f i EntityPool.obj
 0001:0001e960       ??1?$vector@PAV?$hashnode@Vword@svutil@@PAVPort@@@svutil@@V?$allocator@PAV?$hashnode@Vword@svutil@@PAVPort@@@svutil@@@std@@@std@@QAE@XZ 0041f960 f i EntityEx.obj
 0001:0001e960       ??1?$vector@PAV?$hashnode@Vword@svutil@@PAVQueue@@@svutil@@V?$allocator@PAV?$hashnode@Vword@svutil@@PAVQueue@@@svutil@@@std@@@std@@QAE@XZ 0041f960 f i DB.obj
 0001:0001e960       ??1?$vector@PAV?$hashnode@Vword@svutil@@PAVEntity@@@svutil@@V?$allocator@PAV?$hashnode@Vword@svutil@@PAVEntity@@@svutil@@@std@@@std@@QAE@XZ 0041f960 f i EntityPool.obj
 0001:0001e960       ??1?$vector@PAV?$hashnode@Vword@svutil@@PAVTopologyChart@@@svutil@@V?$allocator@PAV?$hashnode@Vword@svutil@@PAVTopologyChart@@@svutil@@@std@@@std@@QAE@XZ 0041f960 f i TopologyChartPool.obj
 0001:0001e960       ??1?$vector@PAV?$hashnode@Vword@svutil@@PAVCommonData@@@svutil@@V?$allocator@PAV?$hashnode@Vword@svutil@@PAVCommonData@@@svutil@@@std@@@std@@QAE@XZ 0041f960 f i Section.obj
 0001:0001e960       ??1?$vector@PAVMonitorTemplet@@V?$allocator@PAVMonitorTemplet@@@std@@@std@@QAE@XZ 0041f960 f i MonitorTempletPool.obj
 0001:0001e960       ??1?$vector@PAV?$hashnode@Vword@svutil@@PAVVirtualGroup@@@svutil@@V?$allocator@PAV?$hashnode@Vword@svutil@@PAVVirtualGroup@@@svutil@@@std@@@std@@QAE@XZ 0041f960 f i VirtualGroupPool.obj
 0001:0001e960       ??1?$vector@PAV?$hashnode@Vword@svutil@@PAVEntityTemplet@@@svutil@@V?$allocator@PAV?$hashnode@Vword@svutil@@PAVEntityTemplet@@@svutil@@@std@@@std@@QAE@XZ 0041f960 f i EntityTempletPool.obj
 0001:0001e960       ??1?$vector@PAV?$hashnode@Vword@svutil@@PAVEntityEx@@@svutil@@V?$allocator@PAV?$hashnode@Vword@svutil@@PAVEntityEx@@@svutil@@@std@@@std@@QAE@XZ 0041f960 f i EntityPoolEx.obj
 0001:0001e960       ??1?$vector@PAVPage@@V?$allocator@PAVPage@@@std@@@std@@QAE@XZ 0041f960 f i PagePool.obj
 0001:0001e960       ??1?$vector@PAV?$hashnode@Vword@svutil@@PAVGroup@@@svutil@@V?$allocator@PAV?$hashnode@Vword@svutil@@PAVGroup@@@svutil@@@std@@@std@@QAE@XZ 0041f960 f i GroupPool.obj
 0001:0001e960       ?_Tidy@?$vector@PAV?$hashnode@Vword@svutil@@PAVGroup@@@svutil@@V?$allocator@PAV?$hashnode@Vword@svutil@@PAVGroup@@@svutil@@@std@@@std@@IAEXXZ 0041f960 f i GroupPool.obj
 0001:0001e960       ??1?$vector@PAV?$hashnode@Vword@svutil@@PAVEntityGroup@@@svutil@@V?$allocator@PAV?$hashnode@Vword@svutil@@PAVEntityGroup@@@svutil@@@std@@@std@@QAE@XZ 0041f960 f i EntityGroupPool.obj
 0001:0001e990       ?push_back@?$list@PAVPage@@V?$allocator@PAVPage@@@std@@@std@@QAEXABQAVPage@@@Z 0041f990 f i PagePool.obj
 0001:0001e9d0       ?_Insert_n@?$vector@PAUSubPool@PagePool@@V?$allocator@PAUSubPool@PagePool@@@std@@@std@@IAEXViterator@12@IABQAUSubPool@PagePool@@@Z 0041f9d0 f i PagePool.obj
 0001:0001e9d0       ?_Insert_n@?$vector@PAVPage@@V?$allocator@PAVPage@@@std@@@std@@IAEXViterator@12@IABQAVPage@@@Z 0041f9d0 f i PagePool.obj
 0001:0001ebc0       ??0PagePool@@QAE@XZ        0041fbc0 f   PagePool.obj
 0001:0001eca0       ??1PagePool@@QAE@XZ        0041fca0 f   PagePool.obj
 0001:0001ee40       ?GetFree@PagePool@@QAEPAVPage@@XZ 0041fe40 f   PagePool.obj
 0001:0001ef30       ?PutFree@PagePool@@QAE_NPAVPage@@@Z 0041ff30 f   PagePool.obj
 0001:0001f020       ?resize@?$vector@PAVPage@@V?$allocator@PAVPage@@@std@@@std@@QAEXIPAVPage@@@Z 00420020 f i PagePool.obj
 0001:0001f020       ?resize@?$vector@PAUSubPool@PagePool@@V?$allocator@PAUSubPool@PagePool@@@std@@@std@@QAEXIPAUSubPool@PagePool@@@Z 00420020 f i PagePool.obj
 0001:0001f0b0       ?InitPoolEx@PagePool@@IAE_NXZ 004200b0 f   PagePool.obj
 0001:0001f100       ?LoadPageEx@PagePool@@QAE_NPBD@Z 00420100 f   PagePool.obj
 0001:0001f620       ?CreatePageEx@PagePool@@QAE_NPBDHHH_N@Z 00420620 f   PagePool.obj
 0001:0001fac0       ?AddNewPagesEx@PagePool@@QAE_NH@Z 00420ac0 f   PagePool.obj
 0001:00020160       ?GetFreeEx@PagePool@@QAEPAVPage@@XZ 00421160 f   PagePool.obj
 0001:00020200       ??1PoolBase@@QAE@XZ        00421200 f   PoolBase.obj
 0001:00020260       ??1PoolBase2@@QAE@XZ       00421260 f   PoolBase.obj
 0001:00020320       ??0PoolBase2@@QAE@XZ       00421320 f   PoolBase.obj
 0001:000203e0       ?WriteData@MyTCPStream@@QAEIPBXIK@Z 004213e0 f i QueryData.obj
 0001:00020480       ?ReadData@MyTCPStream@@QAEIPAXIDK@Z 00421480 f i QueryData.obj
 0001:00020510       ?SetNoDelay@MyTCPStream@@QAE_N_N@Z 00421510 f i QueryData.obj
 0001:00020570       ??0QueryData@@QAE@XZ       00421570 f   QueryData.obj
 0001:000205b0       ?Socket_Recev@QueryData@@IAE_NAAVMyTCPStream@@PAPAXAAIK@Z 004215b0 f   QueryData.obj
 0001:00020620       ?Pipe_Send@QueryData@@IAE_NPAX0I@Z 00421620 f   QueryData.obj
 0001:000206a0       ?Pipe_Recev@QueryData@@IAE_NPAXPAPAXAAI@Z 004216a0 f   QueryData.obj
 0001:00020790       ?QueryBySocket@QueryData@@IAE_NPAUsvdbquery@@PAPAXAAIV?$basic_string@DU?$char_traits@D@std@@V?$allocator@D@2@@std@@I@Z 00421790 f   QueryData.obj
 0001:00020920       ?QueryByPipe@QueryData@@IAE_NPAUsvdbquery@@PAPAXAAIV?$basic_string@DU?$char_traits@D@std@@V?$allocator@D@2@@std@@I@Z 00421920 f   QueryData.obj
 0001:00020a10       ?Query@QueryData@@QAE_NPAUsvdbquery@@PAPAXAAIV?$basic_string@DU?$char_traits@D@std@@V?$allocator@D@2@@std@@@Z 00421a10 f   QueryData.obj
 0001:00020b20       ?Format@TTime@svutil@@QBE?AV?$basic_string@DU?$char_traits@D@std@@V?$allocator@D@2@@std@@XZ 00421b20 f i Queue.obj
 0001:00020bb0       ??8RecordPos@@QAE_NABU0@@Z 00421bb0 f i Queue.obj
 0001:00020bd0       ??0QueueHead@@QAE@XZ       00421bd0 f i Queue.obj
 0001:00020c00       ?GetLabel@QueueRecord@@QBE?AV?$basic_string@DU?$char_traits@D@std@@V?$allocator@D@2@@std@@XZ 00421c00 f i Queue.obj
 0001:00020c30       ?GetCreateTime@QueueRecord@@QBE?AVTTime@svutil@@XZ 00421c30 f i Queue.obj
 0001:00020c40       ??0Queue@@QAE@XZ           00421c40 f   Queue.obj
 0001:00020ce0       ??1Queue@@QAE@XZ           00421ce0 f   Queue.obj
 0001:00020d50       ?PeekTopRecord@Queue@@AAEHPADAAI@Z 00421d50 f   Queue.obj
 0001:00021090       ?CreateObjByPage@Queue@@QAE_NPAVPage@@@Z 00422090 f   Queue.obj
 0001:00021140       ?SetNext@Queue@@AAE_NHHHH@Z 00422140 f   Queue.obj
 0001:000211b0       ?_Min@?$_Tree@V?$_Tset_traits@PAUQueueHead@@U?$less@PAUQueueHead@@@std@@V?$allocator@PAUQueueHead@@@3@$0A@@std@@@std@@KAPAU_Node@?$_Tree_nod@V?$_Tset_traits@PAUQueueHead@@U?$less@PAUQueueHead@@@std@@V?$allocator@PAUQueueHead@@@3@$0A@@std@@@2@PAU342@@Z 004221b0 f i Queue.obj
 0001:000211b0       ?_Min@?$_Tree@V?$_Tset_traits@HU?$less@H@std@@V?$allocator@H@2@$0A@@std@@@std@@KAPAU_Node@?$_Tree_nod@V?$_Tset_traits@HU?$less@H@std@@V?$allocator@H@2@$0A@@std@@@2@PAU342@@Z 004221b0 f i svdbtype.obj
 0001:000211b0       ?_Min@?$_Tree@V?$_Tset_traits@PAVPage@@U?$less@PAVPage@@@std@@V?$allocator@PAVPage@@@3@$0A@@std@@@std@@KAPAU_Node@?$_Tree_nod@V?$_Tset_traits@PAVPage@@U?$less@PAVPage@@@std@@V?$allocator@PAVPage@@@3@$0A@@std@@@2@PAU342@@Z 004221b0 f i Queue.obj
 0001:000211d0       ?_Inc@const_iterator@?$_Tree@V?$_Tset_traits@HU?$less@H@std@@V?$allocator@H@2@$0A@@std@@@std@@QAEXXZ 004221d0 f i svdbtype.obj
 0001:000211d0       ?_Inc@const_iterator@?$_Tree@V?$_Tset_traits@PAUQueueHead@@U?$less@PAUQueueHead@@@std@@V?$allocator@PAUQueueHead@@@3@$0A@@std@@@std@@QAEXXZ 004221d0 f i Queue.obj
 0001:000211d0       ?_Inc@const_iterator@?$_Tree@V?$_Tset_traits@PAVPage@@U?$less@PAVPage@@@std@@V?$allocator@PAVPage@@@3@$0A@@std@@@std@@QAEXXZ 004221d0 f i Queue.obj
 0001:00021230       ?Peek@Queue@@QAEHAAVbuffer@svutil@@AAI_NI@Z 00422230 f   Queue.obj
 0001:000213e0       ?FlushData@Queue@@QAE_NXZ  004223e0 f   Queue.obj
 0001:00021580       ?_Rrotate@?$_Tree@V?$_Tset_traits@PAVPage@@U?$less@PAVPage@@@std@@V?$allocator@PAVPage@@@3@$0A@@std@@@std@@IAEXPAU_Node@?$_Tree_nod@V?$_Tset_traits@PAVPage@@U?$less@PAVPage@@@std@@V?$allocator@PAVPage@@@3@$0A@@std@@@2@@Z 00422580 f i Queue.obj
 0001:00021580       ?_Rrotate@?$_Tree@V?$_Tset_traits@HU?$less@H@std@@V?$allocator@H@2@$0A@@std@@@std@@IAEXPAU_Node@?$_Tree_nod@V?$_Tset_traits@HU?$less@H@std@@V?$allocator@H@2@$0A@@std@@@2@@Z 00422580 f i svdbtype.obj
 0001:00021580       ?_Rrotate@?$_Tree@V?$_Tset_traits@PAUQueueHead@@U?$less@PAUQueueHead@@@std@@V?$allocator@PAUQueueHead@@@3@$0A@@std@@@std@@IAEXPAU_Node@?$_Tree_nod@V?$_Tset_traits@PAUQueueHead@@U?$less@PAUQueueHead@@@std@@V?$allocator@PAUQueueHead@@@3@$0A@@std@@@2@@Z 00422580 f i Queue.obj
 0001:000215e0       ?_Lrotate@?$_Tree@V?$_Tset_traits@PAUQueueHead@@U?$less@PAUQueueHead@@@std@@V?$allocator@PAUQueueHead@@@3@$0A@@std@@@std@@IAEXPAU_Node@?$_Tree_nod@V?$_Tset_traits@PAUQueueHead@@U?$less@PAUQueueHead@@@std@@V?$allocator@PAUQueueHead@@@3@$0A@@std@@@2@@Z 004225e0 f i Queue.obj
 0001:000215e0       ?_Lrotate@?$_Tree@V?$_Tset_traits@HU?$less@H@std@@V?$allocator@H@2@$0A@@std@@@std@@IAEXPAU_Node@?$_Tree_nod@V?$_Tset_traits@HU?$less@H@std@@V?$allocator@H@2@$0A@@std@@@2@@Z 004225e0 f i svdbtype.obj
 0001:000215e0       ?_Lrotate@?$_Tree@V?$_Tset_traits@PAVPage@@U?$less@PAVPage@@@std@@V?$allocator@PAVPage@@@3@$0A@@std@@@std@@IAEXPAU_Node@?$_Tree_nod@V?$_Tset_traits@PAVPage@@U?$less@PAVPage@@@std@@V?$allocator@PAVPage@@@3@$0A@@std@@@2@@Z 004225e0 f i Queue.obj
 0001:00021640       ?_Dec@const_iterator@?$_Tree@V?$_Tset_traits@PAUQueueHead@@U?$less@PAUQueueHead@@@std@@V?$allocator@PAUQueueHead@@@3@$0A@@std@@@std@@QAEXXZ 00422640 f i Queue.obj
 0001:00021640       ?_Dec@const_iterator@?$_Tree@V?$_Tset_traits@PAVPage@@U?$less@PAVPage@@@std@@V?$allocator@PAVPage@@@3@$0A@@std@@@std@@QAEXXZ 00422640 f i Queue.obj
 0001:000216a0       ?Append@Queue@@QAE_NPBDIH@Z 004226a0 f   Queue.obj
 0001:00021bc0       ?DeleteData@Queue@@QAE_NXZ 00422bc0 f   Queue.obj
 0001:00021c80       ?Clear@Queue@@QAE_NXZ      00422c80 f   Queue.obj
 0001:00021dc0       ?PopTopRecord@Queue@@AAEHPADAAI@Z 00422dc0 f   Queue.obj
 0001:00022290       ?_Buynode@?$_Tree@V?$_Tset_traits@PAUQueueHead@@U?$less@PAUQueueHead@@@std@@V?$allocator@PAUQueueHead@@@3@$0A@@std@@@std@@IAEPAU_Node@?$_Tree_nod@V?$_Tset_traits@PAUQueueHead@@U?$less@PAUQueueHead@@@std@@V?$allocator@PAUQueueHead@@@3@$0A@@std@@@2@PAU342@00ABQAUQueueHead@@D@Z 00423290 f i Queue.obj
 0001:00022290       ?_Buynode@?$_Tree@V?$_Tset_traits@PAVPage@@U?$less@PAVPage@@@std@@V?$allocator@PAVPage@@@3@$0A@@std@@@std@@IAEPAU_Node@?$_Tree_nod@V?$_Tset_traits@PAVPage@@U?$less@PAVPage@@@std@@V?$allocator@PAVPage@@@3@$0A@@std@@@2@PAU342@00ABQAVPage@@D@Z 00423290 f i Queue.obj
 0001:000222d0       ?_Buynode@?$_Tree@V?$_Tset_traits@PAUQueueHead@@U?$less@PAUQueueHead@@@std@@V?$allocator@PAUQueueHead@@@3@$0A@@std@@@std@@IAEPAU_Node@?$_Tree_nod@V?$_Tset_traits@PAUQueueHead@@U?$less@PAUQueueHead@@@std@@V?$allocator@PAUQueueHead@@@3@$0A@@std@@@2@XZ 004232d0 f i Queue.obj
 0001:000222d0       ?_Buynode@?$_Tree@V?$_Tset_traits@PAVPage@@U?$less@PAVPage@@@std@@V?$allocator@PAVPage@@@3@$0A@@std@@@std@@IAEPAU_Node@?$_Tree_nod@V?$_Tset_traits@PAVPage@@U?$less@PAVPage@@@std@@V?$allocator@PAVPage@@@3@$0A@@std@@@2@XZ 004232d0 f i Queue.obj
 0001:000222d0       ?_Buynode@?$_Tree@V?$_Tset_traits@HU?$less@H@std@@V?$allocator@H@2@$0A@@std@@@std@@IAEPAU_Node@?$_Tree_nod@V?$_Tset_traits@HU?$less@H@std@@V?$allocator@H@2@$0A@@std@@@2@XZ 004232d0 f i svdbtype.obj
 0001:00022310       ?_Erase@?$_Tree@V?$_Tset_traits@PAVPage@@U?$less@PAVPage@@@std@@V?$allocator@PAVPage@@@3@$0A@@std@@@std@@IAEXPAU_Node@?$_Tree_nod@V?$_Tset_traits@PAVPage@@U?$less@PAVPage@@@std@@V?$allocator@PAVPage@@@3@$0A@@std@@@2@@Z 00423310 f i Queue.obj
 0001:00022350       ?_Erase@?$_Tree@V?$_Tset_traits@PAUQueueHead@@U?$less@PAUQueueHead@@@std@@V?$allocator@PAUQueueHead@@@3@$0A@@std@@@std@@IAEXPAU_Node@?$_Tree_nod@V?$_Tset_traits@PAUQueueHead@@U?$less@PAUQueueHead@@@std@@V?$allocator@PAUQueueHead@@@3@$0A@@std@@@2@@Z 00423350 f i Queue.obj
 0001:00022390       ?PopTop@Queue@@QAEHAAVbuffer@svutil@@AAI_NI@Z 00423390 f   Queue.obj
 0001:00022540       ?find@?$_Tree@V?$_Tset_traits@PAUQueueHead@@U?$less@PAUQueueHead@@@std@@V?$allocator@PAUQueueHead@@@3@$0A@@std@@@std@@QAE?AViterator@12@ABQAUQueueHead@@@Z 00423540 f i Queue.obj
 0001:00022540       ?find@?$_Tree@V?$_Tset_traits@PAVPage@@U?$less@PAVPage@@@std@@V?$allocator@PAVPage@@@3@$0A@@std@@@std@@QAE?AViterator@12@ABQAVPage@@@Z 00423540 f i Queue.obj
 0001:000225b0       ?_Insert@?$_Tree@V?$_Tset_traits@PAVPage@@U?$less@PAVPage@@@std@@V?$allocator@PAVPage@@@3@$0A@@std@@@std@@IAE?AViterator@12@_NPAU_Node@?$_Tree_nod@V?$_Tset_traits@PAVPage@@U?$less@PAVPage@@@std@@V?$allocator@PAVPage@@@3@$0A@@std@@@2@ABQAVPage@@@Z 004235b0 f i Queue.obj
 0001:000225b0       ?_Insert@?$_Tree@V?$_Tset_traits@PAUQueueHead@@U?$less@PAUQueueHead@@@std@@V?$allocator@PAUQueueHead@@@3@$0A@@std@@@std@@IAE?AViterator@12@_NPAU_Node@?$_Tree_nod@V?$_Tset_traits@PAUQueueHead@@U?$less@PAUQueueHead@@@std@@V?$allocator@PAUQueueHead@@@3@$0A@@std@@@2@ABQAUQueueHead@@@Z 004235b0 f i Queue.obj
 0001:00022770       ?erase@?$_Tree@V?$_Tset_traits@PAVPage@@U?$less@PAVPage@@@std@@V?$allocator@PAVPage@@@3@$0A@@std@@@std@@QAE?AViterator@12@V312@@Z 00423770 f i Queue.obj
 0001:00022770       ?erase@?$_Tree@V?$_Tset_traits@PAUQueueHead@@U?$less@PAUQueueHead@@@std@@V?$allocator@PAUQueueHead@@@3@$0A@@std@@@std@@QAE?AViterator@12@V312@@Z 00423770 f i Queue.obj
 0001:00022a40       ?insert@?$_Tree@V?$_Tset_traits@PAVPage@@U?$less@PAVPage@@@std@@V?$allocator@PAVPage@@@3@$0A@@std@@@std@@QAE?AU?$pair@Viterator@?$_Tree@V?$_Tset_traits@PAVPage@@U?$less@PAVPage@@@std@@V?$allocator@PAVPage@@@3@$0A@@std@@@std@@_N@2@ABQAVPage@@@Z 00423a40 f i Queue.obj
 0001:00022a40       ?insert@?$_Tree@V?$_Tset_traits@PAUQueueHead@@U?$less@PAUQueueHead@@@std@@V?$allocator@PAUQueueHead@@@3@$0A@@std@@@std@@QAE?AU?$pair@Viterator@?$_Tree@V?$_Tset_traits@PAUQueueHead@@U?$less@PAUQueueHead@@@std@@V?$allocator@PAUQueueHead@@@3@$0A@@std@@@std@@_N@2@ABQAUQueueHead@@@Z 00423a40 f i Queue.obj
 0001:00022b00       ?erase@?$_Tree@V?$_Tset_traits@PAVPage@@U?$less@PAVPage@@@std@@V?$allocator@PAVPage@@@3@$0A@@std@@@std@@QAE?AViterator@12@V312@0@Z 00423b00 f i Queue.obj
 0001:00022bc0       ?erase@?$_Tree@V?$_Tset_traits@PAUQueueHead@@U?$less@PAUQueueHead@@@std@@V?$allocator@PAUQueueHead@@@3@$0A@@std@@@std@@QAE?AViterator@12@V312@0@Z 00423bc0 f i Queue.obj
 0001:00022c80       ?GetLabelData@Queue@@QAE_NAAV?$list@V?$basic_string@DU?$char_traits@D@std@@V?$allocator@D@2@@std@@V?$allocator@V?$basic_string@DU?$char_traits@D@std@@V?$allocator@D@2@@std@@@2@@std@@PBDI@Z 00423c80 f   Queue.obj
 0001:00022e70       ??1?$set@PAVPage@@U?$less@PAVPage@@@std@@V?$allocator@PAVPage@@@3@@std@@QAE@XZ 00423e70 f i Queue.obj
 0001:00022ea0       ??1?$set@PAUQueueHead@@U?$less@PAUQueueHead@@@std@@V?$allocator@PAUQueueHead@@@3@@std@@QAE@XZ 00423ea0 f i Queue.obj
 0001:00022ed0       ?GetQueueAllMessageLabels@Queue@@QAE_NAAV?$list@V?$basic_string@DU?$char_traits@D@std@@V?$allocator@D@2@@std@@V?$allocator@V?$basic_string@DU?$char_traits@D@std@@V?$allocator@D@2@@std@@@2@@std@@@Z 00423ed0 f   Queue.obj
 0001:000233b0       ??0QueueRecord@@QAE@XZ     004243b0 f   QueueRecord.obj
 0001:000233e0       ??1QueueRecord@@QAE@XZ     004243e0 f   QueueRecord.obj
 0001:00023400       ?GetRawDataSize@QueueRecord@@QAEIXZ 00424400 f   QueueRecord.obj
 0001:00023410       ?GetRawData@QueueRecord@@QAEPADPADI@Z 00424410 f   QueueRecord.obj
 0001:000234d0       ?CreateObjectByRawData@QueueRecord@@QAEHPBDI@Z 004244d0 f   QueueRecord.obj
 0001:00023610       ??0QueueRecord@@QAE@V?$basic_string@DU?$char_traits@D@std@@V?$allocator@D@2@@std@@VTTime@svutil@@PBDIH@Z 00424610 f   QueueRecord.obj
 0001:000236d0       ??0RecordType@@QAE@XZ      004246d0 f i RecordSet.obj
 0001:00023730       ??1RecordType@@QAE@XZ      00424730 f i RecordSet.obj
 0001:00023770       ?GetRawDataSize@RecordType@@QAEIXZ 00424770 f   RecordType.obj
 0001:000237b0       ?GetRawData@RecordType@@QAE_NPADI@Z 004247b0 f   RecordType.obj
 0001:000238e0       ??0Resource@@QAE@XZ        004248e0 f   Resource.obj
 0001:00023940       ??1Resource@@QAE@XZ        00424940 f   Resource.obj
 0001:000239a0       ?GetRawDataSize@Resource@@UAEIXZ 004249a0 f   Resource.obj
 0001:000239c0       ?GetRawData@Resource@@UAEPADPADI@Z 004249c0 f   Resource.obj
 0001:00023a50       ?CreateObjectByRawData@Resource@@UAEHPBDI@Z 00424a50 f   Resource.obj
 0001:00023b10       ?_Lrotate@?$_Tree@V?$_Tset_traits@V?$basic_string@DU?$char_traits@D@std@@V?$allocator@D@2@@std@@U?$less@V?$basic_string@DU?$char_traits@D@std@@V?$allocator@D@2@@std@@@2@V?$allocator@V?$basic_string@DU?$char_traits@D@std@@V?$allocator@D@2@@std@@@2@$0A@@std@@@std@@IAEXPAU_Node@?$_Tree_nod@V?$_Tset_traits@V?$basic_string@DU?$char_traits@D@std@@V?$allocator@D@2@@std@@U?$less@V?$basic_string@DU?$char_traits@D@std@@V?$allocator@D@2@@std@@@2@V?$allocator@V?$basic_string@DU?$char_traits@D@std@@V?$allocator@D@2@@std@@@2@$0A@@std@@@2@@Z 00424b10 f i Resource.obj
 0001:00023b70       ?_Max@?$_Tree@V?$_Tset_traits@V?$basic_string@DU?$char_traits@D@std@@V?$allocator@D@2@@std@@U?$less@V?$basic_string@DU?$char_traits@D@std@@V?$allocator@D@2@@std@@@2@V?$allocator@V?$basic_string@DU?$char_traits@D@std@@V?$allocator@D@2@@std@@@2@$0A@@std@@@std@@KAPAU_Node@?$_Tree_nod@V?$_Tset_traits@V?$basic_string@DU?$char_traits@D@std@@V?$allocator@D@2@@std@@U?$less@V?$basic_string@DU?$char_traits@D@std@@V?$allocator@D@2@@std@@@2@V?$allocator@V?$basic_string@DU?$char_traits@D@std@@V?$allocator@D@2@@std@@@2@$0A@@std@@@2@PAU342@@Z 00424b70 f i Resource.obj
 0001:00023b90       ?_Min@?$_Tree@V?$_Tset_traits@V?$basic_string@DU?$char_traits@D@std@@V?$allocator@D@2@@std@@U?$less@V?$basic_string@DU?$char_traits@D@std@@V?$allocator@D@2@@std@@@2@V?$allocator@V?$basic_string@DU?$char_traits@D@std@@V?$allocator@D@2@@std@@@2@$0A@@std@@@std@@KAPAU_Node@?$_Tree_nod@V?$_Tset_traits@V?$basic_string@DU?$char_traits@D@std@@V?$allocator@D@2@@std@@U?$less@V?$basic_string@DU?$char_traits@D@std@@V?$allocator@D@2@@std@@@2@V?$allocator@V?$basic_string@DU?$char_traits@D@std@@V?$allocator@D@2@@std@@@2@$0A@@std@@@2@PAU342@@Z 00424b90 f i Resource.obj
 0001:00023bb0       ?_Rrotate@?$_Tree@V?$_Tset_traits@V?$basic_string@DU?$char_traits@D@std@@V?$allocator@D@2@@std@@U?$less@V?$basic_string@DU?$char_traits@D@std@@V?$allocator@D@2@@std@@@2@V?$allocator@V?$basic_string@DU?$char_traits@D@std@@V?$allocator@D@2@@std@@@2@$0A@@std@@@std@@IAEXPAU_Node@?$_Tree_nod@V?$_Tset_traits@V?$basic_string@DU?$char_traits@D@std@@V?$allocator@D@2@@std@@U?$less@V?$basic_string@DU?$char_traits@D@std@@V?$allocator@D@2@@std@@@2@V?$allocator@V?$basic_string@DU?$char_traits@D@std@@V?$allocator@D@2@@std@@@2@$0A@@std@@@2@@Z 00424bb0 f i Resource.obj
 0001:00023c10       ?_Inc@const_iterator@?$_Tree@V?$_Tset_traits@V?$basic_string@DU?$char_traits@D@std@@V?$allocator@D@2@@std@@U?$less@V?$basic_string@DU?$char_traits@D@std@@V?$allocator@D@2@@std@@@2@V?$allocator@V?$basic_string@DU?$char_traits@D@std@@V?$allocator@D@2@@std@@@2@$0A@@std@@@std@@QAEXXZ 00424c10 f i Resource.obj
 0001:00023c70       ?_Buynode@?$_Tree@V?$_Tset_traits@V?$basic_string@DU?$char_traits@D@std@@V?$allocator@D@2@@std@@U?$less@V?$basic_string@DU?$char_traits@D@std@@V?$allocator@D@2@@std@@@2@V?$allocator@V?$basic_string@DU?$char_traits@D@std@@V?$allocator@D@2@@std@@@2@$0A@@std@@@std@@IAEPAU_Node@?$_Tree_nod@V?$_Tset_traits@V?$basic_string@DU?$char_traits@D@std@@V?$allocator@D@2@@std@@U?$less@V?$basic_string@DU?$char_traits@D@std@@V?$allocator@D@2@@std@@@2@V?$allocator@V?$basic_string@DU?$char_traits@D@std@@V?$allocator@D@2@@std@@@2@$0A@@std@@@2@XZ 00424c70 f i Resource.obj
 0001:00023cb0       ?erase@?$_Tree@V?$_Tset_traits@V?$basic_string@DU?$char_traits@D@std@@V?$allocator@D@2@@std@@U?$less@V?$basic_string@DU?$char_traits@D@std@@V?$allocator@D@2@@std@@@2@V?$allocator@V?$basic_string@DU?$char_traits@D@std@@V?$allocator@D@2@@std@@@2@$0A@@std@@@std@@QAE?AViterator@12@V312@@Z 00424cb0 f i Resource.obj
 0001:00023f90       ?_Erase@?$_Tree@V?$_Tset_traits@V?$basic_string@DU?$char_traits@D@std@@V?$allocator@D@2@@std@@U?$less@V?$basic_string@DU?$char_traits@D@std@@V?$allocator@D@2@@std@@@2@V?$allocator@V?$basic_string@DU?$char_traits@D@std@@V?$allocator@D@2@@std@@@2@$0A@@std@@@std@@IAEXPAU_Node@?$_Tree_nod@V?$_Tset_traits@V?$basic_string@DU?$char_traits@D@std@@V?$allocator@D@2@@std@@U?$less@V?$basic_string@DU?$char_traits@D@std@@V?$allocator@D@2@@std@@@2@V?$allocator@V?$basic_string@DU?$char_traits@D@std@@V?$allocator@D@2@@std@@@2@$0A@@std@@@2@@Z 00424f90 f i Resource.obj
 0001:00023fd0       ?clear@?$_Tree@V?$_Tset_traits@V?$basic_string@DU?$char_traits@D@std@@V?$allocator@D@2@@std@@U?$less@V?$basic_string@DU?$char_traits@D@std@@V?$allocator@D@2@@std@@@2@V?$allocator@V?$basic_string@DU?$char_traits@D@std@@V?$allocator@D@2@@std@@@2@$0A@@std@@@std@@QAEXXZ 00424fd0 f i Resource.obj
 0001:00024000       ?erase@?$_Tree@V?$_Tset_traits@V?$basic_string@DU?$char_traits@D@std@@V?$allocator@D@2@@std@@U?$less@V?$basic_string@DU?$char_traits@D@std@@V?$allocator@D@2@@std@@@2@V?$allocator@V?$basic_string@DU?$char_traits@D@std@@V?$allocator@D@2@@std@@@2@$0A@@std@@@std@@QAE?AViterator@12@V312@0@Z 00425000 f i Resource.obj
 0001:000240c0       ??1?$set@V?$basic_string@DU?$char_traits@D@std@@V?$allocator@D@2@@std@@U?$less@V?$basic_string@DU?$char_traits@D@std@@V?$allocator@D@2@@std@@@2@V?$allocator@V?$basic_string@DU?$char_traits@D@std@@V?$allocator@D@2@@std@@@2@@std@@QAE@XZ 004250c0 f i Resource.obj
 0001:000240f0       ??0?$set@V?$basic_string@DU?$char_traits@D@std@@V?$allocator@D@2@@std@@U?$less@V?$basic_string@DU?$char_traits@D@std@@V?$allocator@D@2@@std@@@2@V?$allocator@V?$basic_string@DU?$char_traits@D@std@@V?$allocator@D@2@@std@@@2@@std@@QAE@XZ 004250f0 f i Resource.obj
 0001:00024120       ??0Resource@@QAE@AAVStringMap@@V?$basic_string@DU?$char_traits@D@std@@V?$allocator@D@2@@std@@@Z 00425120 f   Resource.obj
 0001:00024430       ?Load@ResourcePool@@UAE_NXZ 00425430 f   ResourcePool.obj
 0001:00024530       ?Submit@ResourcePool@@UAE_NXZ 00425530 f   ResourcePool.obj
 0001:00024660       ?_Min@?$_Tree@V?$_Tmap_traits@V?$basic_string@DU?$char_traits@D@std@@V?$allocator@D@2@@std@@V12@U?$less@V?$basic_string@DU?$char_traits@D@std@@V?$allocator@D@2@@std@@@2@V?$allocator@U?$pair@$$CBV?$basic_string@DU?$char_traits@D@std@@V?$allocator@D@2@@std@@V12@@std@@@2@$0A@@std@@@std@@KAPAU_Node@?$_Tree_nod@V?$_Tmap_traits@V?$basic_string@DU?$char_traits@D@std@@V?$allocator@D@2@@std@@V12@U?$less@V?$basic_string@DU?$char_traits@D@std@@V?$allocator@D@2@@std@@@2@V?$allocator@U?$pair@$$CBV?$basic_string@DU?$char_traits@D@std@@V?$allocator@D@2@@std@@V12@@std@@@2@$0A@@std@@@2@PAU342@@Z 00425660 f i ResourcePool.obj
 0001:00024660       ?_Min@?$_Tree@V?$_Tmap_traits@V?$basic_string@DU?$char_traits@D@std@@V?$allocator@D@2@@std@@V12@UStlIniCompareStringNoCase@@V?$allocator@U?$pair@$$CBV?$basic_string@DU?$char_traits@D@std@@V?$allocator@D@2@@std@@V12@@std@@@2@$0A@@std@@@std@@KAPAU_Node@?$_Tree_nod@V?$_Tmap_traits@V?$basic_string@DU?$char_traits@D@std@@V?$allocator@D@2@@std@@V12@UStlIniCompareStringNoCase@@V?$allocator@U?$pair@$$CBV?$basic_string@DU?$char_traits@D@std@@V?$allocator@D@2@@std@@V12@@std@@@2@$0A@@std@@@2@PAU342@@Z 00425660 f i Option.obj
 0001:00024680       ??0?$hashelement@Vword@svutil@@PAVResource@@@svutil@@QAE@ABVword@1@@Z 00425680 f i ResourcePool.obj
 0001:000246e0       ??0?$hashelement@Vword@svutil@@PAVResource@@@svutil@@QAE@ABVword@1@ABQAVResource@@@Z 004256e0 f i ResourcePool.obj
 0001:00024750       ??1?$treenode@V?$hashelement@Vword@svutil@@PAVResource@@@svutil@@@svutil@@UAE@XZ 00425750 f i ResourcePool.obj
 0001:00024770       ??_G?$treenode@V?$hashelement@Vword@svutil@@PAVResource@@@svutil@@@svutil@@UAEPAXI@Z 00425770 f i ResourcePool.obj
 0001:00024770       ??_E?$treenode@V?$hashelement@Vword@svutil@@PAVResource@@@svutil@@@svutil@@UAEPAXI@Z 00425770 f i ResourcePool.obj
 0001:00024790       ?_Xlen@?$vector@PAV?$hashnode@Vword@svutil@@PAVResource@@@svutil@@V?$allocator@PAV?$hashnode@Vword@svutil@@PAVResource@@@svutil@@@std@@@std@@IBEXXZ 00425790 f i ResourcePool.obj
 0001:00024810       ?CountNodes@?$sorttree@V?$hashelement@Vword@svutil@@PAVResource@@@svutil@@@svutil@@AAEXPAV?$treenode@V?$hashelement@Vword@svutil@@PAVResource@@@svutil@@@2@AAK@Z 00425810 f i ResourcePool.obj
 0001:00024840       ??M?$treenode@V?$hashelement@Vword@svutil@@PAVResource@@@svutil@@@svutil@@QAE_NV01@@Z 00425840 f i ResourcePool.obj
 0001:000248b0       ??O?$treenode@V?$hashelement@Vword@svutil@@PAVResource@@@svutil@@@svutil@@QAE_NV01@@Z 004258b0 f i ResourcePool.obj
 0001:00024920       ??0?$treenode@V?$hashelement@Vword@svutil@@PAVResource@@@svutil@@@svutil@@QAE@ABV01@@Z 00425920 f i ResourcePool.obj
 0001:000249a0       ??$fill@PAPAVMonitorTemplet@@PAV1@@std@@YAXPAPAVMonitorTemplet@@0ABQAV1@@Z 004259a0 f i MonitorTempletPool.obj
 0001:000249a0       ??$fill@PAPAV?$hashnode@Vword@svutil@@PAVEntityEx@@@svutil@@PAV12@@std@@YAXPAPAV?$hashnode@Vword@svutil@@PAVEntityEx@@@svutil@@0ABQAV12@@Z 004259a0 f i EntityPoolEx.obj
 0001:000249a0       ??$fill@PAPAV?$hashnode@Vword@svutil@@PAVEntity@@@svutil@@PAV12@@std@@YAXPAPAV?$hashnode@Vword@svutil@@PAVEntity@@@svutil@@0ABQAV12@@Z 004259a0 f i EntityPool.obj
 0001:000249a0       ??$fill@PAPAV?$hashnode@Vword@svutil@@PAVEntityTemplet@@@svutil@@PAV12@@std@@YAXPAPAV?$hashnode@Vword@svutil@@PAVEntityTemplet@@@svutil@@0ABQAV12@@Z 004259a0 f i EntityTempletPool.obj
 0001:000249a0       ??$fill@PAPAV?$hashnode@Vword@svutil@@PAVEntityGroup@@@svutil@@PAV12@@std@@YAXPAPAV?$hashnode@Vword@svutil@@PAVEntityGroup@@@svutil@@0ABQAV12@@Z 004259a0 f i EntityGroupPool.obj
 0001:000249a0       ??$fill@PAPAV?$hashnode@Vword@svutil@@PAVPort@@@svutil@@PAV12@@std@@YAXPAPAV?$hashnode@Vword@svutil@@PAVPort@@@svutil@@0ABQAV12@@Z 004259a0 f i svdb.obj
 0001:000249a0       ??$fill@PAPAV?$hashnode@Vword@svutil@@PAVGeneralPool@@@svutil@@PAV12@@std@@YAXPAPAV?$hashnode@Vword@svutil@@PAVGeneralPool@@@svutil@@0ABQAV12@@Z 004259a0 f i svdbmain.obj
 0001:000249a0       ??$fill@PAPAV?$hashnode@Vword@svutil@@PAVMonitor@@@svutil@@PAV12@@std@@YAXPAPAV?$hashnode@Vword@svutil@@PAVMonitor@@@svutil@@0ABQAV12@@Z 004259a0 f i MonitorPool.obj
 0001:000249a0       ??$fill@PAPAVPage@@PAV1@@std@@YAXPAPAVPage@@0ABQAV1@@Z 004259a0 f i PagePool.obj
 0001:000249a0       ??$fill@PAPAV?$hashnode@Vword@svutil@@PAVTable@@@svutil@@PAV12@@std@@YAXPAPAV?$hashnode@Vword@svutil@@PAVTable@@@svutil@@0ABQAV12@@Z 004259a0 f i DB.obj
 0001:000249a0       ??$fill@PAPAUSubPool@PagePool@@PAU12@@std@@YAXPAPAUSubPool@PagePool@@0ABQAU12@@Z 004259a0 f i PagePool.obj
 0001:000249a0       ??$fill@PAPAVDataType@@PAV1@@std@@YAXPAPAVDataType@@0ABQAV1@@Z 004259a0 f i DB.obj
 0001:000249a0       ??$fill@PAPAV?$hashnode@Vword@svutil@@PAVGroup@@@svutil@@PAV12@@std@@YAXPAPAV?$hashnode@Vword@svutil@@PAVGroup@@@svutil@@0ABQAV12@@Z 004259a0 f i GroupPool.obj
 0001:000249a0       ??$fill@PAPAV?$hashnode@Vword@svutil@@V12@@svutil@@PAV12@@std@@YAXPAPAV?$hashnode@Vword@svutil@@V12@@svutil@@0ABQAV12@@Z 004259a0 f i EntityPool.obj
 0001:000249a0       ??$fill@PAPAV?$hashnode@Vword@svutil@@PAVSection@@@svutil@@PAV12@@std@@YAXPAPAV?$hashnode@Vword@svutil@@PAVSection@@@svutil@@0ABQAV12@@Z 004259a0 f i GeneralPool.obj
 0001:000249a0       ??$fill@PAPAV?$hashnode@Vword@svutil@@PAVVirtualGroup@@@svutil@@PAV12@@std@@YAXPAPAV?$hashnode@Vword@svutil@@PAVVirtualGroup@@@svutil@@0ABQAV12@@Z 004259a0 f i VirtualGroupPool.obj
 0001:000249a0       ??$fill@PAPAV?$hashnode@Vword@svutil@@PAVQueue@@@svutil@@PAV12@@std@@YAXPAPAV?$hashnode@Vword@svutil@@PAVQueue@@@svutil@@0ABQAV12@@Z 004259a0 f i DB.obj
 0001:000249a0       ??$fill@PAPAV?$hashnode@Vword@svutil@@PAVTopologyChart@@@svutil@@PAV12@@std@@YAXPAPAV?$hashnode@Vword@svutil@@PAVTopologyChart@@@svutil@@0ABQAV12@@Z 004259a0 f i TopologyChartPool.obj
 0001:000249a0       ??$fill@PAPAV?$hashnode@Vword@svutil@@PAVResource@@@svutil@@PAV12@@std@@YAXPAPAV?$hashnode@Vword@svutil@@PAVResource@@@svutil@@0ABQAV12@@Z 004259a0 f i ResourcePool.obj
 0001:000249a0       ??$fill@PAPAV?$hashnode@Vword@svutil@@PAVCommonData@@@svutil@@PAV12@@std@@YAXPAPAV?$hashnode@Vword@svutil@@PAVCommonData@@@svutil@@0ABQAV12@@Z 004259a0 f i GeneralPool.obj
 0001:000249a0       ??$fill@PAPAVSVSE@@PAV1@@std@@YAXPAPAVSVSE@@0ABQAV1@@Z 004259a0 f i svdbmain.obj
 0001:000249c0       ??1_Node@?$_Tree_nod@V?$_Tmap_traits@V?$basic_string@DU?$char_traits@D@std@@V?$allocator@D@2@@std@@V12@U?$less@V?$basic_string@DU?$char_traits@D@std@@V?$allocator@D@2@@std@@@2@V?$allocator@U?$pair@$$CBV?$basic_string@DU?$char_traits@D@std@@V?$allocator@D@2@@std@@V12@@std@@@2@$0A@@std@@@std@@QAE@XZ 004259c0 f i ResourcePool.obj
 0001:000249c0       ??1_Node@?$_Tree_nod@V?$_Tmap_traits@V?$basic_string@DU?$char_traits@D@std@@V?$allocator@D@2@@std@@V12@UStlIniCompareStringNoCase@@V?$allocator@U?$pair@$$CBV?$basic_string@DU?$char_traits@D@std@@V?$allocator@D@2@@std@@V12@@std@@@2@$0A@@std@@@std@@QAE@XZ 004259c0 f i Option.obj
 0001:000249d0       ??0?$treenode@V?$hashelement@Vword@svutil@@PAVResource@@@svutil@@@svutil@@QAE@ABV?$hashelement@Vword@svutil@@PAVResource@@@1@@Z 004259d0 f i ResourcePool.obj
 0001:00024a50       ?DeleteTree@?$sorttree@V?$hashelement@Vword@svutil@@PAVResource@@@svutil@@@svutil@@QAEXPAV?$treenode@V?$hashelement@Vword@svutil@@PAVResource@@@svutil@@@2@@Z 00425a50 f i ResourcePool.obj
 0001:00024aa0       ?RomoveNode@?$sorttree@V?$hashelement@Vword@svutil@@PAVResource@@@svutil@@@svutil@@QAEXABV?$hashelement@Vword@svutil@@PAVResource@@@2@@Z 00425aa0 f i ResourcePool.obj
 0001:00024c40       ?InsertNode@?$sorttree@V?$hashelement@Vword@svutil@@PAVResource@@@svutil@@@svutil@@QAEXPAV?$treenode@V?$hashelement@Vword@svutil@@PAVResource@@@svutil@@@2@0@Z 00425c40 f i ResourcePool.obj
 0001:00024cd0       ?findnextnode@?$sorttree@V?$hashelement@Vword@svutil@@PAVResource@@@svutil@@@svutil@@ABEPAV?$treenode@V?$hashelement@Vword@svutil@@PAVResource@@@svutil@@@2@AAV?$hashelement@Vword@svutil@@PAVResource@@@2@AA_NPAV32@@Z 00425cd0 f i ResourcePool.obj
 0001:00024d40       ??$CreateNode@V?$hashelement@Vword@svutil@@PAVResource@@@svutil@@@?$sorttree@V?$hashelement@Vword@svutil@@PAVResource@@@svutil@@@svutil@@SAPAV?$treenode@V?$hashelement@Vword@svutil@@PAVResource@@@svutil@@@1@ABV?$hashelement@Vword@svutil@@PAVResource@@@1@@Z 00425d40 f i ResourcePool.obj
 0001:00024da0       ??_G?$sorttree@V?$hashelement@Vword@svutil@@PAVResource@@@svutil@@@svutil@@UAEPAXI@Z 00425da0 f i ResourcePool.obj
 0001:00024da0       ??_E?$sorttree@V?$hashelement@Vword@svutil@@PAVResource@@@svutil@@@svutil@@UAEPAXI@Z 00425da0 f i ResourcePool.obj
 0001:00024e00       ?find@?$hashnode@Vword@svutil@@PAVResource@@@svutil@@QAE_NABVword@2@PAPAV?$hashelement@Vword@svutil@@PAVResource@@@2@@Z 00425e00 f i ResourcePool.obj
 0001:00024ed0       ?InsertNodeEx@?$sorttree@V?$hashelement@Vword@svutil@@PAVResource@@@svutil@@@svutil@@QAEAAV?$hashelement@Vword@svutil@@PAVResource@@@2@ABV32@@Z 00425ed0 f i ResourcePool.obj
 0001:00024f60       ??1?$hashnode@Vword@svutil@@PAVResource@@@svutil@@QAE@XZ 00425f60 f i ResourcePool.obj
 0001:00024ff0       ?insert@?$hashnode@Vword@svutil@@PAVResource@@@svutil@@QAEAAV?$hashelement@Vword@svutil@@PAVResource@@@2@ABVword@2@ABQAVResource@@@Z 00425ff0 f i ResourcePool.obj
 0001:000250d0       ?find@?$hashnode@Vword@svutil@@PAVResource@@@svutil@@QAE_NABVword@2@PAPAPAVResource@@@Z 004260d0 f i ResourcePool.obj
 0001:00025130       ?erase@?$_Tree@V?$_Tmap_traits@V?$basic_string@DU?$char_traits@D@std@@V?$allocator@D@2@@std@@V12@U?$less@V?$basic_string@DU?$char_traits@D@std@@V?$allocator@D@2@@std@@@2@V?$allocator@U?$pair@$$CBV?$basic_string@DU?$char_traits@D@std@@V?$allocator@D@2@@std@@V12@@std@@@2@$0A@@std@@@std@@QAE?AViterator@12@V312@@Z 00426130 f i ResourcePool.obj
 0001:00025430       ?size@?$hashtable@Vword@svutil@@PAVResource@@@svutil@@QAEIXZ 00426430 f i ResourcePool.obj
 0001:000254d0       ?find@?$hashtable@Vword@svutil@@PAVResource@@@svutil@@QAEPAPAVResource@@ABVword@2@@Z 004264d0 f i ResourcePool.obj
 0001:00025540       ?_Erase@?$_Tree@V?$_Tmap_traits@V?$basic_string@DU?$char_traits@D@std@@V?$allocator@D@2@@std@@V12@U?$less@V?$basic_string@DU?$char_traits@D@std@@V?$allocator@D@2@@std@@@2@V?$allocator@U?$pair@$$CBV?$basic_string@DU?$char_traits@D@std@@V?$allocator@D@2@@std@@V12@@std@@@2@$0A@@std@@@std@@IAEXPAU_Node@?$_Tree_nod@V?$_Tmap_traits@V?$basic_string@DU?$char_traits@D@std@@V?$allocator@D@2@@std@@V12@U?$less@V?$basic_string@DU?$char_traits@D@std@@V?$allocator@D@2@@std@@@2@V?$allocator@U?$pair@$$CBV?$basic_string@DU?$char_traits@D@std@@V?$allocator@D@2@@std@@V12@@std@@@2@$0A@@std@@@2@@Z 00426540 f i ResourcePool.obj
 0001:00025580       ?clearnodes@?$hashtable@Vword@svutil@@PAVResource@@@svutil@@IAEXXZ 00426580 f i ResourcePool.obj
 0001:000255f0       ?findnext@?$hashnode@Vword@svutil@@PAVResource@@@svutil@@QAE_NAAV?$hashelement@Vword@svutil@@PAVResource@@@2@PAPAV32@@Z 004265f0 f i ResourcePool.obj
 0001:000256a0       ?erase@?$hashnode@Vword@svutil@@PAVResource@@@svutil@@QAE_NABVword@2@@Z 004266a0 f i ResourcePool.obj
 0001:000257b0       ?_Insert_n@?$vector@PAV?$hashnode@Vword@svutil@@PAVResource@@@svutil@@V?$allocator@PAV?$hashnode@Vword@svutil@@PAVResource@@@svutil@@@std@@@std@@IAEXViterator@12@IABQAV?$hashnode@Vword@svutil@@PAVResource@@@svutil@@@Z 004267b0 f i ResourcePool.obj
 0001:000259a0       ??1?$hashtable@Vword@svutil@@PAVResource@@@svutil@@QAE@XZ 004269a0 f i ResourcePool.obj
 0001:00025a00       ?erase@?$hashtable@Vword@svutil@@PAVResource@@@svutil@@QAE_NABVword@2@@Z 00426a00 f i ResourcePool.obj
 0001:00025aa0       ?findnext@?$hashtable@Vword@svutil@@PAVResource@@@svutil@@QAE_NAAViterator@12@@Z 00426aa0 f i ResourcePool.obj
 0001:00025b40       ?resize@?$vector@PAV?$hashnode@Vword@svutil@@PAVResource@@@svutil@@V?$allocator@PAV?$hashnode@Vword@svutil@@PAVResource@@@svutil@@@std@@@std@@QAEXIPAV?$hashnode@Vword@svutil@@PAVResource@@@svutil@@@Z 00426b40 f i ResourcePool.obj
 0001:00025bd0       ?erase@?$_Tree@V?$_Tmap_traits@V?$basic_string@DU?$char_traits@D@std@@V?$allocator@D@2@@std@@V12@U?$less@V?$basic_string@DU?$char_traits@D@std@@V?$allocator@D@2@@std@@@2@V?$allocator@U?$pair@$$CBV?$basic_string@DU?$char_traits@D@std@@V?$allocator@D@2@@std@@V12@@std@@@2@$0A@@std@@@std@@QAE?AViterator@12@V312@0@Z 00426bd0 f i ResourcePool.obj
 0001:00025c90       ?GetRawDataSize@ResourcePool@@UAEIXZ 00426c90 f   ResourcePool.obj
 0001:00025cf0       ?GetRawData@ResourcePool@@UAEPADPADI@Z 00426cf0 f   ResourcePool.obj
 0001:00025de0       ?DeleteResource@ResourcePool@@QAE_NVword@svutil@@@Z 00426de0 f   ResourcePool.obj
 0001:00025ed0       ??0?$hashtable@Vword@svutil@@PAVResource@@@svutil@@QAE@XZ 00426ed0 f i ResourcePool.obj
 0001:00025f20       ?insert@?$hashtable@Vword@svutil@@PAVResource@@@svutil@@QAEAAPAVResource@@ABVword@2@ABQAV3@@Z 00426f20 f i ResourcePool.obj
 0001:00026010       ?SubmitWithIds@ResourcePool@@QAE_NABV?$map@V?$basic_string@DU?$char_traits@D@std@@V?$allocator@D@2@@std@@V12@U?$less@V?$basic_string@DU?$char_traits@D@std@@V?$allocator@D@2@@std@@@2@V?$allocator@U?$pair@$$CBV?$basic_string@DU?$char_traits@D@std@@V?$allocator@D@2@@std@@V12@@std@@@2@@std@@@Z 00427010 f   ResourcePool.obj
 0001:00026240       ?CreateObjectByRawData@ResourcePool@@UAEHPBDI@Z 00427240 f   ResourcePool.obj
 0001:000263f0       ?push@ResourcePool@@QAE_NPAVResource@@@Z 004273f0 f   ResourcePool.obj
 0001:00026500       ?PushData@ResourcePool@@QAE_NPBDI@Z 00427500 f   ResourcePool.obj
 0001:000265d0       ??1?$map@V?$basic_string@DU?$char_traits@D@std@@V?$allocator@D@2@@std@@V12@U?$less@V?$basic_string@DU?$char_traits@D@std@@V?$allocator@D@2@@std@@@2@V?$allocator@U?$pair@$$CBV?$basic_string@DU?$char_traits@D@std@@V?$allocator@D@2@@std@@V12@@std@@@2@@std@@QAE@XZ 004275d0 f i ResourcePool.obj
 0001:00026600       ??0?$map@V?$basic_string@DU?$char_traits@D@std@@V?$allocator@D@2@@std@@V12@U?$less@V?$basic_string@DU?$char_traits@D@std@@V?$allocator@D@2@@std@@@2@V?$allocator@U?$pair@$$CBV?$basic_string@DU?$char_traits@D@std@@V?$allocator@D@2@@std@@V12@@std@@@2@@std@@QAE@XZ 00427600 f i ResourcePool.obj
 0001:00026630       ?PutData@CommonData@@QAE_NPBXIH@Z 00427630 f i Section.obj
 0001:000266d0       ?GetRawDataSize@CommonData@@UAEIXZ 004276d0 f   Section.obj
 0001:000266e0       ?GetRawData@CommonData@@UAEPADPADI@Z 004276e0 f   Section.obj
 0001:00026740       ?CreateObjectByRawData@CommonData@@UAEHPBDI@Z 00427740 f   Section.obj
 0001:00026800       ?CountNodes@?$sorttree@V?$hashelement@Vword@svutil@@PAVCommonData@@@svutil@@@svutil@@AAEXPAV?$treenode@V?$hashelement@Vword@svutil@@PAVCommonData@@@svutil@@@2@AAK@Z 00427800 f i Section.obj
 0001:00026830       ?findnextnode@?$sorttree@V?$hashelement@Vword@svutil@@PAVCommonData@@@svutil@@@svutil@@ABEPAV?$treenode@V?$hashelement@Vword@svutil@@PAVCommonData@@@svutil@@@2@AAV?$hashelement@Vword@svutil@@PAVCommonData@@@2@AA_NPAV32@@Z 00427830 f i Section.obj
 0001:000268a0       ??1?$hashnode@Vword@svutil@@PAVCommonData@@@svutil@@QAE@XZ 004278a0 f i Section.obj
 0001:00026930       ?clearnodes@?$hashtable@Vword@svutil@@PAVCommonData@@@svutil@@IAEXXZ 00427930 f i Section.obj
 0001:000269a0       ?findnext@?$hashnode@Vword@svutil@@PAVCommonData@@@svutil@@QAE_NAAV?$hashelement@Vword@svutil@@PAVCommonData@@@2@PAPAV32@@Z 004279a0 f i Section.obj
 0001:00026a50       ?GetRawDataSize@Section@@UAEIXZ 00427a50 f   Section.obj
 0001:00026ac0       ?GetRawData@Section@@UAEPADPADI@Z 00427ac0 f   Section.obj
 0001:00026bd0       ??1?$hashtable@Vword@svutil@@PAVCommonData@@@svutil@@QAE@XZ 00427bd0 f i Section.obj
 0001:00026c30       ?findnext@?$hashtable@Vword@svutil@@PAVCommonData@@@svutil@@QAE_NAAViterator@12@@Z 00427c30 f i Section.obj
 0001:00026cd0       ??1Section@@QAE@XZ         00427cd0 f   Section.obj
 0001:00026dd0       ??0?$hashtable@Vword@svutil@@PAVCommonData@@@svutil@@QAE@XZ 00427dd0 f i Section.obj
 0001:00026e20       ??0Section@@QAE@XZ         00427e20 f   Section.obj
 0001:00026ec0       ?CreateObjectByRawData@Section@@UAEHPBDI@Z 00427ec0 f   Section.obj
 0001:000270d0       ?SVS_ServiceCtrlHandler@@YGXK@Z 004280d0 f   Services.obj
 0001:00027170       ?InstallService@@YA_NXZ    00428170 f   Services.obj
 0001:000273b0       ?UnInstall@@YA_NXZ         004283b0 f   Services.obj
 0001:000274f0       ?RunProcess@@YA_NPAU_PROCESS_INFORMATION@@V?$basic_string@DU?$char_traits@D@std@@V?$allocator@D@2@@std@@@Z 004284f0 f   Services.obj
 0001:000276c0       ?WatchDBProcess@@YGKPAX@Z  004286c0 f   Services.obj
 0001:000277d0       ?Init@@YA_NXZ              004287d0 f   Services.obj
 0001:00027830       ?SVS_ServiceStart@@YGXKPAPAD@Z 00428830 f   Services.obj
 0001:00027980       ?RunSvdbServices@@YAXXZ    00428980 f   Services.obj
 0001:000279b0       ??0SocketWatchThread@@QAE@XZ 004289b0 f   SocketWatchThread.obj
 0001:000279d0       ?Init@SocketWatchThread@@QAE_NXZ 004289d0 f   SocketWatchThread.obj
 0001:00027a60       ?run@SocketWatchThread@@UAEXXZ 00428a60 f   SocketWatchThread.obj
 0001:00027b60       ??1SocketWatchThread@@UAE@XZ 00428b60 f   SocketWatchThread.obj
 0001:00027bd0       ??_GSocketWatchThread@@UAEPAXI@Z 00428bd0 f i SocketWatchThread.obj
 0001:00027bd0       ??_ESocketWatchThread@@UAEPAXI@Z 00428bd0 f i SocketWatchThread.obj
 0001:00027bf0       ??RStlIniCompareStringNoCase@@QBE_NABV?$basic_string@DU?$char_traits@D@std@@V?$allocator@D@2@@std@@0@Z 00428bf0 f i stlini.obj
 0001:00027c40       ??1?$pair@V?$basic_string@DU?$char_traits@D@std@@V?$allocator@D@2@@std@@V12@@std@@QAE@XZ 00428c40 f i stlini.obj
 0001:00027c90       ??0?$pair@V?$basic_string@DU?$char_traits@D@std@@V?$allocator@D@2@@std@@V12@@std@@QAE@ABV?$basic_string@DU?$char_traits@D@std@@V?$allocator@D@2@@1@0@Z 00428c90 f i stlini.obj
 0001:00027cf0       ?_Dec@const_iterator@?$_Tree@V?$_Tmap_traits@V?$basic_string@DU?$char_traits@D@std@@V?$allocator@D@2@@std@@V?$map@V?$basic_string@DU?$char_traits@D@std@@V?$allocator@D@2@@std@@V12@UStlIniCompareStringNoCase@@V?$allocator@U?$pair@$$CBV?$basic_string@DU?$char_traits@D@std@@V?$allocator@D@2@@std@@V12@@std@@@2@@2@UStlIniCompareStringNoCase@@V?$allocator@U?$pair@$$CBV?$basic_string@DU?$char_traits@D@std@@V?$allocator@D@2@@std@@V?$map@V?$basic_string@DU?$char_traits@D@std@@V?$allocator@D@2@@std@@V12@UStlIniCompareStringNoCase@@V?$allocator@U?$pair@$$CBV?$basic_string@DU?$char_traits@D@std@@V?$allocator@D@2@@std@@V12@@std@@@2@@2@@std@@@2@$0A@@std@@@std@@QAEXXZ 00428cf0 f i stlini.obj
 0001:00027cf0       ?_Dec@const_iterator@?$_Tree@V?$_Tmap_traits@V?$basic_string@DU?$char_traits@D@std@@V?$allocator@D@2@@std@@V?$list@Viterator@?$list@VSingelRecord@@V?$allocator@VSingelRecord@@@std@@@std@@V?$allocator@Viterator@?$list@VSingelRecord@@V?$allocator@VSingelRecord@@@std@@@std@@@3@@2@U?$less@V?$basic_string@DU?$char_traits@D@std@@V?$allocator@D@2@@std@@@2@V?$allocator@U?$pair@$$CBV?$basic_string@DU?$char_traits@D@std@@V?$allocator@D@2@@std@@V?$list@Viterator@?$list@VSingelRecord@@V?$allocator@VSingelRecord@@@std@@@std@@V?$allocator@Viterator@?$list@VSingelRecord@@V?$allocator@VSingelRecord@@@std@@@std@@@3@@2@@std@@@2@$0A@@std@@@std@@QAEXXZ 00428cf0 f i WorkThread.obj
 0001:00027d50       ??$?0V?$basic_string@DU?$char_traits@D@std@@V?$allocator@D@2@@std@@V01@@?$pair@$$CBV?$basic_string@DU?$char_traits@D@std@@V?$allocator@D@2@@std@@V12@@std@@QAE@ABU?$pair@V?$basic_string@DU?$char_traits@D@std@@V?$allocator@D@2@@std@@V12@@1@@Z 00428d50 f i stlini.obj
 0001:00027d50       ??0?$pair@$$CBV?$basic_string@DU?$char_traits@D@std@@V?$allocator@D@2@@std@@V12@@std@@QAE@ABU01@@Z 00428d50 f i stlini.obj
 0001:00027db0       ?_Lbound@?$_Tree@V?$_Tmap_traits@V?$basic_string@DU?$char_traits@D@std@@V?$allocator@D@2@@std@@V?$map@V?$basic_string@DU?$char_traits@D@std@@V?$allocator@D@2@@std@@V12@UStlIniCompareStringNoCase@@V?$allocator@U?$pair@$$CBV?$basic_string@DU?$char_traits@D@std@@V?$allocator@D@2@@std@@V12@@std@@@2@@2@UStlIniCompareStringNoCase@@V?$allocator@U?$pair@$$CBV?$basic_string@DU?$char_traits@D@std@@V?$allocator@D@2@@std@@V?$map@V?$basic_string@DU?$char_traits@D@std@@V?$allocator@D@2@@std@@V12@UStlIniCompareStringNoCase@@V?$allocator@U?$pair@$$CBV?$basic_string@DU?$char_traits@D@std@@V?$allocator@D@2@@std@@V12@@std@@@2@@2@@std@@@2@$0A@@std@@@std@@IBEPAU_Node@?$_Tree_nod@V?$_Tmap_traits@V?$basic_string@DU?$char_traits@D@std@@V?$allocator@D@2@@std@@V?$map@V?$basic_string@DU?$char_traits@D@std@@V?$allocator@D@2@@std@@V12@UStlIniCompareStringNoCase@@V?$allocator@U?$pair@$$CBV?$basic_string@DU?$char_traits@D@std@@V?$allocator@D@2@@std@@V12@@std@@@2@@2@UStlIniCompareStringNoCase@@V?$allocator@U?$pair@$$CBV?$basic_string@DU?$char_traits@D@std@@V?$allocator@D@2@@std@@V?$map@V?$basic_string@DU?$char_traits@D@std@@V?$allocator@D@2@@std@@V12@UStlIniCompareStringNoCase@@V?$allocator@U?$pair@$$CBV?$basic_string@DU?$char_traits@D@std@@V?$allocator@D@2@@std@@V12@@std@@@2@@2@@std@@@2@$0A@@std@@@2@ABV?$basic_string@DU?$char_traits@D@std@@V?$allocator@D@2@@2@@Z 00428db0 f i stlini.obj
 0001:00027e20       ?_Lbound@?$_Tree@V?$_Tmap_traits@V?$basic_string@DU?$char_traits@D@std@@V?$allocator@D@2@@std@@V12@UStlIniCompareStringNoCase@@V?$allocator@U?$pair@$$CBV?$basic_string@DU?$char_traits@D@std@@V?$allocator@D@2@@std@@V12@@std@@@2@$0A@@std@@@std@@IBEPAU_Node@?$_Tree_nod@V?$_Tmap_traits@V?$basic_string@DU?$char_traits@D@std@@V?$allocator@D@2@@std@@V12@UStlIniCompareStringNoCase@@V?$allocator@U?$pair@$$CBV?$basic_string@DU?$char_traits@D@std@@V?$allocator@D@2@@std@@V12@@std@@@2@$0A@@std@@@2@ABV?$basic_string@DU?$char_traits@D@std@@V?$allocator@D@2@@2@@Z 00428e20 f i stlini.obj
 0001:00027e90       ?_Buynode@?$_Tree@V?$_Tmap_traits@V?$basic_string@DU?$char_traits@D@std@@V?$allocator@D@2@@std@@V12@UStlIniCompareStringNoCase@@V?$allocator@U?$pair@$$CBV?$basic_string@DU?$char_traits@D@std@@V?$allocator@D@2@@std@@V12@@std@@@2@$0A@@std@@@std@@IAEPAU_Node@?$_Tree_nod@V?$_Tmap_traits@V?$basic_string@DU?$char_traits@D@std@@V?$allocator@D@2@@std@@V12@UStlIniCompareStringNoCase@@V?$allocator@U?$pair@$$CBV?$basic_string@DU?$char_traits@D@std@@V?$allocator@D@2@@std@@V12@@std@@@2@$0A@@std@@@2@PAU342@00ABU?$pair@$$CBV?$basic_string@DU?$char_traits@D@std@@V?$allocator@D@2@@std@@V12@@2@D@Z 00428e90 f i stlini.obj
 0001:00027f30       ?_Buynode@?$_Tree@V?$_Tmap_traits@V?$basic_string@DU?$char_traits@D@std@@V?$allocator@D@2@@std@@V12@U?$less@V?$basic_string@DU?$char_traits@D@std@@V?$allocator@D@2@@std@@@2@V?$allocator@U?$pair@$$CBV?$basic_string@DU?$char_traits@D@std@@V?$allocator@D@2@@std@@V12@@std@@@2@$0A@@std@@@std@@IAEPAU_Node@?$_Tree_nod@V?$_Tmap_traits@V?$basic_string@DU?$char_traits@D@std@@V?$allocator@D@2@@std@@V12@U?$less@V?$basic_string@DU?$char_traits@D@std@@V?$allocator@D@2@@std@@@2@V?$allocator@U?$pair@$$CBV?$basic_string@DU?$char_traits@D@std@@V?$allocator@D@2@@std@@V12@@std@@@2@$0A@@std@@@2@XZ 00428f30 f i ResourcePool.obj
 0001:00027f30       ?_Buynode@?$_Tree@V?$_Tmap_traits@V?$basic_string@DU?$char_traits@D@std@@V?$allocator@D@2@@std@@V12@UStlIniCompareStringNoCase@@V?$allocator@U?$pair@$$CBV?$basic_string@DU?$char_traits@D@std@@V?$allocator@D@2@@std@@V12@@std@@@2@$0A@@std@@@std@@IAEPAU_Node@?$_Tree_nod@V?$_Tmap_traits@V?$basic_string@DU?$char_traits@D@std@@V?$allocator@D@2@@std@@V12@UStlIniCompareStringNoCase@@V?$allocator@U?$pair@$$CBV?$basic_string@DU?$char_traits@D@std@@V?$allocator@D@2@@std@@V12@@std@@@2@$0A@@std@@@2@XZ 00428f30 f i stlini.obj
 0001:00027f70       ?find@?$_Tree@V?$_Tmap_traits@V?$basic_string@DU?$char_traits@D@std@@V?$allocator@D@2@@std@@V12@UStlIniCompareStringNoCase@@V?$allocator@U?$pair@$$CBV?$basic_string@DU?$char_traits@D@std@@V?$allocator@D@2@@std@@V12@@std@@@2@$0A@@std@@@std@@QAE?AViterator@12@ABV?$basic_string@DU?$char_traits@D@std@@V?$allocator@D@2@@2@@Z 00428f70 f i stlini.obj
 0001:00027fd0       ?_Insert@?$_Tree@V?$_Tmap_traits@V?$basic_string@DU?$char_traits@D@std@@V?$allocator@D@2@@std@@V12@UStlIniCompareStringNoCase@@V?$allocator@U?$pair@$$CBV?$basic_string@DU?$char_traits@D@std@@V?$allocator@D@2@@std@@V12@@std@@@2@$0A@@std@@@std@@IAE?AViterator@12@_NPAU_Node@?$_Tree_nod@V?$_Tmap_traits@V?$basic_string@DU?$char_traits@D@std@@V?$allocator@D@2@@std@@V12@UStlIniCompareStringNoCase@@V?$allocator@U?$pair@$$CBV?$basic_string@DU?$char_traits@D@std@@V?$allocator@D@2@@std@@V12@@std@@@2@$0A@@std@@@2@ABU?$pair@$$CBV?$basic_string@DU?$char_traits@D@std@@V?$allocator@D@2@@std@@V12@@2@@Z 00428fd0 f i stlini.obj
 0001:00028190       ?GetIniSetting@@YA?AV?$basic_string@DU?$char_traits@D@std@@V?$allocator@D@2@@std@@AAV?$map@V?$basic_string@DU?$char_traits@D@std@@V?$allocator@D@2@@std@@V?$map@V?$basic_string@DU?$char_traits@D@std@@V?$allocator@D@2@@std@@V12@UStlIniCompareStringNoCase@@V?$allocator@U?$pair@$$CBV?$basic_string@DU?$char_traits@D@std@@V?$allocator@D@2@@std@@V12@@std@@@2@@2@UStlIniCompareStringNoCase@@V?$allocator@U?$pair@$$CBV?$basic_string@DU?$char_traits@D@std@@V?$allocator@D@2@@std@@V?$map@V?$basic_string@DU?$char_traits@D@std@@V?$allocator@D@2@@std@@V12@UStlIniCompareStringNoCase@@V?$allocator@U?$pair@$$CBV?$basic_string@DU?$char_traits@D@std@@V?$allocator@D@2@@std@@V12@@std@@@2@@2@@std@@@2@@2@PBD11@Z 00429190 f   stlini.obj
 0001:000282c0       ?insert@?$_Tree@V?$_Tmap_traits@V?$basic_string@DU?$char_traits@D@std@@V?$allocator@D@2@@std@@V12@UStlIniCompareStringNoCase@@V?$allocator@U?$pair@$$CBV?$basic_string@DU?$char_traits@D@std@@V?$allocator@D@2@@std@@V12@@std@@@2@$0A@@std@@@std@@QAE?AU?$pair@Viterator@?$_Tree@V?$_Tmap_traits@V?$basic_string@DU?$char_traits@D@std@@V?$allocator@D@2@@std@@V12@UStlIniCompareStringNoCase@@V?$allocator@U?$pair@$$CBV?$basic_string@DU?$char_traits@D@std@@V?$allocator@D@2@@std@@V12@@std@@@2@$0A@@std@@@std@@_N@2@ABU?$pair@$$CBV?$basic_string@DU?$char_traits@D@std@@V?$allocator@D@2@@std@@V12@@2@@Z 004292c0 f i stlini.obj
 0001:000283b0       ?_Copy@?$_Tree@V?$_Tmap_traits@V?$basic_string@DU?$char_traits@D@std@@V?$allocator@D@2@@std@@V12@UStlIniCompareStringNoCase@@V?$allocator@U?$pair@$$CBV?$basic_string@DU?$char_traits@D@std@@V?$allocator@D@2@@std@@V12@@std@@@2@$0A@@std@@@std@@IAEPAU_Node@?$_Tree_nod@V?$_Tmap_traits@V?$basic_string@DU?$char_traits@D@std@@V?$allocator@D@2@@std@@V12@UStlIniCompareStringNoCase@@V?$allocator@U?$pair@$$CBV?$basic_string@DU?$char_traits@D@std@@V?$allocator@D@2@@std@@V12@@std@@@2@$0A@@std@@@2@PAU342@0@Z 004293b0 f i stlini.obj
 0001:00028460       ?_Copy@?$_Tree@V?$_Tmap_traits@V?$basic_string@DU?$char_traits@D@std@@V?$allocator@D@2@@std@@V12@UStlIniCompareStringNoCase@@V?$allocator@U?$pair@$$CBV?$basic_string@DU?$char_traits@D@std@@V?$allocator@D@2@@std@@V12@@std@@@2@$0A@@std@@@std@@IAEXABV12@@Z 00429460 f i stlini.obj
 0001:000284f0       ??0?$_Tree@V?$_Tmap_traits@V?$basic_string@DU?$char_traits@D@std@@V?$allocator@D@2@@std@@V12@UStlIniCompareStringNoCase@@V?$allocator@U?$pair@$$CBV?$basic_string@DU?$char_traits@D@std@@V?$allocator@D@2@@std@@V12@@std@@@2@$0A@@std@@@std@@QAE@ABV01@@Z 004294f0 f i stlini.obj
 0001:00028580       ??1?$pair@V?$basic_string@DU?$char_traits@D@std@@V?$allocator@D@2@@std@@V?$map@V?$basic_string@DU?$char_traits@D@std@@V?$allocator@D@2@@std@@V12@UStlIniCompareStringNoCase@@V?$allocator@U?$pair@$$CBV?$basic_string@DU?$char_traits@D@std@@V?$allocator@D@2@@std@@V12@@std@@@2@@2@@std@@QAE@XZ 00429580 f i stlini.obj
 0001:00028600       ??0?$pair@$$CBV?$basic_string@DU?$char_traits@D@std@@V?$allocator@D@2@@std@@V?$map@V?$basic_string@DU?$char_traits@D@std@@V?$allocator@D@2@@std@@V12@UStlIniCompareStringNoCase@@V?$allocator@U?$pair@$$CBV?$basic_string@DU?$char_traits@D@std@@V?$allocator@D@2@@std@@V12@@std@@@2@@2@@std@@QAE@ABU01@@Z 00429600 f i stlini.obj
 0001:00028600       ??$?0V?$basic_string@DU?$char_traits@D@std@@V?$allocator@D@2@@std@@V?$map@V?$basic_string@DU?$char_traits@D@std@@V?$allocator@D@2@@std@@V12@UStlIniCompareStringNoCase@@V?$allocator@U?$pair@$$CBV?$basic_string@DU?$char_traits@D@std@@V?$allocator@D@2@@std@@V12@@std@@@2@@1@@?$pair@$$CBV?$basic_string@DU?$char_traits@D@std@@V?$allocator@D@2@@std@@V?$map@V?$basic_string@DU?$char_traits@D@std@@V?$allocator@D@2@@std@@V12@UStlIniCompareStringNoCase@@V?$allocator@U?$pair@$$CBV?$basic_string@DU?$char_traits@D@std@@V?$allocator@D@2@@std@@V12@@std@@@2@@2@@std@@QAE@ABU?$pair@V?$basic_string@DU?$char_traits@D@std@@V?$allocator@D@2@@std@@V?$map@V?$basic_string@DU?$char_traits@D@std@@V?$allocator@D@2@@std@@V12@UStlIniCompareStringNoCase@@V?$allocator@U?$pair@$$CBV?$basic_string@DU?$char_traits@D@std@@V?$allocator@D@2@@std@@V12@@std@@@2@@2@@1@@Z 00429600 f i stlini.obj
 0001:00028660       ??0?$pair@V?$basic_string@DU?$char_traits@D@std@@V?$allocator@D@2@@std@@V?$map@V?$basic_string@DU?$char_traits@D@std@@V?$allocator@D@2@@std@@V12@UStlIniCompareStringNoCase@@V?$allocator@U?$pair@$$CBV?$basic_string@DU?$char_traits@D@std@@V?$allocator@D@2@@std@@V12@@std@@@2@@2@@std@@QAE@ABV?$basic_string@DU?$char_traits@D@std@@V?$allocator@D@2@@1@ABV?$map@V?$basic_string@DU?$char_traits@D@std@@V?$allocator@D@2@@std@@V12@UStlIniCompareStringNoCase@@V?$allocator@U?$pair@$$CBV?$basic_string@DU?$char_traits@D@std@@V?$allocator@D@2@@std@@V12@@std@@@2@@1@@Z 00429660 f i stlini.obj
 0001:000286c0       ?_Buynode@?$_Tree@V?$_Tmap_traits@V?$basic_string@DU?$char_traits@D@std@@V?$allocator@D@2@@std@@V?$map@V?$basic_string@DU?$char_traits@D@std@@V?$allocator@D@2@@std@@V12@UStlIniCompareStringNoCase@@V?$allocator@U?$pair@$$CBV?$basic_string@DU?$char_traits@D@std@@V?$allocator@D@2@@std@@V12@@std@@@2@@2@UStlIniCompareStringNoCase@@V?$allocator@U?$pair@$$CBV?$basic_string@DU?$char_traits@D@std@@V?$allocator@D@2@@std@@V?$map@V?$basic_string@DU?$char_traits@D@std@@V?$allocator@D@2@@std@@V12@UStlIniCompareStringNoCase@@V?$allocator@U?$pair@$$CBV?$basic_string@DU?$char_traits@D@std@@V?$allocator@D@2@@std@@V12@@std@@@2@@2@@std@@@2@$0A@@std@@@std@@IAEPAU_Node@?$_Tree_nod@V?$_Tmap_traits@V?$basic_string@DU?$char_traits@D@std@@V?$allocator@D@2@@std@@V?$map@V?$basic_string@DU?$char_traits@D@std@@V?$allocator@D@2@@std@@V12@UStlIniCompareStringNoCase@@V?$allocator@U?$pair@$$CBV?$basic_string@DU?$char_traits@D@std@@V?$allocator@D@2@@std@@V12@@std@@@2@@2@UStlIniCompareStringNoCase@@V?$allocator@U?$pair@$$CBV?$basic_string@DU?$char_traits@D@std@@V?$allocator@D@2@@std@@V?$map@V?$basic_string@DU?$char_traits@D@std@@V?$allocator@D@2@@std@@V12@UStlIniCompareStringNoCase@@V?$allocator@U?$pair@$$CBV?$basic_string@DU?$char_traits@D@std@@V?$allocator@D@2@@std@@V12@@std@@@2@@2@@std@@@2@$0A@@std@@@2@PAU342@00ABU?$pair@$$CBV?$basic_string@DU?$char_traits@D@std@@V?$allocator@D@2@@std@@V?$map@V?$basic_string@DU?$char_traits@D@std@@V?$allocator@D@2@@std@@V12@UStlIniCompareStringNoCase@@V?$allocator@U?$pair@$$CBV?$basic_string@DU?$char_traits@D@std@@V?$allocator@D@2@@std@@V12@@std@@@2@@2@@2@D@Z 004296c0 f i stlini.obj
 0001:00028760       ?_Insert@?$_Tree@V?$_Tmap_traits@V?$basic_string@DU?$char_traits@D@std@@V?$allocator@D@2@@std@@V?$map@V?$basic_string@DU?$char_traits@D@std@@V?$allocator@D@2@@std@@V12@UStlIniCompareStringNoCase@@V?$allocator@U?$pair@$$CBV?$basic_string@DU?$char_traits@D@std@@V?$allocator@D@2@@std@@V12@@std@@@2@@2@UStlIniCompareStringNoCase@@V?$allocator@U?$pair@$$CBV?$basic_string@DU?$char_traits@D@std@@V?$allocator@D@2@@std@@V?$map@V?$basic_string@DU?$char_traits@D@std@@V?$allocator@D@2@@std@@V12@UStlIniCompareStringNoCase@@V?$allocator@U?$pair@$$CBV?$basic_string@DU?$char_traits@D@std@@V?$allocator@D@2@@std@@V12@@std@@@2@@2@@std@@@2@$0A@@std@@@std@@IAE?AViterator@12@_NPAU_Node@?$_Tree_nod@V?$_Tmap_traits@V?$basic_string@DU?$char_traits@D@std@@V?$allocator@D@2@@std@@V?$map@V?$basic_string@DU?$char_traits@D@std@@V?$allocator@D@2@@std@@V12@UStlIniCompareStringNoCase@@V?$allocator@U?$pair@$$CBV?$basic_string@DU?$char_traits@D@std@@V?$allocator@D@2@@std@@V12@@std@@@2@@2@UStlIniCompareStringNoCase@@V?$allocator@U?$pair@$$CBV?$basic_string@DU?$char_traits@D@std@@V?$allocator@D@2@@std@@V?$map@V?$basic_string@DU?$char_traits@D@std@@V?$allocator@D@2@@std@@V12@UStlIniCompareStringNoCase@@V?$allocator@U?$pair@$$CBV?$basic_string@DU?$char_traits@D@std@@V?$allocator@D@2@@std@@V12@@std@@@2@@2@@std@@@2@$0A@@std@@@2@ABU?$pair@$$CBV?$basic_string@DU?$char_traits@D@std@@V?$allocator@D@2@@std@@V?$map@V?$basic_string@DU?$char_traits@D@std@@V?$allocator@D@2@@std@@V12@UStlIniCompareStringNoCase@@V?$allocator@U?$pair@$$CBV?$basic_string@DU?$char_traits@D@std@@V?$allocator@D@2@@std@@V12@@std@@@2@@2@@2@@Z 00429760 f i stlini.obj
 0001:00028920       ?insert@?$_Tree@V?$_Tmap_traits@V?$basic_string@DU?$char_traits@D@std@@V?$allocator@D@2@@std@@V?$map@V?$basic_string@DU?$char_traits@D@std@@V?$allocator@D@2@@std@@V12@UStlIniCompareStringNoCase@@V?$allocator@U?$pair@$$CBV?$basic_string@DU?$char_traits@D@std@@V?$allocator@D@2@@std@@V12@@std@@@2@@2@UStlIniCompareStringNoCase@@V?$allocator@U?$pair@$$CBV?$basic_string@DU?$char_traits@D@std@@V?$allocator@D@2@@std@@V?$map@V?$basic_string@DU?$char_traits@D@std@@V?$allocator@D@2@@std@@V12@UStlIniCompareStringNoCase@@V?$allocator@U?$pair@$$CBV?$basic_string@DU?$char_traits@D@std@@V?$allocator@D@2@@std@@V12@@std@@@2@@2@@std@@@2@$0A@@std@@@std@@QAE?AU?$pair@Viterator@?$_Tree@V?$_Tmap_traits@V?$basic_string@DU?$char_traits@D@std@@V?$allocator@D@2@@std@@V?$map@V?$basic_string@DU?$char_traits@D@std@@V?$allocator@D@2@@std@@V12@UStlIniCompareStringNoCase@@V?$allocator@U?$pair@$$CBV?$basic_string@DU?$char_traits@D@std@@V?$allocator@D@2@@std@@V12@@std@@@2@@2@UStlIniCompareStringNoCase@@V?$allocator@U?$pair@$$CBV?$basic_string@DU?$char_traits@D@std@@V?$allocator@D@2@@std@@V?$map@V?$basic_string@DU?$char_traits@D@std@@V?$allocator@D@2@@std@@V12@UStlIniCompareStringNoCase@@V?$allocator@U?$pair@$$CBV?$basic_string@DU?$char_traits@D@std@@V?$allocator@D@2@@std@@V12@@std@@@2@@2@@std@@@2@$0A@@std@@@std@@_N@2@ABU?$pair@$$CBV?$basic_string@DU?$char_traits@D@std@@V?$allocator@D@2@@std@@V?$map@V?$basic_string@DU?$char_traits@D@std@@V?$allocator@D@2@@std@@V12@UStlIniCompareStringNoCase@@V?$allocator@U?$pair@$$CBV?$basic_string@DU?$char_traits@D@std@@V?$allocator@D@2@@std@@V12@@std@@@2@@2@@2@@Z 00429920 f i stlini.obj
 0001:00028a10       ?PutIniSetting@@YAXAAV?$map@V?$basic_string@DU?$char_traits@D@std@@V?$allocator@D@2@@std@@V?$map@V?$basic_string@DU?$char_traits@D@std@@V?$allocator@D@2@@std@@V12@UStlIniCompareStringNoCase@@V?$allocator@U?$pair@$$CBV?$basic_string@DU?$char_traits@D@std@@V?$allocator@D@2@@std@@V12@@std@@@2@@2@UStlIniCompareStringNoCase@@V?$allocator@U?$pair@$$CBV?$basic_string@DU?$char_traits@D@std@@V?$allocator@D@2@@std@@V?$map@V?$basic_string@DU?$char_traits@D@std@@V?$allocator@D@2@@std@@V12@UStlIniCompareStringNoCase@@V?$allocator@U?$pair@$$CBV?$basic_string@DU?$char_traits@D@std@@V?$allocator@D@2@@std@@V12@@std@@@2@@2@@std@@@2@@std@@PBD11@Z 00429a10 f   stlini.obj
 0001:00028d80       ?_Copy@?$_Tree@V?$_Tmap_traits@V?$basic_string@DU?$char_traits@D@std@@V?$allocator@D@2@@std@@V?$map@V?$basic_string@DU?$char_traits@D@std@@V?$allocator@D@2@@std@@V12@UStlIniCompareStringNoCase@@V?$allocator@U?$pair@$$CBV?$basic_string@DU?$char_traits@D@std@@V?$allocator@D@2@@std@@V12@@std@@@2@@2@UStlIniCompareStringNoCase@@V?$allocator@U?$pair@$$CBV?$basic_string@DU?$char_traits@D@std@@V?$allocator@D@2@@std@@V?$map@V?$basic_string@DU?$char_traits@D@std@@V?$allocator@D@2@@std@@V12@UStlIniCompareStringNoCase@@V?$allocator@U?$pair@$$CBV?$basic_string@DU?$char_traits@D@std@@V?$allocator@D@2@@std@@V12@@std@@@2@@2@@std@@@2@$0A@@std@@@std@@IAEPAU_Node@?$_Tree_nod@V?$_Tmap_traits@V?$basic_string@DU?$char_traits@D@std@@V?$allocator@D@2@@std@@V?$map@V?$basic_string@DU?$char_traits@D@std@@V?$allocator@D@2@@std@@V12@UStlIniCompareStringNoCase@@V?$allocator@U?$pair@$$CBV?$basic_string@DU?$char_traits@D@std@@V?$allocator@D@2@@std@@V12@@std@@@2@@2@UStlIniCompareStringNoCase@@V?$allocator@U?$pair@$$CBV?$basic_string@DU?$char_traits@D@std@@V?$allocator@D@2@@std@@V?$map@V?$basic_string@DU?$char_traits@D@std@@V?$allocator@D@2@@std@@V12@UStlIniCompareStringNoCase@@V?$allocator@U?$pair@$$CBV?$basic_string@DU?$char_traits@D@std@@V?$allocator@D@2@@std@@V12@@std@@@2@@2@@std@@@2@$0A@@std@@@2@PAU342@0@Z 00429d80 f i stlini.obj
 0001:00028e30       ?_Copy@?$_Tree@V?$_Tmap_traits@V?$basic_string@DU?$char_traits@D@std@@V?$allocator@D@2@@std@@V?$map@V?$basic_string@DU?$char_traits@D@std@@V?$allocator@D@2@@std@@V12@UStlIniCompareStringNoCase@@V?$allocator@U?$pair@$$CBV?$basic_string@DU?$char_traits@D@std@@V?$allocator@D@2@@std@@V12@@std@@@2@@2@UStlIniCompareStringNoCase@@V?$allocator@U?$pair@$$CBV?$basic_string@DU?$char_traits@D@std@@V?$allocator@D@2@@std@@V?$map@V?$basic_string@DU?$char_traits@D@std@@V?$allocator@D@2@@std@@V12@UStlIniCompareStringNoCase@@V?$allocator@U?$pair@$$CBV?$basic_string@DU?$char_traits@D@std@@V?$allocator@D@2@@std@@V12@@std@@@2@@2@@std@@@2@$0A@@std@@@std@@IAEXABV12@@Z 00429e30 f i stlini.obj
 0001:00028ec0       ??0?$_Tree@V?$_Tmap_traits@V?$basic_string@DU?$char_traits@D@std@@V?$allocator@D@2@@std@@V?$map@V?$basic_string@DU?$char_traits@D@std@@V?$allocator@D@2@@std@@V12@UStlIniCompareStringNoCase@@V?$allocator@U?$pair@$$CBV?$basic_string@DU?$char_traits@D@std@@V?$allocator@D@2@@std@@V12@@std@@@2@@2@UStlIniCompareStringNoCase@@V?$allocator@U?$pair@$$CBV?$basic_string@DU?$char_traits@D@std@@V?$allocator@D@2@@std@@V?$map@V?$basic_string@DU?$char_traits@D@std@@V?$allocator@D@2@@std@@V12@UStlIniCompareStringNoCase@@V?$allocator@U?$pair@$$CBV?$basic_string@DU?$char_traits@D@std@@V?$allocator@D@2@@std@@V12@@std@@@2@@2@@std@@@2@$0A@@std@@@std@@QAE@ABV01@@Z 00429ec0 f i stlini.obj
 0001:00028f50       ?LoadIni@@YA?AV?$map@V?$basic_string@DU?$char_traits@D@std@@V?$allocator@D@2@@std@@V?$map@V?$basic_string@DU?$char_traits@D@std@@V?$allocator@D@2@@std@@V12@UStlIniCompareStringNoCase@@V?$allocator@U?$pair@$$CBV?$basic_string@DU?$char_traits@D@std@@V?$allocator@D@2@@std@@V12@@std@@@2@@2@UStlIniCompareStringNoCase@@V?$allocator@U?$pair@$$CBV?$basic_string@DU?$char_traits@D@std@@V?$allocator@D@2@@std@@V?$map@V?$basic_string@DU?$char_traits@D@std@@V?$allocator@D@2@@std@@V12@UStlIniCompareStringNoCase@@V?$allocator@U?$pair@$$CBV?$basic_string@DU?$char_traits@D@std@@V?$allocator@D@2@@std@@V12@@std@@@2@@2@@std@@@2@@std@@PBD@Z 00429f50 f   stlini.obj
 0001:000291f0       ?GetRawDataSize@StringMap@@UAEIXZ 0042a1f0 f   StringMap.obj
 0001:00029270       ?GetRawData@StringMap@@UAEPADPADI@Z 0042a270 f   StringMap.obj
 0001:000293b0       ??0StringMap@@QAE@XZ       0042a3b0 f   StringMap.obj
 0001:00029410       ??1StringMap@@QAE@XZ       0042a410 f   StringMap.obj
 0001:00029420       ?CreateObjectByRawData@StringMap@@UAEHPBDI@Z 0042a420 f   StringMap.obj
 0001:000295b0       ?GetTotalMinutes@TTimeSpan@svutil@@QBEJXZ 0042a5b0 f i svdb.obj
 0001:000295d0       ?PutID@Entity@@QAEXVword@svutil@@@Z 0042a5d0 f i svdb.obj
 0001:000295d0       ?PutID@Group@@QAEXVword@svutil@@@Z 0042a5d0 f i svdb.obj
 0001:00029630       ?PutID@Monitor@@QAEXVword@svutil@@@Z 0042a630 f i svdb.obj
 0001:00029690       ?GetNextSubID@SVSE@@QAE?AVword@svutil@@XZ 0042a690 f i svdb.obj
 0001:00029720       ?PutLabel@SVSE@@QAEXVword@svutil@@@Z 0042a720 f i svdb.obj
 0001:00029780       ?hasrun@@YA_NXZ            0042a780 f   svdb.obj
 0001:000297d0       ?tryGetAllResourceInfo@@YA_NXZ 0042a7d0 f   svdb.obj
 0001:000298e0       ?Run@@YA_NXZ               0042a8e0 f   svdb.obj
 0001:00029ab0       ??0?$hashelement@Vword@svutil@@PAVPort@@@svutil@@QAE@ABVword@1@ABQAVPort@@@Z 0042aab0 f i svdb.obj
 0001:00029b20       ??0?$hashelement@Vword@svutil@@PAVEntityEx@@@svutil@@QAE@ABVword@1@@Z 0042ab20 f i svdb.obj
 0001:00029b20       ??0?$hashelement@Vword@svutil@@PAVTopologyChart@@@svutil@@QAE@ABVword@1@@Z 0042ab20 f i svdb.obj
 0001:00029b20       ??0?$hashelement@Vword@svutil@@PAVPort@@@svutil@@QAE@ABVword@1@@Z 0042ab20 f i svdb.obj
 0001:00029b20       ??0?$hashelement@Vword@svutil@@PAVVirtualGroup@@@svutil@@QAE@ABVword@1@@Z 0042ab20 f i svdb.obj
 0001:00029b80       ?_Xlen@?$vector@PAV?$hashnode@Vword@svutil@@PAVPort@@@svutil@@V?$allocator@PAV?$hashnode@Vword@svutil@@PAVPort@@@svutil@@@std@@@std@@IBEXXZ 0042ab80 f i svdb.obj
 0001:00029c00       ?CountNodes@?$sorttree@V?$hashelement@Vword@svutil@@PAVPort@@@svutil@@@svutil@@AAEXPAV?$treenode@V?$hashelement@Vword@svutil@@PAVPort@@@svutil@@@2@AAK@Z 0042ac00 f i svdb.obj
 0001:00029c30       ?CountNodes@?$sorttree@V?$hashelement@Vword@svutil@@PAVEntityEx@@@svutil@@@svutil@@AAEXPAV?$treenode@V?$hashelement@Vword@svutil@@PAVEntityEx@@@svutil@@@2@AAK@Z 0042ac30 f i svdb.obj
 0001:00029c60       ?CountNodes@?$sorttree@V?$hashelement@Vword@svutil@@PAVTopologyChart@@@svutil@@@svutil@@AAEXPAV?$treenode@V?$hashelement@Vword@svutil@@PAVTopologyChart@@@svutil@@@2@AAK@Z 0042ac60 f i svdb.obj
 0001:00029c90       ?CountNodes@?$sorttree@V?$hashelement@Vword@svutil@@PAVVirtualGroup@@@svutil@@@svutil@@AAEXPAV?$treenode@V?$hashelement@Vword@svutil@@PAVVirtualGroup@@@svutil@@@2@AAK@Z 0042ac90 f i svdb.obj
 0001:00029cc0       ??1_Node@?$_List_nod@VSingelRecord@@V?$allocator@VSingelRecord@@@std@@@std@@QAE@XZ 0042acc0 f i svdb.obj
 0001:00029cc0       ??1_Node@?$_List_nod@V?$basic_string@DU?$char_traits@D@std@@V?$allocator@D@2@@std@@V?$allocator@V?$basic_string@DU?$char_traits@D@std@@V?$allocator@D@2@@std@@@2@@std@@QAE@XZ 0042acc0 f i svdb.obj
 0001:00029cd0       ??0?$treenode@V?$hashelement@Vword@svutil@@PAVPort@@@svutil@@@svutil@@QAE@ABV?$hashelement@Vword@svutil@@PAVPort@@@1@@Z 0042acd0 f i svdb.obj
 0001:00029d50       ?haltSvdb@@YA_NXZ          0042ad50 f   svdb.obj
 0001:00029f50       ?ConsoleHandler@@YGHK@Z    0042af50 f   svdb.obj
 0001:00029f90       _main                      0042af90 f   svdb.obj
 0001:0002a240       ?RomoveNode@?$sorttree@V?$hashelement@Vword@svutil@@PAVCommonData@@@svutil@@@svutil@@QAEXABV?$hashelement@Vword@svutil@@PAVCommonData@@@2@@Z 0042b240 f i svdb.obj
 0001:0002a240       ?RomoveNode@?$sorttree@V?$hashelement@Vword@svutil@@PAVSection@@@svutil@@@svutil@@QAEXABV?$hashelement@Vword@svutil@@PAVSection@@@2@@Z 0042b240 f i svdb.obj
 0001:0002a3e0       ?DeleteTree@?$sorttree@V?$hashelement@Vword@svutil@@PAVPort@@@svutil@@@svutil@@QAEXPAV?$treenode@V?$hashelement@Vword@svutil@@PAVPort@@@svutil@@@2@@Z 0042b3e0 f i svdb.obj
 0001:0002a430       ??1?$treenode@V?$hashelement@Vword@svutil@@PAVPort@@@svutil@@@svutil@@UAE@XZ 0042b430 f i svdb.obj
 0001:0002a450       ??_G?$treenode@V?$hashelement@Vword@svutil@@PAVPort@@@svutil@@@svutil@@UAEPAXI@Z 0042b450 f i svdb.obj
 0001:0002a450       ??_E?$treenode@V?$hashelement@Vword@svutil@@PAVPort@@@svutil@@@svutil@@UAEPAXI@Z 0042b450 f i svdb.obj
 0001:0002a470       ?findnextnode@?$sorttree@V?$hashelement@Vword@svutil@@PAVPort@@@svutil@@@svutil@@ABEPAV?$treenode@V?$hashelement@Vword@svutil@@PAVPort@@@svutil@@@2@AAV?$hashelement@Vword@svutil@@PAVPort@@@2@AA_NPAV32@@Z 0042b470 f i svdb.obj
 0001:0002a4e0       ?findnextnode@?$sorttree@V?$hashelement@Vword@svutil@@PAVEntityEx@@@svutil@@@svutil@@ABEPAV?$treenode@V?$hashelement@Vword@svutil@@PAVEntityEx@@@svutil@@@2@AAV?$hashelement@Vword@svutil@@PAVEntityEx@@@2@AA_NPAV32@@Z 0042b4e0 f i svdb.obj
 0001:0002a550       ?findnextnode@?$sorttree@V?$hashelement@Vword@svutil@@PAVTopologyChart@@@svutil@@@svutil@@ABEPAV?$treenode@V?$hashelement@Vword@svutil@@PAVTopologyChart@@@svutil@@@2@AAV?$hashelement@Vword@svutil@@PAVTopologyChart@@@2@AA_NPAV32@@Z 0042b550 f i svdb.obj
 0001:0002a5c0       ?findnode@?$sorttree@V?$hashelement@Vword@svutil@@PAVGeneralPool@@@svutil@@@svutil@@QAEPAV?$treenode@V?$hashelement@Vword@svutil@@PAVGeneralPool@@@svutil@@@2@ABV?$hashelement@Vword@svutil@@PAVGeneralPool@@@2@PAV32@@Z 0042b5c0 f i WorkThread.obj
 0001:0002a5c0       ?findnode@?$sorttree@V?$hashelement@Vword@svutil@@PAVGroup@@@svutil@@@svutil@@QAEPAV?$treenode@V?$hashelement@Vword@svutil@@PAVGroup@@@svutil@@@2@ABV?$hashelement@Vword@svutil@@PAVGroup@@@2@PAV32@@Z 0042b5c0 f i GroupPool.obj
 0001:0002a5c0       ?findnode@?$sorttree@V?$hashelement@Vword@svutil@@PAVEntityEx@@@svutil@@@svutil@@QAEPAV?$treenode@V?$hashelement@Vword@svutil@@PAVEntityEx@@@svutil@@@2@ABV?$hashelement@Vword@svutil@@PAVEntityEx@@@2@PAV32@@Z 0042b5c0 f i svdb.obj
 0001:0002a5c0       ?findnode@?$sorttree@V?$hashelement@Vword@svutil@@PAVPort@@@svutil@@@svutil@@QAEPAV?$treenode@V?$hashelement@Vword@svutil@@PAVPort@@@svutil@@@2@ABV?$hashelement@Vword@svutil@@PAVPort@@@2@PAV32@@Z 0042b5c0 f i svdb.obj
 0001:0002a5c0       ?findnode@?$sorttree@V?$hashelement@Vword@svutil@@PAVEntityGroup@@@svutil@@@svutil@@QAEPAV?$treenode@V?$hashelement@Vword@svutil@@PAVEntityGroup@@@svutil@@@2@ABV?$hashelement@Vword@svutil@@PAVEntityGroup@@@2@PAV32@@Z 0042b5c0 f i EntityGroupPool.obj
 0001:0002a5c0       ?findnode@?$sorttree@V?$hashelement@Vword@svutil@@PAVEntityTemplet@@@svutil@@@svutil@@QAEPAV?$treenode@V?$hashelement@Vword@svutil@@PAVEntityTemplet@@@svutil@@@2@ABV?$hashelement@Vword@svutil@@PAVEntityTemplet@@@2@PAV32@@Z 0042b5c0 f i EntityTempletPool.obj
 0001:0002a5c0       ?findnode@?$sorttree@V?$hashelement@Vword@svutil@@PAVSection@@@svutil@@@svutil@@QAEPAV?$treenode@V?$hashelement@Vword@svutil@@PAVSection@@@svutil@@@2@ABV?$hashelement@Vword@svutil@@PAVSection@@@2@PAV32@@Z 0042b5c0 f i GeneralPool.obj
 0001:0002a5c0       ?findnode@?$sorttree@V?$hashelement@Vword@svutil@@PAVEntity@@@svutil@@@svutil@@QAEPAV?$treenode@V?$hashelement@Vword@svutil@@PAVEntity@@@svutil@@@2@ABV?$hashelement@Vword@svutil@@PAVEntity@@@2@PAV32@@Z 0042b5c0 f i EntityPool.obj
 0001:0002a5c0       ?findnode@?$sorttree@V?$hashelement@Vword@svutil@@PAVCommonData@@@svutil@@@svutil@@QAEPAV?$treenode@V?$hashelement@Vword@svutil@@PAVCommonData@@@svutil@@@2@ABV?$hashelement@Vword@svutil@@PAVCommonData@@@2@PAV32@@Z 0042b5c0 f i GeneralPool.obj
 0001:0002a5c0       ?findnode@?$sorttree@V?$hashelement@Vword@svutil@@PAVResource@@@svutil@@@svutil@@QAEPAV?$treenode@V?$hashelement@Vword@svutil@@PAVResource@@@svutil@@@2@ABV?$hashelement@Vword@svutil@@PAVResource@@@2@PAV32@@Z 0042b5c0 f i ResourcePool.obj
 0001:0002a5c0       ?findnode@?$sorttree@V?$hashelement@Vword@svutil@@PAVQueue@@@svutil@@@svutil@@QAEPAV?$treenode@V?$hashelement@Vword@svutil@@PAVQueue@@@svutil@@@2@ABV?$hashelement@Vword@svutil@@PAVQueue@@@2@PAV32@@Z 0042b5c0 f i DB.obj
 0001:0002a5c0       ?findnode@?$sorttree@V?$hashelement@Vword@svutil@@PAVMonitor@@@svutil@@@svutil@@QAEPAV?$treenode@V?$hashelement@Vword@svutil@@PAVMonitor@@@svutil@@@2@ABV?$hashelement@Vword@svutil@@PAVMonitor@@@2@PAV32@@Z 0042b5c0 f i MonitorPool.obj
 0001:0002a5c0       ?findnode@?$sorttree@V?$hashelement@Vword@svutil@@PAVVirtualGroup@@@svutil@@@svutil@@QAEPAV?$treenode@V?$hashelement@Vword@svutil@@PAVVirtualGroup@@@svutil@@@2@ABV?$hashelement@Vword@svutil@@PAVVirtualGroup@@@2@PAV32@@Z 0042b5c0 f i svdb.obj
 0001:0002a5c0       ?findnode@?$sorttree@V?$hashelement@Vword@svutil@@PAVTopologyChart@@@svutil@@@svutil@@QAEPAV?$treenode@V?$hashelement@Vword@svutil@@PAVTopologyChart@@@svutil@@@2@ABV?$hashelement@Vword@svutil@@PAVTopologyChart@@@2@PAV32@@Z 0042b5c0 f i svdb.obj
 0001:0002a5c0       ?findnode@?$sorttree@V?$hashelement@Vword@svutil@@PAVTable@@@svutil@@@svutil@@QAEPAV?$treenode@V?$hashelement@Vword@svutil@@PAVTable@@@svutil@@@2@ABV?$hashelement@Vword@svutil@@PAVTable@@@2@PAV32@@Z 0042b5c0 f i DB.obj
 0001:0002a630       ?findnextnode@?$sorttree@V?$hashelement@Vword@svutil@@PAVVirtualGroup@@@svutil@@@svutil@@ABEPAV?$treenode@V?$hashelement@Vword@svutil@@PAVVirtualGroup@@@svutil@@@2@AAV?$hashelement@Vword@svutil@@PAVVirtualGroup@@@2@AA_NPAV32@@Z 0042b630 f i svdb.obj
 0001:0002a6a0       ??M?$treenode@V?$hashelement@Vword@svutil@@PAVPort@@@svutil@@@svutil@@QAE_NV01@@Z 0042b6a0 f i svdb.obj
 0001:0002a710       ??O?$treenode@V?$hashelement@Vword@svutil@@PAVPort@@@svutil@@@svutil@@QAE_NV01@@Z 0042b710 f i svdb.obj
 0001:0002a780       ??0?$treenode@V?$hashelement@Vword@svutil@@PAVPort@@@svutil@@@svutil@@QAE@ABV01@@Z 0042b780 f i svdb.obj
 0001:0002a800       ??$copy_backward@PAPAVMonitorTemplet@@PAPAV1@@std@@YAPAPAVMonitorTemplet@@PAPAV1@00@Z 0042b800 f i MonitorTempletPool.obj
 0001:0002a800       ??$copy_backward@PAPAV?$hashnode@Vword@svutil@@PAVEntityGroup@@@svutil@@PAPAV12@@std@@YAPAPAV?$hashnode@Vword@svutil@@PAVEntityGroup@@@svutil@@PAPAV12@00@Z 0042b800 f i EntityGroupPool.obj
 0001:0002a800       ??$copy_backward@PAPAV?$hashnode@Vword@svutil@@PAVSection@@@svutil@@PAPAV12@@std@@YAPAPAV?$hashnode@Vword@svutil@@PAVSection@@@svutil@@PAPAV12@00@Z 0042b800 f i GeneralPool.obj
 0001:0002a800       ??$copy_backward@PAPAVSVSE@@PAPAV1@@std@@YAPAPAVSVSE@@PAPAV1@00@Z 0042b800 f i svdbmain.obj
 0001:0002a800       ??$copy_backward@PAPAV?$hashnode@Vword@svutil@@PAVMonitor@@@svutil@@PAPAV12@@std@@YAPAPAV?$hashnode@Vword@svutil@@PAVMonitor@@@svutil@@PAPAV12@00@Z 0042b800 f i MonitorPool.obj
 0001:0002a800       ??$copy_backward@PAPAV?$hashnode@Vword@svutil@@PAVCommonData@@@svutil@@PAPAV12@@std@@YAPAPAV?$hashnode@Vword@svutil@@PAVCommonData@@@svutil@@PAPAV12@00@Z 0042b800 f i GeneralPool.obj
 0001:0002a800       ??$copy_backward@PAPAV?$hashnode@Vword@svutil@@PAVEntityEx@@@svutil@@PAPAV12@@std@@YAPAPAV?$hashnode@Vword@svutil@@PAVEntityEx@@@svutil@@PAPAV12@00@Z 0042b800 f i EntityPoolEx.obj
 0001:0002a800       ??$copy_backward@PAPAVPage@@PAPAV1@@std@@YAPAPAVPage@@PAPAV1@00@Z 0042b800 f i PagePool.obj
 0001:0002a800       ??$copy_backward@PAPAVDataType@@PAPAV1@@std@@YAPAPAVDataType@@PAPAV1@00@Z 0042b800 f i DB.obj
 0001:0002a800       ??$copy_backward@PAPAV?$hashnode@Vword@svutil@@PAVEntity@@@svutil@@PAPAV12@@std@@YAPAPAV?$hashnode@Vword@svutil@@PAVEntity@@@svutil@@PAPAV12@00@Z 0042b800 f i EntityPool.obj
 0001:0002a800       ??$copy_backward@PAPAV?$hashnode@Vword@svutil@@PAVGeneralPool@@@svutil@@PAPAV12@@std@@YAPAPAV?$hashnode@Vword@svutil@@PAVGeneralPool@@@svutil@@PAPAV12@00@Z 0042b800 f i svdbmain.obj
 0001:0002a800       ??$copy_backward@PAPAV?$hashnode@Vword@svutil@@PAVPort@@@svutil@@PAPAV12@@std@@YAPAPAV?$hashnode@Vword@svutil@@PAVPort@@@svutil@@PAPAV12@00@Z 0042b800 f i svdb.obj
 0001:0002a800       ??$copy_backward@PAPAV?$hashnode@Vword@svutil@@PAVVirtualGroup@@@svutil@@PAPAV12@@std@@YAPAPAV?$hashnode@Vword@svutil@@PAVVirtualGroup@@@svutil@@PAPAV12@00@Z 0042b800 f i VirtualGroupPool.obj
 0001:0002a800       ??$copy_backward@PAPAV?$hashnode@Vword@svutil@@PAVEntityTemplet@@@svutil@@PAPAV12@@std@@YAPAPAV?$hashnode@Vword@svutil@@PAVEntityTemplet@@@svutil@@PAPAV12@00@Z 0042b800 f i EntityTempletPool.obj
 0001:0002a800       ??$copy_backward@PAPAV?$hashnode@Vword@svutil@@PAVQueue@@@svutil@@PAPAV12@@std@@YAPAPAV?$hashnode@Vword@svutil@@PAVQueue@@@svutil@@PAPAV12@00@Z 0042b800 f i DB.obj
 0001:0002a800       ??$copy_backward@PAPAV?$hashnode@Vword@svutil@@PAVResource@@@svutil@@PAPAV12@@std@@YAPAPAV?$hashnode@Vword@svutil@@PAVResource@@@svutil@@PAPAV12@00@Z 0042b800 f i ResourcePool.obj
 0001:0002a800       ??$copy_backward@PAPAUSubPool@PagePool@@PAPAU12@@std@@YAPAPAUSubPool@PagePool@@PAPAU12@00@Z 0042b800 f i PagePool.obj
 0001:0002a800       ??$copy_backward@PAPAV?$hashnode@Vword@svutil@@PAVTable@@@svutil@@PAPAV12@@std@@YAPAPAV?$hashnode@Vword@svutil@@PAVTable@@@svutil@@PAPAV12@00@Z 0042b800 f i DB.obj
 0001:0002a800       ??$copy_backward@PAPAV?$hashnode@Vword@svutil@@PAVTopologyChart@@@svutil@@PAPAV12@@std@@YAPAPAV?$hashnode@Vword@svutil@@PAVTopologyChart@@@svutil@@PAPAV12@00@Z 0042b800 f i TopologyChartPool.obj
 0001:0002a800       ??$copy_backward@PAPAV?$hashnode@Vword@svutil@@PAVGroup@@@svutil@@PAPAV12@@std@@YAPAPAV?$hashnode@Vword@svutil@@PAVGroup@@@svutil@@PAPAV12@00@Z 0042b800 f i GroupPool.obj
 0001:0002a800       ??$copy_backward@PAPAV?$hashnode@Vword@svutil@@V12@@svutil@@PAPAV12@@std@@YAPAPAV?$hashnode@Vword@svutil@@V12@@svutil@@PAPAV12@00@Z 0042b800 f i EntityPool.obj
 0001:0002a830       ??$CreateNode@V?$hashelement@Vword@svutil@@PAVPort@@@svutil@@@?$sorttree@V?$hashelement@Vword@svutil@@PAVPort@@@svutil@@@svutil@@SAPAV?$treenode@V?$hashelement@Vword@svutil@@PAVPort@@@svutil@@@1@ABV?$hashelement@Vword@svutil@@PAVPort@@@1@@Z 0042b830 f i svdb.obj
 0001:0002a890       ?_Buynode@?$list@V?$basic_string@DU?$char_traits@D@std@@V?$allocator@D@2@@std@@V?$allocator@V?$basic_string@DU?$char_traits@D@std@@V?$allocator@D@2@@std@@@2@@std@@IAEPAU_Node@?$_List_nod@V?$basic_string@DU?$char_traits@D@std@@V?$allocator@D@2@@std@@V?$allocator@V?$basic_string@DU?$char_traits@D@std@@V?$allocator@D@2@@std@@@2@@2@XZ 0042b890 f i svdb.obj
 0001:0002a8b0       ?_Buynode@?$list@VSingelRecord@@V?$allocator@VSingelRecord@@@std@@@std@@IAEPAU_Node@?$_List_nod@VSingelRecord@@V?$allocator@VSingelRecord@@@std@@@2@XZ 0042b8b0 f i svdb.obj
 0001:0002a8d0       ??_E?$sorttree@V?$hashelement@Vword@svutil@@PAVPort@@@svutil@@@svutil@@UAEPAXI@Z 0042b8d0 f i svdb.obj
 0001:0002a8d0       ??_G?$sorttree@V?$hashelement@Vword@svutil@@PAVPort@@@svutil@@@svutil@@UAEPAXI@Z 0042b8d0 f i svdb.obj
 0001:0002a930       ?_Incsize@?$list@PAVEdge@@V?$allocator@PAVEdge@@@std@@@std@@IAEXI@Z 0042b930 f i svdb.obj
 0001:0002a930       ?_Incsize@?$list@PAVEntityRelation@@V?$allocator@PAVEntityRelation@@@std@@@std@@IAEXI@Z 0042b930 f i svdb.obj
 0001:0002a9d0       ?_Buynode@?$list@PAVEdge@@V?$allocator@PAVEdge@@@std@@@std@@IAEPAU_Node@?$_List_nod@PAVEdge@@V?$allocator@PAVEdge@@@std@@@2@PAU342@0ABQAVEdge@@@Z 0042b9d0 f i svdb.obj
 0001:0002a9d0       ?_Buynode@?$list@PAVEntityRelation@@V?$allocator@PAVEntityRelation@@@std@@@std@@IAEPAU_Node@?$_List_nod@PAVEntityRelation@@V?$allocator@PAVEntityRelation@@@std@@@2@PAU342@0ABQAVEntityRelation@@@Z 0042b9d0 f i svdb.obj
 0001:0002a9d0       ?_Buynode@?$list@PAVPage@@V?$allocator@PAVPage@@@std@@@std@@IAEPAU_Node@?$_List_nod@PAVPage@@V?$allocator@PAVPage@@@std@@@2@PAU342@0ABQAVPage@@@Z 0042b9d0 f i PagePool.obj
 0001:0002a9d0       ?_Buynode@?$list@PAVStringMap@@V?$allocator@PAVStringMap@@@std@@@std@@IAEPAU_Node@?$_List_nod@PAVStringMap@@V?$allocator@PAVStringMap@@@std@@@2@PAU342@0ABQAVStringMap@@@Z 0042b9d0 f i DB.obj
 0001:0002a9d0       ?_Buynode@?$list@PAVThreadEx@@V?$allocator@PAVThreadEx@@@std@@@std@@IAEPAU_Node@?$_List_nod@PAVThreadEx@@V?$allocator@PAVThreadEx@@@std@@@2@PAU342@0ABQAVThreadEx@@@Z 0042b9d0 f i ThreadContrl.obj
 0001:0002a9d0       ?_Buynode@?$list@Viterator@?$list@VSingelRecord@@V?$allocator@VSingelRecord@@@std@@@std@@V?$allocator@Viterator@?$list@VSingelRecord@@V?$allocator@VSingelRecord@@@std@@@std@@@3@@std@@IAEPAU_Node@?$_List_nod@Viterator@?$list@VSingelRecord@@V?$allocator@VSingelRecord@@@std@@@std@@V?$allocator@Viterator@?$list@VSingelRecord@@V?$allocator@VSingelRecord@@@std@@@std@@@3@@2@PAU342@0ABViterator@?$list@VSingelRecord@@V?$allocator@VSingelRecord@@@std@@@2@@Z 0042b9d0 f i WorkThread.obj
 0001:0002a9d0       ?_Buynode@?$list@HV?$allocator@H@std@@@std@@IAEPAU_Node@?$_List_nod@HV?$allocator@H@std@@@2@PAU342@0ABH@Z 0042b9d0 f i EntityTemplet.obj
 0001:0002aa00       ?find@?$hashnode@Vword@svutil@@PAVTopologyChart@@@svutil@@QAE_NABVword@2@PAPAV?$hashelement@Vword@svutil@@PAVTopologyChart@@@2@@Z 0042ba00 f i svdb.obj
 0001:0002aa00       ?find@?$hashnode@Vword@svutil@@PAVEntityEx@@@svutil@@QAE_NABVword@2@PAPAV?$hashelement@Vword@svutil@@PAVEntityEx@@@2@@Z 0042ba00 f i svdb.obj
 0001:0002aa00       ?find@?$hashnode@Vword@svutil@@PAVPort@@@svutil@@QAE_NABVword@2@PAPAV?$hashelement@Vword@svutil@@PAVPort@@@2@@Z 0042ba00 f i svdb.obj
 0001:0002aa00       ?find@?$hashnode@Vword@svutil@@PAVVirtualGroup@@@svutil@@QAE_NABVword@2@PAPAV?$hashelement@Vword@svutil@@PAVVirtualGroup@@@2@@Z 0042ba00 f i svdb.obj
 0001:0002aad0       ?InsertNode@?$sorttree@V?$hashelement@Vword@svutil@@PAVPort@@@svutil@@@svutil@@QAEXPAV?$treenode@V?$hashelement@Vword@svutil@@PAVPort@@@svutil@@@2@0@Z 0042bad0 f i svdb.obj
 0001:0002ab60       ?find@?$hashnode@Vword@svutil@@PAVEntityEx@@@svutil@@QAE_NABVword@2@PAPAPAVEntityEx@@@Z 0042bb60 f i svdb.obj
 0001:0002ab60       ?find@?$hashnode@Vword@svutil@@PAVPort@@@svutil@@QAE_NABVword@2@PAPAPAVPort@@@Z 0042bb60 f i svdb.obj
 0001:0002ab60       ?find@?$hashnode@Vword@svutil@@PAVVirtualGroup@@@svutil@@QAE_NABVword@2@PAPAPAVVirtualGroup@@@Z 0042bb60 f i svdb.obj
 0001:0002ab60       ?find@?$hashnode@Vword@svutil@@PAVTopologyChart@@@svutil@@QAE_NABVword@2@PAPAPAVTopologyChart@@@Z 0042bb60 f i svdb.obj
 0001:0002abc0       ?InsertNodeEx@?$sorttree@V?$hashelement@Vword@svutil@@PAVPort@@@svutil@@@svutil@@QAEAAV?$hashelement@Vword@svutil@@PAVPort@@@2@ABV32@@Z 0042bbc0 f i svdb.obj
 0001:0002ac50       ?_Ufill@?$vector@PAV?$hashnode@Vword@svutil@@PAVQueue@@@svutil@@V?$allocator@PAV?$hashnode@Vword@svutil@@PAVQueue@@@svutil@@@std@@@std@@IAEPAPAV?$hashnode@Vword@svutil@@PAVQueue@@@svutil@@PAPAV34@IABQAV34@@Z 0042bc50 f i DB.obj
 0001:0002ac50       ?_Ufill@?$vector@PAV?$hashnode@Vword@svutil@@PAVEntityEx@@@svutil@@V?$allocator@PAV?$hashnode@Vword@svutil@@PAVEntityEx@@@svutil@@@std@@@std@@IAEPAPAV?$hashnode@Vword@svutil@@PAVEntityEx@@@svutil@@PAPAV34@IABQAV34@@Z 0042bc50 f i EntityPoolEx.obj
 0001:0002ac50       ?_Ufill@?$vector@PAV?$hashnode@Vword@svutil@@PAVEntity@@@svutil@@V?$allocator@PAV?$hashnode@Vword@svutil@@PAVEntity@@@svutil@@@std@@@std@@IAEPAPAV?$hashnode@Vword@svutil@@PAVEntity@@@svutil@@PAPAV34@IABQAV34@@Z 0042bc50 f i EntityPool.obj
 0001:0002ac50       ?_Ufill@?$vector@PAVMonitorTemplet@@V?$allocator@PAVMonitorTemplet@@@std@@@std@@IAEPAPAVMonitorTemplet@@PAPAV3@IABQAV3@@Z 0042bc50 f i MonitorTempletPool.obj
 0001:0002ac50       ?_Ufill@?$vector@PAV?$hashnode@Vword@svutil@@PAVPort@@@svutil@@V?$allocator@PAV?$hashnode@Vword@svutil@@PAVPort@@@svutil@@@std@@@std@@IAEPAPAV?$hashnode@Vword@svutil@@PAVPort@@@svutil@@PAPAV34@IABQAV34@@Z 0042bc50 f i svdb.obj
 0001:0002ac50       ?_Ufill@?$vector@PAUSubPool@PagePool@@V?$allocator@PAUSubPool@PagePool@@@std@@@std@@IAEPAPAUSubPool@PagePool@@PAPAU34@IABQAU34@@Z 0042bc50 f i PagePool.obj
 0001:0002ac50       ?_Ufill@?$vector@PAV?$hashnode@Vword@svutil@@PAVResource@@@svutil@@V?$allocator@PAV?$hashnode@Vword@svutil@@PAVResource@@@svutil@@@std@@@std@@IAEPAPAV?$hashnode@Vword@svutil@@PAVResource@@@svutil@@PAPAV34@IABQAV34@@Z 0042bc50 f i ResourcePool.obj
 0001:0002ac50       ?_Ufill@?$vector@PAV?$hashnode@Vword@svutil@@PAVVirtualGroup@@@svutil@@V?$allocator@PAV?$hashnode@Vword@svutil@@PAVVirtualGroup@@@svutil@@@std@@@std@@IAEPAPAV?$hashnode@Vword@svutil@@PAVVirtualGroup@@@svutil@@PAPAV34@IABQAV34@@Z 0042bc50 f i VirtualGroupPool.obj
 0001:0002ac50       ?_Ufill@?$vector@PAV?$hashnode@Vword@svutil@@PAVEntityGroup@@@svutil@@V?$allocator@PAV?$hashnode@Vword@svutil@@PAVEntityGroup@@@svutil@@@std@@@std@@IAEPAPAV?$hashnode@Vword@svutil@@PAVEntityGroup@@@svutil@@PAPAV34@IABQAV34@@Z 0042bc50 f i EntityGroupPool.obj
 0001:0002ac50       ?_Ufill@?$vector@PAVPage@@V?$allocator@PAVPage@@@std@@@std@@IAEPAPAVPage@@PAPAV3@IABQAV3@@Z 0042bc50 f i PagePool.obj
 0001:0002ac50       ?_Ufill@?$vector@PAV?$hashnode@Vword@svutil@@PAVGroup@@@svutil@@V?$allocator@PAV?$hashnode@Vword@svutil@@PAVGroup@@@svutil@@@std@@@std@@IAEPAPAV?$hashnode@Vword@svutil@@PAVGroup@@@svutil@@PAPAV34@IABQAV34@@Z 0042bc50 f i GroupPool.obj
 0001:0002ac50       ?_Ufill@?$vector@PAVDataType@@V?$allocator@PAVDataType@@@std@@@std@@IAEPAPAVDataType@@PAPAV3@IABQAV3@@Z 0042bc50 f i DB.obj
 0001:0002ac50       ?_Ufill@?$vector@PAV?$hashnode@Vword@svutil@@PAVSection@@@svutil@@V?$allocator@PAV?$hashnode@Vword@svutil@@PAVSection@@@svutil@@@std@@@std@@IAEPAPAV?$hashnode@Vword@svutil@@PAVSection@@@svutil@@PAPAV34@IABQAV34@@Z 0042bc50 f i GeneralPool.obj
 0001:0002ac50       ?_Ufill@?$vector@PAV?$hashnode@Vword@svutil@@PAVTable@@@svutil@@V?$allocator@PAV?$hashnode@Vword@svutil@@PAVTable@@@svutil@@@std@@@std@@IAEPAPAV?$hashnode@Vword@svutil@@PAVTable@@@svutil@@PAPAV34@IABQAV34@@Z 0042bc50 f i DB.obj
 0001:0002ac50       ?_Ufill@?$vector@PAV?$hashnode@Vword@svutil@@PAVGeneralPool@@@svutil@@V?$allocator@PAV?$hashnode@Vword@svutil@@PAVGeneralPool@@@svutil@@@std@@@std@@IAEPAPAV?$hashnode@Vword@svutil@@PAVGeneralPool@@@svutil@@PAPAV34@IABQAV34@@Z 0042bc50 f i svdbmain.obj
 0001:0002ac50       ?_Ufill@?$vector@PAV?$hashnode@Vword@svutil@@PAVCommonData@@@svutil@@V?$allocator@PAV?$hashnode@Vword@svutil@@PAVCommonData@@@svutil@@@std@@@std@@IAEPAPAV?$hashnode@Vword@svutil@@PAVCommonData@@@svutil@@PAPAV34@IABQAV34@@Z 0042bc50 f i GeneralPool.obj
 0001:0002ac50       ?_Ufill@?$vector@PAV?$hashnode@Vword@svutil@@V12@@svutil@@V?$allocator@PAV?$hashnode@Vword@svutil@@V12@@svutil@@@std@@@std@@IAEPAPAV?$hashnode@Vword@svutil@@V12@@svutil@@PAPAV34@IABQAV34@@Z 0042bc50 f i EntityPool.obj
 0001:0002ac50       ?_Ufill@?$vector@PAVSVSE@@V?$allocator@PAVSVSE@@@std@@@std@@IAEPAPAVSVSE@@PAPAV3@IABQAV3@@Z 0042bc50 f i svdbmain.obj
 0001:0002ac50       ?_Ufill@?$vector@PAV?$hashnode@Vword@svutil@@PAVTopologyChart@@@svutil@@V?$allocator@PAV?$hashnode@Vword@svutil@@PAVTopologyChart@@@svutil@@@std@@@std@@IAEPAPAV?$hashnode@Vword@svutil@@PAVTopologyChart@@@svutil@@PAPAV34@IABQAV34@@Z 0042bc50 f i TopologyChartPool.obj
 0001:0002ac50       ?_Ufill@?$vector@PAV?$hashnode@Vword@svutil@@PAVEntityTemplet@@@svutil@@V?$allocator@PAV?$hashnode@Vword@svutil@@PAVEntityTemplet@@@svutil@@@std@@@std@@IAEPAPAV?$hashnode@Vword@svutil@@PAVEntityTemplet@@@svutil@@PAPAV34@IABQAV34@@Z 0042bc50 f i EntityTempletPool.obj
 0001:0002ac50       ?_Ufill@?$vector@PAV?$hashnode@Vword@svutil@@PAVMonitor@@@svutil@@V?$allocator@PAV?$hashnode@Vword@svutil@@PAVMonitor@@@svutil@@@std@@@std@@IAEPAPAV?$hashnode@Vword@svutil@@PAVMonitor@@@svutil@@PAPAV34@IABQAV34@@Z 0042bc50 f i MonitorPool.obj
 0001:0002ac80       ?DeleteMonitorTemplet@MonitorTempletPool@@QAE_NH@Z 0042bc80 f i svdb.obj
 0001:0002ad50       ??0?$list@V?$basic_string@DU?$char_traits@D@std@@V?$allocator@D@2@@std@@V?$allocator@V?$basic_string@DU?$char_traits@D@std@@V?$allocator@D@2@@std@@@2@@std@@QAE@XZ 0042bd50 f i svdb.obj
 0001:0002ad70       ?push_back@?$list@PAVEdge@@V?$allocator@PAVEdge@@@std@@@std@@QAEXABQAVEdge@@@Z 0042bd70 f i svdb.obj
 0001:0002ad70       ?push_back@?$list@PAVEntityRelation@@V?$allocator@PAVEntityRelation@@@std@@@std@@QAEXABQAVEntityRelation@@@Z 0042bd70 f i svdb.obj
 0001:0002adb0       ??0?$list@VSingelRecord@@V?$allocator@VSingelRecord@@@std@@@std@@QAE@XZ 0042bdb0 f i svdb.obj
 0001:0002add0       ?find@?$hashtable@Vword@svutil@@PAVEntityEx@@@svutil@@QAEPAPAVEntityEx@@ABVword@2@@Z 0042bdd0 f i svdb.obj
 0001:0002add0       ?find@?$hashtable@Vword@svutil@@PAVTopologyChart@@@svutil@@QAEPAPAVTopologyChart@@ABVword@2@@Z 0042bdd0 f i svdb.obj
 0001:0002add0       ?find@?$hashtable@Vword@svutil@@PAVPort@@@svutil@@QAEPAPAVPort@@ABVword@2@@Z 0042bdd0 f i svdb.obj
 0001:0002add0       ?find@?$hashtable@Vword@svutil@@PAVVirtualGroup@@@svutil@@QAEPAPAVVirtualGroup@@ABVword@2@@Z 0042bdd0 f i svdb.obj
 0001:0002ae40       ?erase@?$hashnode@Vword@svutil@@PAVCommonData@@@svutil@@QAE_NABVword@2@@Z 0042be40 f i svdb.obj
 0001:0002af50       ?erase@?$hashnode@Vword@svutil@@PAVSection@@@svutil@@QAE_NABVword@2@@Z 0042bf50 f i svdb.obj
 0001:0002b060       ?findnext@?$hashnode@Vword@svutil@@PAVPort@@@svutil@@QAE_NAAV?$hashelement@Vword@svutil@@PAVPort@@@2@PAPAV32@@Z 0042c060 f i svdb.obj
 0001:0002b110       ?findnext@?$hashnode@Vword@svutil@@PAVEntityEx@@@svutil@@QAE_NAAV?$hashelement@Vword@svutil@@PAVEntityEx@@@2@PAPAV32@@Z 0042c110 f i svdb.obj
 0001:0002b1c0       ?findnext@?$hashnode@Vword@svutil@@PAVTopologyChart@@@svutil@@QAE_NAAV?$hashelement@Vword@svutil@@PAVTopologyChart@@@2@PAPAV32@@Z 0042c1c0 f i svdb.obj
 0001:0002b270       ?findnext@?$hashnode@Vword@svutil@@PAVVirtualGroup@@@svutil@@QAE_NAAV?$hashelement@Vword@svutil@@PAVVirtualGroup@@@2@PAPAV32@@Z 0042c270 f i svdb.obj
 0001:0002b320       ?clear@?$list@VSingelRecord@@V?$allocator@VSingelRecord@@@std@@@std@@QAEXXZ 0042c320 f i svdb.obj
 0001:0002b320       ?clear@?$list@V?$basic_string@DU?$char_traits@D@std@@V?$allocator@D@2@@std@@V?$allocator@V?$basic_string@DU?$char_traits@D@std@@V?$allocator@D@2@@std@@@2@@std@@QAEXXZ 0042c320 f i svdb.obj
 0001:0002b360       ?insert@?$hashnode@Vword@svutil@@PAVPort@@@svutil@@QAEAAV?$hashelement@Vword@svutil@@PAVPort@@@2@ABVword@2@ABQAVPort@@@Z 0042c360 f i svdb.obj
 0001:0002b440       ?_Insert_n@?$vector@PAV?$hashnode@Vword@svutil@@PAVPort@@@svutil@@V?$allocator@PAV?$hashnode@Vword@svutil@@PAVPort@@@svutil@@@std@@@std@@IAEXViterator@12@IABQAV?$hashnode@Vword@svutil@@PAVPort@@@svutil@@@Z 0042c440 f i svdb.obj
 0001:0002b630       ?GetEntity@EntityPool@@QAEPAVEntity@@Vword@svutil@@@Z 0042c630 f i svdb.obj
 0001:0002b6d0       ?Find@EntityPool@@QAE_NVword@svutil@@@Z 0042c6d0 f i svdb.obj
 0001:0002b730       ?DeleteSectionInSectionOrder@GeneralPool@@IAE_NVword@svutil@@@Z 0042c730 f i svdb.obj
 0001:0002b820       ?erase@?$hashtable@Vword@svutil@@PAVCommonData@@@svutil@@QAE_NABVword@2@@Z 0042c820 f i svdb.obj
 0001:0002b8c0       ??1?$list@V?$basic_string@DU?$char_traits@D@std@@V?$allocator@D@2@@std@@V?$allocator@V?$basic_string@DU?$char_traits@D@std@@V?$allocator@D@2@@std@@@2@@std@@QAE@XZ 0042c8c0 f i svdb.obj
 0001:0002b8c0       ??1?$list@VSingelRecord@@V?$allocator@VSingelRecord@@@std@@@std@@QAE@XZ 0042c8c0 f i svdb.obj
 0001:0002b8e0       ?erase@?$hashtable@Vword@svutil@@PAVSection@@@svutil@@QAE_NABVword@2@@Z 0042c8e0 f i svdb.obj
 0001:0002b980       ?findnext@?$hashtable@Vword@svutil@@PAVPort@@@svutil@@QAE_NAAViterator@12@@Z 0042c980 f i svdb.obj
 0001:0002ba20       ?findnext@?$hashtable@Vword@svutil@@PAVEntityEx@@@svutil@@QAE_NAAViterator@12@@Z 0042ca20 f i svdb.obj
 0001:0002bac0       ?findnext@?$hashtable@Vword@svutil@@PAVTopologyChart@@@svutil@@QAE_NAAViterator@12@@Z 0042cac0 f i svdb.obj
 0001:0002bb60       ?findnext@?$hashtable@Vword@svutil@@PAVVirtualGroup@@@svutil@@QAE_NAAViterator@12@@Z 0042cb60 f i svdb.obj
 0001:0002bc00       ?resize@?$vector@PAV?$hashnode@Vword@svutil@@PAVPort@@@svutil@@V?$allocator@PAV?$hashnode@Vword@svutil@@PAVPort@@@svutil@@@std@@@std@@QAEXIPAV?$hashnode@Vword@svutil@@PAVPort@@@svutil@@@Z 0042cc00 f i svdb.obj
 0001:0002bc90       ?ReplaceSectionInKeyOrder@Section@@IAE_NVword@svutil@@0@Z 0042cc90 f i svdb.obj
 0001:0002bdb0       ?ReplaceSectionInSectionOrder@GeneralPool@@IAE_NVword@svutil@@0@Z 0042cdb0 f i svdb.obj
 0001:0002bed0       ?insert@?$hashtable@Vword@svutil@@PAVPort@@@svutil@@QAEAAPAVPort@@ABVword@2@ABQAV3@@Z 0042ced0 f i svdb.obj
 0001:0002bfc0       ??0MonitorTempletPool@@QAE@Vword@svutil@@_N@Z 0042cfc0 f i svdb.obj
 0001:0002c090       ??0EntityTempletPool@@QAE@Vword@svutil@@_N@Z 0042d090 f i svdb.obj
 0001:0002c150       ?EditKeyName@Section@@QAE_NVword@svutil@@0@Z 0042d150 f i svdb.obj
 0001:0002c2c0       ?EditSectionName@GeneralPool@@QAE_NVword@svutil@@0@Z 0042d2c0 f i svdb.obj
 0001:0002c470       ?EditKeyName@GeneralPool@@QAE_NVword@svutil@@00@Z 0042d470 f i svdb.obj
 0001:0002c5d0       ?CreatDirNonThreadSafe@IdcUser@@SA_NV?$basic_string@DU?$char_traits@D@std@@V?$allocator@D@2@@std@@@Z 0042d5d0 f i svdbmain.obj
 0001:0002c680       ??0Option@@QAE@XZ          0042d680 f i svdbmain.obj
 0001:0002c810       ?toExitListen@SvdbMain@@QAEXXZ 0042d810 f   svdbmain.obj
 0001:0002c850       ?Start@SvdbMain@@QAE_NXZ   0042d850 f   svdbmain.obj
 0001:0002c860       ?_Xlen@?$vector@PAV?$hashnode@Vword@svutil@@PAVGeneralPool@@@svutil@@V?$allocator@PAV?$hashnode@Vword@svutil@@PAVGeneralPool@@@svutil@@@std@@@std@@IBEXXZ 0042d860 f i svdbmain.obj
 0001:0002c860       ?_Xlen@?$vector@PAVSVSE@@V?$allocator@PAVSVSE@@@std@@@std@@IBEXXZ 0042d860 f i svdbmain.obj
 0001:0002c8e0       ?CountNodes@?$sorttree@V?$hashelement@Vword@svutil@@PAVGeneralPool@@@svutil@@@svutil@@AAEXPAV?$treenode@V?$hashelement@Vword@svutil@@PAVGeneralPool@@@svutil@@@2@AAK@Z 0042d8e0 f i svdbmain.obj
 0001:0002c910       ?_Inc@const_iterator@?$_Tree@V?$_Tmap_traits@V?$basic_string@DU?$char_traits@D@std@@V?$allocator@D@2@@std@@IU?$less@V?$basic_string@DU?$char_traits@D@std@@V?$allocator@D@2@@std@@@2@V?$allocator@U?$pair@$$CBV?$basic_string@DU?$char_traits@D@std@@V?$allocator@D@2@@std@@I@std@@@2@$0A@@std@@@std@@QAEXXZ 0042d910 f i EntityPool.obj
 0001:0002c910       ?_Inc@const_iterator@?$_Tree@V?$_Tmap_traits@V?$basic_string@DU?$char_traits@D@std@@V?$allocator@D@2@@std@@PAVDB@@U?$less@V?$basic_string@DU?$char_traits@D@std@@V?$allocator@D@2@@std@@@2@V?$allocator@U?$pair@$$CBV?$basic_string@DU?$char_traits@D@std@@V?$allocator@D@2@@std@@PAVDB@@@std@@@2@$0A@@std@@@std@@QAEXXZ 0042d910 f i svdbmain.obj
 0001:0002c910       ?_Inc@const_iterator@?$_Tree@V?$_Tmap_traits@V?$basic_string@DU?$char_traits@D@std@@V?$allocator@D@2@@std@@VTTime@svutil@@U?$less@V?$basic_string@DU?$char_traits@D@std@@V?$allocator@D@2@@std@@@2@V?$allocator@U?$pair@$$CBV?$basic_string@DU?$char_traits@D@std@@V?$allocator@D@2@@std@@VTTime@svutil@@@std@@@2@$0A@@std@@@std@@QAEXXZ 0042d910 f i WorkThread.obj
 0001:0002c970       ?_Lrotate@?$_Tree@V?$_Tmap_traits@V?$basic_string@DU?$char_traits@D@std@@V?$allocator@D@2@@std@@VTTime@svutil@@U?$less@V?$basic_string@DU?$char_traits@D@std@@V?$allocator@D@2@@std@@@2@V?$allocator@U?$pair@$$CBV?$basic_string@DU?$char_traits@D@std@@V?$allocator@D@2@@std@@VTTime@svutil@@@std@@@2@$0A@@std@@@std@@IAEXPAU_Node@?$_Tree_nod@V?$_Tmap_traits@V?$basic_string@DU?$char_traits@D@std@@V?$allocator@D@2@@std@@VTTime@svutil@@U?$less@V?$basic_string@DU?$char_traits@D@std@@V?$allocator@D@2@@std@@@2@V?$allocator@U?$pair@$$CBV?$basic_string@DU?$char_traits@D@std@@V?$allocator@D@2@@std@@VTTime@svutil@@@std@@@2@$0A@@std@@@2@@Z 0042d970 f i WorkThread.obj
 0001:0002c970       ?_Lrotate@?$_Tree@V?$_Tmap_traits@V?$basic_string@DU?$char_traits@D@std@@V?$allocator@D@2@@std@@IU?$less@V?$basic_string@DU?$char_traits@D@std@@V?$allocator@D@2@@std@@@2@V?$allocator@U?$pair@$$CBV?$basic_string@DU?$char_traits@D@std@@V?$allocator@D@2@@std@@I@std@@@2@$0A@@std@@@std@@IAEXPAU_Node@?$_Tree_nod@V?$_Tmap_traits@V?$basic_string@DU?$char_traits@D@std@@V?$allocator@D@2@@std@@IU?$less@V?$basic_string@DU?$char_traits@D@std@@V?$allocator@D@2@@std@@@2@V?$allocator@U?$pair@$$CBV?$basic_string@DU?$char_traits@D@std@@V?$allocator@D@2@@std@@I@std@@@2@$0A@@std@@@2@@Z 0042d970 f i EntityPool.obj
 0001:0002c970       ?_Lrotate@?$_Tree@V?$_Tmap_traits@V?$basic_string@DU?$char_traits@D@std@@V?$allocator@D@2@@std@@PAVDB@@U?$less@V?$basic_string@DU?$char_traits@D@std@@V?$allocator@D@2@@std@@@2@V?$allocator@U?$pair@$$CBV?$basic_string@DU?$char_traits@D@std@@V?$allocator@D@2@@std@@PAVDB@@@std@@@2@$0A@@std@@@std@@IAEXPAU_Node@?$_Tree_nod@V?$_Tmap_traits@V?$basic_string@DU?$char_traits@D@std@@V?$allocator@D@2@@std@@PAVDB@@U?$less@V?$basic_string@DU?$char_traits@D@std@@V?$allocator@D@2@@std@@@2@V?$allocator@U?$pair@$$CBV?$basic_string@DU?$char_traits@D@std@@V?$allocator@D@2@@std@@PAVDB@@@std@@@2@$0A@@std@@@2@@Z 0042d970 f i svdbmain.obj
 0001:0002c9d0       ?DeleteTree@?$sorttree@V?$hashelement@Vword@svutil@@PAVGeneralPool@@@svutil@@@svutil@@QAEXPAV?$treenode@V?$hashelement@Vword@svutil@@PAVGeneralPool@@@svutil@@@2@@Z 0042d9d0 f i svdbmain.obj
 0001:0002ca20       ?_Dec@const_iterator@?$_Tree@V?$_Tset_traits@V?$basic_string@DU?$char_traits@D@std@@V?$allocator@D@2@@std@@U?$less@V?$basic_string@DU?$char_traits@D@std@@V?$allocator@D@2@@std@@@2@V?$allocator@V?$basic_string@DU?$char_traits@D@std@@V?$allocator@D@2@@std@@@2@$0A@@std@@@std@@QAEXXZ 0042da20 f i svdbmain.obj
 0001:0002ca80       ?findnextnode@?$sorttree@V?$hashelement@Vword@svutil@@PAVGeneralPool@@@svutil@@@svutil@@ABEPAV?$treenode@V?$hashelement@Vword@svutil@@PAVGeneralPool@@@svutil@@@2@AAV?$hashelement@Vword@svutil@@PAVGeneralPool@@@2@AA_NPAV32@@Z 0042da80 f i svdbmain.obj
 0001:0002caf0       ??$make_pair@V?$basic_string@DU?$char_traits@D@std@@V?$allocator@D@2@@std@@PAVDB@@@std@@YA?AU?$pair@V?$basic_string@DU?$char_traits@D@std@@V?$allocator@D@2@@std@@PAVDB@@@0@V?$basic_string@DU?$char_traits@D@std@@V?$allocator@D@2@@0@PAVDB@@@Z 0042daf0 f i svdbmain.obj
 0001:0002cb60       ??_E?$sorttree@V?$hashelement@Vword@svutil@@PAVGeneralPool@@@svutil@@@svutil@@UAEPAXI@Z 0042db60 f i svdbmain.obj
 0001:0002cb60       ??_G?$sorttree@V?$hashelement@Vword@svutil@@PAVGeneralPool@@@svutil@@@svutil@@UAEPAXI@Z 0042db60 f i svdbmain.obj
 0001:0002cbc0       ?_Buynode@?$_Tree@V?$_Tset_traits@V?$basic_string@DU?$char_traits@D@std@@V?$allocator@D@2@@std@@U?$less@V?$basic_string@DU?$char_traits@D@std@@V?$allocator@D@2@@std@@@2@V?$allocator@V?$basic_string@DU?$char_traits@D@std@@V?$allocator@D@2@@std@@@2@$0A@@std@@@std@@IAEPAU_Node@?$_Tree_nod@V?$_Tset_traits@V?$basic_string@DU?$char_traits@D@std@@V?$allocator@D@2@@std@@U?$less@V?$basic_string@DU?$char_traits@D@std@@V?$allocator@D@2@@std@@@2@V?$allocator@V?$basic_string@DU?$char_traits@D@std@@V?$allocator@D@2@@std@@@2@$0A@@std@@@2@PAU342@00ABV?$basic_string@DU?$char_traits@D@std@@V?$allocator@D@2@@2@D@Z 0042dbc0 f i svdbmain.obj
 0001:0002cc60       ?_Buynode@?$_Tree@V?$_Tmap_traits@V?$basic_string@DU?$char_traits@D@std@@V?$allocator@D@2@@std@@PAVDB@@U?$less@V?$basic_string@DU?$char_traits@D@std@@V?$allocator@D@2@@std@@@2@V?$allocator@U?$pair@$$CBV?$basic_string@DU?$char_traits@D@std@@V?$allocator@D@2@@std@@PAVDB@@@std@@@2@$0A@@std@@@std@@IAEPAU_Node@?$_Tree_nod@V?$_Tmap_traits@V?$basic_string@DU?$char_traits@D@std@@V?$allocator@D@2@@std@@PAVDB@@U?$less@V?$basic_string@DU?$char_traits@D@std@@V?$allocator@D@2@@std@@@2@V?$allocator@U?$pair@$$CBV?$basic_string@DU?$char_traits@D@std@@V?$allocator@D@2@@std@@PAVDB@@@std@@@2@$0A@@std@@@2@PAU342@00ABU?$pair@$$CBV?$basic_string@DU?$char_traits@D@std@@V?$allocator@D@2@@std@@PAVDB@@@2@D@Z 0042dc60 f i svdbmain.obj
 0001:0002cd00       ??1?$hashnode@Vword@svutil@@PAVGeneralPool@@@svutil@@QAE@XZ 0042dd00 f i svdbmain.obj
 0001:0002cd90       ?_Insert@?$_Tree@V?$_Tset_traits@V?$basic_string@DU?$char_traits@D@std@@V?$allocator@D@2@@std@@U?$less@V?$basic_string@DU?$char_traits@D@std@@V?$allocator@D@2@@std@@@2@V?$allocator@V?$basic_string@DU?$char_traits@D@std@@V?$allocator@D@2@@std@@@2@$0A@@std@@@std@@IAE?AViterator@12@_NPAU_Node@?$_Tree_nod@V?$_Tset_traits@V?$basic_string@DU?$char_traits@D@std@@V?$allocator@D@2@@std@@U?$less@V?$basic_string@DU?$char_traits@D@std@@V?$allocator@D@2@@std@@@2@V?$allocator@V?$basic_string@DU?$char_traits@D@std@@V?$allocator@D@2@@std@@@2@$0A@@std@@@2@ABV?$basic_string@DU?$char_traits@D@std@@V?$allocator@D@2@@2@@Z 0042dd90 f i svdbmain.obj
 0001:0002cf50       ?_Insert@?$_Tree@V?$_Tmap_traits@V?$basic_string@DU?$char_traits@D@std@@V?$allocator@D@2@@std@@PAVDB@@U?$less@V?$basic_string@DU?$char_traits@D@std@@V?$allocator@D@2@@std@@@2@V?$allocator@U?$pair@$$CBV?$basic_string@DU?$char_traits@D@std@@V?$allocator@D@2@@std@@PAVDB@@@std@@@2@$0A@@std@@@std@@IAE?AViterator@12@_NPAU_Node@?$_Tree_nod@V?$_Tmap_traits@V?$basic_string@DU?$char_traits@D@std@@V?$allocator@D@2@@std@@PAVDB@@U?$less@V?$basic_string@DU?$char_traits@D@std@@V?$allocator@D@2@@std@@@2@V?$allocator@U?$pair@$$CBV?$basic_string@DU?$char_traits@D@std@@V?$allocator@D@2@@std@@PAVDB@@@std@@@2@$0A@@std@@@2@ABU?$pair@$$CBV?$basic_string@DU?$char_traits@D@std@@V?$allocator@D@2@@std@@PAVDB@@@2@@Z 0042df50 f i svdbmain.obj
 0001:0002d110       ?Find@SVSEPool@@QAE_NI@Z   0042e110 f i svdbmain.obj
 0001:0002d140       ?GetSVSE@SVSEPool@@QAEPAVSVSE@@I@Z 0042e140 f i svdbmain.obj
 0001:0002d170       ?InitSVSEPool@SVSEPool@@QAE_NXZ 0042e170 f i svdbmain.obj
 0001:0002d240       ?insert@?$_Tree@V?$_Tset_traits@V?$basic_string@DU?$char_traits@D@std@@V?$allocator@D@2@@std@@U?$less@V?$basic_string@DU?$char_traits@D@std@@V?$allocator@D@2@@std@@@2@V?$allocator@V?$basic_string@DU?$char_traits@D@std@@V?$allocator@D@2@@std@@@2@$0A@@std@@@std@@QAE?AU?$pair@Viterator@?$_Tree@V?$_Tset_traits@V?$basic_string@DU?$char_traits@D@std@@V?$allocator@D@2@@std@@U?$less@V?$basic_string@DU?$char_traits@D@std@@V?$allocator@D@2@@std@@@2@V?$allocator@V?$basic_string@DU?$char_traits@D@std@@V?$allocator@D@2@@std@@@2@$0A@@std@@@std@@_N@2@ABV?$basic_string@DU?$char_traits@D@std@@V?$allocator@D@2@@2@@Z 0042e240 f i svdbmain.obj
 0001:0002d320       ?insert@?$_Tree@V?$_Tmap_traits@V?$basic_string@DU?$char_traits@D@std@@V?$allocator@D@2@@std@@PAVDB@@U?$less@V?$basic_string@DU?$char_traits@D@std@@V?$allocator@D@2@@std@@@2@V?$allocator@U?$pair@$$CBV?$basic_string@DU?$char_traits@D@std@@V?$allocator@D@2@@std@@PAVDB@@@std@@@2@$0A@@std@@@std@@QAE?AU?$pair@Viterator@?$_Tree@V?$_Tmap_traits@V?$basic_string@DU?$char_traits@D@std@@V?$allocator@D@2@@std@@PAVDB@@U?$less@V?$basic_string@DU?$char_traits@D@std@@V?$allocator@D@2@@std@@@2@V?$allocator@U?$pair@$$CBV?$basic_string@DU?$char_traits@D@std@@V?$allocator@D@2@@std@@PAVDB@@@std@@@2@$0A@@std@@@std@@_N@2@ABU?$pair@$$CBV?$basic_string@DU?$char_traits@D@std@@V?$allocator@D@2@@std@@PAVDB@@@2@@Z 0042e320 f i svdbmain.obj
 0001:0002d400       ?clearnodes@?$hashtable@Vword@svutil@@PAVGeneralPool@@@svutil@@IAEXXZ 0042e400 f i svdbmain.obj
 0001:0002d470       ?findnext@?$hashnode@Vword@svutil@@PAVGeneralPool@@@svutil@@QAE_NAAV?$hashelement@Vword@svutil@@PAVGeneralPool@@@2@PAPAV32@@Z 0042e470 f i svdbmain.obj
 0001:0002d520       ?_Insert_n@?$vector@PAV?$hashnode@Vword@svutil@@PAVGeneralPool@@@svutil@@V?$allocator@PAV?$hashnode@Vword@svutil@@PAVGeneralPool@@@svutil@@@std@@@std@@IAEXViterator@12@IABQAV?$hashnode@Vword@svutil@@PAVGeneralPool@@@svutil@@@Z 0042e520 f i svdbmain.obj
 0001:0002d520       ?_Insert_n@?$vector@PAVSVSE@@V?$allocator@PAVSVSE@@@std@@@std@@IAEXViterator@12@IABQAVSVSE@@@Z 0042e520 f i svdbmain.obj
 0001:0002d710       ?erase@?$_Tree@V?$_Tmap_traits@V?$basic_string@DU?$char_traits@D@std@@V?$allocator@D@2@@std@@PAVDB@@U?$less@V?$basic_string@DU?$char_traits@D@std@@V?$allocator@D@2@@std@@@2@V?$allocator@U?$pair@$$CBV?$basic_string@DU?$char_traits@D@std@@V?$allocator@D@2@@std@@PAVDB@@@std@@@2@$0A@@std@@@std@@QAE?AViterator@12@V312@@Z 0042e710 f i svdbmain.obj
 0001:0002d9f0       ?_Erase@?$_Tree@V?$_Tmap_traits@V?$basic_string@DU?$char_traits@D@std@@V?$allocator@D@2@@std@@PAVDB@@U?$less@V?$basic_string@DU?$char_traits@D@std@@V?$allocator@D@2@@std@@@2@V?$allocator@U?$pair@$$CBV?$basic_string@DU?$char_traits@D@std@@V?$allocator@D@2@@std@@PAVDB@@@std@@@2@$0A@@std@@@std@@IAEXPAU_Node@?$_Tree_nod@V?$_Tmap_traits@V?$basic_string@DU?$char_traits@D@std@@V?$allocator@D@2@@std@@PAVDB@@U?$less@V?$basic_string@DU?$char_traits@D@std@@V?$allocator@D@2@@std@@@2@V?$allocator@U?$pair@$$CBV?$basic_string@DU?$char_traits@D@std@@V?$allocator@D@2@@std@@PAVDB@@@std@@@2@$0A@@std@@@2@@Z 0042e9f0 f i svdbmain.obj
 0001:0002da30       ??$_Insert@Vconst_iterator@?$list@Vword@svutil@@V?$allocator@Vword@svutil@@@std@@@std@@@?$list@Vword@svutil@@V?$allocator@Vword@svutil@@@std@@@std@@QAEXViterator@01@Vconst_iterator@01@1Uforward_iterator_tag@1@@Z 0042ea30 f i svdbmain.obj
 0001:0002dae0       ?GetResource@ResourcePool@@QAEPAVResource@@Vword@svutil@@@Z 0042eae0 f i svdbmain.obj
 0001:0002db80       ??1?$hashtable@Vword@svutil@@PAVGeneralPool@@@svutil@@QAE@XZ 0042eb80 f i svdbmain.obj
 0001:0002dbe0       ?findnext@?$hashtable@Vword@svutil@@PAVGeneralPool@@@svutil@@QAE_NAAViterator@12@@Z 0042ebe0 f i svdbmain.obj
 0001:0002dc80       ?resize@?$vector@PAVSVSE@@V?$allocator@PAVSVSE@@@std@@@std@@QAEXIPAVSVSE@@@Z 0042ec80 f i svdbmain.obj
 0001:0002dc80       ?resize@?$vector@PAV?$hashnode@Vword@svutil@@PAVGeneralPool@@@svutil@@V?$allocator@PAV?$hashnode@Vword@svutil@@PAVGeneralPool@@@svutil@@@std@@@std@@QAEXIPAV?$hashnode@Vword@svutil@@PAVGeneralPool@@@svutil@@@Z 0042ec80 f i svdbmain.obj
 0001:0002dd10       ??0?$list@Vword@svutil@@V?$allocator@Vword@svutil@@@std@@@std@@QAE@ABV01@@Z 0042ed10 f i svdbmain.obj
 0001:0002dd90       ??0?$hashtable@Vword@svutil@@PAVGeneralPool@@@svutil@@QAE@XZ 0042ed90 f i svdbmain.obj
 0001:0002dde0       ?erase@?$_Tree@V?$_Tmap_traits@V?$basic_string@DU?$char_traits@D@std@@V?$allocator@D@2@@std@@PAVDB@@U?$less@V?$basic_string@DU?$char_traits@D@std@@V?$allocator@D@2@@std@@@2@V?$allocator@U?$pair@$$CBV?$basic_string@DU?$char_traits@D@std@@V?$allocator@D@2@@std@@PAVDB@@@std@@@2@$0A@@std@@@std@@QAE?AViterator@12@V312@0@Z 0042ede0 f i svdbmain.obj
 0001:0002dea0       ??0ResourcePool@@QAE@Vword@svutil@@@Z 0042eea0 f i svdbmain.obj
 0001:0002dfa0       ??1?$map@V?$basic_string@DU?$char_traits@D@std@@V?$allocator@D@2@@std@@PAVDB@@U?$less@V?$basic_string@DU?$char_traits@D@std@@V?$allocator@D@2@@std@@@2@V?$allocator@U?$pair@$$CBV?$basic_string@DU?$char_traits@D@std@@V?$allocator@D@2@@std@@PAVDB@@@std@@@2@@std@@QAE@XZ 0042efa0 f i svdbmain.obj
 0001:0002dfd0       ??0SVSEPool@@QAE@Vword@svutil@@@Z 0042efd0 f i svdbmain.obj
 0001:0002e0a0       ??0SvdbMain@@QAE@XZ        0042f0a0 f   svdbmain.obj
 0001:0002e180       ?Init@SvdbMain@@QAE_NXZ    0042f180 f   svdbmain.obj
 0001:0002f460       ?getProcessId@@YA?AV?$basic_string@DU?$char_traits@D@std@@V?$allocator@D@2@@std@@XZ 00430460 f   svdbtype.obj
 0001:0002f4e0       ?getInitialTime@@YAIXZ     004304e0 f   svdbtype.obj
 0001:0002f4f0       ?_Max@?$_Tree@V?$_Tset_traits@PAVPage@@U?$less@PAVPage@@@std@@V?$allocator@PAVPage@@@3@$0A@@std@@@std@@KAPAU_Node@?$_Tree_nod@V?$_Tset_traits@PAVPage@@U?$less@PAVPage@@@std@@V?$allocator@PAVPage@@@3@$0A@@std@@@2@PAU342@@Z 004304f0 f i Queue.obj
 0001:0002f4f0       ?_Max@?$_Tree@V?$_Tset_traits@HU?$less@H@std@@V?$allocator@H@2@$0A@@std@@@std@@KAPAU_Node@?$_Tree_nod@V?$_Tset_traits@HU?$less@H@std@@V?$allocator@H@2@$0A@@std@@@2@PAU342@@Z 004304f0 f i svdbtype.obj
 0001:0002f4f0       ?_Max@?$_Tree@V?$_Tset_traits@PAUQueueHead@@U?$less@PAUQueueHead@@@std@@V?$allocator@PAUQueueHead@@@3@$0A@@std@@@std@@KAPAU_Node@?$_Tree_nod@V?$_Tset_traits@PAUQueueHead@@U?$less@PAUQueueHead@@@std@@V?$allocator@PAUQueueHead@@@3@$0A@@std@@@2@PAU342@@Z 004304f0 f i Queue.obj
 0001:0002f510       ?_Dec@const_iterator@?$_Tree@V?$_Tmap_traits@V?$basic_string@DU?$char_traits@D@std@@V?$allocator@D@2@@std@@V12@U?$less@V?$basic_string@DU?$char_traits@D@std@@V?$allocator@D@2@@std@@@2@V?$allocator@U?$pair@$$CBV?$basic_string@DU?$char_traits@D@std@@V?$allocator@D@2@@std@@V12@@std@@@2@$0A@@std@@@std@@QAEXXZ 00430510 f i svdbtype.obj
 0001:0002f510       ?_Dec@const_iterator@?$_Tree@V?$_Tmap_traits@V?$basic_string@DU?$char_traits@D@std@@V?$allocator@D@2@@std@@V12@UStlIniCompareStringNoCase@@V?$allocator@U?$pair@$$CBV?$basic_string@DU?$char_traits@D@std@@V?$allocator@D@2@@std@@V12@@std@@@2@$0A@@std@@@std@@QAEXXZ 00430510 f i stlini.obj
 0001:0002f570       ??$?0PBDPBD@?$pair@$$CBV?$basic_string@DU?$char_traits@D@std@@V?$allocator@D@2@@std@@V12@@std@@QAE@ABU?$pair@PBDPBD@1@@Z 00430570 f i svdbtype.obj
 0001:0002f5d0       ?_Lbound@?$_Tree@V?$_Tmap_traits@V?$basic_string@DU?$char_traits@D@std@@V?$allocator@D@2@@std@@V12@U?$less@V?$basic_string@DU?$char_traits@D@std@@V?$allocator@D@2@@std@@@2@V?$allocator@U?$pair@$$CBV?$basic_string@DU?$char_traits@D@std@@V?$allocator@D@2@@std@@V12@@std@@@2@$0A@@std@@@std@@IBEPAU_Node@?$_Tree_nod@V?$_Tmap_traits@V?$basic_string@DU?$char_traits@D@std@@V?$allocator@D@2@@std@@V12@U?$less@V?$basic_string@DU?$char_traits@D@std@@V?$allocator@D@2@@std@@@2@V?$allocator@U?$pair@$$CBV?$basic_string@DU?$char_traits@D@std@@V?$allocator@D@2@@std@@V12@@std@@@2@$0A@@std@@@2@ABV?$basic_string@DU?$char_traits@D@std@@V?$allocator@D@2@@2@@Z 004305d0 f i svdbtype.obj
 0001:0002f620       ?_Buynode@?$_Tree@V?$_Tmap_traits@V?$basic_string@DU?$char_traits@D@std@@V?$allocator@D@2@@std@@V12@U?$less@V?$basic_string@DU?$char_traits@D@std@@V?$allocator@D@2@@std@@@2@V?$allocator@U?$pair@$$CBV?$basic_string@DU?$char_traits@D@std@@V?$allocator@D@2@@std@@V12@@std@@@2@$0A@@std@@@std@@IAEPAU_Node@?$_Tree_nod@V?$_Tmap_traits@V?$basic_string@DU?$char_traits@D@std@@V?$allocator@D@2@@std@@V12@U?$less@V?$basic_string@DU?$char_traits@D@std@@V?$allocator@D@2@@std@@@2@V?$allocator@U?$pair@$$CBV?$basic_string@DU?$char_traits@D@std@@V?$allocator@D@2@@std@@V12@@std@@@2@$0A@@std@@@2@PAU342@00ABU?$pair@$$CBV?$basic_string@DU?$char_traits@D@std@@V?$allocator@D@2@@std@@V12@@2@D@Z 00430620 f i svdbtype.obj
 0001:0002f6c0       ?erase@?$_Tree@V?$_Tset_traits@HU?$less@H@std@@V?$allocator@H@2@$0A@@std@@@std@@QAE?AViterator@12@V312@@Z 004306c0 f i svdbtype.obj
 0001:0002f990       ?_Erase@?$_Tree@V?$_Tset_traits@HU?$less@H@std@@V?$allocator@H@2@$0A@@std@@@std@@IAEXPAU_Node@?$_Tree_nod@V?$_Tset_traits@HU?$less@H@std@@V?$allocator@H@2@$0A@@std@@@2@@Z 00430990 f i svdbtype.obj
 0001:0002f9d0       ?find@?$_Tree@V?$_Tmap_traits@V?$basic_string@DU?$char_traits@D@std@@V?$allocator@D@2@@std@@V12@U?$less@V?$basic_string@DU?$char_traits@D@std@@V?$allocator@D@2@@std@@@2@V?$allocator@U?$pair@$$CBV?$basic_string@DU?$char_traits@D@std@@V?$allocator@D@2@@std@@V12@@std@@@2@$0A@@std@@@std@@QAE?AViterator@12@ABV?$basic_string@DU?$char_traits@D@std@@V?$allocator@D@2@@2@@Z 004309d0 f i svdbtype.obj
 0001:0002fa30       ?_Insert@?$_Tree@V?$_Tmap_traits@V?$basic_string@DU?$char_traits@D@std@@V?$allocator@D@2@@std@@V12@U?$less@V?$basic_string@DU?$char_traits@D@std@@V?$allocator@D@2@@std@@@2@V?$allocator@U?$pair@$$CBV?$basic_string@DU?$char_traits@D@std@@V?$allocator@D@2@@std@@V12@@std@@@2@$0A@@std@@@std@@IAE?AViterator@12@_NPAU_Node@?$_Tree_nod@V?$_Tmap_traits@V?$basic_string@DU?$char_traits@D@std@@V?$allocator@D@2@@std@@V12@U?$less@V?$basic_string@DU?$char_traits@D@std@@V?$allocator@D@2@@std@@@2@V?$allocator@U?$pair@$$CBV?$basic_string@DU?$char_traits@D@std@@V?$allocator@D@2@@std@@V12@@std@@@2@$0A@@std@@@2@ABU?$pair@$$CBV?$basic_string@DU?$char_traits@D@std@@V?$allocator@D@2@@std@@V12@@2@@Z 00430a30 f i svdbtype.obj
 0001:0002fbf0       ?insert@?$_Tree@V?$_Tmap_traits@V?$basic_string@DU?$char_traits@D@std@@V?$allocator@D@2@@std@@V12@U?$less@V?$basic_string@DU?$char_traits@D@std@@V?$allocator@D@2@@std@@@2@V?$allocator@U?$pair@$$CBV?$basic_string@DU?$char_traits@D@std@@V?$allocator@D@2@@std@@V12@@std@@@2@$0A@@std@@@std@@QAE?AU?$pair@Viterator@?$_Tree@V?$_Tmap_traits@V?$basic_string@DU?$char_traits@D@std@@V?$allocator@D@2@@std@@V12@U?$less@V?$basic_string@DU?$char_traits@D@std@@V?$allocator@D@2@@std@@@2@V?$allocator@U?$pair@$$CBV?$basic_string@DU?$char_traits@D@std@@V?$allocator@D@2@@std@@V12@@std@@@2@$0A@@std@@@std@@_N@2@ABU?$pair@$$CBV?$basic_string@DU?$char_traits@D@std@@V?$allocator@D@2@@std@@V12@@2@@Z 00430bf0 f i svdbtype.obj
 0001:0002fcd0       ?erase@?$_Tree@V?$_Tset_traits@HU?$less@H@std@@V?$allocator@H@2@$0A@@std@@@std@@QAE?AViterator@12@V312@0@Z 00430cd0 f i svdbtype.obj
 0001:0002fd90       ?InsertIntoNewIds@ResourcePool@@QAEXV?$basic_string@DU?$char_traits@D@std@@V?$allocator@D@2@@std@@0@Z 00430d90 f i svdbtype.obj
 0001:0002fe80       ?CreatChineseIDS@IdcUser@@QAE?AV?$basic_string@DU?$char_traits@D@std@@V?$allocator@D@2@@std@@V23@0PAX@Z 00430e80 f   svdbtype.obj
 0001:00030430       ??1?$set@HU?$less@H@std@@V?$allocator@H@2@@std@@QAE@XZ 00431430 f i svdbtype.obj
 0001:00030460       ??0?$set@HU?$less@H@std@@V?$allocator@H@2@@std@@QAE@XZ 00431460 f i svdbtype.obj
 0001:00030460       ??0?$set@PAVPage@@U?$less@PAVPage@@@std@@V?$allocator@PAVPage@@@3@@std@@QAE@XZ 00431460 f i Queue.obj
 0001:00030460       ??0?$set@PAUQueueHead@@U?$less@PAUQueueHead@@@std@@V?$allocator@PAUQueueHead@@@3@@std@@QAE@XZ 00431460 f i Queue.obj
 0001:00030490       ?GetRawDataSize@SVSE@@UAEIXZ 00431490 f   SVSE.obj
 0001:00030500       ?GetRawData@SVSE@@UAEPADPADI@Z 00431500 f   SVSE.obj
 0001:00030630       ?CreateObjectByRawData@SVSE@@UAEHPBDI@Z 00431630 f   SVSE.obj
 0001:00030850       ??0SVSE@@QAE@XZ            00431850 f   SVSE.obj
 0001:000308e0       ??1SVSE@@QAE@XZ            004318e0 f   SVSE.obj
 0001:00030940       ?Load@SVSEPool@@UAE_NXZ    00431940 f   SVSEPool.obj
 0001:00030a40       ?Submit@SVSEPool@@UAE_NV?$basic_string@DU?$char_traits@D@std@@V?$allocator@D@2@@std@@@Z 00431a40 f   SVSEPool.obj
 0001:00030b90       ?_Dec@const_iterator@?$_Tree@V?$_Tmap_traits@IIU?$less@I@std@@V?$allocator@U?$pair@$$CBII@std@@@2@$0A@@std@@@std@@QAEXXZ 00431b90 f i SVSEPool.obj
 0001:00030bf0       ?_Buynode@?$_Tree@V?$_Tmap_traits@IIU?$less@I@std@@V?$allocator@U?$pair@$$CBII@std@@@2@$0A@@std@@@std@@IAEPAU_Node@?$_Tree_nod@V?$_Tmap_traits@IIU?$less@I@std@@V?$allocator@U?$pair@$$CBII@std@@@2@$0A@@std@@@2@PAU342@00ABU?$pair@$$CBII@2@D@Z 00431bf0 f i SVSEPool.obj
 0001:00030c30       ?find@?$_Tree@V?$_Tmap_traits@IIU?$less@I@std@@V?$allocator@U?$pair@$$CBII@std@@@2@$0A@@std@@@std@@QAE?AViterator@12@ABI@Z 00431c30 f i SVSEPool.obj
 0001:00030ca0       ?_Insert@?$_Tree@V?$_Tmap_traits@IIU?$less@I@std@@V?$allocator@U?$pair@$$CBII@std@@@2@$0A@@std@@@std@@IAE?AViterator@12@_NPAU_Node@?$_Tree_nod@V?$_Tmap_traits@IIU?$less@I@std@@V?$allocator@U?$pair@$$CBII@std@@@2@$0A@@std@@@2@ABU?$pair@$$CBII@2@@Z 00431ca0 f i SVSEPool.obj
 0001:00030e60       ?GetRawDataSize@SVSEPool@@UAEIXZ 00431e60 f   SVSEPool.obj
 0001:00030ea0       ?GetRawData@SVSEPool@@UAEPADPADI@Z 00431ea0 f   SVSEPool.obj
 0001:00030fc0       ?GetSVSEData@SVSEPool@@QAE_NIPADAAI@Z 00431fc0 f   SVSEPool.obj
 0001:00031040       ?insert@?$_Tree@V?$_Tmap_traits@IIU?$less@I@std@@V?$allocator@U?$pair@$$CBII@std@@@2@$0A@@std@@@std@@QAE?AU?$pair@Viterator@?$_Tree@V?$_Tmap_traits@IIU?$less@I@std@@V?$allocator@U?$pair@$$CBII@std@@@2@$0A@@std@@@std@@_N@2@ABU?$pair@$$CBII@2@@Z 00432040 f i SVSEPool.obj
 0001:00031100       ?NewVersion@PoolBase2@@QAE_NI@Z 00432100 f i SVSEPool.obj
 0001:00031170       ?CreateObjectByRawData@SVSEPool@@UAEHPBDI@Z 00432170 f   SVSEPool.obj
 0001:000312c0       ?GetPreRecordPage@Table@@IAEPAVPage@@PAV2@@Z 004322c0 f   Table.obj
 0001:00031340       ?GetNextPage@Table@@IAEPAVPage@@PAV2@@Z 00432340 f   Table.obj
 0001:00031370       ?GetSingleRecord@Table@@IAEHPAVPage@@HPADH@Z 00432370 f   Table.obj
 0001:00031560       ?FreePage@Table@@IAE_NPAVPage@@@Z 00432560 f   Table.obj
 0001:000315c0       ?GetFreePage@Table@@IAEPAVPage@@XZ 004325c0 f   Table.obj
 0001:000315f0       ?BuildRecordType@Table@@QAE_NPADAAI@Z 004325f0 f   Table.obj
 0001:00031660       ??GTTime@svutil@@QBE?AVTTimeSpan@1@V01@@Z 00432660 f i Table.obj
 0001:00031680       ?GetRawDataSize@Table@@IAEHXZ 00432680 f   Table.obj
 0001:000316e0       ?QueryRecordByCount@Table@@QAEHIAAVbuffer@svutil@@HAAH@Z 004326e0 f   Table.obj
 0001:00031930       ?QueryRecordCount@Table@@QAE_NV?$basic_string@DU?$char_traits@D@std@@V?$allocator@D@2@@std@@AAH@Z 00432930 f   Table.obj
 0001:00031ac0       ?QueryRecordByTime@Table@@QAEHVTTime@svutil@@0AAVbuffer@3@HAAH@Z 00432ac0 f   Table.obj
 0001:00031d30       ?QueryDyn@Table@@QAEHPADAAI@Z 00432d30 f   Table.obj
 0001:00031e20       ?GetAlertInfoData@Table@@QAE_NPADAAI@Z 00432e20 f   Table.obj
 0001:00031e50       ?QueryDynNOStr@Table@@QAEHPADAAI@Z 00432e50 f   Table.obj
 0001:00031f00       ?FlushData@Table@@QAE_NXZ  00432f00 f   Table.obj
 0001:000321b0       ?AppendRecord@Table@@QAEHPBDI@Z 004331b0 f   Table.obj
 0001:00032690       ?DeleteData@Table@@QAE_NXZ 00433690 f   Table.obj
 0001:000326d0       ?FreePage@Table@@IAE_NPAVPage@@VTTime@svutil@@@Z 004336d0 f   Table.obj
 0001:00032810       ??0Table@@QAE@XZ           00433810 f   Table.obj
 0001:000328e0       ??1Table@@QAE@XZ           004338e0 f   Table.obj
 0001:000329c0       ?DeleteData@Table@@QAE_NVTTime@svutil@@@Z 004339c0 f   Table.obj
 0001:00032a00       ?CreateObjByPage@Table@@QAE_NPAVPage@@@Z 00433a00 f   Table.obj
 0001:00032c70       ?SetNoDelay@MySocket@@QAE_N_N@Z 00433c70 f i ThreadContrl.obj
 0001:00032cd0       ?toExit@ThreadContrl@@QAEXXZ 00433cd0 f   ThreadContrl.obj
 0001:00032ce0       ?_Incsize@?$list@PAVThreadEx@@V?$allocator@PAVThreadEx@@@std@@@std@@IAEXI@Z 00433ce0 f i ThreadContrl.obj
 0001:00032d80       ??1?$list@Viterator@?$list@VSingelRecord@@V?$allocator@VSingelRecord@@@std@@@std@@V?$allocator@Viterator@?$list@VSingelRecord@@V?$allocator@VSingelRecord@@@std@@@std@@@3@@std@@QAE@XZ 00433d80 f i WorkThread.obj
 0001:00032d80       ??1?$list@PAVPage@@V?$allocator@PAVPage@@@std@@@std@@QAE@XZ 00433d80 f i PagePool.obj
 0001:00032d80       ??1?$list@PAVStringMap@@V?$allocator@PAVStringMap@@@std@@@std@@QAE@XZ 00433d80 f i DB.obj
 0001:00032d80       ??1?$list@PAVEntityRelation@@V?$allocator@PAVEntityRelation@@@std@@@std@@QAE@XZ 00433d80 f i EntityEx.obj
 0001:00032d80       ??1?$list@HV?$allocator@H@std@@@std@@QAE@XZ 00433d80 f i EntityTemplet.obj
 0001:00032d80       ??1?$list@PAVEdge@@V?$allocator@PAVEdge@@@std@@@std@@QAE@XZ 00433d80 f i TopologyChart.obj
 0001:00032d80       ??1?$list@PAVThreadEx@@V?$allocator@PAVThreadEx@@@std@@@std@@QAE@XZ 00433d80 f i ThreadContrl.obj
 0001:00032d80       ?_Tidy@?$list@PAVStringMap@@V?$allocator@PAVStringMap@@@std@@@std@@IAEXXZ 00433d80 f i DB.obj
 0001:00032d80       ?_Tidy@?$list@Viterator@?$list@VSingelRecord@@V?$allocator@VSingelRecord@@@std@@@std@@V?$allocator@Viterator@?$list@VSingelRecord@@V?$allocator@VSingelRecord@@@std@@@std@@@3@@std@@IAEXXZ 00433d80 f i WorkThread.obj
 0001:00032da0       ??0ThreadContrl@@QAE@XZ    00433da0 f   ThreadContrl.obj
 0001:00032e10       ??1ThreadContrl@@QAE@XZ    00433e10 f   ThreadContrl.obj
 0001:00032e70       ?CreateNewThreads@ThreadContrl@@IAEHH@Z 00433e70 f   ThreadContrl.obj
 0001:00032fb0       ?AddToIdleThread@ThreadContrl@@QAEXPAVThreadEx@@@Z 00433fb0 f   ThreadContrl.obj
 0001:00033040       ?GetIdleThread@ThreadContrl@@IAEPAVThreadEx@@XZ 00434040 f   ThreadContrl.obj
 0001:00033150       ?AddTask@ThreadContrl@@QAE_NPAX@Z 00434150 f   ThreadContrl.obj
 0001:00033200       ?AddSocketTask@ThreadContrl@@QAE_NI@Z 00434200 f   ThreadContrl.obj
 0001:000332b0       ?Init@ThreadContrl@@QAE_NPAVSvdbMain@@@Z 004342b0 f   ThreadContrl.obj
 0001:00033330       ??0ThreadEx@@QAE@XZ        00434330 f   ThreadEx.obj
 0001:00033360       ??1ThreadEx@@UAE@XZ        00434360 f   ThreadEx.obj
 0001:00033390       ??_EThreadEx@@UAEPAXI@Z    00434390 f i ThreadEx.obj
 0001:00033390       ??_GThreadEx@@UAEPAXI@Z    00434390 f i ThreadEx.obj
 0001:000333b0       ?TrimSpace@@YA?AV?$basic_string@DU?$char_traits@D@std@@V?$allocator@D@2@@std@@ABV12@@Z 004343b0 f   util.obj
 0001:000334c0       ?TruncateToUId@@YA?AV?$basic_string@DU?$char_traits@D@std@@V?$allocator@D@2@@std@@V12@@Z 004344c0 f   util.obj
 0001:000335b0       ?MoreThan2Dot@@YA_NABV?$basic_string@DU?$char_traits@D@std@@V?$allocator@D@2@@std@@@Z 004345b0 f   util.obj
 0001:00033610       ?GetParentID@@YA?AVword@svutil@@V12@@Z 00434610 f   util.obj
 0001:00033730       ?IsTopID@@YA_NVword@svutil@@@Z 00434730 f   util.obj
 0001:000337d0       ?GetTopID@@YA?AVword@svutil@@V12@@Z 004347d0 f   util.obj
 0001:000338f0       ?MakeIDByIndex@@YA?AVword@svutil@@V12@H@Z 004348f0 f   util.obj
 0001:00033a00       ?GetRootPathByKey@@YA?AV?$basic_string@DU?$char_traits@D@std@@V?$allocator@D@2@@std@@V12@@Z 00434a00 f   util.obj
 0001:00033c50       ?ConvertType@@YAHV?$basic_string@DU?$char_traits@D@std@@V?$allocator@D@2@@std@@@Z 00434c50 f   util.obj
 0001:00033d50       ?outputRegeditKey@@YAXXZ   00434d50 f   util.obj
 0001:00033ec0       ?GetRootPath@@YA?AV?$basic_string@DU?$char_traits@D@std@@V?$allocator@D@2@@std@@XZ 00434ec0 f   util.obj
 0001:00033ef0       ??$make_pair@V?$basic_string@DU?$char_traits@D@std@@V?$allocator@D@2@@std@@V12@@std@@YA?AU?$pair@V?$basic_string@DU?$char_traits@D@std@@V?$allocator@D@2@@std@@V12@@0@V?$basic_string@DU?$char_traits@D@std@@V?$allocator@D@2@@0@0@Z 00434ef0 f i util.obj
 0001:00033f80       ?GetRootPathFromKeyCore@@YA?AV?$basic_string@DU?$char_traits@D@std@@V?$allocator@D@2@@std@@XZ 00434f80 f   util.obj
 0001:00034050       ?AddToErrorLog@@YAXV?$basic_string@DU?$char_traits@D@std@@V?$allocator@D@2@@std@@@Z 00435050 f   util.obj
 0001:00034200       ?GetStrListRawDataSize@@YAIAAV?$list@V?$basic_string@DU?$char_traits@D@std@@V?$allocator@D@2@@std@@V?$allocator@V?$basic_string@DU?$char_traits@D@std@@V?$allocator@D@2@@std@@@2@@std@@@Z 00435200 f   util.obj
 0001:00034240       ?GetStrListRawData@@YAPADAAV?$list@V?$basic_string@DU?$char_traits@D@std@@V?$allocator@D@2@@std@@V?$allocator@V?$basic_string@DU?$char_traits@D@std@@V?$allocator@D@2@@std@@@2@@std@@PADI@Z 00435240 f   util.obj
 0001:000342f0       ?GetMassRecordListRawDataSize@@YAIAAV?$list@VSingelRecord@@V?$allocator@VSingelRecord@@@std@@@std@@@Z 004352f0 f   util.obj
 0001:00034340       ?GetMassRecordListRawData@@YAPADAAV?$list@VSingelRecord@@V?$allocator@VSingelRecord@@@std@@@std@@PADI@Z 00435340 f   util.obj
 0001:00034450       ?CreateMassRecordListByRawData@@YA_NAAV?$list@VSingelRecord@@V?$allocator@VSingelRecord@@@std@@@std@@PBDI@Z 00435450 f   util.obj
 0001:00034610       ??0WatchThread@@QAE@XZ     00435610 f   WatchThread.obj
 0001:00034630       ?run@WatchThread@@UAEXXZ   00435630 f   WatchThread.obj
 0001:000347d0       ?Init@WatchThread@@QAE_NXZ 004357d0 f   WatchThread.obj
 0001:00034860       ??1WatchThread@@UAE@XZ     00435860 f   WatchThread.obj
 0001:000348d0       ??_EWatchThread@@UAEPAXI@Z 004358d0 f i WatchThread.obj
 0001:000348d0       ??_GWatchThread@@UAEPAXI@Z 004358d0 f i WatchThread.obj
 0001:000348f0       ?zerobuf@buffer@svutil@@QAEXXZ 004358f0 f i WorkThread.obj
 0001:00034910       ??GTTime@svutil@@QBE?AV01@VTTimeSpan@1@@Z 00435910 f i WorkThread.obj
 0001:00034930       ?GetLabel@SVSE@@QAE?AVword@svutil@@XZ 00435930 f i WorkThread.obj
 0001:00034950       ?GetNextSEID@SVSEPool@@QAEIXZ 00435950 f i WorkThread.obj
 0001:00034980       ?GetNextMonitorID@Entity@@QAE?AVword@svutil@@XZ 00435980 f i WorkThread.obj
 0001:00034980       ?GetNextSubID@Group@@QAE?AVword@svutil@@XZ 00435980 f i WorkThread.obj
 0001:000349c0       ?GetID@Entity@@QAE?AVword@svutil@@XZ 004359c0 f i EntityPool.obj
 0001:000349c0       ?GetDescription@EntityEx@@QBE?AVword@svutil@@XZ 004359c0 f i WorkThread.obj
 0001:000349c0       ?GetID@Group@@QAE?AVword@svutil@@XZ 004359c0 f i GroupPool.obj
 0001:000349e0       ?GetEccEntityID@EntityEx@@QBE?AVword@svutil@@XZ 004359e0 f i WorkThread.obj
 0001:00034a00       ?GetType@EntityEx@@QBE?AVword@svutil@@XZ 00435a00 f i WorkThread.obj
 0001:00034a00       ?GetSection@Section@@QAE?AVword@svutil@@XZ 00435a00 f i GeneralPool.obj
 0001:00034a00       ?GetDescription@TopologyChart@@QAE?AVword@svutil@@XZ 00435a00 f i WorkThread.obj
 0001:00034a20       ?GetCreateTime@TopologyChart@@QAE?AVTTime@svutil@@XZ 00435a20 f i WorkThread.obj
 0001:00034a30       ?GetLabel@VirtualGroup@@QAE?AVword@svutil@@XZ 00435a30 f i WorkThread.obj
 0001:00034a50       ?GetDescription@VirtualGroup@@QAE?AVword@svutil@@XZ 00435a50 f i WorkThread.obj
 0001:00034a70       ?WriteData@MySocket@@QAEIPBXIK@Z 00435a70 f i WorkThread.obj
 0001:00034b10       ?ReadData@MySocket@@QAEIPAXIDK@Z 00435b10 f i WorkThread.obj
 0001:00034b90       ??0WorkThread@@QAE@PAVThreadContrl@@H@Z 00435b90 f   WorkThread.obj
 0001:00034c60       ?IsSendOk@WorkThread@@IAEX_N@Z 00435c60 f   WorkThread.obj
 0001:00034d30       ?IsUpdateOk@WorkThread@@IAEX_N@Z 00435d30 f   WorkThread.obj
 0001:00034e00       ?IsDBUpdateOk@WorkThread@@IAEXV?$basic_string@DU?$char_traits@D@std@@V?$allocator@D@2@@std@@_N@Z 00435e00 f   WorkThread.obj
 0001:00034f00       ??1WorkThread@@UAE@XZ      00435f00 f   WorkThread.obj
 0001:00034fa0       ?SocketSendBuf@WorkThread@@AAE_NXZ 00435fa0 f   WorkThread.obj
 0001:00034ff0       ?SendBuf@WorkThread@@AAE_NXZ 00435ff0 f   WorkThread.obj
 0001:00035090       ?ReadBuf@WorkThread@@AAE_NH@Z 00436090 f   WorkThread.obj
 0001:00035150       ?CheckIOEnd@WorkThread@@AAE_NXZ 00436150 f   WorkThread.obj
 0001:000351d0       ?NotiyDBRecord@WorkThread@@AAE_NV?$basic_string@DU?$char_traits@D@std@@V?$allocator@D@2@@std@@AAVbuffer@svutil@@I@Z 004361d0 f   WorkThread.obj
 0001:000353c0       ?NotifyChange@WorkThread@@AAE_NV?$basic_string@DU?$char_traits@D@std@@V?$allocator@D@2@@std@@00@Z 004363c0 f   WorkThread.obj
 0001:00035820       ?NotifyIniChangeToQueue@WorkThread@@AAE_NV?$basic_string@DU?$char_traits@D@std@@V?$allocator@D@2@@std@@000@Z 00436820 f   WorkThread.obj
 0001:00035c60       ??1SingelRecord@@QAE@XZ    00436c60 f i DB.obj
 0001:00035c60       ??1?$pair@V?$basic_string@DU?$char_traits@D@std@@V?$allocator@D@2@@std@@PAVDB@@@std@@QAE@XZ 00436c60 f i svdbmain.obj
 0001:00035c60       ??1?$pair@V?$basic_string@DU?$char_traits@D@std@@V?$allocator@D@2@@std@@VTTime@svutil@@@std@@QAE@XZ 00436c60 f i WorkThread.obj
 0001:00035c60       ??1?$pair@$$CBV?$basic_string@DU?$char_traits@D@std@@V?$allocator@D@2@@std@@PAVDB@@@std@@QAE@XZ 00436c60 f i svdbmain.obj
 0001:00035c60       ??1?$pair@$$CBV?$basic_string@DU?$char_traits@D@std@@V?$allocator@D@2@@std@@I@std@@QAE@XZ 00436c60 f i EntityPool.obj
 0001:00035c60       ??1?$pair@$$CBV?$basic_string@DU?$char_traits@D@std@@V?$allocator@D@2@@std@@VTTime@svutil@@@std@@QAE@XZ 00436c60 f i WorkThread.obj
 0001:00035c70       ??0?$hashelement@Vword@svutil@@PAVGeneralPool@@@svutil@@QAE@ABVword@1@@Z 00436c70 f i WorkThread.obj
 0001:00035cd0       ??1?$treenode@V?$hashelement@Vword@svutil@@PAVGeneralPool@@@svutil@@@svutil@@UAE@XZ 00436cd0 f i WorkThread.obj
 0001:00035cf0       ??_G?$treenode@V?$hashelement@Vword@svutil@@PAVGeneralPool@@@svutil@@@svutil@@UAEPAXI@Z 00436cf0 f i WorkThread.obj
 0001:00035cf0       ??_E?$treenode@V?$hashelement@Vword@svutil@@PAVGeneralPool@@@svutil@@@svutil@@UAEPAXI@Z 00436cf0 f i WorkThread.obj
 0001:00035d10       ??0?$hashelement@Vword@svutil@@PAVGeneralPool@@@svutil@@QAE@ABVword@1@ABQAVGeneralPool@@@Z 00436d10 f i WorkThread.obj
 0001:00035d80       ?_Max@?$_Tree@V?$_Tmap_traits@V?$basic_string@DU?$char_traits@D@std@@V?$allocator@D@2@@std@@PAVDB@@U?$less@V?$basic_string@DU?$char_traits@D@std@@V?$allocator@D@2@@std@@@2@V?$allocator@U?$pair@$$CBV?$basic_string@DU?$char_traits@D@std@@V?$allocator@D@2@@std@@PAVDB@@@std@@@2@$0A@@std@@@std@@KAPAU_Node@?$_Tree_nod@V?$_Tmap_traits@V?$basic_string@DU?$char_traits@D@std@@V?$allocator@D@2@@std@@PAVDB@@U?$less@V?$basic_string@DU?$char_traits@D@std@@V?$allocator@D@2@@std@@@2@V?$allocator@U?$pair@$$CBV?$basic_string@DU?$char_traits@D@std@@V?$allocator@D@2@@std@@PAVDB@@@std@@@2@$0A@@std@@@2@PAU342@@Z 00436d80 f i svdbmain.obj
 0001:00035d80       ?_Max@?$_Tree@V?$_Tmap_traits@V?$basic_string@DU?$char_traits@D@std@@V?$allocator@D@2@@std@@VTTime@svutil@@U?$less@V?$basic_string@DU?$char_traits@D@std@@V?$allocator@D@2@@std@@@2@V?$allocator@U?$pair@$$CBV?$basic_string@DU?$char_traits@D@std@@V?$allocator@D@2@@std@@VTTime@svutil@@@std@@@2@$0A@@std@@@std@@KAPAU_Node@?$_Tree_nod@V?$_Tmap_traits@V?$basic_string@DU?$char_traits@D@std@@V?$allocator@D@2@@std@@VTTime@svutil@@U?$less@V?$basic_string@DU?$char_traits@D@std@@V?$allocator@D@2@@std@@@2@V?$allocator@U?$pair@$$CBV?$basic_string@DU?$char_traits@D@std@@V?$allocator@D@2@@std@@VTTime@svutil@@@std@@@2@$0A@@std@@@2@PAU342@@Z 00436d80 f i WorkThread.obj
 0001:00035d80       ?_Max@?$_Tree@V?$_Tmap_traits@V?$basic_string@DU?$char_traits@D@std@@V?$allocator@D@2@@std@@IU?$less@V?$basic_string@DU?$char_traits@D@std@@V?$allocator@D@2@@std@@@2@V?$allocator@U?$pair@$$CBV?$basic_string@DU?$char_traits@D@std@@V?$allocator@D@2@@std@@I@std@@@2@$0A@@std@@@std@@KAPAU_Node@?$_Tree_nod@V?$_Tmap_traits@V?$basic_string@DU?$char_traits@D@std@@V?$allocator@D@2@@std@@IU?$less@V?$basic_string@DU?$char_traits@D@std@@V?$allocator@D@2@@std@@@2@V?$allocator@U?$pair@$$CBV?$basic_string@DU?$char_traits@D@std@@V?$allocator@D@2@@std@@I@std@@@2@$0A@@std@@@2@PAU342@@Z 00436d80 f i EntityPool.obj
 0001:00035da0       ??M?$treenode@V?$hashelement@Vword@svutil@@PAVGeneralPool@@@svutil@@@svutil@@QAE_NV01@@Z 00436da0 f i WorkThread.obj
 0001:00035e10       ??O?$treenode@V?$hashelement@Vword@svutil@@PAVGeneralPool@@@svutil@@@svutil@@QAE_NV01@@Z 00436e10 f i WorkThread.obj
 0001:00035e80       ??0?$treenode@V?$hashelement@Vword@svutil@@PAVGeneralPool@@@svutil@@@svutil@@QAE@ABV01@@Z 00436e80 f i WorkThread.obj
 0001:00035f00       ??0?$treenode@V?$hashelement@Vword@svutil@@PAVGeneralPool@@@svutil@@@svutil@@QAE@ABV?$hashelement@Vword@svutil@@PAVGeneralPool@@@1@@Z 00436f00 f i WorkThread.obj
 0001:00035f80       ??_EWorkThread@@UAEPAXI@Z  00436f80 f i WorkThread.obj
 0001:00035f80       ??_GWorkThread@@UAEPAXI@Z  00436f80 f i WorkThread.obj
 0001:00035fa0       ?_Lbound@?$_Tree@V?$_Tmap_traits@V?$basic_string@DU?$char_traits@D@std@@V?$allocator@D@2@@std@@VTTime@svutil@@U?$less@V?$basic_string@DU?$char_traits@D@std@@V?$allocator@D@2@@std@@@2@V?$allocator@U?$pair@$$CBV?$basic_string@DU?$char_traits@D@std@@V?$allocator@D@2@@std@@VTTime@svutil@@@std@@@2@$0A@@std@@@std@@IBEPAU_Node@?$_Tree_nod@V?$_Tmap_traits@V?$basic_string@DU?$char_traits@D@std@@V?$allocator@D@2@@std@@VTTime@svutil@@U?$less@V?$basic_string@DU?$char_traits@D@std@@V?$allocator@D@2@@std@@@2@V?$allocator@U?$pair@$$CBV?$basic_string@DU?$char_traits@D@std@@V?$allocator@D@2@@std@@VTTime@svutil@@@std@@@2@$0A@@std@@@2@ABV?$basic_string@DU?$char_traits@D@std@@V?$allocator@D@2@@2@@Z 00436fa0 f i DB.obj
 0001:00035fa0       ?_Lbound@?$_Tree@V?$_Tmap_traits@V?$basic_string@DU?$char_traits@D@std@@V?$allocator@D@2@@std@@IU?$less@V?$basic_string@DU?$char_traits@D@std@@V?$allocator@D@2@@std@@@2@V?$allocator@U?$pair@$$CBV?$basic_string@DU?$char_traits@D@std@@V?$allocator@D@2@@std@@I@std@@@2@$0A@@std@@@std@@IBEPAU_Node@?$_Tree_nod@V?$_Tmap_traits@V?$basic_string@DU?$char_traits@D@std@@V?$allocator@D@2@@std@@IU?$less@V?$basic_string@DU?$char_traits@D@std@@V?$allocator@D@2@@std@@@2@V?$allocator@U?$pair@$$CBV?$basic_string@DU?$char_traits@D@std@@V?$allocator@D@2@@std@@I@std@@@2@$0A@@std@@@2@ABV?$basic_string@DU?$char_traits@D@std@@V?$allocator@D@2@@2@@Z 00436fa0 f i EntityPool.obj
 0001:00035fa0       ?_Lbound@?$_Tree@V?$_Tmap_traits@V?$basic_string@DU?$char_traits@D@std@@V?$allocator@D@2@@std@@PAVDB@@U?$less@V?$basic_string@DU?$char_traits@D@std@@V?$allocator@D@2@@std@@@2@V?$allocator@U?$pair@$$CBV?$basic_string@DU?$char_traits@D@std@@V?$allocator@D@2@@std@@PAVDB@@@std@@@2@$0A@@std@@@std@@IBEPAU_Node@?$_Tree_nod@V?$_Tmap_traits@V?$basic_string@DU?$char_traits@D@std@@V?$allocator@D@2@@std@@PAVDB@@U?$less@V?$basic_string@DU?$char_traits@D@std@@V?$allocator@D@2@@std@@@2@V?$allocator@U?$pair@$$CBV?$basic_string@DU?$char_traits@D@std@@V?$allocator@D@2@@std@@PAVDB@@@std@@@2@$0A@@std@@@2@ABV?$basic_string@DU?$char_traits@D@std@@V?$allocator@D@2@@2@@Z 00436fa0 f i WorkThread.obj
 0001:00035ff0       ?_Lbound@?$_Tree@V?$_Tmap_traits@V?$basic_string@DU?$char_traits@D@std@@V?$allocator@D@2@@std@@V?$list@Viterator@?$list@VSingelRecord@@V?$allocator@VSingelRecord@@@std@@@std@@V?$allocator@Viterator@?$list@VSingelRecord@@V?$allocator@VSingelRecord@@@std@@@std@@@3@@2@U?$less@V?$basic_string@DU?$char_traits@D@std@@V?$allocator@D@2@@std@@@2@V?$allocator@U?$pair@$$CBV?$basic_string@DU?$char_traits@D@std@@V?$allocator@D@2@@std@@V?$list@Viterator@?$list@VSingelRecord@@V?$allocator@VSingelRecord@@@std@@@std@@V?$allocator@Viterator@?$list@VSingelRecord@@V?$allocator@VSingelRecord@@@std@@@std@@@3@@2@@std@@@2@$0A@@std@@@std@@IBEPAU_Node@?$_Tree_nod@V?$_Tmap_traits@V?$basic_string@DU?$char_traits@D@std@@V?$allocator@D@2@@std@@V?$list@Viterator@?$list@VSingelRecord@@V?$allocator@VSingelRecord@@@std@@@std@@V?$allocator@Viterator@?$list@VSingelRecord@@V?$allocator@VSingelRecord@@@std@@@std@@@3@@2@U?$less@V?$basic_string@DU?$char_traits@D@std@@V?$allocator@D@2@@std@@@2@V?$allocator@U?$pair@$$CBV?$basic_string@DU?$char_traits@D@std@@V?$allocator@D@2@@std@@V?$list@Viterator@?$list@VSingelRecord@@V?$allocator@VSingelRecord@@@std@@@std@@V?$allocator@Viterator@?$list@VSingelRecord@@V?$allocator@VSingelRecord@@@std@@@std@@@3@@2@@std@@@2@$0A@@std@@@2@ABV?$basic_string@DU?$char_traits@D@std@@V?$allocator@D@2@@2@@Z 00436ff0 f i WorkThread.obj
 0001:00036040       ?_Lrotate@?$_Tree@V?$_Tmap_traits@V?$basic_string@DU?$char_traits@D@std@@V?$allocator@D@2@@std@@V?$list@Viterator@?$list@VSingelRecord@@V?$allocator@VSingelRecord@@@std@@@std@@V?$allocator@Viterator@?$list@VSingelRecord@@V?$allocator@VSingelRecord@@@std@@@std@@@3@@2@U?$less@V?$basic_string@DU?$char_traits@D@std@@V?$allocator@D@2@@std@@@2@V?$allocator@U?$pair@$$CBV?$basic_string@DU?$char_traits@D@std@@V?$allocator@D@2@@std@@V?$list@Viterator@?$list@VSingelRecord@@V?$allocator@VSingelRecord@@@std@@@std@@V?$allocator@Viterator@?$list@VSingelRecord@@V?$allocator@VSingelRecord@@@std@@@std@@@3@@2@@std@@@2@$0A@@std@@@std@@IAEXPAU_Node@?$_Tree_nod@V?$_Tmap_traits@V?$basic_string@DU?$char_traits@D@std@@V?$allocator@D@2@@std@@V?$list@Viterator@?$list@VSingelRecord@@V?$allocator@VSingelRecord@@@std@@@std@@V?$allocator@Viterator@?$list@VSingelRecord@@V?$allocator@VSingelRecord@@@std@@@std@@@3@@2@U?$less@V?$basic_string@DU?$char_traits@D@std@@V?$allocator@D@2@@std@@@2@V?$allocator@U?$pair@$$CBV?$basic_string@DU?$char_traits@D@std@@V?$allocator@D@2@@std@@V?$list@Viterator@?$list@VSingelRecord@@V?$allocator@VSingelRecord@@@std@@@std@@V?$allocator@Viterator@?$list@VSingelRecord@@V?$allocator@VSingelRecord@@@std@@@std@@@3@@2@@std@@@2@$0A@@std@@@2@@Z 00437040 f i WorkThread.obj
 0001:00036040       ?_Lrotate@?$_Tree@V?$_Tmap_traits@V?$basic_string@DU?$char_traits@D@std@@V?$allocator@D@2@@std@@V?$map@V?$basic_string@DU?$char_traits@D@std@@V?$allocator@D@2@@std@@V12@UStlIniCompareStringNoCase@@V?$allocator@U?$pair@$$CBV?$basic_string@DU?$char_traits@D@std@@V?$allocator@D@2@@std@@V12@@std@@@2@@2@UStlIniCompareStringNoCase@@V?$allocator@U?$pair@$$CBV?$basic_string@DU?$char_traits@D@std@@V?$allocator@D@2@@std@@V?$map@V?$basic_string@DU?$char_traits@D@std@@V?$allocator@D@2@@std@@V12@UStlIniCompareStringNoCase@@V?$allocator@U?$pair@$$CBV?$basic_string@DU?$char_traits@D@std@@V?$allocator@D@2@@std@@V12@@std@@@2@@2@@std@@@2@$0A@@std@@@std@@IAEXPAU_Node@?$_Tree_nod@V?$_Tmap_traits@V?$basic_string@DU?$char_traits@D@std@@V?$allocator@D@2@@std@@V?$map@V?$basic_string@DU?$char_traits@D@std@@V?$allocator@D@2@@std@@V12@UStlIniCompareStringNoCase@@V?$allocator@U?$pair@$$CBV?$basic_string@DU?$char_traits@D@std@@V?$allocator@D@2@@std@@V12@@std@@@2@@2@UStlIniCompareStringNoCase@@V?$allocator@U?$pair@$$CBV?$basic_string@DU?$char_traits@D@std@@V?$allocator@D@2@@std@@V?$map@V?$basic_string@DU?$char_traits@D@std@@V?$allocator@D@2@@std@@V12@UStlIniCompareStringNoCase@@V?$allocator@U?$pair@$$CBV?$basic_string@DU?$char_traits@D@std@@V?$allocator@D@2@@std@@V12@@std@@@2@@2@@std@@@2@$0A@@std@@@2@@Z 00437040 f i Option.obj
 0001:000360a0       ?_Rrotate@?$_Tree@V?$_Tmap_traits@V?$basic_string@DU?$char_traits@D@std@@V?$allocator@D@2@@std@@V?$map@V?$basic_string@DU?$char_traits@D@std@@V?$allocator@D@2@@std@@V12@UStlIniCompareStringNoCase@@V?$allocator@U?$pair@$$CBV?$basic_string@DU?$char_traits@D@std@@V?$allocator@D@2@@std@@V12@@std@@@2@@2@UStlIniCompareStringNoCase@@V?$allocator@U?$pair@$$CBV?$basic_string@DU?$char_traits@D@std@@V?$allocator@D@2@@std@@V?$map@V?$basic_string@DU?$char_traits@D@std@@V?$allocator@D@2@@std@@V12@UStlIniCompareStringNoCase@@V?$allocator@U?$pair@$$CBV?$basic_string@DU?$char_traits@D@std@@V?$allocator@D@2@@std@@V12@@std@@@2@@2@@std@@@2@$0A@@std@@@std@@IAEXPAU_Node@?$_Tree_nod@V?$_Tmap_traits@V?$basic_string@DU?$char_traits@D@std@@V?$allocator@D@2@@std@@V?$map@V?$basic_string@DU?$char_traits@D@std@@V?$allocator@D@2@@std@@V12@UStlIniCompareStringNoCase@@V?$allocator@U?$pair@$$CBV?$basic_string@DU?$char_traits@D@std@@V?$allocator@D@2@@std@@V12@@std@@@2@@2@UStlIniCompareStringNoCase@@V?$allocator@U?$pair@$$CBV?$basic_string@DU?$char_traits@D@std@@V?$allocator@D@2@@std@@V?$map@V?$basic_string@DU?$char_traits@D@std@@V?$allocator@D@2@@std@@V12@UStlIniCompareStringNoCase@@V?$allocator@U?$pair@$$CBV?$basic_string@DU?$char_traits@D@std@@V?$allocator@D@2@@std@@V12@@std@@@2@@2@@std@@@2@$0A@@std@@@2@@Z 004370a0 f i Option.obj
 0001:000360a0       ?_Rrotate@?$_Tree@V?$_Tmap_traits@V?$basic_string@DU?$char_traits@D@std@@V?$allocator@D@2@@std@@V?$list@Viterator@?$list@VSingelRecord@@V?$allocator@VSingelRecord@@@std@@@std@@V?$allocator@Viterator@?$list@VSingelRecord@@V?$allocator@VSingelRecord@@@std@@@std@@@3@@2@U?$less@V?$basic_string@DU?$char_traits@D@std@@V?$allocator@D@2@@std@@@2@V?$allocator@U?$pair@$$CBV?$basic_string@DU?$char_traits@D@std@@V?$allocator@D@2@@std@@V?$list@Viterator@?$list@VSingelRecord@@V?$allocator@VSingelRecord@@@std@@@std@@V?$allocator@Viterator@?$list@VSingelRecord@@V?$allocator@VSingelRecord@@@std@@@std@@@3@@2@@std@@@2@$0A@@std@@@std@@IAEXPAU_Node@?$_Tree_nod@V?$_Tmap_traits@V?$basic_string@DU?$char_traits@D@std@@V?$allocator@D@2@@std@@V?$list@Viterator@?$list@VSingelRecord@@V?$allocator@VSingelRecord@@@std@@@std@@V?$allocator@Viterator@?$list@VSingelRecord@@V?$allocator@VSingelRecord@@@std@@@std@@@3@@2@U?$less@V?$basic_string@DU?$char_traits@D@std@@V?$allocator@D@2@@std@@@2@V?$allocator@U?$pair@$$CBV?$basic_string@DU?$char_traits@D@std@@V?$allocator@D@2@@std@@V?$list@Viterator@?$list@VSingelRecord@@V?$allocator@VSingelRecord@@@std@@@std@@V?$allocator@Viterator@?$list@VSingelRecord@@V?$allocator@VSingelRecord@@@std@@@std@@@3@@2@@std@@@2@$0A@@std@@@2@@Z 004370a0 f i WorkThread.obj
 0001:00036100       ?_Inc@const_iterator@?$_Tree@V?$_Tmap_traits@V?$basic_string@DU?$char_traits@D@std@@V?$allocator@D@2@@std@@V?$map@V?$basic_string@DU?$char_traits@D@std@@V?$allocator@D@2@@std@@V12@UStlIniCompareStringNoCase@@V?$allocator@U?$pair@$$CBV?$basic_string@DU?$char_traits@D@std@@V?$allocator@D@2@@std@@V12@@std@@@2@@2@UStlIniCompareStringNoCase@@V?$allocator@U?$pair@$$CBV?$basic_string@DU?$char_traits@D@std@@V?$allocator@D@2@@std@@V?$map@V?$basic_string@DU?$char_traits@D@std@@V?$allocator@D@2@@std@@V12@UStlIniCompareStringNoCase@@V?$allocator@U?$pair@$$CBV?$basic_string@DU?$char_traits@D@std@@V?$allocator@D@2@@std@@V12@@std@@@2@@2@@std@@@2@$0A@@std@@@std@@QAEXXZ 00437100 f i Option.obj
 0001:00036100       ?_Inc@const_iterator@?$_Tree@V?$_Tmap_traits@V?$basic_string@DU?$char_traits@D@std@@V?$allocator@D@2@@std@@V?$list@Viterator@?$list@VSingelRecord@@V?$allocator@VSingelRecord@@@std@@@std@@V?$allocator@Viterator@?$list@VSingelRecord@@V?$allocator@VSingelRecord@@@std@@@std@@@3@@2@U?$less@V?$basic_string@DU?$char_traits@D@std@@V?$allocator@D@2@@std@@@2@V?$allocator@U?$pair@$$CBV?$basic_string@DU?$char_traits@D@std@@V?$allocator@D@2@@std@@V?$list@Viterator@?$list@VSingelRecord@@V?$allocator@VSingelRecord@@@std@@@std@@V?$allocator@Viterator@?$list@VSingelRecord@@V?$allocator@VSingelRecord@@@std@@@std@@@3@@2@@std@@@2@$0A@@std@@@std@@QAEXXZ 00437100 f i WorkThread.obj
 0001:00036160       ?RomoveNode@?$sorttree@V?$hashelement@Vword@svutil@@PAVEntityTemplet@@@svutil@@@svutil@@QAEXABV?$hashelement@Vword@svutil@@PAVEntityTemplet@@@2@@Z 00437160 f i WorkThread.obj
 0001:00036160       ?RomoveNode@?$sorttree@V?$hashelement@Vword@svutil@@PAVGeneralPool@@@svutil@@@svutil@@QAEXABV?$hashelement@Vword@svutil@@PAVGeneralPool@@@2@@Z 00437160 f i WorkThread.obj
 0001:00036160       ?RomoveNode@?$sorttree@V?$hashelement@Vword@svutil@@PAVEntityGroup@@@svutil@@@svutil@@QAEXABV?$hashelement@Vword@svutil@@PAVEntityGroup@@@2@@Z 00437160 f i WorkThread.obj
 0001:00036300       ?_Dec@const_iterator@?$_Tree@V?$_Tmap_traits@V?$basic_string@DU?$char_traits@D@std@@V?$allocator@D@2@@std@@IU?$less@V?$basic_string@DU?$char_traits@D@std@@V?$allocator@D@2@@std@@@2@V?$allocator@U?$pair@$$CBV?$basic_string@DU?$char_traits@D@std@@V?$allocator@D@2@@std@@I@std@@@2@$0A@@std@@@std@@QAEXXZ 00437300 f i EntityPool.obj
 0001:00036300       ?_Dec@const_iterator@?$_Tree@V?$_Tmap_traits@V?$basic_string@DU?$char_traits@D@std@@V?$allocator@D@2@@std@@PAVDB@@U?$less@V?$basic_string@DU?$char_traits@D@std@@V?$allocator@D@2@@std@@@2@V?$allocator@U?$pair@$$CBV?$basic_string@DU?$char_traits@D@std@@V?$allocator@D@2@@std@@PAVDB@@@std@@@2@$0A@@std@@@std@@QAEXXZ 00437300 f i svdbmain.obj
 0001:00036300       ?_Dec@const_iterator@?$_Tree@V?$_Tmap_traits@V?$basic_string@DU?$char_traits@D@std@@V?$allocator@D@2@@std@@VTTime@svutil@@U?$less@V?$basic_string@DU?$char_traits@D@std@@V?$allocator@D@2@@std@@@2@V?$allocator@U?$pair@$$CBV?$basic_string@DU?$char_traits@D@std@@V?$allocator@D@2@@std@@VTTime@svutil@@@std@@@2@$0A@@std@@@std@@QAEXXZ 00437300 f i WorkThread.obj
 0001:00036360       ?InsertNode@?$sorttree@V?$hashelement@Vword@svutil@@PAVGeneralPool@@@svutil@@@svutil@@QAEXPAV?$treenode@V?$hashelement@Vword@svutil@@PAVGeneralPool@@@svutil@@@2@0@Z 00437360 f i WorkThread.obj
 0001:000363f0       ??$make_pair@V?$basic_string@DU?$char_traits@D@std@@V?$allocator@D@2@@std@@VTTime@svutil@@@std@@YA?AU?$pair@V?$basic_string@DU?$char_traits@D@std@@V?$allocator@D@2@@std@@VTTime@svutil@@@0@V?$basic_string@DU?$char_traits@D@std@@V?$allocator@D@2@@0@VTTime@svutil@@@Z 004373f0 f i WorkThread.obj
 0001:00036460       ??$CreateNode@V?$hashelement@Vword@svutil@@PAVGeneralPool@@@svutil@@@?$sorttree@V?$hashelement@Vword@svutil@@PAVGeneralPool@@@svutil@@@svutil@@SAPAV?$treenode@V?$hashelement@Vword@svutil@@PAVGeneralPool@@@svutil@@@1@ABV?$hashelement@Vword@svutil@@PAVGeneralPool@@@1@@Z 00437460 f i WorkThread.obj
 0001:000364c0       ?_Incsize@?$list@Viterator@?$list@VSingelRecord@@V?$allocator@VSingelRecord@@@std@@@std@@V?$allocator@Viterator@?$list@VSingelRecord@@V?$allocator@VSingelRecord@@@std@@@std@@@3@@std@@IAEXI@Z 004374c0 f i WorkThread.obj
 0001:00036560       ?_Buynode@?$_Tree@V?$_Tmap_traits@V?$basic_string@DU?$char_traits@D@std@@V?$allocator@D@2@@std@@VTTime@svutil@@U?$less@V?$basic_string@DU?$char_traits@D@std@@V?$allocator@D@2@@std@@@2@V?$allocator@U?$pair@$$CBV?$basic_string@DU?$char_traits@D@std@@V?$allocator@D@2@@std@@VTTime@svutil@@@std@@@2@$0A@@std@@@std@@IAEPAU_Node@?$_Tree_nod@V?$_Tmap_traits@V?$basic_string@DU?$char_traits@D@std@@V?$allocator@D@2@@std@@VTTime@svutil@@U?$less@V?$basic_string@DU?$char_traits@D@std@@V?$allocator@D@2@@std@@@2@V?$allocator@U?$pair@$$CBV?$basic_string@DU?$char_traits@D@std@@V?$allocator@D@2@@std@@VTTime@svutil@@@std@@@2@$0A@@std@@@2@PAU342@00ABU?$pair@$$CBV?$basic_string@DU?$char_traits@D@std@@V?$allocator@D@2@@std@@VTTime@svutil@@@2@D@Z 00437560 f i WorkThread.obj
 0001:00036600       ?find@?$hashnode@Vword@svutil@@PAVGeneralPool@@@svutil@@QAE_NABVword@2@PAPAV?$hashelement@Vword@svutil@@PAVGeneralPool@@@2@@Z 00437600 f i WorkThread.obj
 0001:000366d0       ?_Buynode@?$_Tree@V?$_Tmap_traits@V?$basic_string@DU?$char_traits@D@std@@V?$allocator@D@2@@std@@V?$map@V?$basic_string@DU?$char_traits@D@std@@V?$allocator@D@2@@std@@V12@UStlIniCompareStringNoCase@@V?$allocator@U?$pair@$$CBV?$basic_string@DU?$char_traits@D@std@@V?$allocator@D@2@@std@@V12@@std@@@2@@2@UStlIniCompareStringNoCase@@V?$allocator@U?$pair@$$CBV?$basic_string@DU?$char_traits@D@std@@V?$allocator@D@2@@std@@V?$map@V?$basic_string@DU?$char_traits@D@std@@V?$allocator@D@2@@std@@V12@UStlIniCompareStringNoCase@@V?$allocator@U?$pair@$$CBV?$basic_string@DU?$char_traits@D@std@@V?$allocator@D@2@@std@@V12@@std@@@2@@2@@std@@@2@$0A@@std@@@std@@IAEPAU_Node@?$_Tree_nod@V?$_Tmap_traits@V?$basic_string@DU?$char_traits@D@std@@V?$allocator@D@2@@std@@V?$map@V?$basic_string@DU?$char_traits@D@std@@V?$allocator@D@2@@std@@V12@UStlIniCompareStringNoCase@@V?$allocator@U?$pair@$$CBV?$basic_string@DU?$char_traits@D@std@@V?$allocator@D@2@@std@@V12@@std@@@2@@2@UStlIniCompareStringNoCase@@V?$allocator@U?$pair@$$CBV?$basic_string@DU?$char_traits@D@std@@V?$allocator@D@2@@std@@V?$map@V?$basic_string@DU?$char_traits@D@std@@V?$allocator@D@2@@std@@V12@UStlIniCompareStringNoCase@@V?$allocator@U?$pair@$$CBV?$basic_string@DU?$char_traits@D@std@@V?$allocator@D@2@@std@@V12@@std@@@2@@2@@std@@@2@$0A@@std@@@2@XZ 004376d0 f i stlini.obj
 0001:000366d0       ?_Buynode@?$_Tree@V?$_Tmap_traits@V?$basic_string@DU?$char_traits@D@std@@V?$allocator@D@2@@std@@V?$list@Viterator@?$list@VSingelRecord@@V?$allocator@VSingelRecord@@@std@@@std@@V?$allocator@Viterator@?$list@VSingelRecord@@V?$allocator@VSingelRecord@@@std@@@std@@@3@@2@U?$less@V?$basic_string@DU?$char_traits@D@std@@V?$allocator@D@2@@std@@@2@V?$allocator@U?$pair@$$CBV?$basic_string@DU?$char_traits@D@std@@V?$allocator@D@2@@std@@V?$list@Viterator@?$list@VSingelRecord@@V?$allocator@VSingelRecord@@@std@@@std@@V?$allocator@Viterator@?$list@VSingelRecord@@V?$allocator@VSingelRecord@@@std@@@std@@@3@@2@@std@@@2@$0A@@std@@@std@@IAEPAU_Node@?$_Tree_nod@V?$_Tmap_traits@V?$basic_string@DU?$char_traits@D@std@@V?$allocator@D@2@@std@@V?$list@Viterator@?$list@VSingelRecord@@V?$allocator@VSingelRecord@@@std@@@std@@V?$allocator@Viterator@?$list@VSingelRecord@@V?$allocator@VSingelRecord@@@std@@@std@@@3@@2@U?$less@V?$basic_string@DU?$char_traits@D@std@@V?$allocator@D@2@@std@@@2@V?$allocator@U?$pair@$$CBV?$basic_string@DU?$char_traits@D@std@@V?$allocator@D@2@@std@@V?$list@Viterator@?$list@VSingelRecord@@V?$allocator@VSingelRecord@@@std@@@std@@V?$allocator@Viterator@?$list@VSingelRecord@@V?$allocator@VSingelRecord@@@std@@@std@@@3@@2@@std@@@2@$0A@@std@@@2@XZ 004376d0 f i WorkThread.obj
 0001:00036710       ?_Buynode@?$_Tree@V?$_Tmap_traits@V?$basic_string@DU?$char_traits@D@std@@V?$allocator@D@2@@std@@VTTime@svutil@@U?$less@V?$basic_string@DU?$char_traits@D@std@@V?$allocator@D@2@@std@@@2@V?$allocator@U?$pair@$$CBV?$basic_string@DU?$char_traits@D@std@@V?$allocator@D@2@@std@@VTTime@svutil@@@std@@@2@$0A@@std@@@std@@IAEPAU_Node@?$_Tree_nod@V?$_Tmap_traits@V?$basic_string@DU?$char_traits@D@std@@V?$allocator@D@2@@std@@VTTime@svutil@@U?$less@V?$basic_string@DU?$char_traits@D@std@@V?$allocator@D@2@@std@@@2@V?$allocator@U?$pair@$$CBV?$basic_string@DU?$char_traits@D@std@@V?$allocator@D@2@@std@@VTTime@svutil@@@std@@@2@$0A@@std@@@2@XZ 00437710 f i WorkThread.obj
 0001:00036710       ?_Buynode@?$_Tree@V?$_Tmap_traits@V?$basic_string@DU?$char_traits@D@std@@V?$allocator@D@2@@std@@IU?$less@V?$basic_string@DU?$char_traits@D@std@@V?$allocator@D@2@@std@@@2@V?$allocator@U?$pair@$$CBV?$basic_string@DU?$char_traits@D@std@@V?$allocator@D@2@@std@@I@std@@@2@$0A@@std@@@std@@IAEPAU_Node@?$_Tree_nod@V?$_Tmap_traits@V?$basic_string@DU?$char_traits@D@std@@V?$allocator@D@2@@std@@IU?$less@V?$basic_string@DU?$char_traits@D@std@@V?$allocator@D@2@@std@@@2@V?$allocator@U?$pair@$$CBV?$basic_string@DU?$char_traits@D@std@@V?$allocator@D@2@@std@@I@std@@@2@$0A@@std@@@2@XZ 00437710 f i EntityPool.obj
 0001:00036710       ?_Buynode@?$_Tree@V?$_Tmap_traits@V?$basic_string@DU?$char_traits@D@std@@V?$allocator@D@2@@std@@PAVDB@@U?$less@V?$basic_string@DU?$char_traits@D@std@@V?$allocator@D@2@@std@@@2@V?$allocator@U?$pair@$$CBV?$basic_string@DU?$char_traits@D@std@@V?$allocator@D@2@@std@@PAVDB@@@std@@@2@$0A@@std@@@std@@IAEPAU_Node@?$_Tree_nod@V?$_Tmap_traits@V?$basic_string@DU?$char_traits@D@std@@V?$allocator@D@2@@std@@PAVDB@@U?$less@V?$basic_string@DU?$char_traits@D@std@@V?$allocator@D@2@@std@@@2@V?$allocator@U?$pair@$$CBV?$basic_string@DU?$char_traits@D@std@@V?$allocator@D@2@@std@@PAVDB@@@std@@@2@$0A@@std@@@2@XZ 00437710 f i svdbmain.obj
 0001:00036750       ?InsertNodeEx@?$sorttree@V?$hashelement@Vword@svutil@@PAVGeneralPool@@@svutil@@@svutil@@QAEAAV?$hashelement@Vword@svutil@@PAVGeneralPool@@@2@ABV32@@Z 00437750 f i WorkThread.obj
 0001:000367e0       ?equal_range@?$_Tree@V?$_Tmap_traits@IIU?$less@I@std@@V?$allocator@U?$pair@$$CBII@std@@@2@$0A@@std@@@std@@QAE?AU?$pair@Viterator@?$_Tree@V?$_Tmap_traits@IIU?$less@I@std@@V?$allocator@U?$pair@$$CBII@std@@@2@$0A@@std@@@std@@V123@@2@ABI@Z 004377e0 f i WorkThread.obj
 0001:00036850       ?_Insert@?$_Tree@V?$_Tmap_traits@V?$basic_string@DU?$char_traits@D@std@@V?$allocator@D@2@@std@@VTTime@svutil@@U?$less@V?$basic_string@DU?$char_traits@D@std@@V?$allocator@D@2@@std@@@2@V?$allocator@U?$pair@$$CBV?$basic_string@DU?$char_traits@D@std@@V?$allocator@D@2@@std@@VTTime@svutil@@@std@@@2@$0A@@std@@@std@@IAE?AViterator@12@_NPAU_Node@?$_Tree_nod@V?$_Tmap_traits@V?$basic_string@DU?$char_traits@D@std@@V?$allocator@D@2@@std@@VTTime@svutil@@U?$less@V?$basic_string@DU?$char_traits@D@std@@V?$allocator@D@2@@std@@@2@V?$allocator@U?$pair@$$CBV?$basic_string@DU?$char_traits@D@std@@V?$allocator@D@2@@std@@VTTime@svutil@@@std@@@2@$0A@@std@@@2@ABU?$pair@$$CBV?$basic_string@DU?$char_traits@D@std@@V?$allocator@D@2@@std@@VTTime@svutil@@@2@@Z 00437850 f i WorkThread.obj
 0001:00036a10       ?find@?$hashnode@Vword@svutil@@PAVGeneralPool@@@svutil@@QAE_NABVword@2@PAPAPAVGeneralPool@@@Z 00437a10 f i WorkThread.obj
 0001:00036a70       ?insert@?$hashnode@Vword@svutil@@PAVGeneralPool@@@svutil@@QAEAAV?$hashelement@Vword@svutil@@PAVGeneralPool@@@2@ABVword@2@ABQAVGeneralPool@@@Z 00437a70 f i WorkThread.obj
 0001:00036b50       ??$_Distance@Viterator@?$_Tree@V?$_Tmap_traits@IIU?$less@I@std@@V?$allocator@U?$pair@$$CBII@std@@@2@$0A@@std@@@std@@I@std@@YAXViterator@?$_Tree@V?$_Tmap_traits@IIU?$less@I@std@@V?$allocator@U?$pair@$$CBII@std@@@2@$0A@@std@@@0@0AAI@Z 00437b50 f i WorkThread.obj
 0001:00036b90       ??$_Insert@Vconst_iterator@?$list@Viterator@?$list@VSingelRecord@@V?$allocator@VSingelRecord@@@std@@@std@@V?$allocator@Viterator@?$list@VSingelRecord@@V?$allocator@VSingelRecord@@@std@@@std@@@3@@std@@@?$list@Viterator@?$list@VSingelRecord@@V?$allocator@VSingelRecord@@@std@@@std@@V?$allocator@Viterator@?$list@VSingelRecord@@V?$allocator@VSingelRecord@@@std@@@std@@@3@@std@@QAEXViterator@01@Vconst_iterator@01@1Uforward_iterator_tag@1@@Z 00437b90 f i WorkThread.obj
 0001:00036c40       ?GetVersion@PoolBase2@@QAEII@Z 00437c40 f i WorkThread.obj
 0001:00036c80       ?GetNextSubID@SVSEPool@@QAE?AVword@svutil@@I@Z 00437c80 f i WorkThread.obj
 0001:00036d20       ?size@?$hashtable@Vword@svutil@@PAVGeneralPool@@@svutil@@QAEIXZ 00437d20 f i WorkThread.obj
 0001:00036dc0       ?find@?$hashtable@Vword@svutil@@PAVGeneralPool@@@svutil@@QAEPAPAVGeneralPool@@ABVword@2@@Z 00437dc0 f i WorkThread.obj
 0001:00036e30       ?insert@?$_Tree@V?$_Tmap_traits@V?$basic_string@DU?$char_traits@D@std@@V?$allocator@D@2@@std@@VTTime@svutil@@U?$less@V?$basic_string@DU?$char_traits@D@std@@V?$allocator@D@2@@std@@@2@V?$allocator@U?$pair@$$CBV?$basic_string@DU?$char_traits@D@std@@V?$allocator@D@2@@std@@VTTime@svutil@@@std@@@2@$0A@@std@@@std@@QAE?AU?$pair@Viterator@?$_Tree@V?$_Tmap_traits@V?$basic_string@DU?$char_traits@D@std@@V?$allocator@D@2@@std@@VTTime@svutil@@U?$less@V?$basic_string@DU?$char_traits@D@std@@V?$allocator@D@2@@std@@@2@V?$allocator@U?$pair@$$CBV?$basic_string@DU?$char_traits@D@std@@V?$allocator@D@2@@std@@VTTime@svutil@@@std@@@2@$0A@@std@@@std@@_N@2@ABU?$pair@$$CBV?$basic_string@DU?$char_traits@D@std@@V?$allocator@D@2@@std@@VTTime@svutil@@@2@@Z 00437e30 f i WorkThread.obj
 0001:00036f10       ?erase@?$hashnode@Vword@svutil@@PAVEntityGroup@@@svutil@@QAE_NABVword@2@@Z 00437f10 f i WorkThread.obj
 0001:00037020       ?erase@?$hashnode@Vword@svutil@@PAVEntityTemplet@@@svutil@@QAE_NABVword@2@@Z 00438020 f i WorkThread.obj
 0001:00037130       ?erase@?$hashnode@Vword@svutil@@PAVGeneralPool@@@svutil@@QAE_NABVword@2@@Z 00438130 f i WorkThread.obj
 0001:00037240       ?erase@?$_Tree@V?$_Tmap_traits@V?$basic_string@DU?$char_traits@D@std@@V?$allocator@D@2@@std@@VTTime@svutil@@U?$less@V?$basic_string@DU?$char_traits@D@std@@V?$allocator@D@2@@std@@@2@V?$allocator@U?$pair@$$CBV?$basic_string@DU?$char_traits@D@std@@V?$allocator@D@2@@std@@VTTime@svutil@@@std@@@2@$0A@@std@@@std@@QAE?AViterator@12@V312@@Z 00438240 f i WorkThread.obj
 0001:00037520       ?_Erase@?$_Tree@V?$_Tmap_traits@V?$basic_string@DU?$char_traits@D@std@@V?$allocator@D@2@@std@@VTTime@svutil@@U?$less@V?$basic_string@DU?$char_traits@D@std@@V?$allocator@D@2@@std@@@2@V?$allocator@U?$pair@$$CBV?$basic_string@DU?$char_traits@D@std@@V?$allocator@D@2@@std@@VTTime@svutil@@@std@@@2@$0A@@std@@@std@@IAEXPAU_Node@?$_Tree_nod@V?$_Tmap_traits@V?$basic_string@DU?$char_traits@D@std@@V?$allocator@D@2@@std@@VTTime@svutil@@U?$less@V?$basic_string@DU?$char_traits@D@std@@V?$allocator@D@2@@std@@@2@V?$allocator@U?$pair@$$CBV?$basic_string@DU?$char_traits@D@std@@V?$allocator@D@2@@std@@VTTime@svutil@@@std@@@2@$0A@@std@@@2@@Z 00438520 f i WorkThread.obj
 0001:00037560       ?GetResourceData@ResourcePool@@QAE_NVword@svutil@@PADAAI@Z 00438560 f i WorkThread.obj
 0001:00037650       ?GetResourceDataByKeys@ResourcePool@@QAE_NV?$basic_string@DU?$char_traits@D@std@@V?$allocator@D@2@@std@@Vword@svutil@@PADAAI@Z 00438650 f i WorkThread.obj
 0001:000377e0       ?DeleteSubGroupID@SVSE@@QAE_NVword@svutil@@@Z 004387e0 f i WorkThread.obj
 0001:000378d0       ?DeleteSubEntityID@SVSE@@QAE_NVword@svutil@@@Z 004388d0 f i WorkThread.obj
 0001:000379c0       ?PutSubGroup@SVSEPool@@QAE_NIVword@svutil@@@Z 004389c0 f i WorkThread.obj
 0001:00037ae0       ?PutSubEntity@SVSEPool@@QAE_NIVword@svutil@@@Z 00438ae0 f i WorkThread.obj
 0001:00037c00       ?DeleteSubEntityID@SVSEPool@@QAE_NVword@svutil@@@Z 00438c00 f i WorkThread.obj
 0001:00037e00       ?DeleteSubGroupID@SVSEPool@@QAE_NVword@svutil@@@Z 00438e00 f i WorkThread.obj
 0001:00038000       ?DeleteSubEntityID@Group@@QAE_NVword@svutil@@@Z 00439000 f i WorkThread.obj
 0001:000380f0       ?DeleteSubGroupID@Group@@QAE_NVword@svutil@@@Z 004390f0 f i WorkThread.obj
 0001:000380f0       ?DeleteSubMonitorID@Entity@@QAE_NVword@svutil@@@Z 004390f0 f i WorkThread.obj
 0001:000381e0       ?GetGroup@GroupPool@@QAEPAVGroup@@Vword@svutil@@@Z 004391e0 f i WorkThread.obj
 0001:00038280       ?GetNextSubID@GroupPool@@QAE?AVword@svutil@@V23@@Z 00439280 f i WorkThread.obj
 0001:00038350       ?PutSubGroup@GroupPool@@QAE_NVword@svutil@@0@Z 00439350 f i WorkThread.obj
 0001:000384a0       ?PutSubEntity@GroupPool@@QAE_NVword@svutil@@0@Z 004394a0 f i WorkThread.obj
 0001:000385f0       ?Find@GroupPool@@QAE_NVword@svutil@@@Z 004395f0 f i WorkThread.obj
 0001:00038650       ?DeleteSubEntityID@GroupPool@@QAE_NVword@svutil@@@Z 00439650 f i WorkThread.obj
 0001:000387b0       ?DeleteSubGroupID@GroupPool@@QAE_NVword@svutil@@@Z 004397b0 f i WorkThread.obj
 0001:00038910       ?GetNextSubID@EntityPool@@QAE?AVword@svutil@@V23@@Z 00439910 f i WorkThread.obj
 0001:000389e0       ?PutSubMonitor@EntityPool@@QAE_NVword@svutil@@0@Z 004399e0 f i WorkThread.obj
 0001:00038b30       ?DeleteSubMonitorID@EntityPool@@QAE_NVword@svutil@@@Z 00439b30 f i WorkThread.obj
 0001:00038c90       ?GetEntityGroup@EntityGroupPool@@QAE_NVword@svutil@@PADAAI@Z 00439c90 f i WorkThread.obj
 0001:00038d80       ?GetEntityTemplet@EntityTempletPool@@QAE_NVword@svutil@@PADAAI@Z 00439d80 f i WorkThread.obj
 0001:00038e70       ?InsertIntoStdMap@SvdbMain@@QAEXV?$basic_string@DU?$char_traits@D@std@@V?$allocator@D@2@@std@@PAVDB@@@Z 00439e70 f i WorkThread.obj
 0001:00038f30       ??1?$pair@V?$basic_string@DU?$char_traits@D@std@@V?$allocator@D@2@@std@@V?$list@Viterator@?$list@VSingelRecord@@V?$allocator@VSingelRecord@@@std@@@std@@V?$allocator@Viterator@?$list@VSingelRecord@@V?$allocator@VSingelRecord@@@std@@@std@@@3@@2@@std@@QAE@XZ 00439f30 f i WorkThread.obj
 0001:00038f30       ??1?$pair@$$CBV?$basic_string@DU?$char_traits@D@std@@V?$allocator@D@2@@std@@V?$list@Viterator@?$list@VSingelRecord@@V?$allocator@VSingelRecord@@@std@@@std@@V?$allocator@Viterator@?$list@VSingelRecord@@V?$allocator@VSingelRecord@@@std@@@std@@@3@@2@@std@@QAE@XZ 00439f30 f i WorkThread.obj
 0001:00038f60       ?erase@?$_Tree@V?$_Tmap_traits@IIU?$less@I@std@@V?$allocator@U?$pair@$$CBII@std@@@2@$0A@@std@@@std@@QAEIABI@Z 00439f60 f i WorkThread.obj
 0001:00038fc0       ?erase@?$hashtable@Vword@svutil@@PAVEntityGroup@@@svutil@@QAE_NABVword@2@@Z 00439fc0 f i WorkThread.obj
 0001:00039060       ?erase@?$hashtable@Vword@svutil@@PAVEntityTemplet@@@svutil@@QAE_NABVword@2@@Z 0043a060 f i WorkThread.obj
 0001:00039100       ?erase@?$hashtable@Vword@svutil@@PAVGeneralPool@@@svutil@@QAE_NABVword@2@@Z 0043a100 f i WorkThread.obj
 0001:000391a0       ??0?$list@Viterator@?$list@VSingelRecord@@V?$allocator@VSingelRecord@@@std@@@std@@V?$allocator@Viterator@?$list@VSingelRecord@@V?$allocator@VSingelRecord@@@std@@@std@@@3@@std@@QAE@ABV01@@Z 0043a1a0 f i WorkThread.obj
 0001:00039220       ??0?$pair@$$CBV?$basic_string@DU?$char_traits@D@std@@V?$allocator@D@2@@std@@V?$list@Viterator@?$list@VSingelRecord@@V?$allocator@VSingelRecord@@@std@@@std@@V?$allocator@Viterator@?$list@VSingelRecord@@V?$allocator@VSingelRecord@@@std@@@std@@@3@@2@@std@@QAE@ABU01@@Z 0043a220 f i WorkThread.obj
 0001:00039280       ??1_Node@?$_Tree_nod@V?$_Tmap_traits@V?$basic_string@DU?$char_traits@D@std@@V?$allocator@D@2@@std@@V?$list@Viterator@?$list@VSingelRecord@@V?$allocator@VSingelRecord@@@std@@@std@@V?$allocator@Viterator@?$list@VSingelRecord@@V?$allocator@VSingelRecord@@@std@@@std@@@3@@2@U?$less@V?$basic_string@DU?$char_traits@D@std@@V?$allocator@D@2@@std@@@2@V?$allocator@U?$pair@$$CBV?$basic_string@DU?$char_traits@D@std@@V?$allocator@D@2@@std@@V?$list@Viterator@?$list@VSingelRecord@@V?$allocator@VSingelRecord@@@std@@@std@@V?$allocator@Viterator@?$list@VSingelRecord@@V?$allocator@VSingelRecord@@@std@@@std@@@3@@2@@std@@@2@$0A@@std@@@std@@QAE@XZ 0043a280 f i WorkThread.obj
 0001:000392b0       ?push@SVSEPool@@QAE_NPAVSVSE@@@Z 0043a2b0 f i WorkThread.obj
 0001:00039410       ?PushData@SVSEPool@@QAE_NPBDI@Z 0043a410 f i WorkThread.obj
 0001:000394e0       ?DeleteSVSED@SVSEPool@@QAE_NI@Z 0043a4e0 f i WorkThread.obj
 0001:00039550       ?Delete@Section@@QAE_NVword@svutil@@@Z 0043a550 f i WorkThread.obj
 0001:00039640       ?DeleteKey@GeneralPool@@QAE_NVword@svutil@@0@Z 0043a640 f i WorkThread.obj
 0001:00039760       ?DeleteSection@GeneralPool@@QAE_NVword@svutil@@@Z 0043a760 f i WorkThread.obj
 0001:00039870       ?DeleteEntityGroup@EntityGroupPool@@QAE_NVword@svutil@@@Z 0043a870 f i WorkThread.obj
 0001:00039960       ?DeleteEntityTemplet@EntityTempletPool@@QAE_NVword@svutil@@@Z 0043a960 f i WorkThread.obj
 0001:00039a50       ?GetInfoByProperty@EntityTempletPool@@QAE_NV?$basic_string@DU?$char_traits@D@std@@V?$allocator@D@2@@std@@0AAV?$list@V?$basic_string@DU?$char_traits@D@std@@V?$allocator@D@2@@std@@V?$allocator@V?$basic_string@DU?$char_traits@D@std@@V?$allocator@D@2@@std@@@2@@3@@Z 0043aa50 f i WorkThread.obj
 0001:00039bd0       ?GetInfoByKey@EntityPoolEx@@QAE_NV?$basic_string@DU?$char_traits@D@std@@V?$allocator@D@2@@std@@0AAV?$list@V?$basic_string@DU?$char_traits@D@std@@V?$allocator@D@2@@std@@V?$allocator@V?$basic_string@DU?$char_traits@D@std@@V?$allocator@D@2@@std@@@2@@3@@Z 0043abd0 f i WorkThread.obj
 0001:00039e60       ?GetInfoByKey@TopologyChartPool@@QAE_NV?$basic_string@DU?$char_traits@D@std@@V?$allocator@D@2@@std@@0AAV?$list@V?$basic_string@DU?$char_traits@D@std@@V?$allocator@D@2@@std@@V?$allocator@V?$basic_string@DU?$char_traits@D@std@@V?$allocator@D@2@@std@@@2@@3@@Z 0043ae60 f i WorkThread.obj
 0001:0003a0b0       ?GetInfoByKey@VirtualGroupPool@@QAE_NV?$basic_string@DU?$char_traits@D@std@@V?$allocator@D@2@@std@@0AAV?$list@V?$basic_string@DU?$char_traits@D@std@@V?$allocator@D@2@@std@@V?$allocator@V?$basic_string@DU?$char_traits@D@std@@V?$allocator@D@2@@std@@@2@@3@@Z 0043b0b0 f i WorkThread.obj
 0001:0003a2d0       ?insert@?$hashtable@Vword@svutil@@PAVGeneralPool@@@svutil@@QAEAAPAVGeneralPool@@ABVword@2@ABQAV3@@Z 0043b2d0 f i WorkThread.obj
 0001:0003a3c0       ?erase@?$_Tree@V?$_Tmap_traits@V?$basic_string@DU?$char_traits@D@std@@V?$allocator@D@2@@std@@VTTime@svutil@@U?$less@V?$basic_string@DU?$char_traits@D@std@@V?$allocator@D@2@@std@@@2@V?$allocator@U?$pair@$$CBV?$basic_string@DU?$char_traits@D@std@@V?$allocator@D@2@@std@@VTTime@svutil@@@std@@@2@$0A@@std@@@std@@QAE?AViterator@12@V312@0@Z 0043b3c0 f i WorkThread.obj
 0001:0003a480       ??$make_pair@V?$basic_string@DU?$char_traits@D@std@@V?$allocator@D@2@@std@@V?$list@Viterator@?$list@VSingelRecord@@V?$allocator@VSingelRecord@@@std@@@std@@V?$allocator@Viterator@?$list@VSingelRecord@@V?$allocator@VSingelRecord@@@std@@@std@@@3@@2@@std@@YA?AU?$pair@V?$basic_string@DU?$char_traits@D@std@@V?$allocator@D@2@@std@@V?$list@Viterator@?$list@VSingelRecord@@V?$allocator@VSingelRecord@@@std@@@std@@V?$allocator@Viterator@?$list@VSingelRecord@@V?$allocator@VSingelRecord@@@std@@@std@@@3@@2@@0@V?$basic_string@DU?$char_traits@D@std@@V?$allocator@D@2@@0@V?$list@Viterator@?$list@VSingelRecord@@V?$allocator@VSingelRecord@@@std@@@std@@V?$allocator@Viterator@?$list@VSingelRecord@@V?$allocator@VSingelRecord@@@std@@@std@@@3@@0@@Z 0043b480 f i WorkThread.obj
 0001:0003a520       ?GetInfo@ResourcePool@@QAE_NVword@svutil@@AAVStringMap@@@Z 0043b520 f i WorkThread.obj
 0001:0003a600       ?GetInfo@MonitorPool@@QAE_NVword@svutil@@V?$basic_string@DU?$char_traits@D@std@@V?$allocator@D@2@@std@@AAVStringMap@@@Z 0043b600 f i WorkThread.obj
 0001:0003a900       ?GetInfoBySE@MonitorPool@@QAE_NHVword@svutil@@AAVStringMap@@@Z 0043b900 f i WorkThread.obj
 0001:0003aad0       ?GetInfo@SVSEPool@@QAE_NVword@svutil@@AAVStringMap@@@Z 0043bad0 f i WorkThread.obj
 0001:0003ad20       ?GetInfo@GroupPool@@QAE_NVword@svutil@@V?$basic_string@DU?$char_traits@D@std@@V?$allocator@D@2@@std@@AAVStringMap@@@Z 0043bd20 f i WorkThread.obj
 0001:0003b030       ?GetInfo@EntityPool@@QAE_NVword@svutil@@V?$basic_string@DU?$char_traits@D@std@@V?$allocator@D@2@@std@@AAVStringMap@@@Z 0043c030 f i WorkThread.obj
 0001:0003b340       ?GetInfo@EntityGroupPool@@QAE_NVword@svutil@@AAVStringMap@@@Z 0043c340 f i WorkThread.obj
 0001:0003b480       ?GetInfo@EntityTempletPool@@QAE_NVword@svutil@@AAVStringMap@@@Z 0043c480 f i WorkThread.obj
 0001:0003b5c0       ?GetInfo@EntityPoolEx@@QAE_NVword@svutil@@AAVStringMap@@@Z 0043c5c0 f i WorkThread.obj
 0001:0003b720       ?GetInfoByProperty@EntityPoolEx@@QAE_NV?$basic_string@DU?$char_traits@D@std@@V?$allocator@D@2@@std@@0AAV?$list@V?$basic_string@DU?$char_traits@D@std@@V?$allocator@D@2@@std@@V?$allocator@V?$basic_string@DU?$char_traits@D@std@@V?$allocator@D@2@@std@@@2@@3@@Z 0043c720 f i WorkThread.obj
 0001:0003b910       ?GetInfo@TopologyChartPool@@QAE_NVword@svutil@@AAVStringMap@@@Z 0043c910 f i WorkThread.obj
 0001:0003ba70       ?GetInfoByProperty@TopologyChartPool@@QAE_NV?$basic_string@DU?$char_traits@D@std@@V?$allocator@D@2@@std@@0AAV?$list@V?$basic_string@DU?$char_traits@D@std@@V?$allocator@D@2@@std@@V?$allocator@V?$basic_string@DU?$char_traits@D@std@@V?$allocator@D@2@@std@@@2@@3@@Z 0043ca70 f i WorkThread.obj
 0001:0003bc60       ?GetInfo@VirtualGroupPool@@QAE_NVword@svutil@@AAVStringMap@@@Z 0043cc60 f i WorkThread.obj
 0001:0003bdc0       ?GetInfoByProperty@VirtualGroupPool@@QAE_NV?$basic_string@DU?$char_traits@D@std@@V?$allocator@D@2@@std@@0AAV?$list@V?$basic_string@DU?$char_traits@D@std@@V?$allocator@D@2@@std@@V?$allocator@V?$basic_string@DU?$char_traits@D@std@@V?$allocator@D@2@@std@@@2@@3@@Z 0043cdc0 f i WorkThread.obj
 0001:0003bfb0       ?ProcessMonitor@WorkThread@@IAEXXZ 0043cfb0 f   WorkThread.obj
 0001:0003c9e0       ?ProcessEntity@WorkThread@@IAEXXZ 0043d9e0 f   WorkThread.obj
 0001:0003d5a0       ?ProcessResource@WorkThread@@IAEXXZ 0043e5a0 f   WorkThread.obj
 0001:0003daf0       ?ProcessSVSE@WorkThread@@IAEXXZ 0043eaf0 f   WorkThread.obj
 0001:0003e010       ?ProcessQueueQuery@WorkThread@@IAEXXZ 0043f010 f   WorkThread.obj
 0001:0003e660       ?ProcessEntityEx@WorkThread@@IAEXXZ 0043f660 f   WorkThread.obj
 0001:0003ecd0       ?ProcessTopologyChart@WorkThread@@IAEXXZ 0043fcd0 f   WorkThread.obj
 0001:0003f340       ?ProcessVirtualGroup@WorkThread@@IAEXXZ 00440340 f   WorkThread.obj
 0001:0003f980       ?GetProperSeId@WorkThread@@AAE?AV?$basic_string@DU?$char_traits@D@std@@V?$allocator@D@2@@std@@XZ 00440980 f   WorkThread.obj
 0001:0003fbb0       ??A?$hashtable@Vword@svutil@@PAVGeneralPool@@@svutil@@QAEAAPAVGeneralPool@@ABVword@1@@Z 00440bb0 f i WorkThread.obj
 0001:0003fbe0       ?_Buynode@?$_Tree@V?$_Tmap_traits@V?$basic_string@DU?$char_traits@D@std@@V?$allocator@D@2@@std@@V?$list@Viterator@?$list@VSingelRecord@@V?$allocator@VSingelRecord@@@std@@@std@@V?$allocator@Viterator@?$list@VSingelRecord@@V?$allocator@VSingelRecord@@@std@@@std@@@3@@2@U?$less@V?$basic_string@DU?$char_traits@D@std@@V?$allocator@D@2@@std@@@2@V?$allocator@U?$pair@$$CBV?$basic_string@DU?$char_traits@D@std@@V?$allocator@D@2@@std@@V?$list@Viterator@?$list@VSingelRecord@@V?$allocator@VSingelRecord@@@std@@@std@@V?$allocator@Viterator@?$list@VSingelRecord@@V?$allocator@VSingelRecord@@@std@@@std@@@3@@2@@std@@@2@$0A@@std@@@std@@IAEPAU_Node@?$_Tree_nod@V?$_Tmap_traits@V?$basic_string@DU?$char_traits@D@std@@V?$allocator@D@2@@std@@V?$list@Viterator@?$list@VSingelRecord@@V?$allocator@VSingelRecord@@@std@@@std@@V?$allocator@Viterator@?$list@VSingelRecord@@V?$allocator@VSingelRecord@@@std@@@std@@@3@@2@U?$less@V?$basic_string@DU?$char_traits@D@std@@V?$allocator@D@2@@std@@@2@V?$allocator@U?$pair@$$CBV?$basic_string@DU?$char_traits@D@std@@V?$allocator@D@2@@std@@V?$list@Viterator@?$list@VSingelRecord@@V?$allocator@VSingelRecord@@@std@@@std@@V?$allocator@Viterator@?$list@VSingelRecord@@V?$allocator@VSingelRecord@@@std@@@std@@@3@@2@@std@@@2@$0A@@std@@@2@PAU342@00ABU?$pair@$$CBV?$basic_string@DU?$char_traits@D@std@@V?$allocator@D@2@@std@@V?$list@Viterator@?$list@VSingelRecord@@V?$allocator@VSingelRecord@@@std@@@std@@V?$allocator@Viterator@?$list@VSingelRecord@@V?$allocator@VSingelRecord@@@std@@@std@@@3@@2@@2@D@Z 00440be0 f i WorkThread.obj
 0001:0003fc80       ?GetSection@GeneralPool@@QAE_NVword@svutil@@PADAAI@Z 00440c80 f i WorkThread.obj
 0001:0003fd90       ?Push@GeneralPool@@QAE_NPAVSection@@@Z 00440d90 f i WorkThread.obj
 0001:0003ff50       ?Push@GeneralPool@@QAE_NPBDIAAV?$basic_string@DU?$char_traits@D@std@@V?$allocator@D@2@@std@@@Z 00440f50 f i WorkThread.obj
 0001:00040090       ?ProcessTask@WorkThread@@IAEXXZ 00441090 f   WorkThread.obj
 0001:00040670       ?ProcessIniFile@WorkThread@@IAEXXZ 00441670 f   WorkThread.obj
 0001:00041790       ?_Insert@?$_Tree@V?$_Tmap_traits@V?$basic_string@DU?$char_traits@D@std@@V?$allocator@D@2@@std@@V?$list@Viterator@?$list@VSingelRecord@@V?$allocator@VSingelRecord@@@std@@@std@@V?$allocator@Viterator@?$list@VSingelRecord@@V?$allocator@VSingelRecord@@@std@@@std@@@3@@2@U?$less@V?$basic_string@DU?$char_traits@D@std@@V?$allocator@D@2@@std@@@2@V?$allocator@U?$pair@$$CBV?$basic_string@DU?$char_traits@D@std@@V?$allocator@D@2@@std@@V?$list@Viterator@?$list@VSingelRecord@@V?$allocator@VSingelRecord@@@std@@@std@@V?$allocator@Viterator@?$list@VSingelRecord@@V?$allocator@VSingelRecord@@@std@@@std@@@3@@2@@std@@@2@$0A@@std@@@std@@IAE?AViterator@12@_NPAU_Node@?$_Tree_nod@V?$_Tmap_traits@V?$basic_string@DU?$char_traits@D@std@@V?$allocator@D@2@@std@@V?$list@Viterator@?$list@VSingelRecord@@V?$allocator@VSingelRecord@@@std@@@std@@V?$allocator@Viterator@?$list@VSingelRecord@@V?$allocator@VSingelRecord@@@std@@@std@@@3@@2@U?$less@V?$basic_string@DU?$char_traits@D@std@@V?$allocator@D@2@@std@@@2@V?$allocator@U?$pair@$$CBV?$basic_string@DU?$char_traits@D@std@@V?$allocator@D@2@@std@@V?$list@Viterator@?$list@VSingelRecord@@V?$allocator@VSingelRecord@@@std@@@std@@V?$allocator@Viterator@?$list@VSingelRecord@@V?$allocator@VSingelRecord@@@std@@@std@@@3@@2@@std@@@2@$0A@@std@@@2@ABU?$pair@$$CBV?$basic_string@DU?$char_traits@D@std@@V?$allocator@D@2@@std@@V?$list@Viterator@?$list@VSingelRecord@@V?$allocator@VSingelRecord@@@std@@@std@@V?$allocator@Viterator@?$list@VSingelRecord@@V?$allocator@VSingelRecord@@@std@@@std@@@3@@2@@2@@Z 00442790 f i WorkThread.obj
 0001:00041950       ?GetThenClearAllIds@ResourcePool@@QAEXAAV?$map@V?$basic_string@DU?$char_traits@D@std@@V?$allocator@D@2@@std@@V12@U?$less@V?$basic_string@DU?$char_traits@D@std@@V?$allocator@D@2@@std@@@2@V?$allocator@U?$pair@$$CBV?$basic_string@DU?$char_traits@D@std@@V?$allocator@D@2@@std@@V12@@std@@@2@@std@@@Z 00442950 f i WorkThread.obj
 0001:000419f0       ?ProcessMonitorTemplet@WorkThread@@IAEXXZ 004429f0 f   WorkThread.obj
 0001:00041df0       ?ProcessEntityGroup@WorkThread@@IAEXXZ 00442df0 f   WorkThread.obj
 0001:000421c0       ?ProcessEntityTemplet@WorkThread@@IAEXXZ 004431c0 f   WorkThread.obj
 0001:00042730       ?CopyIniFile@WorkThread@@AAE_NV?$basic_string@DU?$char_traits@D@std@@V?$allocator@D@2@@std@@0@Z 00443730 f   WorkThread.obj
 0001:00042fe0       ??1?$map@V?$basic_string@DU?$char_traits@D@std@@V?$allocator@D@2@@std@@VTTime@svutil@@U?$less@V?$basic_string@DU?$char_traits@D@std@@V?$allocator@D@2@@std@@@2@V?$allocator@U?$pair@$$CBV?$basic_string@DU?$char_traits@D@std@@V?$allocator@D@2@@std@@VTTime@svutil@@@std@@@2@@std@@QAE@XZ 00443fe0 f i WorkThread.obj
 0001:00043010       ?insert@?$_Tree@V?$_Tmap_traits@V?$basic_string@DU?$char_traits@D@std@@V?$allocator@D@2@@std@@V?$list@Viterator@?$list@VSingelRecord@@V?$allocator@VSingelRecord@@@std@@@std@@V?$allocator@Viterator@?$list@VSingelRecord@@V?$allocator@VSingelRecord@@@std@@@std@@@3@@2@U?$less@V?$basic_string@DU?$char_traits@D@std@@V?$allocator@D@2@@std@@@2@V?$allocator@U?$pair@$$CBV?$basic_string@DU?$char_traits@D@std@@V?$allocator@D@2@@std@@V?$list@Viterator@?$list@VSingelRecord@@V?$allocator@VSingelRecord@@@std@@@std@@V?$allocator@Viterator@?$list@VSingelRecord@@V?$allocator@VSingelRecord@@@std@@@std@@@3@@2@@std@@@2@$0A@@std@@@std@@QAE?AU?$pair@Viterator@?$_Tree@V?$_Tmap_traits@V?$basic_string@DU?$char_traits@D@std@@V?$allocator@D@2@@std@@V?$list@Viterator@?$list@VSingelRecord@@V?$allocator@VSingelRecord@@@std@@@std@@V?$allocator@Viterator@?$list@VSingelRecord@@V?$allocator@VSingelRecord@@@std@@@std@@@3@@2@U?$less@V?$basic_string@DU?$char_traits@D@std@@V?$allocator@D@2@@std@@@2@V?$allocator@U?$pair@$$CBV?$basic_string@DU?$char_traits@D@std@@V?$allocator@D@2@@std@@V?$list@Viterator@?$list@VSingelRecord@@V?$allocator@VSingelRecord@@@std@@@std@@V?$allocator@Viterator@?$list@VSingelRecord@@V?$allocator@VSingelRecord@@@std@@@std@@@3@@2@@std@@@2@$0A@@std@@@std@@_N@2@ABU?$pair@$$CBV?$basic_string@DU?$char_traits@D@std@@V?$allocator@D@2@@std@@V?$list@Viterator@?$list@VSingelRecord@@V?$allocator@VSingelRecord@@@std@@@std@@V?$allocator@Viterator@?$list@VSingelRecord@@V?$allocator@VSingelRecord@@@std@@@std@@@3@@2@@2@@Z 00444010 f i WorkThread.obj
 0001:000430f0       ?erase@?$_Tree@V?$_Tmap_traits@V?$basic_string@DU?$char_traits@D@std@@V?$allocator@D@2@@std@@V?$list@Viterator@?$list@VSingelRecord@@V?$allocator@VSingelRecord@@@std@@@std@@V?$allocator@Viterator@?$list@VSingelRecord@@V?$allocator@VSingelRecord@@@std@@@std@@@3@@2@U?$less@V?$basic_string@DU?$char_traits@D@std@@V?$allocator@D@2@@std@@@2@V?$allocator@U?$pair@$$CBV?$basic_string@DU?$char_traits@D@std@@V?$allocator@D@2@@std@@V?$list@Viterator@?$list@VSingelRecord@@V?$allocator@VSingelRecord@@@std@@@std@@V?$allocator@Viterator@?$list@VSingelRecord@@V?$allocator@VSingelRecord@@@std@@@std@@@3@@2@@std@@@2@$0A@@std@@@std@@QAE?AViterator@12@V312@@Z 004440f0 f i WorkThread.obj
 0001:00043410       ?_Erase@?$_Tree@V?$_Tmap_traits@V?$basic_string@DU?$char_traits@D@std@@V?$allocator@D@2@@std@@V?$list@Viterator@?$list@VSingelRecord@@V?$allocator@VSingelRecord@@@std@@@std@@V?$allocator@Viterator@?$list@VSingelRecord@@V?$allocator@VSingelRecord@@@std@@@std@@@3@@2@U?$less@V?$basic_string@DU?$char_traits@D@std@@V?$allocator@D@2@@std@@@2@V?$allocator@U?$pair@$$CBV?$basic_string@DU?$char_traits@D@std@@V?$allocator@D@2@@std@@V?$list@Viterator@?$list@VSingelRecord@@V?$allocator@VSingelRecord@@@std@@@std@@V?$allocator@Viterator@?$list@VSingelRecord@@V?$allocator@VSingelRecord@@@std@@@std@@@3@@2@@std@@@2@$0A@@std@@@std@@IAEXPAU_Node@?$_Tree_nod@V?$_Tmap_traits@V?$basic_string@DU?$char_traits@D@std@@V?$allocator@D@2@@std@@V?$list@Viterator@?$list@VSingelRecord@@V?$allocator@VSingelRecord@@@std@@@std@@V?$allocator@Viterator@?$list@VSingelRecord@@V?$allocator@VSingelRecord@@@std@@@std@@@3@@2@U?$less@V?$basic_string@DU?$char_traits@D@std@@V?$allocator@D@2@@std@@@2@V?$allocator@U?$pair@$$CBV?$basic_string@DU?$char_traits@D@std@@V?$allocator@D@2@@std@@V?$list@Viterator@?$list@VSingelRecord@@V?$allocator@VSingelRecord@@@std@@@std@@V?$allocator@Viterator@?$list@VSingelRecord@@V?$allocator@VSingelRecord@@@std@@@std@@@3@@2@@std@@@2@$0A@@std@@@2@@Z 00444410 f i WorkThread.obj
 0001:00043450       ?ProcessGroup@WorkThread@@IAEXXZ 00444450 f   WorkThread.obj
 0001:00044360       ?QueryMassDyn@WorkThread@@AAEHV?$basic_string@DU?$char_traits@D@std@@V?$allocator@D@2@@std@@PBDIAAV?$list@VSingelRecord@@V?$allocator@VSingelRecord@@@std@@@3@@Z 00445360 f   WorkThread.obj
 0001:000447a0       ?erase@?$_Tree@V?$_Tmap_traits@V?$basic_string@DU?$char_traits@D@std@@V?$allocator@D@2@@std@@V?$list@Viterator@?$list@VSingelRecord@@V?$allocator@VSingelRecord@@@std@@@std@@V?$allocator@Viterator@?$list@VSingelRecord@@V?$allocator@VSingelRecord@@@std@@@std@@@3@@2@U?$less@V?$basic_string@DU?$char_traits@D@std@@V?$allocator@D@2@@std@@@2@V?$allocator@U?$pair@$$CBV?$basic_string@DU?$char_traits@D@std@@V?$allocator@D@2@@std@@V?$list@Viterator@?$list@VSingelRecord@@V?$allocator@VSingelRecord@@@std@@@std@@V?$allocator@Viterator@?$list@VSingelRecord@@V?$allocator@VSingelRecord@@@std@@@std@@@3@@2@@std@@@2@$0A@@std@@@std@@QAE?AViterator@12@V312@0@Z 004457a0 f i WorkThread.obj
 0001:00044860       ??1?$map@V?$basic_string@DU?$char_traits@D@std@@V?$allocator@D@2@@std@@V?$list@Viterator@?$list@VSingelRecord@@V?$allocator@VSingelRecord@@@std@@@std@@V?$allocator@Viterator@?$list@VSingelRecord@@V?$allocator@VSingelRecord@@@std@@@std@@@3@@2@U?$less@V?$basic_string@DU?$char_traits@D@std@@V?$allocator@D@2@@std@@@2@V?$allocator@U?$pair@$$CBV?$basic_string@DU?$char_traits@D@std@@V?$allocator@D@2@@std@@V?$list@Viterator@?$list@VSingelRecord@@V?$allocator@VSingelRecord@@@std@@@std@@V?$allocator@Viterator@?$list@VSingelRecord@@V?$allocator@VSingelRecord@@@std@@@std@@@3@@2@@std@@@2@@std@@QAE@XZ 00445860 f i WorkThread.obj
 0001:00044890       ?AppendMassRecord@WorkThread@@AAEHPBDI@Z 00445890 f   WorkThread.obj
 0001:00045100       ?ProcessDBQuery@WorkThread@@IAEXXZ 00446100 f   WorkThread.obj
 0001:00045d60       ?ParseQuery@WorkThread@@IAEXXZ 00446d60 f   WorkThread.obj
 0001:00045e10       ?RunByPipe@WorkThread@@IAEXXZ 00446e10 f   WorkThread.obj
 0001:00045f50       ?RunBySocket@WorkThread@@IAEXXZ 00446f50 f   WorkThread.obj
 0001:00046040       ?run@WorkThread@@UAEXXZ    00447040 f   WorkThread.obj
 0001:00046150       ??0Edge@@QAE@XZ            00447150 f   Edge.obj
 0001:000461e0       ??1Edge@@QAE@XZ            004471e0 f   Edge.obj
 0001:00046270       ?GetRawDataSize@Edge@@UAEIXZ 00447270 f   Edge.obj
 0001:000462c0       ?GetRawData@Edge@@UAEPADPADI@Z 004472c0 f   Edge.obj
 0001:000463b0       ?CreateObjectByRawData@Edge@@UAEHPBDI@Z 004473b0 f   Edge.obj
 0001:000464c0       ?RomoveNode@?$sorttree@V?$hashelement@Vword@svutil@@PAVPort@@@svutil@@@svutil@@QAEXABV?$hashelement@Vword@svutil@@PAVPort@@@2@@Z 004474c0 f i EntityEx.obj
 0001:00046660       ??1?$hashnode@Vword@svutil@@PAVPort@@@svutil@@QAE@XZ 00447660 f i EntityEx.obj
 0001:000466f0       ?size@?$hashtable@Vword@svutil@@PAVPort@@@svutil@@QAEIXZ 004476f0 f i EntityEx.obj
 0001:00046790       ?clearnodes@?$hashtable@Vword@svutil@@PAVPort@@@svutil@@IAEXXZ 00447790 f i EntityEx.obj
 0001:00046800       ?erase@?$hashnode@Vword@svutil@@PAVPort@@@svutil@@QAE_NABVword@2@@Z 00447800 f i EntityEx.obj
 0001:00046910       ??1?$hashtable@Vword@svutil@@PAVPort@@@svutil@@QAE@XZ 00447910 f i EntityEx.obj
 0001:00046970       ?erase@?$hashtable@Vword@svutil@@PAVPort@@@svutil@@QAE_NABVword@2@@Z 00447970 f i EntityEx.obj
 0001:00046a10       ??1EntityEx@@QAE@XZ        00447a10 f   EntityEx.obj
 0001:00046b80       ?GetRawDataSize@EntityEx@@QAEIXZ 00447b80 f   EntityEx.obj
 0001:00046d80       ?GetRawData@EntityEx@@QAEPADPADI@Z 00447d80 f   EntityEx.obj
 0001:00047010       ??0?$hashtable@Vword@svutil@@PAVPort@@@svutil@@QAE@XZ 00448010 f i EntityEx.obj
 0001:00047060       ??0EntityEx@@QAE@XZ        00448060 f   EntityEx.obj
 0001:00047120       ?CreateObjectByRawData@EntityEx@@QAEHPBDI@Z 00448120 f   EntityEx.obj
 0001:00047420       ?GetIdentifier@EntityEx@@QBE?AVword@svutil@@XZ 00448420 f i EntityPoolEx.obj
 0001:00047440       ?Load@EntityPoolEx@@UAE_NXZ 00448440 f   EntityPoolEx.obj
 0001:00047540       ?Submit@EntityPoolEx@@UAE_NXZ 00448540 f   EntityPoolEx.obj
 0001:00047670       ??1?$treenode@V?$hashelement@Vword@svutil@@PAVEntityEx@@@svutil@@@svutil@@UAE@XZ 00448670 f i EntityPoolEx.obj
 0001:00047690       ??_G?$treenode@V?$hashelement@Vword@svutil@@PAVEntityEx@@@svutil@@@svutil@@UAEPAXI@Z 00448690 f i EntityPoolEx.obj
 0001:00047690       ??_E?$treenode@V?$hashelement@Vword@svutil@@PAVEntityEx@@@svutil@@@svutil@@UAEPAXI@Z 00448690 f i EntityPoolEx.obj
 0001:000476b0       ?_Xlen@?$vector@PAV?$hashnode@Vword@svutil@@PAVEntityEx@@@svutil@@V?$allocator@PAV?$hashnode@Vword@svutil@@PAVEntityEx@@@svutil@@@std@@@std@@IBEXXZ 004486b0 f i EntityPoolEx.obj
 0001:00047730       ??0?$hashelement@Vword@svutil@@PAVEntityEx@@@svutil@@QAE@ABVword@1@ABQAVEntityEx@@@Z 00448730 f i EntityPoolEx.obj
 0001:000477a0       ??M?$treenode@V?$hashelement@Vword@svutil@@PAVEntityEx@@@svutil@@@svutil@@QAE_NV01@@Z 004487a0 f i EntityPoolEx.obj
 0001:00047810       ??O?$treenode@V?$hashelement@Vword@svutil@@PAVEntityEx@@@svutil@@@svutil@@QAE_NV01@@Z 00448810 f i EntityPoolEx.obj
 0001:00047880       ??0?$treenode@V?$hashelement@Vword@svutil@@PAVEntityEx@@@svutil@@@svutil@@QAE@ABV01@@Z 00448880 f i EntityPoolEx.obj
 0001:00047900       ??0?$treenode@V?$hashelement@Vword@svutil@@PAVEntityEx@@@svutil@@@svutil@@QAE@ABV?$hashelement@Vword@svutil@@PAVEntityEx@@@1@@Z 00448900 f i EntityPoolEx.obj
 0001:00047980       ?DeleteTree@?$sorttree@V?$hashelement@Vword@svutil@@PAVEntityEx@@@svutil@@@svutil@@QAEXPAV?$treenode@V?$hashelement@Vword@svutil@@PAVEntityEx@@@svutil@@@2@@Z 00448980 f i EntityPoolEx.obj
 0001:000479d0       ?RomoveNode@?$sorttree@V?$hashelement@Vword@svutil@@PAVEntityEx@@@svutil@@@svutil@@QAEXABV?$hashelement@Vword@svutil@@PAVEntityEx@@@2@@Z 004489d0 f i EntityPoolEx.obj
 0001:00047b70       ?InsertNode@?$sorttree@V?$hashelement@Vword@svutil@@PAVEntityEx@@@svutil@@@svutil@@QAEXPAV?$treenode@V?$hashelement@Vword@svutil@@PAVEntityEx@@@svutil@@@2@0@Z 00448b70 f i EntityPoolEx.obj
 0001:00047c00       ??$CreateNode@V?$hashelement@Vword@svutil@@PAVEntityEx@@@svutil@@@?$sorttree@V?$hashelement@Vword@svutil@@PAVEntityEx@@@svutil@@@svutil@@SAPAV?$treenode@V?$hashelement@Vword@svutil@@PAVEntityEx@@@svutil@@@1@ABV?$hashelement@Vword@svutil@@PAVEntityEx@@@1@@Z 00448c00 f i EntityPoolEx.obj
 0001:00047c60       ??_G?$sorttree@V?$hashelement@Vword@svutil@@PAVEntityEx@@@svutil@@@svutil@@UAEPAXI@Z 00448c60 f i EntityPoolEx.obj
 0001:00047c60       ??_E?$sorttree@V?$hashelement@Vword@svutil@@PAVEntityEx@@@svutil@@@svutil@@UAEPAXI@Z 00448c60 f i EntityPoolEx.obj
 0001:00047cc0       ?InsertNodeEx@?$sorttree@V?$hashelement@Vword@svutil@@PAVEntityEx@@@svutil@@@svutil@@QAEAAV?$hashelement@Vword@svutil@@PAVEntityEx@@@2@ABV32@@Z 00448cc0 f i EntityPoolEx.obj
 0001:00047d50       ??1?$hashnode@Vword@svutil@@PAVEntityEx@@@svutil@@QAE@XZ 00448d50 f i EntityPoolEx.obj
 0001:00047de0       ?insert@?$hashnode@Vword@svutil@@PAVEntityEx@@@svutil@@QAEAAV?$hashelement@Vword@svutil@@PAVEntityEx@@@2@ABVword@2@ABQAVEntityEx@@@Z 00448de0 f i EntityPoolEx.obj
 0001:00047ec0       ?size@?$hashtable@Vword@svutil@@PAVEntityEx@@@svutil@@QAEIXZ 00448ec0 f i EntityPoolEx.obj
 0001:00047f60       ?clearnodes@?$hashtable@Vword@svutil@@PAVEntityEx@@@svutil@@IAEXXZ 00448f60 f i EntityPoolEx.obj
 0001:00047fd0       ?erase@?$hashnode@Vword@svutil@@PAVEntityEx@@@svutil@@QAE_NABVword@2@@Z 00448fd0 f i EntityPoolEx.obj
 0001:000480e0       ?_Insert_n@?$vector@PAV?$hashnode@Vword@svutil@@PAVEntityEx@@@svutil@@V?$allocator@PAV?$hashnode@Vword@svutil@@PAVEntityEx@@@svutil@@@std@@@std@@IAEXViterator@12@IABQAV?$hashnode@Vword@svutil@@PAVEntityEx@@@svutil@@@Z 004490e0 f i EntityPoolEx.obj
 0001:000482d0       ?GetEntityExData@EntityPoolEx@@QAE_NVword@svutil@@PADAAI@Z 004492d0 f   EntityPoolEx.obj
 0001:000483c0       ??1?$hashtable@Vword@svutil@@PAVEntityEx@@@svutil@@QAE@XZ 004493c0 f i EntityPoolEx.obj
 0001:00048420       ?erase@?$hashtable@Vword@svutil@@PAVEntityEx@@@svutil@@QAE_NABVword@2@@Z 00449420 f i EntityPoolEx.obj
 0001:000484c0       ?resize@?$vector@PAV?$hashnode@Vword@svutil@@PAVEntityEx@@@svutil@@V?$allocator@PAV?$hashnode@Vword@svutil@@PAVEntityEx@@@svutil@@@std@@@std@@QAEXIPAV?$hashnode@Vword@svutil@@PAVEntityEx@@@svutil@@@Z 004494c0 f i EntityPoolEx.obj
 0001:00048550       ?GetRawDataSize@EntityPoolEx@@UAEIXZ 00449550 f   EntityPoolEx.obj
 0001:000485b0       ?GetRawData@EntityPoolEx@@UAEPADPADI@Z 004495b0 f   EntityPoolEx.obj
 0001:00048730       ?DeleteEntityEx@EntityPoolEx@@QAE_NVword@svutil@@@Z 00449730 f   EntityPoolEx.obj
 0001:00048820       ??0?$hashtable@Vword@svutil@@PAVEntityEx@@@svutil@@QAE@XZ 00449820 f i EntityPoolEx.obj
 0001:00048870       ?insert@?$hashtable@Vword@svutil@@PAVEntityEx@@@svutil@@QAEAAPAVEntityEx@@ABVword@2@ABQAV3@@Z 00449870 f i EntityPoolEx.obj
 0001:00048960       ??0EntityPoolEx@@QAE@Vword@svutil@@@Z 00449960 f   EntityPoolEx.obj
 0001:00048a30       ?CreateObjectByRawData@EntityPoolEx@@UAEHPBDI@Z 00449a30 f   EntityPoolEx.obj
 0001:00048bd0       ?push@EntityPoolEx@@QAE_NPAVEntityEx@@@Z 00449bd0 f   EntityPoolEx.obj
 0001:00048d40       ?PushData@EntityPoolEx@@QAE_NPBDI@Z 00449d40 f   EntityPoolEx.obj
 0001:00048e10       ??0EntityRelation@@QAE@XZ  00449e10 f   EntityRelation.obj
 0001:00048ea0       ??1EntityRelation@@QAE@XZ  00449ea0 f   EntityRelation.obj
 0001:00048f40       ?GetRawDataSize@EntityRelation@@UAEIXZ 00449f40 f   EntityRelation.obj
 0001:00048fb0       ?GetRawData@EntityRelation@@UAEPADPADI@Z 00449fb0 f   EntityRelation.obj
 0001:00049120       ?CreateObjectByRawData@EntityRelation@@UAEHPBDI@Z 0044a120 f   EntityRelation.obj
 0001:00049280       ??0Port@@QAE@XZ            0044a280 f   Port.obj
 0001:00049310       ??1Port@@QAE@XZ            0044a310 f   Port.obj
 0001:000493a0       ?GetRawDataSize@Port@@UAEIXZ 0044a3a0 f   Port.obj
 0001:00049450       ?GetRawData@Port@@UAEPADPADI@Z 0044a450 f   Port.obj
 0001:00049590       ?CreateObjectByRawData@Port@@UAEHPBDI@Z 0044a590 f   Port.obj
 0001:000496d0       ?_Buynode@?$list@Viterator@?$list@VSingelRecord@@V?$allocator@VSingelRecord@@@std@@@std@@V?$allocator@Viterator@?$list@VSingelRecord@@V?$allocator@VSingelRecord@@@std@@@std@@@3@@std@@IAEPAU_Node@?$_List_nod@Viterator@?$list@VSingelRecord@@V?$allocator@VSingelRecord@@@std@@@std@@V?$allocator@Viterator@?$list@VSingelRecord@@V?$allocator@VSingelRecord@@@std@@@std@@@3@@2@XZ 0044a6d0 f i WorkThread.obj
 0001:000496d0       ?_Buynode@?$list@PAVEdge@@V?$allocator@PAVEdge@@@std@@@std@@IAEPAU_Node@?$_List_nod@PAVEdge@@V?$allocator@PAVEdge@@@std@@@2@XZ 0044a6d0 f i TopologyChart.obj
 0001:000496d0       ?_Buynode@?$list@PAVThreadEx@@V?$allocator@PAVThreadEx@@@std@@@std@@IAEPAU_Node@?$_List_nod@PAVThreadEx@@V?$allocator@PAVThreadEx@@@std@@@2@XZ 0044a6d0 f i ThreadContrl.obj
 0001:000496d0       ?_Buynode@?$list@HV?$allocator@H@std@@@std@@IAEPAU_Node@?$_List_nod@HV?$allocator@H@std@@@2@XZ 0044a6d0 f i EntityTemplet.obj
 0001:000496d0       ?_Buynode@?$list@PAVStringMap@@V?$allocator@PAVStringMap@@@std@@@std@@IAEPAU_Node@?$_List_nod@PAVStringMap@@V?$allocator@PAVStringMap@@@std@@@2@XZ 0044a6d0 f i DB.obj
 0001:000496d0       ?_Buynode@?$list@PAVEntityRelation@@V?$allocator@PAVEntityRelation@@@std@@@std@@IAEPAU_Node@?$_List_nod@PAVEntityRelation@@V?$allocator@PAVEntityRelation@@@std@@@2@XZ 0044a6d0 f i EntityEx.obj
 0001:000496d0       ?_Buynode@?$list@PAVPage@@V?$allocator@PAVPage@@@std@@@std@@IAEPAU_Node@?$_List_nod@PAVPage@@V?$allocator@PAVPage@@@std@@@2@XZ 0044a6d0 f i PagePool.obj
 0001:000496f0       ?GetRawData@TopologyChart@@UAEPADPADI@Z 0044a6f0 f   TopologyChart.obj
 0001:000498c0       ??1TopologyChart@@QAE@XZ   0044a8c0 f   TopologyChart.obj
 0001:000499b0       ?GetRawDataSize@TopologyChart@@UAEIXZ 0044a9b0 f   TopologyChart.obj
 0001:00049ab0       ??0TopologyChart@@QAE@XZ   0044aab0 f   TopologyChart.obj
 0001:00049b50       ?CreateObjectByRawData@TopologyChart@@UAEHPBDI@Z 0044ab50 f   TopologyChart.obj
 0001:00049d20       ?Load@TopologyChartPool@@UAE_NXZ 0044ad20 f   TopologyChartPool.obj
 0001:00049e20       ?Submit@TopologyChartPool@@UAE_NXZ 0044ae20 f   TopologyChartPool.obj
 0001:00049f50       ??1?$treenode@V?$hashelement@Vword@svutil@@PAVTopologyChart@@@svutil@@@svutil@@UAE@XZ 0044af50 f i TopologyChartPool.obj
 0001:00049f70       ??_E?$treenode@V?$hashelement@Vword@svutil@@PAVTopologyChart@@@svutil@@@svutil@@UAEPAXI@Z 0044af70 f i TopologyChartPool.obj
 0001:00049f70       ??_G?$treenode@V?$hashelement@Vword@svutil@@PAVTopologyChart@@@svutil@@@svutil@@UAEPAXI@Z 0044af70 f i TopologyChartPool.obj
 0001:00049f90       ?_Xlen@?$vector@PAV?$hashnode@Vword@svutil@@PAVTopologyChart@@@svutil@@V?$allocator@PAV?$hashnode@Vword@svutil@@PAVTopologyChart@@@svutil@@@std@@@std@@IBEXXZ 0044af90 f i TopologyChartPool.obj
 0001:0004a010       ??0?$hashelement@Vword@svutil@@PAVTopologyChart@@@svutil@@QAE@ABVword@1@ABQAVTopologyChart@@@Z 0044b010 f i TopologyChartPool.obj
 0001:0004a080       ??M?$treenode@V?$hashelement@Vword@svutil@@PAVTopologyChart@@@svutil@@@svutil@@QAE_NV01@@Z 0044b080 f i TopologyChartPool.obj
 0001:0004a0f0       ??O?$treenode@V?$hashelement@Vword@svutil@@PAVTopologyChart@@@svutil@@@svutil@@QAE_NV01@@Z 0044b0f0 f i TopologyChartPool.obj
 0001:0004a160       ??0?$treenode@V?$hashelement@Vword@svutil@@PAVTopologyChart@@@svutil@@@svutil@@QAE@ABV01@@Z 0044b160 f i TopologyChartPool.obj
 0001:0004a1e0       ??0?$treenode@V?$hashelement@Vword@svutil@@PAVTopologyChart@@@svutil@@@svutil@@QAE@ABV?$hashelement@Vword@svutil@@PAVTopologyChart@@@1@@Z 0044b1e0 f i TopologyChartPool.obj
 0001:0004a260       ?DeleteTree@?$sorttree@V?$hashelement@Vword@svutil@@PAVTopologyChart@@@svutil@@@svutil@@QAEXPAV?$treenode@V?$hashelement@Vword@svutil@@PAVTopologyChart@@@svutil@@@2@@Z 0044b260 f i TopologyChartPool.obj
 0001:0004a2b0       ?RomoveNode@?$sorttree@V?$hashelement@Vword@svutil@@PAVTopologyChart@@@svutil@@@svutil@@QAEXABV?$hashelement@Vword@svutil@@PAVTopologyChart@@@2@@Z 0044b2b0 f i TopologyChartPool.obj
 0001:0004a450       ?InsertNode@?$sorttree@V?$hashelement@Vword@svutil@@PAVTopologyChart@@@svutil@@@svutil@@QAEXPAV?$treenode@V?$hashelement@Vword@svutil@@PAVTopologyChart@@@svutil@@@2@0@Z 0044b450 f i TopologyChartPool.obj
 0001:0004a4e0       ??$CreateNode@V?$hashelement@Vword@svutil@@PAVTopologyChart@@@svutil@@@?$sorttree@V?$hashelement@Vword@svutil@@PAVTopologyChart@@@svutil@@@svutil@@SAPAV?$treenode@V?$hashelement@Vword@svutil@@PAVTopologyChart@@@svutil@@@1@ABV?$hashelement@Vword@svutil@@PAVTopologyChart@@@1@@Z 0044b4e0 f i TopologyChartPool.obj
 0001:0004a540       ??_E?$sorttree@V?$hashelement@Vword@svutil@@PAVTopologyChart@@@svutil@@@svutil@@UAEPAXI@Z 0044b540 f i TopologyChartPool.obj
 0001:0004a540       ??_G?$sorttree@V?$hashelement@Vword@svutil@@PAVTopologyChart@@@svutil@@@svutil@@UAEPAXI@Z 0044b540 f i TopologyChartPool.obj
 0001:0004a5a0       ?InsertNodeEx@?$sorttree@V?$hashelement@Vword@svutil@@PAVTopologyChart@@@svutil@@@svutil@@QAEAAV?$hashelement@Vword@svutil@@PAVTopologyChart@@@2@ABV32@@Z 0044b5a0 f i TopologyChartPool.obj
 0001:0004a630       ??1?$hashnode@Vword@svutil@@PAVTopologyChart@@@svutil@@QAE@XZ 0044b630 f i TopologyChartPool.obj
 0001:0004a6c0       ?insert@?$hashnode@Vword@svutil@@PAVTopologyChart@@@svutil@@QAEAAV?$hashelement@Vword@svutil@@PAVTopologyChart@@@2@ABVword@2@ABQAVTopologyChart@@@Z 0044b6c0 f i TopologyChartPool.obj
 0001:0004a7a0       ?size@?$hashtable@Vword@svutil@@PAVTopologyChart@@@svutil@@QAEIXZ 0044b7a0 f i TopologyChartPool.obj
 0001:0004a840       ?clearnodes@?$hashtable@Vword@svutil@@PAVTopologyChart@@@svutil@@IAEXXZ 0044b840 f i TopologyChartPool.obj
 0001:0004a8b0       ?erase@?$hashnode@Vword@svutil@@PAVTopologyChart@@@svutil@@QAE_NABVword@2@@Z 0044b8b0 f i TopologyChartPool.obj
 0001:0004a9c0       ?_Insert_n@?$vector@PAV?$hashnode@Vword@svutil@@PAVTopologyChart@@@svutil@@V?$allocator@PAV?$hashnode@Vword@svutil@@PAVTopologyChart@@@svutil@@@std@@@std@@IAEXViterator@12@IABQAV?$hashnode@Vword@svutil@@PAVTopologyChart@@@svutil@@@Z 0044b9c0 f i TopologyChartPool.obj
 0001:0004abb0       ?GetTopologyChartData@TopologyChartPool@@QAE_NVword@svutil@@PADAAI@Z 0044bbb0 f   TopologyChartPool.obj
 0001:0004aca0       ??1?$hashtable@Vword@svutil@@PAVTopologyChart@@@svutil@@QAE@XZ 0044bca0 f i TopologyChartPool.obj
 0001:0004ad00       ?erase@?$hashtable@Vword@svutil@@PAVTopologyChart@@@svutil@@QAE_NABVword@2@@Z 0044bd00 f i TopologyChartPool.obj
 0001:0004ada0       ?resize@?$vector@PAV?$hashnode@Vword@svutil@@PAVTopologyChart@@@svutil@@V?$allocator@PAV?$hashnode@Vword@svutil@@PAVTopologyChart@@@svutil@@@std@@@std@@QAEXIPAV?$hashnode@Vword@svutil@@PAVTopologyChart@@@svutil@@@Z 0044bda0 f i TopologyChartPool.obj
 0001:0004ae30       ?GetRawDataSize@TopologyChartPool@@UAEIXZ 0044be30 f   TopologyChartPool.obj
 0001:0004ae90       ?GetRawData@TopologyChartPool@@UAEPADPADI@Z 0044be90 f   TopologyChartPool.obj
 0001:0004b010       ?DeleteTopologyChart@TopologyChartPool@@QAE_NVword@svutil@@@Z 0044c010 f   TopologyChartPool.obj
 0001:0004b100       ??0?$hashtable@Vword@svutil@@PAVTopologyChart@@@svutil@@QAE@XZ 0044c100 f i TopologyChartPool.obj
 0001:0004b150       ?insert@?$hashtable@Vword@svutil@@PAVTopologyChart@@@svutil@@QAEAAPAVTopologyChart@@ABVword@2@ABQAV3@@Z 0044c150 f i TopologyChartPool.obj
 0001:0004b240       ??0TopologyChartPool@@QAE@Vword@svutil@@@Z 0044c240 f   TopologyChartPool.obj
 0001:0004b300       ?CreateObjectByRawData@TopologyChartPool@@UAEHPBDI@Z 0044c300 f   TopologyChartPool.obj
 0001:0004b490       ?push@TopologyChartPool@@QAE_NPAVTopologyChart@@@Z 0044c490 f   TopologyChartPool.obj
 0001:0004b600       ?PushData@TopologyChartPool@@QAE_NPBDI@Z 0044c600 f   TopologyChartPool.obj
 0001:0004b6d0       ?GetRawDataSize@VirtualGroup@@UAEIXZ 0044c6d0 f   VirtualGroup.obj
 0001:0004b750       ?GetRawData@VirtualGroup@@UAEPADPADI@Z 0044c750 f   VirtualGroup.obj
 0001:0004b8d0       ?CreateObjectByRawData@VirtualGroup@@UAEHPBDI@Z 0044c8d0 f   VirtualGroup.obj
 0001:0004bac0       ??0VirtualGroup@@QAE@XZ    0044cac0 f   VirtualGroup.obj
 0001:0004bb70       ??1VirtualGroup@@QAE@XZ    0044cb70 f   VirtualGroup.obj
 0001:0004bc10       ?Load@VirtualGroupPool@@UAE_NXZ 0044cc10 f   VirtualGroupPool.obj
 0001:0004bd10       ?Submit@VirtualGroupPool@@UAE_NXZ 0044cd10 f   VirtualGroupPool.obj
 0001:0004be40       ??1?$treenode@V?$hashelement@Vword@svutil@@PAVVirtualGroup@@@svutil@@@svutil@@UAE@XZ 0044ce40 f i VirtualGroupPool.obj
 0001:0004be60       ??_G?$treenode@V?$hashelement@Vword@svutil@@PAVVirtualGroup@@@svutil@@@svutil@@UAEPAXI@Z 0044ce60 f i VirtualGroupPool.obj
 0001:0004be60       ??_E?$treenode@V?$hashelement@Vword@svutil@@PAVVirtualGroup@@@svutil@@@svutil@@UAEPAXI@Z 0044ce60 f i VirtualGroupPool.obj
 0001:0004be80       ?_Xlen@?$vector@PAV?$hashnode@Vword@svutil@@PAVVirtualGroup@@@svutil@@V?$allocator@PAV?$hashnode@Vword@svutil@@PAVVirtualGroup@@@svutil@@@std@@@std@@IBEXXZ 0044ce80 f i VirtualGroupPool.obj
 0001:0004bf00       ??0?$hashelement@Vword@svutil@@PAVVirtualGroup@@@svutil@@QAE@ABVword@1@ABQAVVirtualGroup@@@Z 0044cf00 f i VirtualGroupPool.obj
 0001:0004bf70       ??M?$treenode@V?$hashelement@Vword@svutil@@PAVVirtualGroup@@@svutil@@@svutil@@QAE_NV01@@Z 0044cf70 f i VirtualGroupPool.obj
 0001:0004bfe0       ??O?$treenode@V?$hashelement@Vword@svutil@@PAVVirtualGroup@@@svutil@@@svutil@@QAE_NV01@@Z 0044cfe0 f i VirtualGroupPool.obj
 0001:0004c050       ??0?$treenode@V?$hashelement@Vword@svutil@@PAVVirtualGroup@@@svutil@@@svutil@@QAE@ABV01@@Z 0044d050 f i VirtualGroupPool.obj
 0001:0004c0d0       ??0?$treenode@V?$hashelement@Vword@svutil@@PAVVirtualGroup@@@svutil@@@svutil@@QAE@ABV?$hashelement@Vword@svutil@@PAVVirtualGroup@@@1@@Z 0044d0d0 f i VirtualGroupPool.obj
 0001:0004c150       ?DeleteTree@?$sorttree@V?$hashelement@Vword@svutil@@PAVVirtualGroup@@@svutil@@@svutil@@QAEXPAV?$treenode@V?$hashelement@Vword@svutil@@PAVVirtualGroup@@@svutil@@@2@@Z 0044d150 f i VirtualGroupPool.obj
 0001:0004c1a0       ?RomoveNode@?$sorttree@V?$hashelement@Vword@svutil@@PAVVirtualGroup@@@svutil@@@svutil@@QAEXABV?$hashelement@Vword@svutil@@PAVVirtualGroup@@@2@@Z 0044d1a0 f i VirtualGroupPool.obj
 0001:0004c340       ?InsertNode@?$sorttree@V?$hashelement@Vword@svutil@@PAVVirtualGroup@@@svutil@@@svutil@@QAEXPAV?$treenode@V?$hashelement@Vword@svutil@@PAVVirtualGroup@@@svutil@@@2@0@Z 0044d340 f i VirtualGroupPool.obj
 0001:0004c3d0       ??$CreateNode@V?$hashelement@Vword@svutil@@PAVVirtualGroup@@@svutil@@@?$sorttree@V?$hashelement@Vword@svutil@@PAVVirtualGroup@@@svutil@@@svutil@@SAPAV?$treenode@V?$hashelement@Vword@svutil@@PAVVirtualGroup@@@svutil@@@1@ABV?$hashelement@Vword@svutil@@PAVVirtualGroup@@@1@@Z 0044d3d0 f i VirtualGroupPool.obj
 0001:0004c430       ??_E?$sorttree@V?$hashelement@Vword@svutil@@PAVVirtualGroup@@@svutil@@@svutil@@UAEPAXI@Z 0044d430 f i VirtualGroupPool.obj
 0001:0004c430       ??_G?$sorttree@V?$hashelement@Vword@svutil@@PAVVirtualGroup@@@svutil@@@svutil@@UAEPAXI@Z 0044d430 f i VirtualGroupPool.obj
 0001:0004c490       ?InsertNodeEx@?$sorttree@V?$hashelement@Vword@svutil@@PAVVirtualGroup@@@svutil@@@svutil@@QAEAAV?$hashelement@Vword@svutil@@PAVVirtualGroup@@@2@ABV32@@Z 0044d490 f i VirtualGroupPool.obj
 0001:0004c520       ??1?$hashnode@Vword@svutil@@PAVVirtualGroup@@@svutil@@QAE@XZ 0044d520 f i VirtualGroupPool.obj
 0001:0004c5b0       ?insert@?$hashnode@Vword@svutil@@PAVVirtualGroup@@@svutil@@QAEAAV?$hashelement@Vword@svutil@@PAVVirtualGroup@@@2@ABVword@2@ABQAVVirtualGroup@@@Z 0044d5b0 f i VirtualGroupPool.obj
 0001:0004c690       ?size@?$hashtable@Vword@svutil@@PAVVirtualGroup@@@svutil@@QAEIXZ 0044d690 f i VirtualGroupPool.obj
 0001:0004c730       ?clearnodes@?$hashtable@Vword@svutil@@PAVVirtualGroup@@@svutil@@IAEXXZ 0044d730 f i VirtualGroupPool.obj
 0001:0004c7a0       ?erase@?$hashnode@Vword@svutil@@PAVVirtualGroup@@@svutil@@QAE_NABVword@2@@Z 0044d7a0 f i VirtualGroupPool.obj
 0001:0004c8b0       ?_Insert_n@?$vector@PAV?$hashnode@Vword@svutil@@PAVVirtualGroup@@@svutil@@V?$allocator@PAV?$hashnode@Vword@svutil@@PAVVirtualGroup@@@svutil@@@std@@@std@@IAEXViterator@12@IABQAV?$hashnode@Vword@svutil@@PAVVirtualGroup@@@svutil@@@Z 0044d8b0 f i VirtualGroupPool.obj
 0001:0004caa0       ?GetVirtualGroupData@VirtualGroupPool@@QAE_NVword@svutil@@PADAAI@Z 0044daa0 f   VirtualGroupPool.obj
 0001:0004cb90       ??1?$hashtable@Vword@svutil@@PAVVirtualGroup@@@svutil@@QAE@XZ 0044db90 f i VirtualGroupPool.obj
 0001:0004cbf0       ?erase@?$hashtable@Vword@svutil@@PAVVirtualGroup@@@svutil@@QAE_NABVword@2@@Z 0044dbf0 f i VirtualGroupPool.obj
 0001:0004cc90       ?resize@?$vector@PAV?$hashnode@Vword@svutil@@PAVVirtualGroup@@@svutil@@V?$allocator@PAV?$hashnode@Vword@svutil@@PAVVirtualGroup@@@svutil@@@std@@@std@@QAEXIPAV?$hashnode@Vword@svutil@@PAVVirtualGroup@@@svutil@@@Z 0044dc90 f i VirtualGroupPool.obj
 0001:0004cd20       ?GetRawDataSize@VirtualGroupPool@@UAEIXZ 0044dd20 f   VirtualGroupPool.obj
 0001:0004cd80       ?GetRawData@VirtualGroupPool@@UAEPADPADI@Z 0044dd80 f   VirtualGroupPool.obj
 0001:0004cee0       ?DeleteVirtualGroup@VirtualGroupPool@@QAE_NVword@svutil@@@Z 0044dee0 f   VirtualGroupPool.obj
 0001:0004cfd0       ??0?$hashtable@Vword@svutil@@PAVVirtualGroup@@@svutil@@QAE@XZ 0044dfd0 f i VirtualGroupPool.obj
 0001:0004d020       ?insert@?$hashtable@Vword@svutil@@PAVVirtualGroup@@@svutil@@QAEAAPAVVirtualGroup@@ABVword@2@ABQAV3@@Z 0044e020 f i VirtualGroupPool.obj
 0001:0004d110       ??0VirtualGroupPool@@QAE@Vword@svutil@@@Z 0044e110 f   VirtualGroupPool.obj
 0001:0004d1d0       ?CreateObjectByRawData@VirtualGroupPool@@UAEHPBDI@Z 0044e1d0 f   VirtualGroupPool.obj
 0001:0004d350       ?push@VirtualGroupPool@@QAE_NPAVVirtualGroup@@@Z 0044e350 f   VirtualGroupPool.obj
 0001:0004d4c0       ?PushData@VirtualGroupPool@@QAE_NPBDI@Z 0044e4c0 f   VirtualGroupPool.obj
 0001:0004d590       ??0word@svutil@@QAE@PBD@Z  0044e590 f   libutil:strkey.obj
 0001:0004d620       ??0word@svutil@@QAE@ABV01@@Z 0044e620 f   libutil:strkey.obj
 0001:0004d6b0       ??0word@svutil@@QAE@ABV?$basic_string@DU?$char_traits@D@std@@V?$allocator@D@2@@std@@@Z 0044e6b0 f   libutil:strkey.obj
 0001:0004d750       ??4word@svutil@@QAEAAV01@PBD@Z 0044e750 f   libutil:strkey.obj
 0001:0004d7f0       ??4word@svutil@@QAEAAV01@ABV01@@Z 0044e7f0 f   libutil:strkey.obj
 0001:0004d8a0       ??8word@svutil@@QBE_NABV01@@Z 0044e8a0 f   libutil:strkey.obj
 0001:0004d910       ??Mword@svutil@@QBE_NABV01@@Z 0044e910 f   libutil:strkey.obj
 0001:0004da20       ??Oword@svutil@@QBE_NABV01@@Z 0044ea20 f   libutil:strkey.obj
 0001:0004db30       ??0buffer@svutil@@QAE@XZ   0044eb30 f   libutil:buffer.obj
 0001:0004db70       ??1buffer@svutil@@QAE@XZ   0044eb70 f   libutil:buffer.obj
 0001:0004dbd0       ?checksize@buffer@svutil@@QAE_NI@Z 0044ebd0 f   libutil:buffer.obj
 0001:0004dcb0       ?clearbuffer@buffer@svutil@@QAEXXZ 0044ecb0 f   libutil:buffer.obj
 0001:0004dd20       ?resetsize@buffer@svutil@@QAE_NI@Z 0044ed20 f   libutil:buffer.obj
 0001:0004de0c       ?isPending@Socket@ost@@UAE_NW4Pending@12@K@Z 0044ee0c f   ccgnu2:ccgnu2.dll
 0001:0004de12       ?writeData@Socket@ost@@MAEHPBXIK@Z 0044ee12 f   ccgnu2:ccgnu2.dll
 0001:0004de18       ?readData@Socket@ost@@MAEHPAXIDK@Z 0044ee18 f   ccgnu2:ccgnu2.dll
 0001:0004de1e       ?isPending@SimpleTCPStream@ost@@UAE_NW4Pending@Socket@2@K@Z 0044ee1e f   ccgnu2:ccgnu2.dll
 0001:0004de24       ?notify@Thread@ost@@MAEXPAV12@@Z 0044ee24 f   ccgnu2:ccgnu2.dll
 0001:0004de2a       ?getExtended@Thread@ost@@MAEPAXXZ 0044ee2a f   ccgnu2:ccgnu2.dll
 0001:0004de30       ?initial@Thread@ost@@MAEXXZ 0044ee30 f   ccgnu2:ccgnu2.dll
 0001:0004de36       ?final@Thread@ost@@MAEXXZ  0044ee36 f   ccgnu2:ccgnu2.dll
 0001:0004de3c       ??2@YAPAXI@Z               0044ee3c f   msvcprt:newop_s.obj
 0001:0004de61       ??_U@YAPAXI@Z              0044ee61 f   msvcprt:newaop_s.obj
 0001:0004de66       ___CxxFrameHandler         0044ee66 f   MSVCRT:MSVCR71.dll
 0001:0004de70       ??3@YAXPAX@Z               0044ee70 f   MSVCRT:MSVCR71.dll
 0001:0004de76       ??0exception@@QAE@ABV0@@Z  0044ee76 f   MSVCRT:MSVCR71.dll
 0001:0004de7c       ??_Etype_info@@UAEPAXI@Z   0044ee7c f i MSVCRT:ti_inst.obj
 0001:0004dec8       __CxxThrowException@8      0044eec8 f   MSVCRT:MSVCR71.dll
 0001:0004deff       @__security_check_cookie@4 0044eeff f   MSVCRT:secchk.obj
 0001:0004df0e       __purecall                 0044ef0e f   MSVCRT:MSVCR71.dll
 0001:0004df14       ??_V@YAXPAX@Z              0044ef14 f   MSVCRT:MSVCR71.dll
 0001:0004df1a       ?__ArrayUnwind@@YGXPAXIHP6EX0@Z@Z 0044ef1a f   MSVCRT:ehvecdtr.obj
 0001:0004df78       ??_M@YGXPAXIHP6EX0@Z@Z     0044ef78 f   MSVCRT:ehvecdtr.obj
 0001:0004dfd8       ??_L@YGXPAXIHP6EX0@Z1@Z    0044efd8 f   MSVCRT:ehvecctr.obj
 0001:0004e040       __chkstk                   0044f040 f   MSVCRT:chkstk.obj
 0001:0004e040       __alloca_probe             0044f040     MSVCRT:chkstk.obj
 0001:0004e07d       __onexit                   0044f07d f   MSVCRT:atonexit.obj
 0001:0004e0a3       _atexit                    0044f0a3 f   MSVCRT:atonexit.obj
 0001:0004e0b5       _mainCRTStartup            0044f0b5 f   MSVCRT:crtexe.obj
 0001:0004e24d       __RTC_CheckEsp             0044f24d f   MSVCRT:stack.obj
 0001:0004e270       __RTC_InitBase             0044f270 f   MSVCRT:init.obj
 0001:0004e296       __RTC_Shutdown             0044f296 f   MSVCRT:init.obj
 0001:0004e2a8       _strcmp                    0044f2a8 f   MSVCRT:MSVCR71.dll
 0001:0004e2ae       _strlen                    0044f2ae f   MSVCRT:MSVCR71.dll
 0001:0004e2b4       _memset                    0044f2b4 f   MSVCRT:MSVCR71.dll
 0001:0004e2ba       _malloc                    0044f2ba f   MSVCRT:MSVCR71.dll
 0001:0004e2c0       __callnewh                 0044f2c0 f   MSVCRT:MSVCR71.dll
 0001:0004e2c6       ??1type_info@@UAE@XZ       0044f2c6 f   MSVCRT:MSVCR71.dll
 0001:0004e2cc       ___security_init_cookie    0044f2cc f   MSVCRT:seccinit.obj
 0001:0004e332       ___security_error_handler  0044f332 f   MSVCRT:MSVCR71.dll
 0001:0004e338       __SEH_prolog               0044f338 f   MSVCRT:sehprolg.obj
 0001:0004e373       __SEH_epilog               0044f373 f   MSVCRT:sehprolg.obj
 0001:0004e384       __except_handler3          0044f384 f   MSVCRT:MSVCR71.dll
 0001:0004e38a       ?terminate@@YAXXZ          0044f38a f   MSVCRT:MSVCR71.dll
 0001:0004e390       ___dllonexit               0044f390 f   MSVCRT:MSVCR71.dll
 0001:0004e396       __XcptFilter               0044f396 f   MSVCRT:MSVCR71.dll
 0001:0004e39c       __amsg_exit                0044f39c f   MSVCRT:MSVCR71.dll
 0001:0004e3a2       __RTC_Initialize           0044f3a2 f   MSVCRT:initsect.obj
 0001:0004e3e6       __RTC_Terminate            0044f3e6 f   MSVCRT:initsect.obj
 0001:0004e42a       __initterm                 0044f42a f   MSVCRT:MSVCR71.dll
 0001:0004e430       __setdefaultprecision      0044f430 f   MSVCRT:fp8.obj
 0001:0004e442       __matherr                  0044f442 f   MSVCRT:merr.obj
 0001:0004e442       __setargv                  0044f442 f   MSVCRT:dllargv.obj
 0001:0004e677       ?_RTC_Failure@@YAXPAXH@Z   0044f677 f   MSVCRT:error.obj
 0001:0004e6b5       __RTC_SetErrorFunc         0044f6b5 f   MSVCRT:userapi.obj
 0001:0004e6c5       ?_RTC_GetErrorFunc@@YAP6AHHPBDH00ZZPBX@Z 0044f6c5 f   MSVCRT:userapi.obj
 0001:0004e6cc       __CRT_RTC_INIT             0044f6cc f   MSVCRT:MSVCR71.dll
 0001:0004e6d2       __controlfp                0044f6d2 f   MSVCRT:MSVCR71.dll
 0001:0004eb61       ?_RTC_GetSrcLine@@YAHKPADHPAHPAPAD@Z 0044fb61 f   MSVCRT:pdblkup.obj
 0002:00000000       __imp__CreateServiceA@52   00456000     advapi32:ADVAPI32.dll
 0002:00000004       __imp__OpenSCManagerA@12   00456004     advapi32:ADVAPI32.dll
 0002:00000008       __imp__DeleteService@4     00456008     advapi32:ADVAPI32.dll
 0002:0000000c       __imp__OpenServiceA@12     0045600c     advapi32:ADVAPI32.dll
 0002:00000010       __imp__RegisterServiceCtrlHandlerA@8 00456010     advapi32:ADVAPI32.dll
 0002:00000014       __imp__StartServiceCtrlDispatcherA@4 00456014     advapi32:ADVAPI32.dll
 0002:00000018       __imp__RegCloseKey@4       00456018     advapi32:ADVAPI32.dll
 0002:0000001c       __imp__RegEnumValueA@32    0045601c     advapi32:ADVAPI32.dll
 0002:00000020       __imp__RegOpenKeyExA@20    00456020     advapi32:ADVAPI32.dll
 0002:00000024       __imp__SetServiceStatus@8  00456024     advapi32:ADVAPI32.dll
 0002:00000028       \177ADVAPI32_NULL_THUNK_DATA 00456028     advapi32:ADVAPI32.dll
 0002:0000002c       __imp__GetCurrentThreadId@0 0045602c     kernel32:KERNEL32.dll
 0002:00000030       __imp__GetSystemTimeAsFileTime@4 00456030     kernel32:KERNEL32.dll
 0002:00000034       __imp__GetModuleHandleA@4  00456034     kernel32:KERNEL32.dll
 0002:00000038       __imp__RaiseException@16   00456038     kernel32:KERNEL32.dll
 0002:0000003c       __imp__GetVersionExA@4     0045603c     kernel32:KERNEL32.dll
 0002:00000040       __imp__GetProcAddress@8    00456040     kernel32:KERNEL32.dll
 0002:00000044       __imp__LoadLibraryA@4      00456044     kernel32:KERNEL32.dll
 0002:00000048       __imp__DebugBreak@0        00456048     kernel32:KERNEL32.dll
 0002:0000004c       __imp__GetModuleFileNameA@12 0045604c     kernel32:KERNEL32.dll
 0002:00000050       __imp__HeapAlloc@12        00456050     kernel32:KERNEL32.dll
 0002:00000054       __imp__HeapFree@12         00456054     kernel32:KERNEL32.dll
 0002:00000058       __imp__GetProcessHeap@0    00456058     kernel32:KERNEL32.dll
 0002:0000005c       __imp__QueryPerformanceCounter@4 0045605c     kernel32:KERNEL32.dll
 0002:00000060       __imp__CopyFileA@12        00456060     kernel32:KERNEL32.dll
 0002:00000064       __imp__PeekNamedPipe@24    00456064     kernel32:KERNEL32.dll
 0002:00000068       __imp__CreateNamedPipeA@32 00456068     kernel32:KERNEL32.dll
 0002:0000006c       __imp__ConnectNamedPipe@8  0045606c     kernel32:KERNEL32.dll
 0002:00000070       __imp__DisconnectNamedPipe@4 00456070     kernel32:KERNEL32.dll
 0002:00000074       __imp__SetConsoleCtrlHandler@8 00456074     kernel32:KERNEL32.dll
 0002:00000078       __imp__ExitProcess@4       00456078     kernel32:KERNEL32.dll
 0002:0000007c       __imp__CreateEventA@16     0045607c     kernel32:KERNEL32.dll
 0002:00000080       __imp__SetLastError@4      00456080     kernel32:KERNEL32.dll
 0002:00000084       __imp__GetTickCount@0      00456084     kernel32:KERNEL32.dll
 0002:00000088       __imp__GetCurrentProcess@0 00456088     kernel32:KERNEL32.dll
 0002:0000008c       __imp__GetPriorityClass@4  0045608c     kernel32:KERNEL32.dll
 0002:00000090       __imp__SetPriorityClass@8  00456090     kernel32:KERNEL32.dll
 0002:00000094       __imp__GetCurrentThread@0  00456094     kernel32:KERNEL32.dll
 0002:00000098       __imp__SetThreadPriority@8 00456098     kernel32:KERNEL32.dll
 0002:0000009c       __imp__WaitForSingleObject@8 0045609c     kernel32:KERNEL32.dll
 0002:000000a0       __imp__CreateThread@24     004560a0     kernel32:KERNEL32.dll
 0002:000000a4       __imp__GetCurrentProcessId@0 004560a4     kernel32:KERNEL32.dll
 0002:000000a8       __imp__CreateProcessA@40   004560a8     kernel32:KERNEL32.dll
 0002:000000ac       __imp__Sleep@4             004560ac     kernel32:KERNEL32.dll
 0002:000000b0       __imp__WaitNamedPipeA@8    004560b0     kernel32:KERNEL32.dll
 0002:000000b4       __imp__SetEndOfFile@4      004560b4     kernel32:KERNEL32.dll
 0002:000000b8       __imp__CreateFileA@28      004560b8     kernel32:KERNEL32.dll
 0002:000000bc       __imp__FlushFileBuffers@4  004560bc     kernel32:KERNEL32.dll
 0002:000000c0       __imp__CloseHandle@4       004560c0     kernel32:KERNEL32.dll
 0002:000000c4       __imp__FreeLibrary@4       004560c4     kernel32:KERNEL32.dll
 0002:000000c8       __imp__WriteFile@20        004560c8     kernel32:KERNEL32.dll
 0002:000000cc       __imp__SetFilePointer@16   004560cc     kernel32:KERNEL32.dll
 0002:000000d0       __imp__ReadFile@20         004560d0     kernel32:KERNEL32.dll
 0002:000000d4       __imp__GetLastError@0      004560d4     kernel32:KERNEL32.dll
 0002:000000d8       \177KERNEL32_NULL_THUNK_DATA 004560d8     kernel32:KERNEL32.dll
 0002:000000dc       __imp_??_D?$basic_ofstream@DU?$char_traits@D@std@@@std@@QAEXXZ 004560dc     msvcprt:MSVCP71.dll
 0002:000000e0       __imp_??0?$basic_ofstream@DU?$char_traits@D@std@@@std@@QAE@PBDHH@Z 004560e0     msvcprt:MSVCP71.dll
 0002:000000e4       __imp_?rfind@?$basic_string@DU?$char_traits@D@std@@V?$allocator@D@2@@std@@QBEIPBDII@Z 004560e4     msvcprt:MSVCP71.dll
 0002:000000e8       __imp_?substr@?$basic_string@DU?$char_traits@D@std@@V?$allocator@D@2@@std@@QBE?AV12@II@Z 004560e8     msvcprt:MSVCP71.dll
 0002:000000ec       __imp_?clear@?$basic_string@DU?$char_traits@D@std@@V?$allocator@D@2@@std@@QAEXXZ 004560ec     msvcprt:MSVCP71.dll
 0002:000000f0       __imp_?c_str@?$basic_string@DU?$char_traits@D@std@@V?$allocator@D@2@@std@@QBEPBDXZ 004560f0     msvcprt:MSVCP71.dll
 0002:000000f4       __imp_?getline@?$basic_istream@DU?$char_traits@D@std@@@std@@QAEAAV12@PADH@Z 004560f4     msvcprt:MSVCP71.dll
 0002:000000f8       __imp_??0?$basic_fstream@DU?$char_traits@D@std@@@std@@QAE@PBDHH@Z 004560f8     msvcprt:MSVCP71.dll
 0002:000000fc       __imp_??_D?$basic_fstream@DU?$char_traits@D@std@@@std@@QAEXXZ 004560fc     msvcprt:MSVCP71.dll
 0002:00000100       __imp_?_Nomemory@std@@YAXXZ 00456100     msvcprt:MSVCP71.dll
 0002:00000104       __imp_??$?8DU?$char_traits@D@std@@V?$allocator@D@1@@std@@YA_NABV?$basic_string@DU?$char_traits@D@std@@V?$allocator@D@2@@0@PBD@Z 00456104     msvcprt:MSVCP71.dll
 0002:00000108       __imp_??0?$basic_string@DU?$char_traits@D@std@@V?$allocator@D@2@@std@@QAE@ABV01@@Z 00456108     msvcprt:MSVCP71.dll
 0002:0000010c       __imp_??1?$basic_string@DU?$char_traits@D@std@@V?$allocator@D@2@@std@@QAE@XZ 0045610c     msvcprt:MSVCP71.dll
 0002:00000110       __imp_??0?$basic_string@DU?$char_traits@D@std@@V?$allocator@D@2@@std@@QAE@PBD@Z 00456110     msvcprt:MSVCP71.dll
 0002:00000114       __imp_??4?$basic_string@DU?$char_traits@D@std@@V?$allocator@D@2@@std@@QAEAAV01@ABV01@@Z 00456114     msvcprt:MSVCP71.dll
 0002:00000118       __imp_?_Unlock@_Mutex@std@@QAEXXZ 00456118     msvcprt:MSVCP71.dll
 0002:0000011c       __imp_?_Lock@_Mutex@std@@QAEXXZ 0045611c     msvcprt:MSVCP71.dll
 0002:00000120       __imp_??$?MDU?$char_traits@D@std@@V?$allocator@D@1@@std@@YA_NABV?$basic_string@DU?$char_traits@D@std@@V?$allocator@D@2@@0@0@Z 00456120     msvcprt:MSVCP71.dll
 0002:00000124       __imp_??Y?$basic_string@DU?$char_traits@D@std@@V?$allocator@D@2@@std@@QAEAAV01@ABV01@@Z 00456124     msvcprt:MSVCP71.dll
 0002:00000128       __imp_??Y?$basic_string@DU?$char_traits@D@std@@V?$allocator@D@2@@std@@QAEAAV01@PBD@Z 00456128     msvcprt:MSVCP71.dll
 0002:0000012c       __imp_??Y?$basic_string@DU?$char_traits@D@std@@V?$allocator@D@2@@std@@QAEAAV01@D@Z 0045612c     msvcprt:MSVCP71.dll
 0002:00000130       __imp_?uncaught_exception@std@@YA_NXZ 00456130     msvcprt:MSVCP71.dll
 0002:00000134       __imp_?_Ipfx@?$basic_istream@DU?$char_traits@D@std@@@std@@QAE_N_N@Z 00456134     msvcprt:MSVCP71.dll
 0002:00000138       __imp_?flush@?$basic_ostream@DU?$char_traits@D@std@@@std@@QAEAAV12@XZ 00456138     msvcprt:MSVCP71.dll
 0002:0000013c       __imp_?_Osfx@?$basic_ostream@DU?$char_traits@D@std@@@std@@QAEXXZ 0045613c     msvcprt:MSVCP71.dll
 0002:00000140       __imp_?clear@ios_base@std@@QAEXH_N@Z 00456140     msvcprt:MSVCP71.dll
 0002:00000144       __imp_?snextc@?$basic_streambuf@DU?$char_traits@D@std@@@std@@QAEHXZ 00456144     msvcprt:MSVCP71.dll
 0002:00000148       __imp_?sgetc@?$basic_streambuf@DU?$char_traits@D@std@@@std@@QAEHXZ 00456148     msvcprt:MSVCP71.dll
 0002:0000014c       __imp_?max_size@?$basic_string@DU?$char_traits@D@std@@V?$allocator@D@2@@std@@QBEIXZ 0045614c     msvcprt:MSVCP71.dll
 0002:00000150       __imp_?erase@?$basic_string@DU?$char_traits@D@std@@V?$allocator@D@2@@std@@QAEAAV12@II@Z 00456150     msvcprt:MSVCP71.dll
 0002:00000154       __imp_?npos@?$basic_string@DU?$char_traits@D@std@@V?$allocator@D@2@@std@@2IB 00456154     msvcprt:MSVCP71.dll
 0002:00000158       __imp_?sbumpc@?$basic_streambuf@DU?$char_traits@D@std@@@std@@QAEHXZ 00456158     msvcprt:MSVCP71.dll
 0002:0000015c       __imp_?sputc@?$basic_streambuf@DU?$char_traits@D@std@@@std@@QAEHD@Z 0045615c     msvcprt:MSVCP71.dll
 0002:00000160       __imp_?widen@?$basic_ios@DU?$char_traits@D@std@@@std@@QBEDD@Z 00456160     msvcprt:MSVCP71.dll
 0002:00000164       __imp_??6?$basic_ostream@DU?$char_traits@D@std@@@std@@QAEAAV01@P6AAAV01@AAV01@@Z@Z 00456164     msvcprt:MSVCP71.dll
 0002:00000168       __imp_??$?6U?$char_traits@D@std@@@std@@YAAAV?$basic_ostream@DU?$char_traits@D@std@@@0@AAV10@PBD@Z 00456168     msvcprt:MSVCP71.dll
 0002:0000016c       __imp_?cout@std@@3V?$basic_ostream@DU?$char_traits@D@std@@@1@A 0045616c     msvcprt:MSVCP71.dll
 0002:00000170       __imp_?endl@std@@YAAAV?$basic_ostream@DU?$char_traits@D@std@@@1@AAV21@@Z 00456170     msvcprt:MSVCP71.dll
 0002:00000174       __imp_?find@?$basic_string@DU?$char_traits@D@std@@V?$allocator@D@2@@std@@QBEIPBDII@Z 00456174     msvcprt:MSVCP71.dll
 0002:00000178       __imp_??4?$basic_string@DU?$char_traits@D@std@@V?$allocator@D@2@@std@@QAEAAV01@PBD@Z 00456178     msvcprt:MSVCP71.dll
 0002:0000017c       __imp_??0?$basic_string@DU?$char_traits@D@std@@V?$allocator@D@2@@std@@QAE@XZ 0045617c     msvcprt:MSVCP71.dll
 0002:00000180       __imp_?compare@?$basic_string@DU?$char_traits@D@std@@V?$allocator@D@2@@std@@QBEHABV12@@Z 00456180     msvcprt:MSVCP71.dll
 0002:00000184       __imp_?compare@?$basic_string@DU?$char_traits@D@std@@V?$allocator@D@2@@std@@QBEHIIPBDI@Z 00456184     msvcprt:MSVCP71.dll
 0002:00000188       __imp_??6?$basic_ostream@DU?$char_traits@D@std@@@std@@QAEAAV01@I@Z 00456188     msvcprt:MSVCP71.dll
 0002:0000018c       __imp_??$?9DU?$char_traits@D@std@@V?$allocator@D@1@@std@@YA_NABV?$basic_string@DU?$char_traits@D@std@@V?$allocator@D@2@@0@PBD@Z 0045618c     msvcprt:MSVCP71.dll
 0002:00000190       __imp_??$?9DU?$char_traits@D@std@@V?$allocator@D@1@@std@@YA_NABV?$basic_string@DU?$char_traits@D@std@@V?$allocator@D@2@@0@0@Z 00456190     msvcprt:MSVCP71.dll
 0002:00000194       __imp_??_D?$basic_ostringstream@DU?$char_traits@D@std@@V?$allocator@D@2@@std@@QAEXXZ 00456194     msvcprt:MSVCP71.dll
 0002:00000198       __imp_?str@?$basic_ostringstream@DU?$char_traits@D@std@@V?$allocator@D@2@@std@@QBE?AV?$basic_string@DU?$char_traits@D@std@@V?$allocator@D@2@@2@XZ 00456198     msvcprt:MSVCP71.dll
 0002:0000019c       __imp_??6?$basic_ostream@DU?$char_traits@D@std@@@std@@QAEAAV01@H@Z 0045619c     msvcprt:MSVCP71.dll
 0002:000001a0       __imp_??0?$basic_ostringstream@DU?$char_traits@D@std@@V?$allocator@D@2@@std@@QAE@H@Z 004561a0     msvcprt:MSVCP71.dll
 0002:000001a4       __imp_??_D?$basic_istringstream@DU?$char_traits@D@std@@V?$allocator@D@2@@std@@QAEXXZ 004561a4     msvcprt:MSVCP71.dll
 0002:000001a8       __imp_??0?$basic_istringstream@DU?$char_traits@D@std@@V?$allocator@D@2@@std@@QAE@ABV?$basic_string@DU?$char_traits@D@std@@V?$allocator@D@2@@1@H@Z 004561a8     msvcprt:MSVCP71.dll
 0002:000001ac       \177MSVCP71_NULL_THUNK_DATA 004561ac     msvcprt:MSVCP71.dll
 0002:000001b0       __imp__sprintf             004561b0     MSVCRT:MSVCR71.dll
 0002:000001b4       __imp__strrchr             004561b4     MSVCRT:MSVCR71.dll
 0002:000001b8       __imp__localtime           004561b8     MSVCRT:MSVCR71.dll
 0002:000001bc       __imp__atoi                004561bc     MSVCRT:MSVCR71.dll
 0002:000001c0       __imp_??_V@YAXPAX@Z        004561c0     MSVCRT:MSVCR71.dll
 0002:000001c4       __imp___controlfp          004561c4     MSVCRT:MSVCR71.dll
 0002:000001c8       __imp___CRT_RTC_INIT       004561c8     MSVCRT:MSVCR71.dll
 0002:000001cc       __imp____set_app_type      004561cc     MSVCRT:MSVCR71.dll
 0002:000001d0       __imp____p__fmode          004561d0     MSVCRT:MSVCR71.dll
 0002:000001d4       __imp____p__commode        004561d4     MSVCRT:MSVCR71.dll
 0002:000001d8       __imp___adjust_fdiv        004561d8     MSVCRT:MSVCR71.dll
 0002:000001dc       __imp____setusermatherr    004561dc     MSVCRT:MSVCR71.dll
 0002:000001e0       __imp___initterm           004561e0     MSVCRT:MSVCR71.dll
 0002:000001e4       __imp____getmainargs       004561e4     MSVCRT:MSVCR71.dll
 0002:000001e8       __imp___amsg_exit          004561e8     MSVCRT:MSVCR71.dll
 0002:000001ec       __imp____p___initenv       004561ec     MSVCRT:MSVCR71.dll
 0002:000001f0       __imp__exit                004561f0     MSVCRT:MSVCR71.dll
 0002:000001f4       __imp___cexit              004561f4     MSVCRT:MSVCR71.dll
 0002:000001f8       __imp___XcptFilter         004561f8     MSVCRT:MSVCR71.dll
 0002:000001fc       __imp___exit               004561fc     MSVCRT:MSVCR71.dll
 0002:00000200       __imp___c_exit             00456200     MSVCRT:MSVCR71.dll
 0002:00000204       __imp___onexit             00456204     MSVCRT:MSVCR71.dll
 0002:00000208       __imp____dllonexit         00456208     MSVCRT:MSVCR71.dll
 0002:0000020c       __imp_?terminate@@YAXXZ    0045620c     MSVCRT:MSVCR71.dll
 0002:00000210       __imp___except_handler3    00456210     MSVCRT:MSVCR71.dll
 0002:00000214       __imp____security_error_handler 00456214     MSVCRT:MSVCR71.dll
 0002:00000218       __imp_??1type_info@@UAE@XZ 00456218     MSVCRT:MSVCR71.dll
 0002:0000021c       __imp___callnewh           0045621c     MSVCRT:MSVCR71.dll
 0002:00000220       __imp__malloc              00456220     MSVCRT:MSVCR71.dll
 0002:00000224       __imp__memset              00456224     MSVCRT:MSVCR71.dll
 0002:00000228       __imp__strlen              00456228     MSVCRT:MSVCR71.dll
 0002:0000022c       __imp__strcmp              0045622c     MSVCRT:MSVCR71.dll
 0002:00000230       __imp__fputs               00456230     MSVCRT:MSVCR71.dll
 0002:00000234       __imp__stricmp             00456234     MSVCRT:MSVCR71.dll
 0002:00000234       __imp___stricmp            00456234     MSVCRT:MSVCR71.dll
 0002:00000238       __imp__srand               00456238     MSVCRT:MSVCR71.dll
 0002:0000023c       __imp__rand                0045623c     MSVCRT:MSVCR71.dll
 0002:00000240       __imp__fclose              00456240     MSVCRT:MSVCR71.dll
 0002:00000244       __imp__fopen               00456244     MSVCRT:MSVCR71.dll
 0002:00000248       __imp__clock               00456248     MSVCRT:MSVCR71.dll
 0002:0000024c       __imp_??1exception@@UAE@XZ 0045624c     MSVCRT:MSVCR71.dll
 0002:00000250       __imp_??0exception@@QAE@XZ 00456250     MSVCRT:MSVCR71.dll
 0002:00000254       __imp____CxxFrameHandler   00456254     MSVCRT:MSVCR71.dll
 0002:00000258       __imp_??3@YAXPAX@Z         00456258     MSVCRT:MSVCR71.dll
 0002:0000025c       __imp__strdup              0045625c     MSVCRT:MSVCR71.dll
 0002:0000025c       __imp___strdup             0045625c     MSVCRT:MSVCR71.dll
 0002:00000260       __imp__free                00456260     MSVCRT:MSVCR71.dll
 0002:00000264       __imp__time                00456264     MSVCRT:MSVCR71.dll
 0002:00000268       __imp_??0exception@@QAE@ABV0@@Z 00456268     MSVCRT:MSVCR71.dll
 0002:0000026c       __imp___CxxThrowException@8 0045626c     MSVCRT:MSVCR71.dll
 0002:00000270       __imp__memmove             00456270     MSVCRT:MSVCR71.dll
 0002:00000274       __imp__puts                00456274     MSVCRT:MSVCR71.dll
 0002:00000278       __imp__printf              00456278     MSVCRT:MSVCR71.dll
 0002:0000027c       __imp___purecall           0045627c     MSVCRT:MSVCR71.dll
 0002:00000280       __imp__strchr              00456280     MSVCRT:MSVCR71.dll
 0002:00000284       \177MSVCR71_NULL_THUNK_DATA 00456284     MSVCRT:MSVCR71.dll
 0002:00000288       __imp__DispatchMessageA@4  00456288     user32:USER32.dll
 0002:0000028c       __imp__TranslateMessage@4  0045628c     user32:USER32.dll
 0002:00000290       __imp__GetMessageA@16      00456290     user32:USER32.dll
 0002:00000294       __imp__PostThreadMessageA@16 00456294     user32:USER32.dll
 0002:00000298       \177USER32_NULL_THUNK_DATA 00456298     user32:USER32.dll
 0002:0000029c       __imp__accept@12           0045629c     ws2_32:WS2_32.dll
 0002:000002a0       __imp__shutdown@8          004562a0     ws2_32:WS2_32.dll
 0002:000002a4       __imp__WSAGetLastError@0   004562a4     ws2_32:WS2_32.dll
 0002:000002a8       __imp__htonl@4             004562a8     ws2_32:WS2_32.dll
 0002:000002ac       \177WS2_32_NULL_THUNK_DATA 004562ac     ws2_32:WS2_32.dll
 0002:000002b0       __imp_??1IPV4Address@ost@@UAE@XZ 004562b0     ccgnu2:ccgnu2.dll
 0002:000002b4       __imp_??0TCPSocket@ost@@QAE@ABVIPV4Address@1@GII@Z 004562b4     ccgnu2:ccgnu2.dll
 0002:000002b8       __imp_??1TCPSocket@ost@@UAE@XZ 004562b8     ccgnu2:ccgnu2.dll
 0002:000002bc       __imp_?isPending@SimpleTCPStream@ost@@UAE_NW4Pending@Socket@2@K@Z 004562bc     ccgnu2:ccgnu2.dll
 0002:000002c0       __imp_??0SimpleTCPStream@ost@@QAE@ABVIPV4Host@1@GI@Z 004562c0     ccgnu2:ccgnu2.dll
 0002:000002c4       __imp_??1SimpleTCPStream@ost@@UAE@XZ 004562c4     ccgnu2:ccgnu2.dll
 0002:000002c8       __imp_?setNoDelay@Socket@ost@@IAE?AW4Error@12@_N@Z 004562c8     ccgnu2:ccgnu2.dll
 0002:000002cc       __imp_?endSocket@Socket@ost@@IAEXXZ 004562cc     ccgnu2:ccgnu2.dll
 0002:000002d0       __imp_??1IPV4Host@ost@@UAE@XZ 004562d0     ccgnu2:ccgnu2.dll
 0002:000002d4       __imp_??0IPV4Host@ost@@QAE@PBD@Z 004562d4     ccgnu2:ccgnu2.dll
 0002:000002d8       __imp_??0Event@ost@@QAE@XZ 004562d8     ccgnu2:ccgnu2.dll
 0002:000002dc       __imp_??1Event@ost@@UAE@XZ 004562dc     ccgnu2:ccgnu2.dll
 0002:000002e0       __imp_?wait@Event@ost@@QAE_NXZ 004562e0     ccgnu2:ccgnu2.dll
 0002:000002e4       __imp_?reset@Event@ost@@QAEXXZ 004562e4     ccgnu2:ccgnu2.dll
 0002:000002e8       __imp_?signal@Event@ost@@QAEXXZ 004562e8     ccgnu2:ccgnu2.dll
 0002:000002ec       __imp_?notify@Thread@ost@@MAEXPAV12@@Z 004562ec     ccgnu2:ccgnu2.dll
 0002:000002f0       __imp_?getExtended@Thread@ost@@MAEPAXXZ 004562f0     ccgnu2:ccgnu2.dll
 0002:000002f4       __imp_?initial@Thread@ost@@MAEXXZ 004562f4     ccgnu2:ccgnu2.dll
 0002:000002f8       __imp_?final@Thread@ost@@MAEXXZ 004562f8     ccgnu2:ccgnu2.dll
 0002:000002fc       __imp_??4IPV4Address@ost@@QAEAAV01@K@Z 004562fc     ccgnu2:ccgnu2.dll
 0002:00000300       __imp_??0IPV4Address@ost@@QAE@PBVIPV4Validator@1@@Z 00456300     ccgnu2:ccgnu2.dll
 0002:00000304       __imp_?exit@Thread@ost@@IAEXXZ 00456304     ccgnu2:ccgnu2.dll
 0002:00000308       __imp_?start@Thread@ost@@QAEHPAVSemaphore@2@@Z 00456308     ccgnu2:ccgnu2.dll
 0002:0000030c       __imp_??0Thread@ost@@QAE@HI@Z 0045630c     ccgnu2:ccgnu2.dll
 0002:00000310       __imp_??1Thread@ost@@UAE@XZ 00456310     ccgnu2:ccgnu2.dll
 0002:00000314       __imp_?sleep@Thread@ost@@SAXK@Z 00456314     ccgnu2:ccgnu2.dll
 0002:00000318       __imp_??1Socket@ost@@UAE@XZ 00456318     ccgnu2:ccgnu2.dll
 0002:0000031c       __imp_??0Socket@ost@@IAE@XZ 0045631c     ccgnu2:ccgnu2.dll
 0002:00000320       __imp_?readData@Socket@ost@@MAEHPAXIDK@Z 00456320     ccgnu2:ccgnu2.dll
 0002:00000324       __imp_?wait@Event@ost@@QAE_NK@Z 00456324     ccgnu2:ccgnu2.dll
 0002:00000328       __imp_?writeData@Socket@ost@@MAEHPBXIK@Z 00456328     ccgnu2:ccgnu2.dll
 0002:0000032c       __imp_?isPending@Socket@ost@@UAE_NW4Pending@12@K@Z 0045632c     ccgnu2:ccgnu2.dll
 0002:00000330       __imp_?create@Dir@ost@@SA_NPBDW4Attr@File@2@@Z 00456330     ccgnu2:ccgnu2.dll
 0002:00000334       __imp_??0MappedFile@ost@@QAE@PBDW4Access@File@1@I@Z 00456334     ccgnu2:ccgnu2.dll
 0002:00000338       __imp_??0ThreadFile@ost@@QAE@PBD@Z 00456338     ccgnu2:ccgnu2.dll
 0002:0000033c       __imp_?getCapacity@RandomFile@ost@@QAEJXZ 0045633c     ccgnu2:ccgnu2.dll
 0002:00000340       __imp_??1ThreadFile@ost@@UAE@XZ 00456340     ccgnu2:ccgnu2.dll
 0002:00000344       __imp_??0MappedFile@ost@@QAE@PBDKIW4Access@File@1@@Z 00456344     ccgnu2:ccgnu2.dll
 0002:00000348       __imp_?fetch@MappedFile@ost@@QAEPAXJI@Z 00456348     ccgnu2:ccgnu2.dll
 0002:0000034c       __imp_??1MappedFile@ost@@UAE@XZ 0045634c     ccgnu2:ccgnu2.dll
 0002:00000350       __imp_??0Mutex@ost@@QAE@PBD@Z 00456350     ccgnu2:ccgnu2.dll
 0002:00000354       __imp_??1Mutex@ost@@UAE@XZ 00456354     ccgnu2:ccgnu2.dll
 0002:00000358       __imp_?enterMutex@Mutex@ost@@QAEXXZ 00456358     ccgnu2:ccgnu2.dll
 0002:0000035c       __imp_?leaveMutex@Mutex@ost@@QAEXXZ 0045635c     ccgnu2:ccgnu2.dll
 0002:00000360       __imp_??1MutexLock@ost@@QAE@XZ 00456360     ccgnu2:ccgnu2.dll
 0002:00000364       \177ccgnu2_NULL_THUNK_DATA 00456364     ccgnu2:ccgnu2.dll
 0002:0000038c       ??_7logic_error@std@@6B@   0045638c     DB.obj
 0002:00000394       ??_7length_error@std@@6B@  00456394     DB.obj
 0002:0000039c       ??_7word@svutil@@6B@       0045639c     DB.obj
 0002:000003a0       ??_C@_00CNPNBAHC@?$AA@     004563a0     DB.obj
 0002:000003a4       ??_C@_0M@IGBDGEOL@MSException?$AA@ 004563a4     DB.obj
 0002:000003b0       ??_C@_09FBNMMHMJ@Exception?$AA@ 004563b0     DB.obj
 0002:000003bc       ??_7exception@svutil@@6B@  004563bc     DB.obj
 0002:000003c8       ??_C@_0BD@OLBABOEK@vector?$DMT?$DO?5too?5long?$AA@ 004563c8     DB.obj
 0002:000003dc       ??_7?$sorttree@V?$hashelement@Vword@svutil@@PAVTable@@@svutil@@@svutil@@6B@ 004563dc     DB.obj
 0002:000003e0       ??_7?$sorttree@V?$hashelement@Vword@svutil@@PAVQueue@@@svutil@@@svutil@@6B@ 004563e0     DB.obj
 0002:000003e4       ??_7?$treenode@V?$hashelement@Vword@svutil@@PAVTable@@@svutil@@@svutil@@6B@ 004563e4     DB.obj
 0002:000003e8       ??_7?$treenode@V?$hashelement@Vword@svutil@@PAVQueue@@@svutil@@@svutil@@6B@ 004563e8     DB.obj
 0002:000003ec       ??_C@_0BI@CBGLFFBI@Create?5page?5pool?5failed?$AA@ 004563ec     DB.obj
 0002:00000404       ??_C@_0BI@LLOOPKPI@Create?5head?5pool?5failed?$AA@ 00456404     DB.obj
 0002:0000041c       ??_C@_0M@LDHJKBJE@No?5the?5node?$AA@ 0045641c     DB.obj
 0002:00000428       ??_C@_0L@KMPFIPOJ@empty?5tree?$AA@ 00456428     DB.obj
 0002:00000434       ??_C@_0BB@MOGOBHAF@list?$DMT?$DO?5too?5long?$AA@ 00456434     DB.obj
 0002:00000448       ??_C@_0BD@JEAHJBKA@Create?5node?5failed?$AA@ 00456448     DB.obj
 0002:0000045c       ??_C@_0BE@DPONKCCH@Table?5no?5exist?3?5?$CFs?6?$AA@ 0045645c     DB.obj
 0002:00000470       ??_C@_0CG@JBPEMDNG@Exception?5to?5get?5all?5labels?5of?5q@ 00456470     DB.obj
 0002:00000498       ??_C@_0P@CIOPIOMB@Queue?5no?5exist?$AA@ 00456498     DB.obj
 0002:000004a8       ??_C@_0CA@JABKLELE@Exception?5in?5DB?3?3QueryMassDyn?5?6?$AA@ 004564a8     DB.obj
 0002:000004c8       ??_C@_01LFCBOECM@?4?$AA@   004564c8     DB.obj
 0002:000004cc       ??_C@_0L@DMNNKCKE@pt?5is?5NULL?$AA@ 004564cc     DB.obj
 0002:000004d8       ??_C@_0BC@GNAPJOAC@flash?5data?5failed?$AA@ 004564d8     DB.obj
 0002:000004ec       ??_C@_0BA@BJPPBIJB@Get?5page?5failed?$AA@ 004564ec     DB.obj
 0002:000004fc       ??_C@_0BK@PJKPGJHJ@Get?5data?5free?5page?5failed?$AA@ 004564fc     DB.obj
 0002:00000518       ??_C@_0BE@FMAPLJBD@Add?5new?5page?5failed?$AA@ 00456518     DB.obj
 0002:0000052c       ??_C@_0BH@GFBAMBNO@Table?5has?5existed?3?5?$CFs?6?$AA@ 0045652c     DB.obj
 0002:00000544       ??_C@_0CF@PCABMGMJ@Create?5queue?5?9?9?5Get?5free?5page?5fa@ 00456544     DB.obj
 0002:0000056c       ??_C@_0BI@GKDEFKLK@Queue?3?5?$CFs?5has?5existed?4?6?$AA@ 0045656c     DB.obj
 0002:00000584       ??_C@_0DF@EPIAEGGE@InsertTableEx?5Get?5page?5failed?5pa@ 00456584     DB.obj
 0002:000005bc       ??_C@_07JMHMLHHN@sv_type?$AA@ 004565bc     DB.obj
 0002:000005c4       ??_C@_07CMPMEKAE@sv_unit?$AA@ 004565c4     DB.obj
 0002:000005cc       ??_C@_07DHHPHHAN@sv_name?$AA@ 004565cc     DB.obj
 0002:000005d4       ??_C@_02DKCKIIND@?$CFs?$AA@ 004565d4     DB.obj
 0002:000005d8       ??_C@_08KCGFJGDM@sv_label?$AA@ 004565d8     DB.obj
 0002:000005e4       ??_C@_0M@JMKLJOJG@DB?5name?3?$CFs?6?$AA@ 004565e4     DB.obj
 0002:000005f0       ??_C@_0BA@PDCADKPP@?$CFs?1data?1?$CFs_data?$AA@ 004565f0     DB.obj
 0002:00000600       ??_C@_0BJ@NLGFAJJK@?$CFs?1data?1idc_data?1?$CFs_data?$AA@ 00456600     DB.obj
 0002:0000061c       ??_C@_0M@LGHBMNLG@DB?5path?3?$CFs?6?$AA@ 0045661c     DB.obj
 0002:00000628       ??_C@_0BA@NOCINFHH@?$CFs?1data?1?$CFs_head?$AA@ 00456628     DB.obj
 0002:00000638       ??_C@_0BJ@PGGNOGBC@?$CFs?1data?1idc_data?1?$CFs_head?$AA@ 00456638     DB.obj
 0002:00000654       ??_C@_0BE@OIAAIGCN@DB?5of?5idc?5user?3?5?$CFs?6?$AA@ 00456654     DB.obj
 0002:00000668       ??_C@_0BM@PAEEOPKL@?$CFs?1data?1idc_data?1?$CFs?1?$CFs_data?$AA@ 00456668     DB.obj
 0002:00000684       ??_C@_0BM@NNEMAACD@?$CFs?1data?1idc_data?1?$CFs?1?$CFs_head?$AA@ 00456684     DB.obj
 0002:000006a0       ??_7SerialBase@@6B@        004566a0     Entity.obj
 0002:000006ac       ??_7Entity@@6B@            004566ac     Entity.obj
 0002:000006b8       ??_7EntityGroup@@6B@       004566b8     EntityGroup.obj
 0002:000006c4       ??_7PoolBase2@@6B@         004566c4     EntityPool.obj
 0002:000006c4       ??_7PoolBase@@6B@          004566c4     EntityGroupPool.obj
 0002:000006cc       ??_C@_0BP@KMPLMEHG@Load?5EntityGroupPool?5Exception?$AA@ 004566cc     EntityGroupPool.obj
 0002:000006ec       ??_C@_0CB@KFODAPNE@Submit?5EntityGroupPool?5Exception@ 004566ec     EntityGroupPool.obj
 0002:00000710       ??_7?$sorttree@V?$hashelement@Vword@svutil@@PAVEntityGroup@@@svutil@@@svutil@@6B@ 00456710     EntityGroupPool.obj
 0002:00000714       ??_7?$treenode@V?$hashelement@Vword@svutil@@PAVEntityGroup@@@svutil@@@svutil@@6B@ 00456714     EntityGroupPool.obj
 0002:00000718       ??_C@_0BK@HNOIANID@resource?5ForTpl?5is?5NULL?5?4?$AA@ 00456718     EntityGroupPool.obj
 0002:00000734       ??_7EntityGroupPool@@6BSerialBase@@@ 00456734     EntityGroupPool.obj
 0002:00000740       ??_7EntityGroupPool@@6BPoolBase@@@ 00456740     EntityGroupPool.obj
 0002:00000748       ??_7out_of_range@std@@6B@  00456748     EntityPool.obj
 0002:00000750       ??_C@_0BM@CJIKLFBD@Submit?5EntityPool?5Exception?$AA@ 00456750     EntityPool.obj
 0002:0000076c       ??_C@_0BK@JLCABHIC@Load?5EntityPool?5Exception?$AA@ 0045676c     EntityPool.obj
 0002:00000788       ??_7?$sorttree@V?$hashelement@Vword@svutil@@PAVEntity@@@svutil@@@svutil@@6B@ 00456788     EntityPool.obj
 0002:0000078c       ??_7?$treenode@V?$hashelement@Vword@svutil@@PAVEntity@@@svutil@@@svutil@@6B@ 0045678c     EntityPool.obj
 0002:00000790       ??_7?$sorttree@V?$hashelement@Vword@svutil@@V12@@svutil@@@svutil@@6B@ 00456790     EntityPool.obj
 0002:00000794       ??_C@_0BE@JONHPENG@map?1set?$DMT?$DO?5too?5long?$AA@ 00456794     EntityPool.obj
 0002:000007a8       ??_C@_0BM@PAPJHAGI@invalid?5map?1set?$DMT?$DO?5iterator?$AA@ 004567a8     EntityPool.obj
 0002:000007c4       ??_7EntityPool@@6BSerialBase@@@ 004567c4     EntityPool.obj
 0002:000007d0       ??_7EntityPool@@6BPoolBase2@@@ 004567d0     EntityPool.obj
 0002:000007d8       ??_7StringMap@@6B@         004567d8     EntityPool.obj
 0002:000007e4       ??_C@_0CN@JEAHAPGH@Exception?5in?5EntityPool?3?3QueryMa@ 004567e4     EntityPool.obj
 0002:00000814       ??_C@_0CN@IGLCKAIJ@Exception?5in?5EntityPool?3?3QueryMa@ 00456814     EntityPool.obj
 0002:00000844       ??_C@_07DLHCIBDH@default?$AA@ 00456844     EntityPool.obj
 0002:0000084c       ??_C@_0P@LDFFNFN@Latest?5entity?5?$AA@ 0045684c     EntityPool.obj
 0002:0000085c       ??_C@_0O@IGAOHKME@?5version?5is?3?5?$AA@ 0045685c     EntityPool.obj
 0002:0000086c       ??_C@_0N@KOOAHNLM@?5?9?9?5updated?$CB?$AA@ 0045686c     EntityPool.obj
 0002:0000087c       ??_C@_0M@INFAODAG@Entity?4data?$AA@ 0045687c     EntityPool.obj
 0002:00000888       ??_C@_01KMDKNFGN@?1?$AA@   00456888     EntityPool.obj
 0002:0000088c       ??_C@_0BA@KADINHEC@?1data?1idc_data?1?$AA@ 0045688c     EntityPool.obj
 0002:0000089c       ??_C@_0L@MMMBHHOC@ModifyId?3?$CC?$AA@ 0045689c     EntityPool.obj
 0002:000008a8       ??_C@_04IPCHLJPK@?$CC?5?5?5?$AA@ 004568a8     EntityPool.obj
 0002:000008b0       ??_C@_03FGFCOCMD@top?$AA@  004568b0     EntityPool.obj
 0002:000008b4       ??_7EntityTemplet@@6B@     004568b4     EntityTemplet.obj
 0002:000008c0       ??_C@_0CB@ODJCCFNE@Load?5EntityTempletPool?5Exception@ 004568c0     EntityTempletPool.obj
 0002:000008e4       ??_C@_0CD@HDBFOJJP@Submit?5EntityTempletPool?5Excepti@ 004568e4     EntityTempletPool.obj
 0002:00000908       ??_7?$sorttree@V?$hashelement@Vword@svutil@@PAVEntityTemplet@@@svutil@@@svutil@@6B@ 00456908     EntityTempletPool.obj
 0002:0000090c       ??_7?$treenode@V?$hashelement@Vword@svutil@@PAVEntityTemplet@@@svutil@@@svutil@@6B@ 0045690c     EntityTempletPool.obj
 0002:00000910       ??_7EntityTempletPool@@6BSerialBase@@@ 00456910     EntityTempletPool.obj
 0002:0000091c       ??_7EntityTempletPool@@6BPoolBase@@@ 0045691c     EntityTempletPool.obj
 0002:00000924       ??_7CommonData@@6B@        00456924     GeneralPool.obj
 0002:00000930       ??_C@_0DC@EDALMJNK@Load?5GeneralPool?5Exception?0Error@ 00456930     GeneralPool.obj
 0002:00000964       ??_C@_0DF@CMDGHLP@Submit?5GeneralPool?5Exception?0Err@ 00456964     GeneralPool.obj
 0002:0000099c       ??_7?$sorttree@V?$hashelement@Vword@svutil@@PAVSection@@@svutil@@@svutil@@6B@ 0045699c     GeneralPool.obj
 0002:000009a0       ??_7?$treenode@V?$hashelement@Vword@svutil@@PAVSection@@@svutil@@@svutil@@6B@ 004569a0     GeneralPool.obj
 0002:000009a4       ??_7?$sorttree@V?$hashelement@Vword@svutil@@PAVCommonData@@@svutil@@@svutil@@6B@ 004569a4     GeneralPool.obj
 0002:000009a8       ??_7?$treenode@V?$hashelement@Vword@svutil@@PAVCommonData@@@svutil@@@svutil@@6B@ 004569a8     GeneralPool.obj
 0002:000009ac       ??_7GeneralPool@@6BSerialBase@@@ 004569ac     GeneralPool.obj
 0002:000009b8       ??_7GeneralPool@@6BPoolBase@@@ 004569b8     GeneralPool.obj
 0002:000009c0       ??_7Group@@6B@             004569c0     Group.obj
 0002:000009cc       ??_C@_01EEMJAFIK@?6?$AA@   004569cc     GroupPool.obj
 0002:000009d0       ??_C@_0BO@MMBCEGJM@Exception?5to?5creat?5directory?3?$AA@ 004569d0     GroupPool.obj
 0002:000009f0       ??_C@_0BJ@EJGADGGH@Load?5GroupPool?5Exception?$AA@ 004569f0     GroupPool.obj
 0002:00000a0c       ??_C@_0BL@FOMJIPNO@Submit?5GroupPool?5Exception?$AA@ 00456a0c     GroupPool.obj
 0002:00000a28       ??_7?$sorttree@V?$hashelement@Vword@svutil@@PAVGroup@@@svutil@@@svutil@@6B@ 00456a28     GroupPool.obj
 0002:00000a2c       ??_7?$treenode@V?$hashelement@Vword@svutil@@PAVGroup@@@svutil@@@svutil@@6B@ 00456a2c     GroupPool.obj
 0002:00000a30       ??_7GroupPool@@6BSerialBase@@@ 00456a30     GroupPool.obj
 0002:00000a3c       ??_7GroupPool@@6BPoolBase2@@@ 00456a3c     GroupPool.obj
 0002:00000a44       ??_C@_0O@FHOIIPLL@Latest?5group?5?$AA@ 00456a44     GroupPool.obj
 0002:00000a54       ??_C@_0M@JFNCJKLN@?1Group?4data?$AA@ 00456a54     GroupPool.obj
 0002:00000a60       ??_7Monitor@@6B@           00456a60     Monitor.obj
 0002:00000a6c       ??_C@_0BN@JIAPNGCB@Submit?5MonitorPool?5Exception?$AA@ 00456a6c     MonitorPool.obj
 0002:00000a8c       ??_C@_0BL@BPLFNPFB@Load?5MonitorPool?5Exception?$AA@ 00456a8c     MonitorPool.obj
 0002:00000aa8       ??_7?$sorttree@V?$hashelement@Vword@svutil@@PAVMonitor@@@svutil@@@svutil@@6B@ 00456aa8     MonitorPool.obj
 0002:00000aac       ??_7?$treenode@V?$hashelement@Vword@svutil@@PAVMonitor@@@svutil@@@svutil@@6B@ 00456aac     MonitorPool.obj
 0002:00000ab0       ??_7MonitorPool@@6BSerialBase@@@ 00456ab0     MonitorPool.obj
 0002:00000abc       ??_7MonitorPool@@6BPoolBase2@@@ 00456abc     MonitorPool.obj
 0002:00000ac4       ??_C@_0CP@IHOLOPAP@Exception?5in?5MonitorPool?3?3QueryM@ 00456ac4     MonitorPool.obj
 0002:00000af4       ??_C@_0CP@JFFOEAOB@Exception?5in?5MonitorPool?3?3QueryM@ 00456af4     MonitorPool.obj
 0002:00000b24       ??_C@_0BA@COMDKPCN@Latest?5monitor?5?$AA@ 00456b24     MonitorPool.obj
 0002:00000b34       ??_C@_0N@FNFPHHFO@Monitor?4data?$AA@ 00456b34     MonitorPool.obj
 0002:00000b44       ??_7MonitorTemplet@@6B@    00456b44     MonitorTemplet.obj
 0002:00000b50       ??_C@_0CC@PPNPCJNJ@Load?5MonitorTempletPool?5Exceptio@ 00456b50     MonitorTempletPool.obj
 0002:00000b74       ??_C@_0CE@BOEBDGAN@Submit?5MonitorTempletPool?5Except@ 00456b74     MonitorTempletPool.obj
 0002:00000b98       ??_7?$treenode@V?$hashelement@Vword@svutil@@V12@@svutil@@@svutil@@6B@ 00456b98     MonitorTempletPool.obj
 0002:00000b9c       ??_7MonitorTempletPool@@6BSerialBase@@@ 00456b9c     MonitorTempletPool.obj
 0002:00000ba8       ??_7MonitorTempletPool@@6BPoolBase@@@ 00456ba8     MonitorTempletPool.obj
 0002:00000bb0       ??_C@_02DPKJAMEF@?$CFd?$AA@ 00456bb0     MonitorTempletPool.obj
 0002:00000bb4       ??_7MySocket@@6B@          00456bb4     MySocket.obj
 0002:00000bc4       ??_7MyTCPStream@@6B@       00456bc4     MyTCPStream.obj
 0002:00000bd4       ??_C@_0L@CIOMKPMB@ListenPort?$AA@ 00456bd4     Option.obj
 0002:00000be0       ??_C@_08JGLKGJJ@WaitMode?$AA@ 00456be0     Option.obj
 0002:00000bec       ??_C@_08BJLMJJHG@PageSize?$AA@ 00456bec     Option.obj
 0002:00000bf8       ??_C@_0P@FOOOJMAL@SingleFileSize?$AA@ 00456bf8     Option.obj
 0002:00000c08       ??_C@_0BG@BFEDNGEB@TrackIniFileNames?3?$CFs?6?$AA@ 00456c08     Option.obj
 0002:00000c20       ??_C@_0BC@EPGLDBLH@TrackIniFileNames?$AA@ 00456c20     Option.obj
 0002:00000c34       ??_C@_0BL@GFCLALKE@ResidentMemoryIniFiles?3?$CFs?6?$AA@ 00456c34     Option.obj
 0002:00000c50       ??_C@_0BH@PCCCHKN@ResidentMemoryIniFiles?$AA@ 00456c50     Option.obj
 0002:00000c68       ??_C@_0BB@JEKGNCBM@DataKeepDays?3?$CFs?6?$AA@ 00456c68     Option.obj
 0002:00000c7c       ??_C@_0N@CJCNGGJL@DataKeepDays?$AA@ 00456c7c     Option.obj
 0002:00000c8c       ??_C@_0BG@FAOEKOGN@TrackIniQueueName?3?$CFs?6?$AA@ 00456c8c     Option.obj
 0002:00000ca4       ??_C@_0BC@MONLILFB@TrackIniQueueName?$AA@ 00456ca4     Option.obj
 0002:00000cb8       ??_C@_0BD@KBOFBHMF@IniMaxIdleTime?3?$CFs?6?$AA@ 00456cb8     Option.obj
 0002:00000ccc       ??_C@_0P@GBAKBFOJ@IniMaxIdleTime?$AA@ 00456ccc     Option.obj
 0002:00000cdc       ??_C@_0BH@KMLCLBJC@EnableTrackIniFile?3?$CFs?6?$AA@ 00456cdc     Option.obj
 0002:00000cf4       ??_C@_0BD@JDAABHGF@EnableTrackIniFile?$AA@ 00456cf4     Option.obj
 0002:00000d08       ??_C@_0BI@MJNOGPJH@EnableTrackDBRecord?3?$CFs?6?$AA@ 00456d08     Option.obj
 0002:00000d20       ??_C@_0BE@JHMCPKH@EnableTrackDBRecord?$AA@ 00456d20     Option.obj
 0002:00000d34       ??_C@_0BK@LPNINJDK@EnableTrackConfigFile?3?$CFs?6?$AA@ 00456d34     Option.obj
 0002:00000d50       ??_C@_0BG@CICKABND@EnableTrackConfigFile?$AA@ 00456d50     Option.obj
 0002:00000d68       ??_C@_0BA@PDMNCHOF@EnableAlert?3?$CFs?6?$AA@ 00456d68     Option.obj
 0002:00000d78       ??_C@_0M@LECKBAOM@EnableAlert?$AA@ 00456d78     Option.obj
 0002:00000d84       ??_C@_0BE@FHNLMPOA@DefaultLanguage?3?$CFs?6?$AA@ 00456d84     Option.obj
 0002:00000d98       ??_C@_0BA@CLGIAAPA@DefaultLanguage?$AA@ 00456d98     Option.obj
 0002:00000da8       ??_C@_0BL@EKIABCOH@TrackDBRecordQueueName?3?$CFs?6?$AA@ 00456da8     Option.obj
 0002:00000dc4       ??_C@_0BH@KIOIIOBK@TrackDBRecordQueueName?$AA@ 00456dc4     Option.obj
 0002:00000ddc       ??_C@_0BJ@HCFEGHAB@TrackConfigQueueName?3?$CFs?6?$AA@ 00456ddc     Option.obj
 0002:00000df8       ??_C@_0BF@PLFPNLND@TrackConfigQueueName?$AA@ 00456df8     Option.obj
 0002:00000e10       ??_C@_0BD@GKHLLMLI@AlertQueueName?3?$CFs?6?$AA@ 00456e10     Option.obj
 0002:00000e24       ??_C@_0P@MGAOAAFH@AlertQueueName?$AA@ 00456e24     Option.obj
 0002:00000e34       ??_C@_0P@MLEAJDPH@MaxIniFile?3?$CFs?6?$AA@ 00456e34     Option.obj
 0002:00000e44       ??_C@_0L@PGIABMFC@MaxIniFile?$AA@ 00456e44     Option.obj
 0002:00000e50       ??_C@_0BH@LDDPBBA@PipeTreadPlusCount?3?$CFs?6?$AA@ 00456e50     Option.obj
 0002:00000e68       ??_C@_0BD@PBDNMGFG@PipeTreadPlusCount?$AA@ 00456e68     Option.obj
 0002:00000e7c       ??_C@_0BJ@GFNAKBNK@SocketTreadPlusCount?3?$CFs?6?$AA@ 00456e7c     Option.obj
 0002:00000e98       ??_C@_0BF@MFEFONLK@SocketTreadPlusCount?$AA@ 00456e98     Option.obj
 0002:00000eb0       ??_C@_0BN@MLNNEHBD@AutoResolveIdsInTemplate?3?$CFs?6?$AA@ 00456eb0     Option.obj
 0002:00000ed0       ??_C@_0BJ@IDMIPJOA@AutoResolveIdsInTemplate?$AA@ 00456ed0     Option.obj
 0002:00000eec       ??_C@_0O@KGFENHAH@EnableIDC?3?$CFs?6?$AA@ 00456eec     Option.obj
 0002:00000efc       ??_C@_04NBOOAHGE@svdb?$AA@ 00456efc     Option.obj
 0002:00000f04       ??_C@_09JEBAOFMD@EnableIDC?$AA@ 00456f04     Option.obj
 0002:00000f10       ??_C@_0BH@MOOBNNLI@?$CFs?1data?1svdbconfig?4ini?$AA@ 00456f10     Option.obj
 0002:00000f28       ??_C@_0BF@GPFFHDCM@Get?5root?5path?5failed?$AA@ 00456f28     Option.obj
 0002:00000f40       ??_C@_0CD@PPPNHJMK@swapin?5failed?5read?5file?5failed?3?$CF@ 00456f40     Page.obj
 0002:00000f64       ??_C@_0DD@FHFMBNLD@swapin?5failed?5move?5file?5pointor?5@ 00456f64     Page.obj
 0002:00000f98       ??_C@_0BP@DCOPMMJ@swap?$CIwrite?$CJ?5failed?5errorid?3?$CFd?6?$AA@ 00456f98     Page.obj
 0002:00000fb8       ??_C@_0CE@KPCFLGFG@swap?5out?5?9?9?5Set?5file?5pointer?5fai@ 00456fb8     Page.obj
 0002:00000fdc       ??_C@_0BC@KMBJJADP@put?5phead?5is?5NULL?$AA@ 00456fdc     PagePool.obj
 0002:00000ff0       ??_C@_0CA@DIPFAGPG@Write?5head?5failed?5errorid?94?3?$CFd?6?$AA@ 00456ff0     PagePool.obj
 0002:00001010       ??_C@_0CA@CFPADGEO@Write?5head?5failed?5errorid?93?3?$CFd?6?$AA@ 00457010     PagePool.obj
 0002:00001030       ??_C@_0L@ECPLPJOG@?N?D?$LM?$PO?$LI?q?$LD?v?$LE?m?$AA@ 00457030     PagePool.obj
 0002:0000103c       ??_C@_0BH@ELCHLJKL@Load?5page?5info?5failed?6?$AA@ 0045703c     PagePool.obj
 0002:00001054       ??_C@_0BN@HAPPPBPP@Read?5file?5failed?5errorid?3?$CFd?6?$AA@ 00457054     PagePool.obj
 0002:00001074       ??_C@_0DC@LFANKHNB@Load?5page?5?9?9?5move?5file?5pointer?5f@ 00457074     PagePool.obj
 0002:000010a8       ??_C@_0N@NBNHFGBP@?N?D?$LM?$PO?$LA?f?$LB?$LO?$LE?m?N?s?$AA@ 004570a8     PagePool.obj
 0002:000010b8       ??_C@_0BN@HPDKCPPK@Read?5head?5failed?5errorid?3?$CFd?6?$AA@ 004570b8     PagePool.obj
 0002:000010d8       ??_C@_0O@KNILHMCF@Version?5error?$AA@ 004570d8     PagePool.obj
 0002:000010e8       ??_C@_0BO@BLNIJPPB@Open?5file?5failed?5error?5id?3?$CFd?6?$AA@ 004570e8     PagePool.obj
 0002:00001108       ??_C@_0L@LHCLNBCF@?$CFs_?$CF02d?4db?$AA@ 00457108     PagePool.obj
 0002:00001114       ??_C@_0CD@FMHMHCD@Read?5head?5failed?5errorid?3?$CFd?6?5?5?5?$CF@ 00457114     PagePool.obj
 0002:00001138       ??_C@_0BP@MFFGILMJ@Opening?5file?5errorid?3?$CFd?6?5?5?5?$CFs?6?$AA@ 00457138     PagePool.obj
 0002:00001158       ??_C@_08NLHBCOGP@?$CFs_00?4db?$AA@ 00457158     PagePool.obj
 0002:00001164       ??_C@_0N@MJJAPABB@Size?5too?5big?$AA@ 00457164     PagePool.obj
 0002:00001174       ??_C@_0BO@MNJMBEAO@Write?5file?5failed?5errorid?3?$CFd?6?$AA@ 00457174     PagePool.obj
 0002:00001194       ??_C@_0BO@MCFJMKAL@Write?5head?5failed?5errorid?3?$CFd?6?$AA@ 00457194     PagePool.obj
 0002:000011b4       ??_C@_0BP@KJLHHGDD@Set?5file?5size?5failed?0error?3?$CFd?6?$AA@ 004571b4     PagePool.obj
 0002:000011d4       ??_C@_0BH@KCGFCLIO@Create?5file?5failed?3?$CFd?6?$AA@ 004571d4     PagePool.obj
 0002:000011ec       ??_C@_0BM@JOMHOFFK@Seek?5file?5failed3?5errid?3?$CFd?6?$AA@ 004571ec     PagePool.obj
 0002:00001208       ??_C@_0CE@OCEIGACK@Create?5file?5sapce?5failed?5newpos?3@ 00457208     PagePool.obj
 0002:0000122c       ??_C@_0BM@FGCKJDF@Seek?5file?5failed2?5errid?3?$CFd?6?$AA@ 0045722c     PagePool.obj
 0002:00001248       ??_C@_0BL@BILLBNNI@Seek?5file?5failed?5errid?3?$CFd?6?$AA@ 00457248     PagePool.obj
 0002:00001264       ??_C@_0CA@OOKMOFOL@Write?5head?5failed?5errorid?92?3?$CFd?6?$AA@ 00457264     PagePool.obj
 0002:00001284       ??_C@_0CA@GIDIJHEF@Write?5head?5failed?5errorid?91?3?$CFd?6?$AA@ 00457284     PagePool.obj
 0002:000012a4       ??_C@_0BI@MBFMIBHG@system?5error?5number?3?$CFd?6?$AA@ 004572a4     QueryData.obj
 0002:000012bc       ??_C@_0BB@CEJPOIGN@error?5number?3?$CFd?6?$AA@ 004572bc     QueryData.obj
 0002:000012d0       ??_C@_0BI@ILALGDNC@socket?5exception?5happen?$AA@ 004572d0     QueryData.obj
 0002:000012e8       ??_C@_0CE@OECMJOFC@?2?2?4?2pipe?2DragonFlow_Sitview7?40_S@ 004572e8     QueryData.obj
 0002:0000130c       ??_C@_0BO@GGKGEBMN@WriteFile?5failed?5error?5id?3?$CFd?6?$AA@ 0045730c     QueryData.obj
 0002:0000132c       ??_C@_09OJMDMBJI@error?3?$CFd?6?$AA@ 0045732c     QueryData.obj
 0002:00001338       ??_C@_0N@PIIOOFNF@socket?5error?$AA@ 00457338     QueryData.obj
 0002:00001348       ??_C@_09PFCHIMEP@127?40?40?41?$AA@ 00457348     QueryData.obj
 0002:00001354       ??_C@_09IPAEKDAI@localhost?$AA@ 00457354     QueryData.obj
 0002:00001360       ??_C@_0BM@DAFDJKHJ@?$CFd?9?$CF02d?9?$CF02d?5?$CF02d?3?$CF02d?3?$CF02d?$AA@ 00457360     Queue.obj
 0002:0000137c       ??_C@_0BA@FEEBCAFJ@Pop?5record?5over?$AA@ 0045737c     Queue.obj
 0002:0000138c       ??_C@_0M@LNPIJIOJ@wait?5failed?$AA@ 0045738c     Queue.obj
 0002:00001398       ??_C@_0BD@OCLINANG@data?5size?5is?5small?$AA@ 00457398     Queue.obj
 0002:000013ac       ??_C@_0BC@HHCCLJFN@ppagehead?5is?5NULL?$AA@ 004573ac     Queue.obj
 0002:000013c0       ??_C@_0P@EDMFPBKK@m_data?5is?5NULL?$AA@ 004573c0     Queue.obj
 0002:000013d0       ??_C@_0BH@KHFIKPFL@pt?5is?5NULL?5pos?5is?5?3?$CFd?6?$AA@ 004573d0     Queue.obj
 0002:000013e8       ??_C@_0BE@CBGNPIIG@Get?5new?5page?5failed?$AA@ 004573e8     Queue.obj
 0002:000013fc       ??_C@_0BG@CFJKMELE@Add?5new?5page?5failed?91?$AA@ 004573fc     Queue.obj
 0002:00001414       ??_C@_0DO@KANIJLDP@Append?5queue?5record?5get?5page?5fai@ 00457414     Queue.obj
 0002:00001454       ??_C@_0N@GKGPICJ@?5?5datalen?3?5?$CC?$AA@ 00457454     Queue.obj
 0002:00001464       ??_C@_0L@PEMPOHMK@?5?5level?3?5?$CC?$AA@ 00457464     Queue.obj
 0002:00001470       ??_C@_01BJJEKLCA@?$CC?$AA@ 00457470     Queue.obj
 0002:00001474       ??_C@_0L@ODBEFBON@?5?5label?3?5?$CC?$AA@ 00457474     Queue.obj
 0002:00001480       ??_C@_0CL@CHCONGKF@Create?5QueueRecord?5LabelData?5obj@ 00457480     Queue.obj
 0002:000014ac       ??_C@_0CC@JMDJAGEP@?9?9?9Get?5labels?5from?5another?5page?3@ 004574ac     Queue.obj
 0002:000014d0       ??_C@_04LKPLNPFJ@?5?9?9?9?$AA@ 004574d0     Queue.obj
 0002:000014d8       ??_C@_0BC@JNFMADDD@?5times?5protection?$AA@ 004574d8     Queue.obj
 0002:000014ec       ??_C@_0P@IFLLKANE@anerror?$DN?$DNfalse?$AA@ 004574ec     Queue.obj
 0002:000014fc       ??_C@_04PFOHOKJK@?5?5?5?5?$AA@ 004574fc     Queue.obj
 0002:00001504       ??_C@_0BJ@FILOKJEI@Get?5all?5labels?5of?5queue?3?$AA@ 00457504     Queue.obj
 0002:00001520       ??_C@_0P@CEFDDFGM@Raw?5data?5error?$AA@ 00457520     QueueRecord.obj
 0002:00001530       ??_7Resource@@6B@          00457530     Resource.obj
 0002:0000153c       ??_C@_0DA@JHFJJCDF@Exception?5to?5creat?5fast?9query?9re@ 0045753c     Resource.obj
 0002:0000156c       ??_C@_0BM@CHHAHNFH@Load?5ResourcePool?5Exception?$AA@ 0045756c     ResourcePool.obj
 0002:00001588       ??_C@_0BO@HHPCLGGC@Submit?5ResourcePool?5Exception?$AA@ 00457588     ResourcePool.obj
 0002:000015a8       ??_7?$sorttree@V?$hashelement@Vword@svutil@@PAVResource@@@svutil@@@svutil@@6B@ 004575a8     ResourcePool.obj
 0002:000015ac       ??_7?$treenode@V?$hashelement@Vword@svutil@@PAVResource@@@svutil@@@svutil@@6B@ 004575ac     ResourcePool.obj
 0002:000015b0       ??_C@_0CI@BNDFPNPI@?5?5?5resource?4data?5SubmitWithIds?5i@ 004575b0     ResourcePool.obj
 0002:000015d8       ??_7ResourcePool@@6BSerialBase@@@ 004575d8     ResourcePool.obj
 0002:000015e4       ??_7ResourcePool@@6BPoolBase@@@ 004575e4     ResourcePool.obj
 0002:000015ec       ??_7Section@@6B@           004575ec     Section.obj
 0002:000015f8       ??_C@_0O@NGFIOOGP@SiteView_SVDB?$AA@ 004575f8     Services.obj
 0002:00001608       ??_C@_0BJ@LIODEOJL@Install?5service?5sucessed?$AA@ 00457608     Services.obj
 0002:00001628       ??_C@_0FG@FALDHOKJ@?7?5The?5user?5account?5name?5specifie@ 00457628     Services.obj
 0002:00001680       ??_C@_0CP@EIDCNIGC@?7?5A?5circular?5service?5dependency?5@ 00457680     Services.obj
 0002:000016b0       ??_C@_0DI@EIFNDBMF@?7The?5specified?5service?5already?5e@ 004576b0     Services.obj
 0002:000016e8       ??_C@_09CJGKBNOG@?7?5Unknown?$AA@ 004576e8     Services.obj
 0002:000016f4       ??_C@_0CI@KOLHIBAL@?7?5The?5specified?5service?5name?5is?5@ 004576f4     Services.obj
 0002:0000171c       ??_C@_0CM@LIKANGGN@?7?5A?5parameter?5that?5was?5specified@ 0045771c     Services.obj
 0002:00001748       ??_C@_0EL@BJGPPJPF@?7?5The?5handle?5to?5the?5specified?5se@ 00457748     Services.obj
 0002:00001798       ??_C@_0HP@IGNGNCO@?7?5The?5display?5name?5already?5exist@ 00457798     Services.obj
 0002:00001818       ??_C@_0GP@DEBKMBAD@?7?5The?5handle?5to?5the?5specified?5se@ 00457818     Services.obj
 0002:00001888       ??_C@_0BH@IPIEFDFA@Install?5service?5failed?$AA@ 00457888     Services.obj
 0002:000018a0       ??_C@_0BI@HJHGNMFF@Open?5?8SCManager?8?5failed?$AA@ 004578a0     Services.obj
 0002:000018b8       ??_C@_0P@OFJNENCF@ServicesActive?$AA@ 004578b8     Services.obj
 0002:000018c8       ??_C@_0O@MCMENPBL@?$CC?$CFs?$CC?5?9service?$AA@ 004578c8     Services.obj
 0002:000018d8       ??_C@_0BJ@GHKHAAKK@Remove?5serivce?5successed?$AA@ 004578d8     Services.obj
 0002:000018f4       ??_C@_0DJ@CMENEHPP@?7?5The?5specified?5handle?5was?5not?5o@ 004578f4     Services.obj
 0002:00001930       ??_C@_0DN@NPHPKBAD@?7?5The?5specified?5service?5has?5alre@ 00457930     Services.obj
 0002:00001970       ??_C@_0BA@LAEICKAA@?7?5Unknown?5error?$AA@ 00457970     Services.obj
 0002:00001980       ??_C@_0CH@GJAENONI@?7?5The?5specified?5service?5does?5not@ 00457980     Services.obj
 0002:000019a8       ??_C@_0CD@BPBMIDOF@?7?5Unknown?5error?5with?5?8OpenServic@ 004579a8     Services.obj
 0002:000019cc       ??_C@_0CJ@JELBHPME@?7?5The?5specified?5service?5control?5@ 004579cc     Services.obj
 0002:000019f8       ??_C@_0CC@IBGKIECO@?7?5The?5specified?5handle?5is?5invali@ 004579f8     Services.obj
 0002:00001a1c       ??_C@_0BJ@GHBLMJBG@?7?5Open?5?8SCManger?8?5failed?$AA@ 00457a1c     Services.obj
 0002:00001a38       ??_C@_0BG@GDMJEBJD@Remove?5service?5failed?$AA@ 00457a38     Services.obj
 0002:00001a50       ??_C@_0CD@DCOEPBHK@Run?5process?3?$CFs?5failed?0error?5id?3?$CF@ 00457a50     Services.obj
 0002:00001a74       ??_C@_0L@NBGCBGAM@?2fcgi?9bin?2?$AA@ 00457a74     Services.obj
 0002:00001a80       ??_C@_0M@KLDGBPOH@SVDB_SERVER?$AA@ 00457a80     Services.obj
 0002:00001a8c       ??_C@_0M@GAKAPIKJ@SVDB_Server?$AA@ 00457a8c     Services.obj
 0002:00001a98       ??_7SocketWatchThread@@6B@ 00457a98     SocketWatchThread.obj
 0002:00001ab0       ??_C@_0CE@KAIBFGPG@Socket?5listen?5failed?5in?5watchthr@ 00457ab0     SocketWatchThread.obj
 0002:00001ad4       ??_C@_0CH@ICEDJJFD@?6?5Exception?5to?5StringMap?3?3GetRaw@ 00457ad4     StringMap.obj
 0002:00001afc       ??_C@_0DA@HEGKKOC@Exception?5to?5StringMap?3?3CreateOb@ 00457afc     StringMap.obj
 0002:00001b2c       ??_C@_01HIHLOKLC@1?$AA@    00457b2c     svdb.obj
 0002:00001b30       ??_C@_0BG@JFOEJHEE@Instance?5has?5existed?4?$AA@ 00457b30     svdb.obj
 0002:00001b48       ??_C@_0CB@EJFMFJPK@Create?5event?5of?5instance?5?5failed@ 00457b48     svdb.obj
 0002:00001b6c       ??_C@_0CC@ILBPHEM@Global?2SiteView?9database?9instanc@ 00457b6c     svdb.obj
 0002:00001b90       ??_C@_0BJ@MHLFCLPH@svdb?5has?5run?5already?5at?5?$AA@ 00457b90     svdb.obj
 0002:00001bac       ??_C@_0L@KIBAFIB@alreadyRun?$AA@ 00457bac     svdb.obj
 0002:00001bb8       ??_7?$sorttree@V?$hashelement@Vword@svutil@@PAVPort@@@svutil@@@svutil@@6B@ 00457bb8     svdb.obj
 0002:00001bbc       ??_7?$treenode@V?$hashelement@Vword@svutil@@PAVPort@@@svutil@@@svutil@@6B@ 00457bbc     svdb.obj
 0002:00001bc0       ??_C@_0CP@GGLCOFKJ@?9?9?9?9?9?5?5?5?5See?5you?5again?4?5?5?5?5?5?5?5?5?5@ 00457bc0     svdb.obj
 0002:00001bf0       ??_C@_0DA@HHHLHLBD@?9?9?9?9?9?9?9?9?9?9?9?9?9?9?9?9?9?9?9?9?9?9?9?9?9?9?9?9?9?9?9?9@ 00457bf0     svdb.obj
 0002:00001c20       ??_C@_0CP@HPAKFJJP@?9?9?9?9?9?5?5?5?5Stopping?5svdb?0?5please?5w@ 00457c20     svdb.obj
 0002:00001c50       ??_C@_0DB@CGJELPP@?6?6?9?9?9?9?9?9?9?9?9?9?9?9?9?9?9?9?9?9?9?9?9?9?9?9?9?9?9?9?9?9@ 00457c50     svdb.obj
 0002:00001c84       ??_C@_0BA@EPIHLAED@svdb?5closed?5at?5?$AA@ 00457c84     svdb.obj
 0002:00001c94       ??_C@_0BE@BPLNEGMP@?2data?2svdbclose?4txt?$AA@ 00457c94     svdb.obj
 0002:00001ca8       ??_C@_0CF@MGBKOIJI@Failed?5to?5set?5Console?5Ctrl?5Handl@ 00457ca8     svdb.obj
 0002:00001cd0       ??_C@_0BC@BPIDNDJB@Start?5svdb?5failed?$AA@ 00457cd0     svdb.obj
 0002:00001ce4       ??_C@_0BC@DBAKKFEN@Invalid?5parameter?$AA@ 00457ce4     svdb.obj
 0002:00001cf8       ??_C@_0L@MDGHKLOI@?9uninstall?$AA@ 00457cf8     svdb.obj
 0002:00001d04       ??_C@_08PEJOLNGE@?9install?$AA@ 00457d04     svdb.obj
 0002:00001d10       ??_C@_08LFFEJACD@?9service?$AA@ 00457d10     svdb.obj
 0002:00001d1c       ??_C@_0BB@HEPKMNCA@?6svdb?5main?5start?$AA@ 00457d1c     svdb.obj
 0002:00001d30       ??_C@_07KJILKOHE@find?5ok?$AA@ 00457d30     svdb.obj
 0002:00001d38       ??_C@_04KOACHJEN@Type?$AA@ 00457d38     svdb.obj
 0002:00001d40       ??_C@_05KKPNNHNB@Float?$AA@ 00457d40     svdb.obj
 0002:00001d48       ??_C@_01GBGANLPD@0?$AA@    00457d48     svdb.obj
 0002:00001d4c       ??_C@_0M@OHKMKKDH@Description?$AA@ 00457d4c     svdb.obj
 0002:00001d58       ??_C@_05IEIONIFO@Label?$AA@ 00457d58     svdb.obj
 0002:00001d60       ??_C@_07DHNMFMCI@chinese?$AA@ 00457d60     svdb.obj
 0002:00001d68       ??_C@_06ENNEIMBA@String?$AA@ 00457d68     svdb.obj
 0002:00001d70       ??_C@_04KPGEHEGE@dddd?$AA@ 00457d70     svdb.obj
 0002:00001d78       ??_C@_0BJ@DMGBMBLH@SiteView70?9DBRecordTrack?$AA@ 00457d78     svdbmain.obj
 0002:00001d94       ??_C@_0M@BKPAPJDK@?0oscmd?4ini?0?$AA@ 00457d94     svdbmain.obj
 0002:00001da0       ??_C@_0BI@DHKBAIFL@SiteView70?9IniFileTrack?$AA@ 00457da0     svdbmain.obj
 0002:00001db8       ??_C@_0BK@DOKDOKML@?0alert?4ini?0smsconfig?4ini?0?$AA@ 00457db8     svdbmain.obj
 0002:00001dd4       ??_C@_0BH@OCJGEBAB@SiteView70?9ConfigTrack?$AA@ 00457dd4     svdbmain.obj
 0002:00001dec       ??_C@_0BB@IPJEIMHB@SiteView70?9Alert?$AA@ 00457dec     svdbmain.obj
 0002:00001e00       ??_C@_0BB@EFNDBCLP@d?3?2v70?2data?2main?$AA@ 00457e00     svdbmain.obj
 0002:00001e14       ??_7?$sorttree@V?$hashelement@Vword@svutil@@PAVGeneralPool@@@svutil@@@svutil@@6B@ 00457e14     svdbmain.obj
 0002:00001e18       ??_7SVSEPool@@6BSerialBase@@@ 00457e18     svdbmain.obj
 0002:00001e24       ??_7SVSEPool@@6BPoolBase2@@@ 00457e24     svdbmain.obj
 0002:00001e2c       ??_C@_0BB@GLHACAEF@D?3?2v70?2data?2main?$AA@ 00457e2c     svdbmain.obj
 0002:00001e40       ??_C@_0CC@FPGNDNKK@?6?6SVDB?5server?5starts?5working?4?4?4?5@ 00457e40     svdbmain.obj
 0002:00001e64       ??_C@_0BA@BJOHDNFE@Socket?5mode?5VAR?$AA@ 00457e64     svdbmain.obj
 0002:00001e74       ??_C@_0CA@DMFJCAEL@Init?5socket?5watch?5thread?5failed?$AA@ 00457e74     svdbmain.obj
 0002:00001e94       ??_C@_0O@PKAKPLIL@Wait?5mode?5FIX?$AA@ 00457e94     svdbmain.obj
 0002:00001ea4       ??_C@_0O@FOOPBFCG@Wait?5mode?5VAR?$AA@ 00457ea4     svdbmain.obj
 0002:00001eb4       ??_C@_0BJ@JJEBOEII@Init?5watch?5thread?5failed?$AA@ 00457eb4     svdbmain.obj
 0002:00001ed0       ??_C@_0CH@BHJBGGLA@Start?5all?5?$CFd?5DB?5files?3?5?5?$CF?42f?5sec@ 00457ed0     svdbmain.obj
 0002:00001ef8       __real@3f50624dd2f1a9fc    00457ef8     svdbmain.obj
 0002:00001f00       ??_C@_0BH@NPPPPACO@?$CFs?1data?1?$CFs?1Entity?4data?$AA@ 00457f00     svdbmain.obj
 0002:00001f18       ??_C@_0BG@CINELHAE@?$CFs?1data?1?$CFs?1Group?4data?$AA@ 00457f18     svdbmain.obj
 0002:00001f30       ??_C@_0BF@FJKCIEHJ@?$CFs?1data?1?$CFs?1SVSE?4data?$AA@ 00457f30     svdbmain.obj
 0002:00001f48       ??_C@_0BI@HFCOLEBB@Failed?5to?5start?5sub?5db?4?$AA@ 00457f48     svdbmain.obj
 0002:00001f60       ??_C@_0O@BIGAIEDF@?1Monitor?4data?$AA@ 00457f60     svdbmain.obj
 0002:00001f70       ??_C@_0N@GNPPPNCL@?1Entity?4data?$AA@ 00457f70     svdbmain.obj
 0002:00001f80       ??_C@_0BO@OHLGMANB@?$CFs?1data?1idc_data?1Monitor?4data?$AA@ 00457f80     svdbmain.obj
 0002:00001fa0       ??_C@_0BI@GILIHALH@?$CFs?1data?1?$CFs?1Monitor?4data?$AA@ 00457fa0     svdbmain.obj
 0002:00001fb8       ??_C@_0BN@LENBGJPC@?$CFs?1data?1idc_data?1Entity?4data?$AA@ 00457fb8     svdbmain.obj
 0002:00001fd8       ??_C@_0BL@EONGKBFE@?$CFs?1data?1idc_data?1SVSE?4data?$AA@ 00457fd8     svdbmain.obj
 0002:00001ff4       ??_C@_0BA@MGCBNFIO@Start?5db?5failed?$AA@ 00457ff4     svdbmain.obj
 0002:00002004       ??_C@_0M@CLFJDPGB@SiteViewLog?$AA@ 00458004     svdbmain.obj
 0002:00002010       ??_C@_0BP@MCLDAAIM@SingleFileSize?3?$CFd?0PageSize?3?$CFd?6?$AA@ 00458010     svdbmain.obj
 0002:00002030       ??_C@_0BO@KKEPFDJM@?$CFs?1data?1?$CFs?1EntityTemplet?4data?$AA@ 00458030     svdbmain.obj
 0002:00002050       ??_C@_0BM@HJNHMAFM@?$CFs?1data?1?$CFs?1EntityGroup?4data?$AA@ 00458050     svdbmain.obj
 0002:0000206c       ??_C@_0BF@JHNKBCIM@?$CFs?1data?1?$CFs?1Task?4data?$AA@ 0045806c     svdbmain.obj
 0002:00002084       ??_C@_0BP@KENJIGNB@?$CFs?1data?1?$CFs?1MonitorTemplet?4data?$AA@ 00458084     svdbmain.obj
 0002:000020a4       ??_C@_0BJ@OPFNJGDN@Failed?5to?5load?5resource?3?$AA@ 004580a4     svdbmain.obj
 0002:000020c0       ??_C@_07HMBDMNHM@?9ForTpl?$AA@ 004580c0     svdbmain.obj
 0002:000020c8       ??_C@_0BJ@GKJLCDG@?$CFs?1data?1?$CFs?1Resource?4data?$AA@ 004580c8     svdbmain.obj
 0002:000020e4       ??_C@_0M@CCDHGKPJ@?6Load?5data?6?$AA@ 004580e4     svdbmain.obj
 0002:000020f0       ??_C@_0P@JJOEAHLJ@?1data?1idc_data?$AA@ 004580f0     svdbmain.obj
 0002:00002100       ??_C@_0BE@KGKMGEOO@?6Load?5data?5for?5IDC?6?$AA@ 00458100     svdbmain.obj
 0002:00002114       ??_C@_0BN@JJCANLHD@?$CFs?1data?1?$CFs?1VirtualGroup?4data?$AA@ 00458114     svdbmain.obj
 0002:00002134       ??_C@_0BO@GALMKPCC@?$CFs?1data?1?$CFs?1TopologyChart?4data?$AA@ 00458134     svdbmain.obj
 0002:00002154       ??_C@_0BJ@CKLFNLMJ@?$CFs?1data?1?$CFs?1EntityEx?4data?$AA@ 00458154     svdbmain.obj
 0002:00002170       ??_C@_0P@BIILAHCH@m_RootPath?$DN?$CFs?6?$AA@ 00458170     svdbmain.obj
 0002:00002180       ??_C@_02DPNLHKJD@a?$CL?$AA@ 00458180     svdbtype.obj
 0002:00002184       ??_C@_0M@BOAMAKAC@Creat?5IDS?3?5?$AA@ 00458184     svdbtype.obj
 0002:00002190       ??_C@_03MHLONNLM@?5?$DN?5?$AA@ 00458190     svdbtype.obj
 0002:00002194       ??_C@_0M@BHMDJBO@IDS_?$CFd_?$CFd?$CFd?$AA@ 00458194     svdbtype.obj
 0002:000021a0       ??_C@_04CLJBCMMC@IDS_?$AA@ 004581a0     svdbtype.obj
 0002:000021a8       ??_C@_0N@OIEMBJGM@sv_itemlabel?$AA@ 004581a8     svdbtype.obj
 0002:000021b8       ??_C@_06FEEPOCGD@sv_tip?$AA@ 004581b8     svdbtype.obj
 0002:000021c0       ??_C@_0M@KAOJENPG@sv_helptext?$AA@ 004581c0     svdbtype.obj
 0002:000021cc       ??_C@_0P@HIONBOCF@sv_description?$AA@ 004581cc     svdbtype.obj
 0002:000021dc       ??_C@_0BE@ICFBFFPI@Monitor?5is?5disabled?$AA@ 004581dc     svdbtype.obj
 0002:000021f0       ??_C@_0CP@KAKKKOBA@disable?5temporarily?0?5start?5time?3@ 004581f0     svdbtype.obj
 0002:00002220       ??_C@_0BJ@KIKGADNF@CombinedEntityTypeMarker?$AA@ 00458220     svdbtype.obj
 0002:0000223c       ??_C@_0BO@EPNBDEIO@SiteView70_CentralBackupCache?$AA@ 0045823c     svdbtype.obj
 0002:0000225c       ??_7SVSE@@6B@              0045825c     SVSE.obj
 0002:00002268       ??_C@_0BI@DPMJCJPJ@Load?5SVSEPool?5Exception?$AA@ 00458268     SVSEPool.obj
 0002:00002280       ??_C@_0BK@CBMONDGH@Submit?5SVSEPool?5Exception?$AA@ 00458280     SVSEPool.obj
 0002:0000229c       ??_C@_0BI@BEFPFEDH@GetSingleRecord?5failed?4?$AA@ 0045829c     Table.obj
 0002:000022b4       ??_C@_05ELOBGPJG@ddddd?$AA@ 004582b4     Table.obj
 0002:000022bc       ??_C@_0BI@EOBDDFLH@Query?5record?5count?5of?5?$CC?$AA@ 004582bc     Table.obj
 0002:000022d4       ??_C@_04LAIDAOAB@?$CC?3?5?5?$AA@ 004582d4     Table.obj
 0002:000022dc       ??_C@_0DB@GDOIJOO@Append?5table?5record?5Get?5page?5fai@ 004582dc     Table.obj
 0002:00002310       ??_C@_06NCOECCNP@Get?5ok?$AA@ 00458310     ThreadContrl.obj
 0002:00002318       ??_C@_0GK@BMJGCIJC@?9?9?9?9?9?9?9?9?9?9?9?9?9?9?5?5Failed?5to?5get?5id@ 00458318     ThreadContrl.obj
 0002:00002388       ??_C@_0GM@LLDFMAHA@?9?9?9?9?9?9?9?9?9?9?9?9?9?9?5?5Failed?5to?5get?5id@ 00458388     ThreadContrl.obj
 0002:000023f4       ??_C@_0BE@FNMPBCGE@Pipe?5thread?5count?3?5?$AA@ 004583f4     ThreadContrl.obj
 0002:00002408       ??_C@_0BG@PEEHMEBM@Socket?5thread?5count?3?5?$AA@ 00458408     ThreadContrl.obj
 0002:00002420       ??_7ThreadEx@@6B@          00458420     ThreadEx.obj
 0002:00002438       ??_C@_01CLKCMJKC@?5?$AA@   00458438     util.obj
 0002:0000243c       ??_C@_05NINEKCGD@?$CFs?4?$CFd?$AA@ 0045843c     util.obj
 0002:00002444       ??_C@_01KICIPPFI@?2?$AA@   00458444     util.obj
 0002:00002448       ??_C@_0M@KEDFDEMF@root_path_7?$AA@ 00458448     util.obj
 0002:00002454       ??_C@_03DBLNGNIM@Int?$AA@  00458454     util.obj
 0002:00002458       ??_C@_0CH@BBAPLPNG@?5?5?5?5regedit?5key?5for?5svdb?5is?5inva@ 00458458     util.obj
 0002:00002480       ??_C@_0BO@MLDEADLE@SOFTWARE?2SiteView?2SiteViewECC?$AA@ 00458480     util.obj
 0002:000024a0       ??_C@_0BM@IJOPLAFB@?5?5?5?5regedit?5key?5for?5svdb?5?3?5?$AA@ 004584a0     util.obj
 0002:000024bc       ??_C@_0BP@JEEALGPF@SOFTWARE?2SiteView?2SiteViewCore?$AA@ 004584bc     util.obj
 0002:000024dc       ??_C@_0BE@EJGCCEAD@?$CFs?1data?1svdblog?4log?$AA@ 004584dc     util.obj
 0002:000024f0       ??_C@_02PCIJFNDE@?$AN?6?$AA@ 004584f0     util.obj
 0002:000024f4       ??_C@_01GPOEFGEJ@?7?$AA@   004584f4     util.obj
 0002:000024f8       ??_C@_02KNHHEEKP@?5?5?$AA@ 004584f8     util.obj
 0002:000024fc       ??_C@_0CM@GMHDCEAG@Exception?5to?5CreateMassRecordLis@ 004584fc     util.obj
 0002:00002528       ??_7WatchThread@@6B@       00458528     WatchThread.obj
 0002:00002540       ??_C@_0CC@KEJCKLFM@Create?5pipe?5failed?5in?5watchthrea@ 00458540     WatchThread.obj
 0002:00002564       ??_C@_0CH@MMOEODFK@ConnectNamedPipe?5failed?5in?5watch@ 00458564     WatchThread.obj
 0002:0000258c       ??_C@_0BO@LMFNNNMP@Overrun?5max?5number?5of?5connect?$AA@ 0045858c     WatchThread.obj
 0002:000025ac       ??_C@_0L@JEPCEPEJ@Connect?5ok?$AA@ 004585ac     WatchThread.obj
 0002:000025b8       ??_C@_0L@BCGOMAJO@connect?5ok?$AA@ 004585b8     WatchThread.obj
 0002:000025c4       ??_C@_09KGLGAPFC@Create?5ok?$AA@ 004585c4     WatchThread.obj
 0002:000025d0       ??_C@_0BA@KHBACOLG@In?5watch?5thread?$AA@ 004585d0     WatchThread.obj
 0002:000025e0       ??_C@_0BB@OBHHIPKL@exception?5happen?$AA@ 004585e0     WorkThread.obj
 0002:000025f4       ??_7WorkThread@@6B@        004585f4     WorkThread.obj
 0002:0000260c       ??_C@_0BD@FIAKIAHB@Send?5failed?0?5?$CFs?$CFd?6?$AA@ 0045860c     WorkThread.obj
 0002:00002620       ??_C@_0P@LCBLEJLI@Send?5ok?0?5?$CFs?$CFd?6?$AA@ 00458620     WorkThread.obj
 0002:00002630       ??_C@_0N@JLGNHFHE@pipe?9thread?5?$AA@ 00458630     WorkThread.obj
 0002:00002640       ??_C@_0P@HMJJGNMP@socket?9thread?5?$AA@ 00458640     WorkThread.obj
 0002:00002650       ??_C@_0BM@MFKMKPJC@Config?5update?5failed?0?5?$CFs?$CFd?6?$AA@ 00458650     WorkThread.obj
 0002:0000266c       ??_C@_0BI@GKFEDFKC@Config?5update?5ok?0?5?$CFs?$CFd?6?$AA@ 0045866c     WorkThread.obj
 0002:00002684       ??_C@_0BO@BCHPFKID@DB?5?$CFs?5failed?5to?5update?0?5?$CFs?$CFd?6?$AA@ 00458684     WorkThread.obj
 0002:000026a4       ??_C@_0BF@GIOFAJKI@DB?5?$CFs?5updated?0?5?$CFs?$CFd?6?$AA@ 004586a4     WorkThread.obj
 0002:000026bc       ??_C@_03HHEBJBCJ@_?$CFs?$AA@ 004586bc     WorkThread.obj
 0002:000026c0       ??_C@_03HCMCBFLP@_?$CFd?$AA@ 004586c0     WorkThread.obj
 0002:000026c4       ??_C@_04KKJBFIJG@TASK?$AA@ 004586c4     WorkThread.obj
 0002:000026cc       ??_C@_05CCMOGDN@?$CFs?3?$CFs?$AA@ 004586cc     WorkThread.obj
 0002:000026d4       ??_C@_09CICJCEJF@Notity?5ok?$AA@ 004586d4     WorkThread.obj
 0002:000026e0       ??_C@_0N@MAFEICNB@InIFileTrack?$AA@ 004586e0     WorkThread.obj
 0002:000026f0       ??_C@_0BF@BENLFIKK@INITRACK?3?$CFs?3?$CFs?3?$CFs?3?$CFs?$AA@ 004586f0     WorkThread.obj
 0002:00002708       ??_C@_0BL@GIBNBDF@trackfiles?3?$CFs?0filename?3?$CFs?6?$AA@ 00458708     WorkThread.obj
 0002:00002724       ??_C@_04MFIGCIEM@?0?$CFs?0?$AA@ 00458724     WorkThread.obj
 0002:0000272c       ??_7?$treenode@V?$hashelement@Vword@svutil@@PAVGeneralPool@@@svutil@@@svutil@@6B@ 0045872c     WorkThread.obj
 0002:00002730       ??_C@_0N@GKMBEOPC@Latest?5svse?5?$AA@ 00458730     WorkThread.obj
 0002:00002740       ??_C@_0M@EIIPHNAG@EccEntityID?$AA@ 00458740     WorkThread.obj
 0002:0000274c       ??_C@_0L@LAPNHMFE@CreateTime?$AA@ 0045874c     WorkThread.obj
 0002:00002758       ??_C@_0O@GPDLOEPI@ObjectVersion?$AA@ 00458758     WorkThread.obj
 0002:00002768       ??_C@_0BD@MAPMBAGD@query?5monitor?5info?$AA@ 00458768     WorkThread.obj
 0002:0000277c       ??_C@_0BN@EOOOJMFG@?5Send?5out?5?$CFd?5monitors?5?0?$CFs?$CFd?6?$AA@ 0045877c     WorkThread.obj
 0002:0000279c       ??_C@_0CB@LBNJDINH@Exception?5to?5Query?5mass?5monitor?4@ 0045879c     WorkThread.obj
 0002:000027c0       ??_C@_0BH@MJMEKIMB@Query?5mass?5monitor?4?4?4?6?$AA@ 004587c0     WorkThread.obj
 0002:000027d8       ??_C@_06EBDFEDAJ@ADDNEW?$AA@ 004587d8     WorkThread.obj
 0002:000027e0       ??_C@_0O@FDHCMDHG@Add?5new?5ok?5ok?$AA@ 004587e0     WorkThread.obj
 0002:000027f0       ??_C@_06FKDAMKFP@DELETE?$AA@ 004587f0     WorkThread.obj
 0002:000027f8       ??_C@_07ENJDMOMA@MONITOR?$AA@ 004587f8     WorkThread.obj
 0002:00002800       ??_C@_06HHJABCJL@UPDATE?$AA@ 00458800     WorkThread.obj
 0002:00002808       ??_C@_08OEIFGPFJ@monitor?5?$AA@ 00458808     WorkThread.obj
 0002:00002814       ??_C@_0CB@OEGDBMAM@?5obj?5in?5server?1client?5version?3?5?5@ 00458814     WorkThread.obj
 0002:00002838       ??_C@_03NIBMKKKC@?5?1?5?$AA@ 00458838     WorkThread.obj
 0002:0000283c       ??_C@_06BILGHJLN@dddddd?$AA@ 0045883c     WorkThread.obj
 0002:00002844       ??_C@_09OJOLAMIC@create?5ok?$AA@ 00458844     WorkThread.obj
 0002:00002850       ??_C@_04IAIMBIKO@pepe?$AA@ 00458850     WorkThread.obj
 0002:00002858       ??_C@_0BC@DONCOCNB@query?5entity?5info?$AA@ 00458858     WorkThread.obj
 0002:0000286c       ??_C@_0BN@BNEEGONE@?5Send?5out?5?$CFd?5entities?5?0?$CFs?$CFd?6?$AA@ 0045886c     WorkThread.obj
 0002:0000288c       ??_C@_0CA@NHHNACJC@Exception?5to?5Query?5mass?5entity?4?$AA@ 0045888c     WorkThread.obj
 0002:000028ac       ??_C@_0BG@JNDGMOBD@Query?5mass?5entity?4?4?4?6?$AA@ 004588ac     WorkThread.obj
 0002:000028c4       ??_C@_07PHDHKDKM@entity?5?$AA@ 004588c4     WorkThread.obj
 0002:000028cc       ??_C@_06GKLBAPIO@ENTITY?$AA@ 004588cc     WorkThread.obj
 0002:000028d4       ??_C@_0BE@CBIECNA@query?5resource?5info?$AA@ 004588d4     WorkThread.obj
 0002:000028e8       ??_C@_0BA@GIPNCEDK@Update?5resource?$AA@ 004588e8     WorkThread.obj
 0002:000028f8       ??_C@_0BA@DMJIPECJ@Query?5resource?5?$AA@ 004588f8     WorkThread.obj
 0002:00002908       ??_C@_0L@MOHLLPLM@len?5is?3?$CFd?6?$AA@ 00458908     WorkThread.obj
 0002:00002914       ??_C@_0BM@HDFCNEBK@Fast?5query?5resource?5by?5keys?$AA@ 00458914     WorkThread.obj
 0002:00002930       ??_C@_0M@HHJCFKCF@svse?5id?3?$CFd?6?$AA@ 00458930     WorkThread.obj
 0002:0000293c       ??_C@_05BHALBGEH@svse?5?$AA@ 0045893c     WorkThread.obj
 0002:00002944       ??_C@_0O@JBKLKHBI@Peer?5has?5exit?$AA@ 00458944     WorkThread.obj
 0002:00002954       ??_C@_0M@JDAIJPOC@in?5blockpop?$AA@ 00458954     WorkThread.obj
 0002:00002960       ??_C@_0N@LNMOLIFI@in?5blockpeek?$AA@ 00458960     WorkThread.obj
 0002:00002970       ??_C@_0P@HDEFLFHC@in?5peekmessage?$AA@ 00458970     WorkThread.obj
 0002:00002980       ??_C@_0O@LJKKNEOF@in?5popmessage?$AA@ 00458980     WorkThread.obj
 0002:00002990       ??_C@_0BF@BHPAKKMC@EntityEx?5add?5new?5ok?4?$AA@ 00458990     WorkThread.obj
 0002:000029a8       ??_C@_0BB@OPMJKAPE@EntityEx?5add?5new?$AA@ 004589a8     WorkThread.obj
 0002:000029bc       ??_C@_0BE@MPGKIDEN@EntityEx?5query?5info?$AA@ 004589bc     WorkThread.obj
 0002:000029d0       ??_C@_0BA@MGLOADLG@EntityEx?5delete?$AA@ 004589d0     WorkThread.obj
 0002:000029e0       ??_C@_0BC@EBCNMFMB@EntityEx?5get?3?5?$CFs?6?$AA@ 004589e0     WorkThread.obj
 0002:000029f4       ??_C@_08EMBNBNLN@property?$AA@ 004589f4     WorkThread.obj
 0002:00002a00       ??_C@_04EHIOMBPF@word?$AA@ 00458a00     WorkThread.obj
 0002:00002a08       ??_C@_07NNIMOMGM@?3?5key?$DN?5?$AA@ 00458a08     WorkThread.obj
 0002:00002a10       ??_C@_08CHDCEDHK@?5value?$DN?5?$AA@ 00458a10     WorkThread.obj
 0002:00002a1c       ??_C@_0BG@PLNEEHHL@Get?5EntityEx?5info?5in?5?$AA@ 00458a1c     WorkThread.obj
 0002:00002a34       ??_C@_0BI@KDMFJBIG@EntityEx?5update?5failed?4?$AA@ 00458a34     WorkThread.obj
 0002:00002a4c       ??_C@_0BE@EOHCFDFF@EntityEx?5update?5ok?4?$AA@ 00458a4c     WorkThread.obj
 0002:00002a60       ??_C@_0BJ@PGCJJGBL@TopologyChart?5Add?5new?5ok?$AA@ 00458a60     WorkThread.obj
 0002:00002a7c       ??_C@_0BG@JPKFBCLI@TopologyChart?5add?5new?$AA@ 00458a7c     WorkThread.obj
 0002:00002a94       ??_C@_0BJ@CEBNBGNA@TopologyChart?5query?5info?$AA@ 00458a94     WorkThread.obj
 0002:00002ab0       ??_C@_0BF@MAPIMALD@TopologyChart?5delete?$AA@ 00458ab0     WorkThread.obj
 0002:00002ac8       ??_C@_0BH@DODHKEMI@TopologyChart?5get?3?5?$CFs?6?$AA@ 00458ac8     WorkThread.obj
 0002:00002ae0       ??_C@_0BL@GFJPFGFE@Get?5TopologyChart?5info?5in?5?$AA@ 00458ae0     WorkThread.obj
 0002:00002afc       ??_C@_0BN@EAJBAGCF@TopologyChart?5update?5failed?4?$AA@ 00458afc     WorkThread.obj
 0002:00002b1c       ??_C@_0BJ@KFAFMGMI@TopologyChart?5update?5ok?4?$AA@ 00458b1c     WorkThread.obj
 0002:00002b38       ??_C@_0BI@BAGLJFAK@VirtualGroup?5Add?5new?5ok?$AA@ 00458b38     WorkThread.obj
 0002:00002b50       ??_C@_0BF@HFGJBJHN@VirtualGroup?5add?5new?$AA@ 00458b50     WorkThread.obj
 0002:00002b68       ??_C@_0BI@MCFPBFMB@VirtualGroup?5query?5info?$AA@ 00458b68     WorkThread.obj
 0002:00002b80       ??_C@_0BE@NJLEDMDH@VirtualGroup?5delete?$AA@ 00458b80     WorkThread.obj
 0002:00002b94       ??_C@_0BB@FAAHJIKB@VirtualGroup?5get?$AA@ 00458b94     WorkThread.obj
 0002:00002ba8       ??_C@_0BK@MEEFGDCH@Get?5VirtualGroup?5info?5in?5?$AA@ 00458ba8     WorkThread.obj
 0002:00002bc4       ??_C@_0BE@PEBEOEPD@VirtualGroup?5update?$AA@ 00458bc4     WorkThread.obj
 0002:00002bd8       ??_C@_04BMCEDOKO@EDIT?$AA@ 00458bd8     WorkThread.obj
 0002:00002be0       ??_C@_0BB@DADGKBNB@$newsection3721$?$AA@ 00458be0     WorkThread.obj
 0002:00002bf4       ??_C@_06HKBJAOFD@in?5new?$AA@ 00458bf4     WorkThread.obj
 0002:00002bfc       ??_C@_0BH@CJJOLCNL@Deleting?5in?5ini?5file?3?5?$AA@ 00458bfc     WorkThread.obj
 0002:00002c14       ??_C@_0BH@JIDPBJDG@Updating?5of?5ini?5file?3?5?$AA@ 00458c14     WorkThread.obj
 0002:00002c2c       ??_C@_0BD@CFJGGBHM@?$CFs?1data?1IniFile?1?$CFs?$AA@ 00458c2c     WorkThread.obj
 0002:00002c40       ??_C@_0BH@EOCJGNBB@?$CFs?1data?1idc_data?1?$CFs?1?$CFs?$AA@ 00458c40     WorkThread.obj
 0002:00002c58       ??_C@_0BG@CNJFCMPN@Query?5monitortemplet?5?$AA@ 00458c58     WorkThread.obj
 0002:00002c70       ??_C@_0BG@IFFOMMHE@Update?5monitortemplet?$AA@ 00458c70     WorkThread.obj
 0002:00002c88       ??_C@_0BL@JBEOOPBL@Query?5entity?5template?5info?$AA@ 00458c88     WorkThread.obj
 0002:00002ca4       ??_C@_0CD@CPHBHDGJ@Query?5entity?5template?5in?5propert@ 00458ca4     WorkThread.obj
 0002:00002cc8       ??_C@_0P@HDJICCGP@?1data?1IniFile?1?$AA@ 00458cc8     WorkThread.obj
 0002:00002cd8       ??_C@_06FBHFMEGP@copy?5?$CC?$AA@ 00458cd8     WorkThread.obj
 0002:00002ce0       ??_C@_05PHMKEKBB@?$CC?5to?5?$AA@ 00458ce0     WorkThread.obj
 0002:00002ce8       ??_C@_03NONCDIOG@?3?5?$CC?$AA@ 00458ce8     WorkThread.obj
 0002:00002cec       ??_C@_09DCIAEEEH@userindex?$AA@ 00458cec     WorkThread.obj
 0002:00002cf8       ??_C@_0BK@MDPOJHPL@?6Creat?5idc?5user?0?5pid?3?5?$CFs?6?$AA@ 00458cf8     WorkThread.obj
 0002:00002d14       ??_C@_0BB@MJMMMDBN@query?5group?5info?$AA@ 00458d14     WorkThread.obj
 0002:00002d28       ??_C@_05NAIABEH@GROUP?$AA@ 00458d28     WorkThread.obj
 0002:00002d30       ??_C@_0N@GMBGILNA@Update?5group?$AA@ 00458d30     WorkThread.obj
 0002:00002d40       ??_C@_06OMJOACOA@group?5?$AA@ 00458d40     WorkThread.obj
 0002:00002d48       ??_C@_0O@DMDLNDEH@copy?5ini?5file?$AA@ 00458d48     WorkThread.obj
 0002:00002d58       ??_C@_0CJ@LOBHFINL@Exception?5in?5WorkThread?3?3QueryMa@ 00458d58     WorkThread.obj
 0002:00002d84       ??_C@_0BM@FHNEEHEN@Cannot?5find?5the?5db?5of?5user?3?$AA@ 00458d84     WorkThread.obj
 0002:00002da0       ??_C@_0BI@LMIDCEIP@?5Send?5out?5?$CFd?5DYN?5?0?$CFs?$CFd?6?$AA@ 00458da0     WorkThread.obj
 0002:00002db8       ??_C@_0BN@FBBHCCFK@Exception?5to?5Query?5mass?5dyn?4?$AA@ 00458db8     WorkThread.obj
 0002:00002dd8       ??_C@_0BD@IOCIBLA@Query?5mass?5dyn?4?4?4?6?$AA@ 00458dd8     WorkThread.obj
 0002:00002dec       ??_C@_0CJ@LGAEAIBE@?5Failed?5to?5appending?5mass?5record@ 00458dec     WorkThread.obj
 0002:00002e18       ??_C@_0DI@FACBBABL@?5Succeeded?5to?5appending?5?$CFd?5recor@ 00458e18     WorkThread.obj
 0002:00002e50       ??_C@_0BP@HIHDJPND@Exception?5to?5AppendMassRecord?4?$AA@ 00458e50     WorkThread.obj
 0002:00002e70       ??_C@_0BL@LCCOHANN@Appending?5mass?5records?4?4?4?6?$AA@ 00458e70     WorkThread.obj
 0002:00002e8c       ??_C@_0CD@GELFNKLA@thread?5exit?5with?5event?5wait?5fail@ 00458e8c     WorkThread.obj
 0002:00002eb0       ??_C@_0CB@KGGBOGMJ@Flush?5buffer?5failed?5error?5id?3?$CFd?6@ 00458eb0     WorkThread.obj
 0002:00002ed4       ??_C@_0N@CMDDNOPE@Pipe?5is?5NULL?$AA@ 00458ed4     WorkThread.obj
 0002:00002ee4       ??_C@_07EJCJCGEI@Event?4?5?$AA@ 00458ee4     WorkThread.obj
 0002:00002eec       ??_C@_0P@BNHBOBHM@In?5work?5thread?$AA@ 00458eec     WorkThread.obj
 0002:00002efc       ??_C@_0P@PAHMLDCE@Socket?5is?5NULL?$AA@ 00458efc     WorkThread.obj
 0002:00003710       ??_7Edge@@6B@              00459710     Edge.obj
 0002:0000371c       ??_C@_0CI@HEPBCGJM@Exception?5to?5EntityEx?3?3GetRawDat@ 0045971c     EntityEx.obj
 0002:00003744       ??_C@_0DC@MJHKFBKC@Exception?5to?5Port?3?5?$CC?$CFs?$CC?5?0?5svapi?5@ 00459744     EntityEx.obj
 0002:00003778       ??_C@_0CE@HBBBOFFM@Exception?5to?5EntityEx?3?3GetRawDat@ 00459778     EntityEx.obj
 0002:0000379c       ??_C@_0CP@HLDHNPPG@Exception?5to?5EntityEx?3?3CreateObj@ 0045979c     EntityEx.obj
 0002:000037cc       ??_7?$treenode@V?$hashelement@Vword@svutil@@PAVEntityEx@@@svutil@@@svutil@@6B@ 004597cc     EntityPoolEx.obj
 0002:000037d0       ??_7?$sorttree@V?$hashelement@Vword@svutil@@PAVEntityEx@@@svutil@@@svutil@@6B@ 004597d0     EntityPoolEx.obj
 0002:000037d4       ??_7EntityPoolEx@@6BSerialBase@@@ 004597d4     EntityPoolEx.obj
 0002:000037e0       ??_7EntityPoolEx@@6BPoolBase@@@ 004597e0     EntityPoolEx.obj
 0002:000037e8       ??_C@_0CJ@DBNBMPGA@?6Exception?5to?5EntityPoolEx?3?3GetR@ 004597e8     EntityPoolEx.obj
 0002:00003814       ??_C@_0DE@JAGCFEJB@?6Exception?5to?5EntityPoolEx?3?3Crea@ 00459814     EntityPoolEx.obj
 0002:00003848       ??_7EntityRelation@@6B@    00459848     EntityRelation.obj
 0002:00003854       ??_C@_0CL@EGDFEKOE@?6Exception?5to?5EntityRelation?3?3Ge@ 00459854     EntityRelation.obj
 0002:00003880       ??_C@_0DF@LEFDJMII@Exception?5to?5EntityRelation?3?3Cre@ 00459880     EntityRelation.obj
 0002:000038b8       ??_7Port@@6B@              004598b8     Port.obj
 0002:000038c4       ??_C@_0CD@EBCEKBCB@Exeption?5to?5Port?3?3GetRawDataSize@ 004598c4     Port.obj
 0002:000038e8       ??_C@_0CC@BAADMKGN@?6?5Exception?5to?5Port?3?3GetRawData?5@ 004598e8     Port.obj
 0002:0000390c       ??_C@_0CN@LCPCNJKF@?6?5Exception?5to?5Port?3?3CreateObjec@ 0045990c     Port.obj
 0002:0000393c       ??_C@_0CJ@DKIHHOIF@Exception?5to?5TopologyChart?3?3GetR@ 0045993c     TopologyChart.obj
 0002:00003968       ??_7TopologyChart@@6B@     00459968     TopologyChart.obj
 0002:00003974       ??_C@_0CN@BIPODCBK@Exception?5to?5TopologyChart?3?3GetR@ 00459974     TopologyChart.obj
 0002:000039a4       ??_C@_0DC@DPCNNIHO@Exception?5to?5TopologyChart?3?3Crea@ 004599a4     TopologyChart.obj
 0002:000039d8       ??_C@_0CD@LOJCOOAD@Submit?5TopologyChartPool?5Excepti@ 004599d8     TopologyChartPool.obj
 0002:000039fc       ??_7?$treenode@V?$hashelement@Vword@svutil@@PAVTopologyChart@@@svutil@@@svutil@@6B@ 004599fc     TopologyChartPool.obj
 0002:00003a00       ??_7?$sorttree@V?$hashelement@Vword@svutil@@PAVTopologyChart@@@svutil@@@svutil@@6B@ 00459a00     TopologyChartPool.obj
 0002:00003a04       ??_7TopologyChartPool@@6BSerialBase@@@ 00459a04     TopologyChartPool.obj
 0002:00003a10       ??_7TopologyChartPool@@6BPoolBase@@@ 00459a10     TopologyChartPool.obj
 0002:00003a18       ??_C@_0CO@PLFIKEPG@?6Exception?5to?5TopologyChartPool?3@ 00459a18     TopologyChartPool.obj
 0002:00003a48       ??_C@_0DI@GEGNJMNK@?6Exception?5to?5TopologyChartPool?3@ 00459a48     TopologyChartPool.obj
 0002:00003a80       ??_7VirtualGroup@@6B@      00459a80     VirtualGroup.obj
 0002:00003a8c       ??_7?$treenode@V?$hashelement@Vword@svutil@@PAVVirtualGroup@@@svutil@@@svutil@@6B@ 00459a8c     VirtualGroupPool.obj
 0002:00003a90       ??_7?$sorttree@V?$hashelement@Vword@svutil@@PAVVirtualGroup@@@svutil@@@svutil@@6B@ 00459a90     VirtualGroupPool.obj
 0002:00003a94       ??_7VirtualGroupPool@@6BSerialBase@@@ 00459a94     VirtualGroupPool.obj
 0002:00003aa0       ??_7VirtualGroupPool@@6BPoolBase@@@ 00459aa0     VirtualGroupPool.obj
 0002:00003aac       ??_7type_info@@6B@         00459aac     MSVCRT:ti_inst.obj
 0002:00003b30       ??_C@_0BO@GNIAFIKK@Unknown?5Runtime?5Check?5Error?6?$AN?$AA@ 00459b30     MSVCRT:error.obj
 0002:00003b50       ??_C@_0DG@HKJMLLLP@A?5local?5variable?5was?5used?5before@ 00459b50     MSVCRT:error.obj
 0002:00003b88       ??_C@_0BN@FFOINMNJ@Stack?5memory?5was?5corrupted?6?$AN?$AA@ 00459b88     MSVCRT:error.obj
 0002:00003ba8       ??_C@_0BBN@GPMLNJCF@A?5cast?5to?5a?5smaller?5data?5type?5ha@ 00459ba8     MSVCRT:error.obj
 0002:00003cc8       ??_C@_0NN@NGPKDKPD@The?5value?5of?5ESP?5was?5not?5properl@ 00459cc8     MSVCRT:error.obj
 0002:00003dc4       ??_C@_0BC@KNBMEBEO@IsDebuggerPresent?$AA@ 00459dc4     MSVCRT:error.obj
 0002:00003dd8       ??_C@_0N@HAOHNMDE@Kernel32?4dll?$AA@ 00459dd8     MSVCRT:error.obj
 0002:00003de8       ??_C@_0CA@IODNCDPG@Run?9Time?5Check?5Failure?5?$CD?$CFd?5?9?5?$CFs?$AA@ 00459de8     MSVCRT:error.obj
 0002:00003e08       ??_C@_0CK@CNLNOEPB@Local?5variable?5used?5before?5initi@ 00459e08     MSVCRT:userapi.obj
 0002:00003e34       ??_C@_0BI@CIGMDCBH@Stack?5memory?5corruption?$AA@ 00459e34     MSVCRT:userapi.obj
 0002:00003e4c       ??_C@_0CK@FEGOIOPB@Cast?5to?5smaller?5type?5causing?5los@ 00459e4c     MSVCRT:userapi.obj
 0002:00003e78       ??_C@_0BJ@HEGAHDFO@Stack?5pointer?5corruption?$AA@ 00459e78     MSVCRT:userapi.obj
 0002:00003e94       ??_C@_0M@HHEBEAAO@MSPDB71?4DLL?$AA@ 00459e94     MSVCRT:pdblkup.obj
 0002:00003ea0       ??_C@_0N@KIGOLBLC@Module32Next?$AA@ 00459ea0     MSVCRT:pdblkup.obj
 0002:00003eb0       ??_C@_0O@CNMFJJGO@Module32First?$AA@ 00459eb0     MSVCRT:pdblkup.obj
 0002:00003ec0       ??_C@_0BF@OCLFCNKN@GetModuleInformation?$AA@ 00459ec0     MSVCRT:pdblkup.obj
 0002:00003ed8       ??_C@_0BD@FIEJBLME@EnumProcessModules?$AA@ 00459ed8     MSVCRT:pdblkup.obj
 0002:00003eec       ??_C@_09EPMADGLA@PSAPI?4DLL?$AA@ 00459eec     MSVCRT:pdblkup.obj
 0002:00003ef8       ??_C@_0BJ@JEFKDHMD@CreateToolhelp32Snapshot?$AA@ 00459ef8     MSVCRT:pdblkup.obj
 0002:00003f14       ??_C@_0O@CHDGJGFP@ImageNtHeader?$AA@ 00459f14     MSVCRT:pdblkup.obj
 0002:00003f24       ??_C@_0N@KBGMOMJO@IMAGEHLP?4DLL?$AA@ 00459f24     MSVCRT:pdblkup.obj
 0002:00003f34       ??_C@_0N@NHGLKGEC@KERNEL32?4DLL?$AA@ 00459f34     MSVCRT:pdblkup.obj
 0002:00003f44       ??_C@_0BF@BMIHBHCA@EnvironmentDirectory?$AA@ 00459f44     MSVCRT:pdblkup.obj
 0002:00003f5c       ??_C@_0CN@KGLAKABH@SOFTWARE?2Microsoft?2VisualStudio?2@ 00459f5c     MSVCRT:pdblkup.obj
 0002:00003f8c       ??_C@_0M@HLOHPNFA@RegCloseKey?$AA@ 00459f8c     MSVCRT:pdblkup.obj
 0002:00003f98       ??_C@_0BB@HHEIPGME@RegQueryValueExA?$AA@ 00459f98     MSVCRT:pdblkup.obj
 0002:00003fac       ??_C@_0O@DCOGKJGG@RegOpenKeyExA?$AA@ 00459fac     MSVCRT:pdblkup.obj
 0002:00003fbc       ??_C@_0N@JJPEKNFO@ADVAPI32?4DLL?$AA@ 00459fbc     MSVCRT:pdblkup.obj
 0002:00003fcc       ??_C@_01KDCPPGHE@r?$AA@    00459fcc     MSVCRT:pdblkup.obj
 0002:00003fd0       ??_C@_08ONJBEOFA@PDBClose?$AA@ 00459fd0     MSVCRT:pdblkup.obj
 0002:00003fdc       ??_C@_08NINFAAFA@DBIClose?$AA@ 00459fdc     MSVCRT:pdblkup.obj
 0002:00003fe8       ??_C@_08LIGPJJNA@ModClose?$AA@ 00459fe8     MSVCRT:pdblkup.obj
 0002:00003ff4       ??_C@_0O@IPLOKOKN@ModQueryLines?$AA@ 00459ff4     MSVCRT:pdblkup.obj
 0002:00004004       ??_C@_0BE@GDNPNLGH@DBIQueryModFromAddr?$AA@ 0045a004     MSVCRT:pdblkup.obj
 0002:00004018       ??_C@_0L@KPMOCKEL@PDBOpenDBI?$AA@ 0045a018     MSVCRT:pdblkup.obj
 0002:00004024       ??_C@_0BB@PENKIMFE@PDBOpenValidate3?$AA@ 0045a024     MSVCRT:pdblkup.obj
 0002:000040a8       ??_R1A@?0A@A@type_info@@8  0045a0a8     MSVCRT:ti_inst.obj
 0002:000040c0       ??_R2type_info@@8          0045a0c0     MSVCRT:ti_inst.obj
 0002:000040c8       ??_R3type_info@@8          0045a0c8     MSVCRT:ti_inst.obj
 0002:000040d8       ??_R4type_info@@6B@        0045a0d8     MSVCRT:ti_inst.obj
 0002:000040ec       ___rtc_iaa                 0045a0ec     MSVCRT:initsect.obj
 0002:000040f4       ___rtc_izz                 0045a0f4     MSVCRT:initsect.obj
 0002:000040f8       ___rtc_taa                 0045a0f8     MSVCRT:initsect.obj
 0002:00004100       ___rtc_tzz                 0045a100     MSVCRT:initsect.obj
 0002:00004104       __CT??_R0?AVexception@@@8??0exception@@QAE@ABV0@@Z12 0045a104     DB.obj
 0002:00004120       __CT??_R0?AVlogic_error@std@@@8??0logic_error@std@@QAE@ABV01@@Z40 0045a120     DB.obj
 0002:0000413c       __CT??_R0?AVlength_error@std@@@8??0length_error@std@@QAE@ABV01@@Z40 0045a13c     DB.obj
 0002:00004158       __CTA3?AVlength_error@std@@ 0045a158     DB.obj
 0002:00004168       __TI3?AVlength_error@std@@ 0045a168     DB.obj
 0002:00004508       __CT??_R0?AVexception@svutil@@@8??0exception@svutil@@QAE@ABV01@@Z280 0045a508     DB.obj
 0002:00004524       __CTA1?AVexception@svutil@@ 0045a524     DB.obj
 0002:0000452c       __TI1?AVexception@svutil@@ 0045a52c     DB.obj
 0002:00005290       __CT??_R0?AVout_of_range@std@@@8??0out_of_range@std@@QAE@ABV01@@Z40 0045b290     EntityPool.obj
 0002:000052ac       __CTA3?AVout_of_range@std@@ 0045b2ac     EntityPool.obj
 0002:000052bc       __TI3?AVout_of_range@std@@ 0045b2bc     EntityPool.obj
 0002:0000bbc4       __IMPORT_DESCRIPTOR_ccgnu2 00461bc4     ccgnu2:ccgnu2.dll
 0002:0000bbd8       __IMPORT_DESCRIPTOR_WS2_32 00461bd8     ws2_32:WS2_32.dll
 0002:0000bbec       __IMPORT_DESCRIPTOR_KERNEL32 00461bec     kernel32:KERNEL32.dll
 0002:0000bc00       __IMPORT_DESCRIPTOR_USER32 00461c00     user32:USER32.dll
 0002:0000bc14       __IMPORT_DESCRIPTOR_ADVAPI32 00461c14     advapi32:ADVAPI32.dll
 0002:0000bc28       __IMPORT_DESCRIPTOR_MSVCP71 00461c28     msvcprt:MSVCP71.dll
 0002:0000bc3c       __IMPORT_DESCRIPTOR_MSVCR71 00461c3c     MSVCRT:MSVCR71.dll
 0002:0000bc50       __NULL_IMPORT_DESCRIPTOR   00461c50     ccgnu2:ccgnu2.dll
 0003:00000000       ___xc_a                    00464000     MSVCRT:cinitexe.obj
 0003:00000050       ___xc_z                    00464050     MSVCRT:cinitexe.obj
 0003:00000054       ___xi_a                    00464054     MSVCRT:cinitexe.obj
 0003:00000058       ___xi_z                    00464058     MSVCRT:cinitexe.obj
 0003:00000060       ??_R0?AVexception@@@8      00464060     DB.obj
 0003:00000078       ??_R0?AVlogic_error@std@@@8 00464078     DB.obj
 0003:00000098       ??_R0?AVlength_error@std@@@8 00464098     DB.obj
 0003:000000b8       ??_R0?AVexception@svutil@@@8 004640b8     DB.obj
 0003:000000d8       ??_R0?AVout_of_range@std@@@8 004640d8     EntityPool.obj
 0003:000000f8       ??_R0PAVSocket@ost@@@8     004640f8     QueryData.obj
 0003:00000114       ?g_SubProcessState@@3_NA   00464114     Services.obj
 0003:00000118       ?g_ServiceName@@3PBDB      00464118     Services.obj
 0003:0000011c       ?g_ServiceDName@@3PBDB     0046411c     Services.obj
 0003:00000120       ?g_port@@3GA               00464120     svdb.obj
 0003:00000124       ?PreCreateNnmEntityParent@IdcUser@@2_NA 00464124     svdbtype.obj
 0003:00000128       ?msBackup@IdcUser@@2HA     00464128     svdbtype.obj
 0003:00000130       ?map@@3PAY0BA@DA           00464130     Des.obj
 0003:00000230       ?key8@@3PAEA               00464230     Des.obj
 0003:00000240       ??_R0?AVtype_info@@@8      00464240     MSVCRT:ti_inst.obj
 0003:00000258       ___security_cookie         00464258     MSVCRT:seccook.obj
 0003:00000260       ___defaultmatherr          00464260     MSVCRT:merr.obj
 0003:00000264       ?_RTC_ErrorLevels@@3PAHA   00464264     MSVCRT:error.obj
 0003:000002a0       ?g_dbpi@@3U_PROCESS_INFORMATION@@A 004642a0     Services.obj
 0003:000002b0       ?SVS_ServiceStatusHandle@@3PAUSERVICE_STATUS_HANDLE__@@A 004642b0     Services.obj
 0003:000002b4       ?SVS_ServiceStatus@@3U_SERVICE_STATUS@@A 004642b4     Services.obj
 0003:000002d0       ?g_Disabled@@3_NA          004642d0     Services.obj
 0003:000002d4       ?psm@@3PAVSvdbMain@@A      004642d4     svdb.obj
 0003:000002d8       ?g_account@@3PADA          004642d8     svdb.obj
 0003:000002dc       ?g_password@@3PADA         004642dc     svdb.obj
 0003:000002e0       ?g_dbPName@@3V?$basic_string@DU?$char_traits@D@std@@V?$allocator@D@2@@std@@A 004642e0     svdb.obj
 0003:000002fc       ?nnmEntityParentOk@IdcUser@@2_NA 004642fc     svdbtype.obj
 0003:000002fd       ?DisableEntityCombine@IdcUser@@2_NA 004642fd     svdbtype.obj
 0003:000002fe       ?SELocked@IdcUser@@2_NA    004642fe     svdbtype.obj
 0003:000002ff       ?RecordsAutoBackup@IdcUser@@2_NA 004642ff     svdbtype.obj
 0003:00000300       ?ConfigAutoBackup@IdcUser@@2_NA 00464300     svdbtype.obj
 0003:00000301       ?AcceptConfigIncoming@IdcUser@@2_NA 00464301     svdbtype.obj
 0003:00000302       ?FullTeleBackup@IdcUser@@2_NA 00464302     svdbtype.obj
 0003:00000303       ?EnableConfigDB@IdcUser@@2_NA 00464303     svdbtype.obj
 0003:00000304       ?EnableIdc@IdcUser@@2_NA   00464304     svdbtype.obj
 0003:00000305       ?AutoResolveIDS@IdcUser@@2_NA 00464305     svdbtype.obj
 0003:00000306       ?BoolToExit@IdcUser@@2_NA  00464306     svdbtype.obj
 0003:00000308       ?SocketTreadPlusCount@IdcUser@@2HA 00464308     svdbtype.obj
 0003:0000030c       ?PipeTreadPlusCount@IdcUser@@2HA 0046430c     svdbtype.obj
 0003:00000310       ?m_pResource@IdcUser@@2PAXA 00464310     svdbtype.obj
 0003:00000314       ?m_pLanguage@IdcUser@@2PAXA 00464314     svdbtype.obj
 0003:00000318       ?StrTempDisable@IdcUser@@2V?$basic_string@DU?$char_traits@D@std@@V?$allocator@D@2@@std@@A 00464318     svdbtype.obj
 0003:00000334       ?RootPath@IdcUser@@2V?$basic_string@DU?$char_traits@D@std@@V?$allocator@D@2@@std@@A 00464334     svdbtype.obj
 0003:00000350       ?cgiVersion@IdcUser@@2V?$basic_string@DU?$char_traits@D@std@@V?$allocator@D@2@@std@@A 00464350     svdbtype.obj
 0003:0000036c       ?nnmEntityParentValue@IdcUser@@2V?$map@V?$basic_string@DU?$char_traits@D@std@@V?$allocator@D@2@@std@@V12@U?$less@V?$basic_string@DU?$char_traits@D@std@@V?$allocator@D@2@@std@@@2@V?$allocator@U?$pair@$$CBV?$basic_string@DU?$char_traits@D@std@@V?$allocator@D@2@@std@@V12@@std@@@2@@std@@A 0046436c     svdbtype.obj
 0003:00000378       ?CacheQueueName@IdcUser@@2V?$basic_string@DU?$char_traits@D@std@@V?$allocator@D@2@@std@@A 00464378     svdbtype.obj
 0003:00000394       ?Users@IdcUser@@2V?$set@V?$basic_string@DU?$char_traits@D@std@@V?$allocator@D@2@@std@@U?$less@V?$basic_string@DU?$char_traits@D@std@@V?$allocator@D@2@@std@@@2@V?$allocator@V?$basic_string@DU?$char_traits@D@std@@V?$allocator@D@2@@std@@@2@@std@@A 00464394     svdbtype.obj
 0003:000003a0       ?CenterAdress@IdcUser@@2V?$basic_string@DU?$char_traits@D@std@@V?$allocator@D@2@@std@@A 004643a0     svdbtype.obj
 0003:000003bc       ?initial_time@IdcUser@@2IA 004643bc     svdbtype.obj
 0003:000003c0       ?svdbHostAddr@IdcUser@@2V?$basic_string@DU?$char_traits@D@std@@V?$allocator@D@2@@std@@A 004643c0     svdbtype.obj
 0003:000003dc       ?StrDisable@IdcUser@@2V?$basic_string@DU?$char_traits@D@std@@V?$allocator@D@2@@std@@A 004643dc     svdbtype.obj
 0003:000003f8       ?set_InitLoadSEId@IdcUser@@2V?$set@HU?$less@H@std@@V?$allocator@H@2@@std@@A 004643f8     svdbtype.obj
 0003:00000404       ?nnmEntityParentId@IdcUser@@2V?$map@V?$basic_string@DU?$char_traits@D@std@@V?$allocator@D@2@@std@@V12@U?$less@V?$basic_string@DU?$char_traits@D@std@@V?$allocator@D@2@@std@@@2@V?$allocator@U?$pair@$$CBV?$basic_string@DU?$char_traits@D@std@@V?$allocator@D@2@@std@@V12@@std@@@2@@std@@A 00464404     svdbtype.obj
 0003:00000410       ?nnmEntityParentKey@IdcUser@@2V?$basic_string@DU?$char_traits@D@std@@V?$allocator@D@2@@std@@A 00464410     svdbtype.obj
 0003:0000042c       ?m_LockBackupId@IdcUser@@0VMutex@ost@@A 0046442c     svdbtype.obj
 0003:0000044c       ?set_backupId@IdcUser@@0V?$set@V?$basic_string@DU?$char_traits@D@std@@V?$allocator@D@2@@std@@U?$less@V?$basic_string@DU?$char_traits@D@std@@V?$allocator@D@2@@std@@@2@V?$allocator@V?$basic_string@DU?$char_traits@D@std@@V?$allocator@D@2@@std@@@2@@std@@A 0046444c     svdbtype.obj
 0003:00000458       ?set_LocalSEId@IdcUser@@0V?$set@HU?$less@H@std@@V?$allocator@H@2@@std@@A 00464458     svdbtype.obj
 0003:00000464       ?ProcessID@IdcUser@@2V?$basic_string@DU?$char_traits@D@std@@V?$allocator@D@2@@std@@A 00464464     svdbtype.obj
 0003:00000518       ?key@@3PAEA                00464518     Des.obj
 0003:00000534       __dowildcard               00464534     MSVCRT:wildcard.obj
 0003:00000538       __newmode                  00464538     MSVCRT:_newmode.obj
 0003:0000053c       __commode                  0046453c     MSVCRT:xncommod.obj
 0003:00000540       __fmode                    00464540     MSVCRT:xtxtmode.obj
 0003:000005a0       __adjust_fdiv              004645a0     <common>
 0003:000005a4       ___onexitend               004645a4     <common>
 0003:000005a8       ___onexitbegin             004645a8     <common>
 0004:00000000       ?svdbAlreadyRun@@3PADA     00465000     svdb.obj

 entry point at        0001:0004e0b5

 Static symbols

 0001:000014cf       $L83882                    004024cf f i DB.obj
 0001:000016c1       $L84065                    004026c1 f i DB.obj
 0001:0000199f       $L85440                    0040299f f i DB.obj
 0001:00001add       $L85677                    00402add f i DB.obj
 0001:00002bd5       $L88995                    00403bd5 f i DB.obj
 0001:00002ece       $L89291                    00403ece f   DB.obj
 0001:000034e3       $L89588                    004044e3 f   DB.obj
 0001:00004142       $L91111                    00405142 f   DB.obj
 0001:00004729       $L91690                    00405729 f i DB.obj
 0001:00005f77       $L93759                    00406f77 f   DB.obj
 0001:000060ce       $L47358                    004070ce f i Entity.obj
 0001:000064c6       $L47981                    004074c6 f   Entity.obj
 0001:00006a89       $L53698                    00407a89 f   EntityGroup.obj
 0001:0000709b       $L52065                    0040809b f   EntityGroupPool.obj
 0001:000071d4       $L52098                    004081d4 f   EntityGroupPool.obj
 0001:000085f7       $L56613                    004095f7 f   EntityGroupPool.obj
 0001:0000899c       $L52224                    0040999c f   EntityPool.obj
 0001:00008ad8       $L52262                    00409ad8 f   EntityPool.obj
 0001:00008bdb       $L52311                    00409bdb f   EntityPool.obj
 0001:00009777       $L57110                    0040a777 f i EntityPool.obj
 0001:0000b0e6       $L63388                    0040c0e6 f i EntityPool.obj
 0001:0000b9b2       $L65188                    0040c9b2 f   EntityPool.obj
 0001:0000bbc3       $L65190                    0040cbc3 f   EntityPool.obj
 0001:0000be05       $L65392                    0040ce05 f   EntityPool.obj
 0001:0000c31e       $L66213                    0040d31e f i EntityPool.obj
 0001:0000d90e       $L55669                    0040e90e f   EntityTemplet.obj
 0001:0000df0b       $L53118                    0040ef0b f   EntityTempletPool.obj
 0001:0000e044       $L53151                    0040f044 f   EntityTempletPool.obj
 0001:0000f497       $L57652                    00410497 f   EntityTempletPool.obj
 0001:0000f8f1       $L52123                    004108f1 f   GeneralPool.obj
 0001:0000fa3a       $L52159                    00410a3a f   GeneralPool.obj
 0001:000117b7       $L59938                    004127b7 f   GeneralPool.obj
 0001:00013126       $L48252                    00414126 f   Group.obj
 0001:000132d6       $L51588                    004142d6 f i GroupPool.obj
 0001:0001343b       $L51679                    0041443b f   GroupPool.obj
 0001:0001353c       $L51710                    0041453c f   GroupPool.obj
 0001:00013678       $L51754                    00414678 f   GroupPool.obj
 0001:00014a16       $L61302                    00415a16 f i GroupPool.obj
 0001:000152c5       $L62865                    004162c5 f   GroupPool.obj
 0001:0001575e       $L63686                    0041675e f i GroupPool.obj
 0001:00016a41       $L43147                    00417a41 f   Monitor.obj
 0001:00016b6c       $L51560                    00417b6c f   MonitorPool.obj
 0001:00016ca8       $L51598                    00417ca8 f   MonitorPool.obj
 0001:00016dab       $L51647                    00417dab f   MonitorPool.obj
 0001:000181b6       $L62724                    004191b6 f i MonitorPool.obj
 0001:000188a2       $L64524                    004198a2 f   MonitorPool.obj
 0001:00018ab3       $L64526                    00419ab3 f   MonitorPool.obj
 0001:00018cf8       $L64728                    00419cf8 f   MonitorPool.obj
 0001:0001918e       $L65549                    0041a18e f i MonitorPool.obj
 0001:0001a8c2       $L53717                    0041b8c2 f   MonitorTemplet.obj
 0001:0001b4ab       $L49818                    0041c4ab f   MonitorTempletPool.obj
 0001:0001b5e4       $L49851                    0041c5e4 f   MonitorTempletPool.obj
 0001:0001c54c       $L55409                    0041d54c f   MonitorTempletPool.obj
 0001:0002042d       $L43321                    0042142d f i QueryData.obj
 0001:000204d1       $L43341                    004214d1 f i QueryData.obj
 0001:00020555       $L43371                    00421555 f i QueryData.obj
 0001:000208dc       $L43942                    004218dc f   QueryData.obj
 0001:00022e61       $L84604                    00423e61 f   Queue.obj
 0001:000230f6       $L85635                    004240f6 f   Queue.obj
 0001:000235fc       $L41190                    004245fc f   QueueRecord.obj
 0001:00023ae7       $L45442                    00424ae7 f   Resource.obj
 0001:00024366       $L51082                    00425366 f   Resource.obj
 0001:0002451b       $L48422                    0042551b f   ResourcePool.obj
 0001:00024644       $L48454                    00425644 f   ResourcePool.obj
 0001:00026223       $L56503                    00427223 f   ResourcePool.obj
 0001:000263e7       $L56675                    004273e7 f   ResourcePool.obj
 0001:000267db       $L47751                    004277db f   Section.obj
 0001:000270bf       $L53016                    004280bf f   Section.obj
 0001:00027b39       $L74833                    00428b39 f   SocketWatchThread.obj
 0001:00027f0e       $L22540                    00428f0e f i stlini.obj
 0001:00028448       $L25075                    00429448 f i stlini.obj
 0001:00028561       $L25990                    00429561 f i stlini.obj
 0001:0002873e       $L26828                    0042973e f i stlini.obj
 0001:00028e18       $L28477                    00429e18 f i stlini.obj
 0001:00028f31       $L29093                    00429f31 f i stlini.obj
 0001:00029381       $L47231                    0042a381 f   StringMap.obj
 0001:00029591       $L47769                    0042a591 f   StringMap.obj
 0001:0002c61a       $L79651                    0042d61a f i svdbmain.obj
 0001:0002cc3f       $L85649                    0042dc3f f i svdbmain.obj
 0001:0002cce7       $L85948                    0042dce7 f i svdbmain.obj
 0001:0002da95       $L94229                    0042ea95 f i svdbmain.obj
 0001:0002dd79       $L96386                    0042ed79 f i svdbmain.obj
 0001:0002f69e       $L54797                    0043069e f i svdbtype.obj
 0001:00030826       $L48128                    00431826 f   SVSE.obj
 0001:00030a2b       $L49389                    00431a2b f   SVSEPool.obj
 0001:00030b6f       $L49421                    00431b6f f   SVSEPool.obj
 0001:0003129a       $L54127                    0043229a f   SVSEPool.obj
 0001:00031528       $L77594                    00432528 f   Table.obj
 0001:00032cb5       $L75182                    00433cb5 f i ThreadContrl.obj
 0001:0003345d       $L46214                    0043445d f   util.obj
 0001:00033c40       $L46783                    00434c40 f   util.obj
 0001:000345dd       $L54361                    004355dd f   util.obj
 0001:00034abd       $L86334                    00435abd f i WorkThread.obj
 0001:00034b64       $L86350                    00435b64 f i WorkThread.obj
 0001:000365e7       $L99579                    004375e7 f i WorkThread.obj
 0001:00036bf5       $L106725                   00437bf5 f i WorkThread.obj
 0001:00039209       $L120917                   0043a209 f i WorkThread.obj
 0001:0003c7b4       $L127658                   0043d7b4 f   WorkThread.obj
 0001:0003cfc2       $L128007                   0043dfc2 f   WorkThread.obj
 0001:0003fc5e       $L129676                   00440c5e f i WorkThread.obj
 0001:00042e8d       $L132686                   00443e8d f   WorkThread.obj
 0001:0004357a       $L135112                   0044457a f   WorkThread.obj
 0001:00044492       $L135524                   00445492 f   WorkThread.obj
 0001:000459d9       $L140815                   004469d9 f   WorkThread.obj
 0001:00045c11       $L140817                   00446c11 f   WorkThread.obj
 0001:00046496       $L44703                    00447496 f   Edge.obj
 0001:00046cdd       $L52665                    00447cdd f   EntityEx.obj
 0001:00046d4c       $L52666                    00447d4c f   EntityEx.obj
 0001:00046fdc       $L53058                    00447fdc f   EntityEx.obj
 0001:0004740b       $L53726                    0044840b f   EntityEx.obj
 0001:0004752b       $L51430                    0044852b f   EntityPoolEx.obj
 0001:00047654       $L51462                    00448654 f   EntityPoolEx.obj
 0001:00048700       $L55901                    00449700 f   EntityPoolEx.obj
 0001:00048b99       $L56378                    00449b99 f   EntityPoolEx.obj
 0001:000490e8       $L44717                    0044a0e8 f   EntityRelation.obj
 0001:0004924f       $L44772                    0044a24f f   EntityRelation.obj
 0001:00049421       $L44655                    0044a421 f   Port.obj
 0001:00049560       $L44687                    0044a560 f   Port.obj
 0001:0004969e       $L44732                    0044a69e f   Port.obj
 0001:00049890       $L47696                    0044a890 f   TopologyChart.obj
 0001:00049a80       $L48247                    0044aa80 f   TopologyChart.obj
 0001:00049cef       $L48790                    0044acef f   TopologyChart.obj
 0001:00049e0b       $L50467                    0044ae0b f   TopologyChartPool.obj
 0001:00049f34       $L50499                    0044af34 f   TopologyChartPool.obj
 0001:0004afdf       $L54938                    0044bfdf f   TopologyChartPool.obj
 0001:0004b467       $L55415                    0044c467 f   TopologyChartPool.obj
 0001:0004bab2       $L48002                    0044cab2 f   VirtualGroup.obj
 0001:0004bcfb       $L50342                    0044ccfb f   VirtualGroupPool.obj
 0001:0004be24       $L50374                    0044ce24 f   VirtualGroupPool.obj
 0001:0004d333       $L55284                    0044e333 f   VirtualGroupPool.obj
 0001:0004dece       _report_failure            0044eece f   MSVCRT:secchk.obj
 0001:0004e445       ?DebuggerProbe@@YAHK@Z     0044f445 f   MSVCRT:error.obj
 0001:0004e492       ?DebuggerRuntime@@YAHKHPAXPB_W@Z 0044f492 f   MSVCRT:error.obj
 0001:0004e4f1       ?Win95IsDebuggerPresent@@YGHXZ 0044f4f1 f   MSVCRT:error.obj
 0001:0004e502       ?Initialize@@YAHXZ         0044f502 f   MSVCRT:error.obj
 0001:0004e56a       ?failwithmessage@@YAXPAXHHPBD@Z 0044f56a f   MSVCRT:error.obj
 0001:0004e6d8       ?GetImageInfo@@YAPAUImageInfo@@K@Z 0044f6d8 f   MSVCRT:pdblkup.obj
 0001:0004ea29       ?GetPdbDll@@YAPAUHINSTANCE__@@XZ 0044fa29 f   MSVCRT:pdblkup.obj
 0001:0004eeb0       $L81183                    0044feb0 f   DB.obj
 0001:0004eeb0       $L81518                    0044feb0 f   DB.obj
 0001:0004eeb0       $L85718                    0044feb0 f   DB.obj
 0001:0004eeb0       $L86210                    0044feb0 f   DB.obj
 0001:0004eeb0       $L81482                    0044feb0 f   DB.obj
 0001:0004eeb0       $L85474                    0044feb0 f   DB.obj
 0001:0004eeb9       $L81522                    0044feb9 f   DB.obj
 0001:0004eeb9       $L85494                    0044feb9 f   DB.obj
 0001:0004eeb9       $L86230                    0044feb9 f   DB.obj
 0001:0004eeb9       $L85738                    0044feb9 f   DB.obj
 0001:0004eeb9       $L81187                    0044feb9 f   DB.obj
 0001:0004eeb9       $L81486                    0044feb9 f   DB.obj
 0001:0004eec2       __ehhandler$?_Xlen@?$vector@PAV?$hashnode@Vword@svutil@@PAVTable@@@svutil@@V?$allocator@PAV?$hashnode@Vword@svutil@@PAVTable@@@svutil@@@std@@@std@@IBEXXZ 0044fec2 f   DB.obj
 0001:0004eec2       __ehhandler$?_Incsize@?$list@V?$basic_string@DU?$char_traits@D@std@@V?$allocator@D@2@@std@@V?$allocator@V?$basic_string@DU?$char_traits@D@std@@V?$allocator@D@2@@std@@@2@@std@@IAEXI@Z 0044fec2 f   DB.obj
 0001:0004eec2       __ehhandler$?_Incsize@?$list@VSingelRecord@@V?$allocator@VSingelRecord@@@std@@@std@@IAEXI@Z 0044fec2 f   DB.obj
 0001:0004eec2       __ehhandler$?_Xlen@?$vector@PAV?$hashnode@Vword@svutil@@PAVQueue@@@svutil@@V?$allocator@PAV?$hashnode@Vword@svutil@@PAVQueue@@@svutil@@@std@@@std@@IBEXXZ 0044fec2 f   DB.obj
 0001:0004eec2       __ehhandler$?_Incsize@?$list@PAVStringMap@@V?$allocator@PAVStringMap@@@std@@@std@@IAEXI@Z 0044fec2 f   DB.obj
 0001:0004eec2       __ehhandler$?_Xlen@?$vector@PAVDataType@@V?$allocator@PAVDataType@@@std@@@std@@IBEXXZ 0044fec2 f   DB.obj
 0001:0004eed0       $L80676                    0044fed0 f   DB.obj
 0001:0004eed0       $L81206                    0044fed0 f   DB.obj
 0001:0004eed9       __ehhandler$??1logic_error@std@@UAE@XZ 0044fed9 f   DB.obj
 0001:0004eed9       __ehhandler$??0logic_error@std@@QAE@ABV01@@Z 0044fed9 f   DB.obj
 0001:0004eef0       $L81435                    0044fef0 f   DB.obj
 0001:0004eef8       $L81436                    0044fef8 f   DB.obj
 0001:0004ef03       __ehhandler$??0?$hashelement@Vword@svutil@@V12@@svutil@@QAE@ABVword@1@@Z 0044ff03 f   DB.obj
 0001:0004ef10       $L81716                    0044ff10 f   DB.obj
 0001:0004ef10       $L81753                    0044ff10 f   DB.obj
 0001:0004ef18       __ehhandler$??O?$treenode@V?$hashelement@Vword@svutil@@PAVTable@@@svutil@@@svutil@@QAE_NV01@@Z 0044ff18 f   DB.obj
 0001:0004ef18       __ehhandler$??M?$treenode@V?$hashelement@Vword@svutil@@PAVTable@@@svutil@@@svutil@@QAE_NV01@@Z 0044ff18 f   DB.obj
 0001:0004ef30       $L82203                    0044ff30 f   DB.obj
 0001:0004ef30       $L81887                    0044ff30 f   DB.obj
 0001:0004ef30       $L81789                    0044ff30 f   DB.obj
 0001:0004ef30       $L82226                    0044ff30 f   DB.obj
 0001:0004ef3b       __ehhandler$??0?$treenode@V?$hashelement@Vword@svutil@@PAVTable@@@svutil@@@svutil@@QAE@ABV01@@Z 0044ff3b f   DB.obj
 0001:0004ef3b       __ehhandler$??0?$treenode@V?$hashelement@Vword@svutil@@PAVTable@@@svutil@@@svutil@@QAE@ABV?$hashelement@Vword@svutil@@PAVTable@@@1@@Z 0044ff3b f   DB.obj
 0001:0004ef3b       __ehhandler$??0?$treenode@V?$hashelement@Vword@svutil@@PAVQueue@@@svutil@@@svutil@@QAE@ABV01@@Z 0044ff3b f   DB.obj
 0001:0004ef3b       __ehhandler$??0?$treenode@V?$hashelement@Vword@svutil@@PAVQueue@@@svutil@@@svutil@@QAE@ABV?$hashelement@Vword@svutil@@PAVQueue@@@1@@Z 0044ff3b f   DB.obj
 0001:0004ef50       $L81851                    0044ff50 f   DB.obj
 0001:0004ef50       $L81814                    0044ff50 f   DB.obj
 0001:0004ef58       __ehhandler$??O?$treenode@V?$hashelement@Vword@svutil@@PAVQueue@@@svutil@@@svutil@@QAE_NV01@@Z 0044ff58 f   DB.obj
 0001:0004ef58       __ehhandler$??M?$treenode@V?$hashelement@Vword@svutil@@PAVQueue@@@svutil@@@svutil@@QAE_NV01@@Z 0044ff58 f   DB.obj
 0001:0004ef70       $L82010                    0044ff70 f   DB.obj
 0001:0004ef70       $L82052                    0044ff70 f   DB.obj
 0001:0004ef79       $L82011                    0044ff79 f   DB.obj
 0001:0004ef79       $L82053                    0044ff79 f   DB.obj
 0001:0004ef93       __ehhandler$??$?HDU?$char_traits@D@std@@V?$allocator@D@1@@std@@YA?AV?$basic_string@DU?$char_traits@D@std@@V?$allocator@D@2@@0@ABV10@PBD@Z 0044ff93 f   DB.obj
 0001:0004ef93       __ehhandler$??$?HDU?$char_traits@D@std@@V?$allocator@D@1@@std@@YA?AV?$basic_string@DU?$char_traits@D@std@@V?$allocator@D@2@@0@ABV10@0@Z 0044ff93 f   DB.obj
 0001:0004efa0       $L82387                    0044ffa0 f   DB.obj
 0001:0004efa9       __ehhandler$?CreatePagePool@PagePool@@QAE_NHV?$basic_string@DU?$char_traits@D@std@@V?$allocator@D@2@@std@@HH@Z 0044ffa9 f   DB.obj
 0001:0004efc0       $L82442                    0044ffc0 f   DB.obj
 0001:0004efc9       $L82443                    0044ffc9 f   DB.obj
 0001:0004efd2       $L82444                    0044ffd2 f   DB.obj
 0001:0004efdd       $L82446                    0044ffdd f   DB.obj
 0001:0004efe8       __ehhandler$?CreateNewEx@DB@@QAE_NV?$basic_string@DU?$char_traits@D@std@@V?$allocator@D@2@@std@@0HHH@Z 0044ffe8 f   DB.obj
 0001:0004f000       $L82593                    00450000 f   DB.obj
 0001:0004f000       $L82815                    00450000 f   DB.obj
 0001:0004f000       $L82758                    00450000 f   DB.obj
 0001:0004f008       __ehhandler$??0sentry@?$basic_istream@DU?$char_traits@D@std@@@std@@QAE@AAV12@_N@Z 00450008 f   DB.obj
 0001:0004f008       __ehhandler$??0sentry@?$basic_ostream@DU?$char_traits@D@std@@@std@@QAE@AAV12@@Z 00450008 f   DB.obj
 0001:0004f008       __ehhandler$??1sentry@?$basic_ostream@DU?$char_traits@D@std@@@std@@QAE@XZ 00450008 f   DB.obj
 0001:0004f020       $L83883                    00450020 f   DB.obj
 0001:0004f028       __ehhandler$??$getline@DU?$char_traits@D@std@@V?$allocator@D@2@@std@@YAAAV?$basic_istream@DU?$char_traits@D@std@@@0@AAV10@AAV?$basic_string@DU?$char_traits@D@std@@V?$allocator@D@2@@0@D@Z 00450028 f   DB.obj
 0001:0004f040       $L84066                    00450040 f   DB.obj
 0001:0004f048       $L84194                    00450048 f   DB.obj
 0001:0004f050       __ehhandler$??$?6DU?$char_traits@D@std@@V?$allocator@D@1@@std@@YAAAV?$basic_ostream@DU?$char_traits@D@std@@@0@AAV10@ABV?$basic_string@DU?$char_traits@D@std@@V?$allocator@D@2@@0@@Z 00450050 f   DB.obj
 0001:0004f060       $L84813                    00450060 f   DB.obj
 0001:0004f060       $L84799                    00450060 f   DB.obj
 0001:0004f060       $L91923                    00450060 f   DB.obj
 0001:0004f060       $L92239                    00450060 f   DB.obj
 0001:0004f06b       __ehhandler$?insert@?$hashtable@Vword@svutil@@PAVQueue@@@svutil@@QAEAAPAVQueue@@ABVword@2@ABQAV3@@Z 0045006b f   DB.obj
 0001:0004f06b       __ehhandler$?insert@?$hashtable@Vword@svutil@@PAVTable@@@svutil@@QAEAAPAVTable@@ABVword@2@ABQAV3@@Z 0045006b f   DB.obj
 0001:0004f06b       __ehhandler$??$CreateNode@V?$hashelement@Vword@svutil@@PAVTable@@@svutil@@@?$sorttree@V?$hashelement@Vword@svutil@@PAVTable@@@svutil@@@svutil@@SAPAV?$treenode@V?$hashelement@Vword@svutil@@PAVTable@@@svutil@@@1@ABV?$hashelement@Vword@svutil@@PAVTable@@@1@@Z 0045006b f   DB.obj
 0001:0004f06b       __ehhandler$??$CreateNode@V?$hashelement@Vword@svutil@@PAVQueue@@@svutil@@@?$sorttree@V?$hashelement@Vword@svutil@@PAVQueue@@@svutil@@@svutil@@SAPAV?$treenode@V?$hashelement@Vword@svutil@@PAVQueue@@@svutil@@@1@ABV?$hashelement@Vword@svutil@@PAVQueue@@@1@@Z 0045006b f   DB.obj
 0001:0004f080       $L85441                    00450080 f   DB.obj
 0001:0004f091       __ehhandler$?_Buynode@?$list@V?$basic_string@DU?$char_traits@D@std@@V?$allocator@D@2@@std@@V?$allocator@V?$basic_string@DU?$char_traits@D@std@@V?$allocator@D@2@@std@@@2@@std@@IAEPAU_Node@?$_List_nod@V?$basic_string@DU?$char_traits@D@std@@V?$allocator@D@2@@std@@V?$allocator@V?$basic_string@DU?$char_traits@D@std@@V?$allocator@D@2@@std@@@2@@2@PAU342@0ABV?$basic_string@DU?$char_traits@D@std@@V?$allocator@D@2@@2@@Z 00450091 f   DB.obj
 0001:0004f0a0       $L85678                    004500a0 f   DB.obj
 0001:0004f0b1       __ehhandler$?_Buynode@?$list@VSingelRecord@@V?$allocator@VSingelRecord@@@std@@@std@@IAEPAU_Node@?$_List_nod@VSingelRecord@@V?$allocator@VSingelRecord@@@std@@@2@PAU342@0ABVSingelRecord@@@Z 004500b1 f   DB.obj
 0001:0004f0c0       $L85760                    004500c0 f   DB.obj
 0001:0004f0c8       __ehhandler$?find@?$hashnode@Vword@svutil@@V12@@svutil@@QAE_NABVword@2@PAPAV?$hashelement@Vword@svutil@@V12@@2@@Z 004500c8 f   DB.obj
 0001:0004f0e0       $L85914                    004500e0 f   DB.obj
 0001:0004f0e0       $L82998                    004500e0 f   DB.obj
 0001:0004f0e0       $L88582                    004500e0 f   DB.obj
 0001:0004f0e0       $L86773                    004500e0 f   DB.obj
 0001:0004f0e0       $L88456                    004500e0 f   DB.obj
 0001:0004f0e0       $L83152                    004500e0 f   DB.obj
 0001:0004f0e0       $L85838                    004500e0 f   DB.obj
 0001:0004f0e0       $L86897                    004500e0 f   DB.obj
 0001:0004f0e8       __ehhandler$?erase@?$hashnode@Vword@svutil@@PAVQueue@@@svutil@@QAE_NABVword@2@@Z 004500e8 f   DB.obj
 0001:0004f0e8       __ehhandler$?RomoveNode@?$sorttree@V?$hashelement@Vword@svutil@@PAVTable@@@svutil@@@svutil@@QAEXABV?$hashelement@Vword@svutil@@PAVTable@@@2@@Z 004500e8 f   DB.obj
 0001:0004f0e8       __ehhandler$?RomoveNode@?$sorttree@V?$hashelement@Vword@svutil@@PAVQueue@@@svutil@@@svutil@@QAEXABV?$hashelement@Vword@svutil@@PAVQueue@@@2@@Z 004500e8 f   DB.obj
 0001:0004f0e8       __ehhandler$?find@?$hashnode@Vword@svutil@@PAVTable@@@svutil@@QAE_NABVword@2@PAPAV?$hashelement@Vword@svutil@@PAVTable@@@2@@Z 004500e8 f   DB.obj
 0001:0004f0e8       __ehhandler$?insert@?$hashnode@Vword@svutil@@PAVTable@@@svutil@@QAEAAV?$hashelement@Vword@svutil@@PAVTable@@@2@ABVword@2@ABQAVTable@@@Z 004500e8 f   DB.obj
 0001:0004f0e8       __ehhandler$?find@?$hashnode@Vword@svutil@@PAVQueue@@@svutil@@QAE_NABVword@2@PAPAV?$hashelement@Vword@svutil@@PAVQueue@@@2@@Z 004500e8 f   DB.obj
 0001:0004f0e8       __ehhandler$?insert@?$hashnode@Vword@svutil@@PAVQueue@@@svutil@@QAEAAV?$hashelement@Vword@svutil@@PAVQueue@@@2@ABVword@2@ABQAVQueue@@@Z 004500e8 f   DB.obj
 0001:0004f0e8       __ehhandler$?erase@?$hashnode@Vword@svutil@@PAVTable@@@svutil@@QAE_NABVword@2@@Z 004500e8 f   DB.obj
 0001:0004f100       $L81226                    00450100 f   DB.obj
 0001:0004f100       $L81307                    00450100 f   DB.obj
 0001:0004f100       $L86826                    00450100 f   DB.obj
 0001:0004f100       $L86702                    00450100 f   DB.obj
 0001:0004f100       $L81294                    00450100 f   DB.obj
 0001:0004f100       $L81239                    00450100 f   DB.obj
 0001:0004f108       __ehhandler$??0?$hashelement@Vword@svutil@@PAVQueue@@@svutil@@QAE@ABVword@1@@Z 00450108 f   DB.obj
 0001:0004f108       __ehhandler$??1?$hashnode@Vword@svutil@@PAVQueue@@@svutil@@QAE@XZ 00450108 f   DB.obj
 0001:0004f108       __ehhandler$??0?$hashelement@Vword@svutil@@PAVTable@@@svutil@@QAE@ABVword@1@@Z 00450108 f   DB.obj
 0001:0004f108       __ehhandler$??0?$hashelement@Vword@svutil@@PAVTable@@@svutil@@QAE@ABVword@1@ABQAVTable@@@Z 00450108 f   DB.obj
 0001:0004f108       __ehhandler$??1?$hashnode@Vword@svutil@@PAVTable@@@svutil@@QAE@XZ 00450108 f   DB.obj
 0001:0004f108       __ehhandler$??0?$hashelement@Vword@svutil@@PAVQueue@@@svutil@@QAE@ABVword@1@ABQAVQueue@@@Z 00450108 f   DB.obj
 0001:0004f120       __ehhandler$??$_Insert@Vconst_iterator@?$list@PAVStringMap@@V?$allocator@PAVStringMap@@@std@@@std@@@?$list@PAVStringMap@@V?$allocator@PAVStringMap@@@std@@@std@@QAEXViterator@01@Vconst_iterator@01@1Uforward_iterator_tag@1@@Z 00450120 f   DB.obj
 0001:0004f130       $L89660                    00450130 f   DB.obj
 0001:0004f130       $L89529                    00450130 f   DB.obj
 0001:0004f130       $L89710                    00450130 f   DB.obj
 0001:0004f130       $L89685                    00450130 f   DB.obj
 0001:0004f130       $L89432                    00450130 f   DB.obj
 0001:0004f130       $L89346                    00450130 f   DB.obj
 0001:0004f130       $L89231                    00450130 f   DB.obj
 0001:0004f130       $L89480                    00450130 f   DB.obj
 0001:0004f139       $L89347                    00450139 f   DB.obj
 0001:0004f139       $L89232                    00450139 f   DB.obj
 0001:0004f139       $L89711                    00450139 f   DB.obj
 0001:0004f139       $L89686                    00450139 f   DB.obj
 0001:0004f139       $L89433                    00450139 f   DB.obj
 0001:0004f139       $L89661                    00450139 f   DB.obj
 0001:0004f139       $L89530                    00450139 f   DB.obj
 0001:0004f139       $L89481                    00450139 f   DB.obj
 0001:0004f142       $L89434                    00450142 f   DB.obj
 0001:0004f142       $L89482                    00450142 f   DB.obj
 0001:0004f142       $L89687                    00450142 f   DB.obj
 0001:0004f142       $L89712                    00450142 f   DB.obj
 0001:0004f142       $L89233                    00450142 f   DB.obj
 0001:0004f142       $L89531                    00450142 f   DB.obj
 0001:0004f142       $L89348                    00450142 f   DB.obj
 0001:0004f142       $L89662                    00450142 f   DB.obj
 0001:0004f14a       __ehhandler$?QueryDynNOStr@DB@@QAEHV?$basic_string@DU?$char_traits@D@std@@V?$allocator@D@2@@std@@PADAAI@Z 0045014a f   DB.obj
 0001:0004f14a       __ehhandler$?PopQueueMessage@DB@@QAEHV?$basic_string@DU?$char_traits@D@std@@V?$allocator@D@2@@std@@AAVbuffer@svutil@@AAI_NI@Z 0045014a f   DB.obj
 0001:0004f14a       __ehhandler$?QueryRecordByTimeEx@DB@@QAEHV?$basic_string@DU?$char_traits@D@std@@V?$allocator@D@2@@std@@VTTime@svutil@@1AAVbuffer@5@AAH@Z 0045014a f   DB.obj
 0001:0004f14a       __ehhandler$?QueryDyn@DB@@QAEHV?$basic_string@DU?$char_traits@D@std@@V?$allocator@D@2@@std@@PADAAI@Z 0045014a f   DB.obj
 0001:0004f14a       __ehhandler$?QueryRecordByCount@DB@@QAEHV?$basic_string@DU?$char_traits@D@std@@V?$allocator@D@2@@std@@IAAVbuffer@svutil@@AAH@Z 0045014a f   DB.obj
 0001:0004f14a       __ehhandler$?PeekQueueMessage@DB@@QAEHV?$basic_string@DU?$char_traits@D@std@@V?$allocator@D@2@@std@@AAVbuffer@svutil@@AAI_NI@Z 0045014a f   DB.obj
 0001:0004f14a       __ehhandler$?DeleteRecordsByTime@DB@@QAE_NV?$basic_string@DU?$char_traits@D@std@@V?$allocator@D@2@@std@@VTTime@svutil@@@Z 0045014a f   DB.obj
 0001:0004f14a       __ehhandler$?GetQueueRecordCount@DB@@QAEHV?$basic_string@DU?$char_traits@D@std@@V?$allocator@D@2@@std@@AAI@Z 0045014a f   DB.obj
 0001:0004f160       $L89292                    00450160 f   DB.obj
 0001:0004f169       $L89293                    00450169 f   DB.obj
 0001:0004f172       $L89294                    00450172 f   DB.obj
 0001:0004f17a       __ehhandler$?QueryRecordCount@DB@@QAE_NV?$basic_string@DU?$char_traits@D@std@@V?$allocator@D@2@@std@@AAH@Z 0045017a f   DB.obj
 0001:0004f190       $L89589                    00450190 f   DB.obj
 0001:0004f198       $L89590                    00450198 f   DB.obj
 0001:0004f1a1       __ehhandler$?GetQueueAllMessageLabels@DB@@QAE_NVword@svutil@@AAV?$list@V?$basic_string@DU?$char_traits@D@std@@V?$allocator@D@2@@std@@V?$allocator@V?$basic_string@DU?$char_traits@D@std@@V?$allocator@D@2@@std@@@2@@std@@@Z 004501a1 f   DB.obj
 0001:0004f1b0       $L89747                    004501b0 f   DB.obj
 0001:0004f1b0       $L89627                    004501b0 f   DB.obj
 0001:0004f1b9       $L89748                    004501b9 f   DB.obj
 0001:0004f1b9       $L89628                    004501b9 f   DB.obj
 0001:0004f1c2       $L89629                    004501c2 f   DB.obj
 0001:0004f1c2       $L89749                    004501c2 f   DB.obj
 0001:0004f1ca       $L89750                    004501ca f   DB.obj
 0001:0004f1ca       $L89630                    004501ca f   DB.obj
 0001:0004f1d3       __ehhandler$?AppendQueueMessage@DB@@QAE_NV?$basic_string@DU?$char_traits@D@std@@V?$allocator@D@2@@std@@PBDI@Z 004501d3 f   DB.obj
 0001:0004f1d3       __ehhandler$?ClearQueueRecords@DB@@QAEHV?$basic_string@DU?$char_traits@D@std@@V?$allocator@D@2@@std@@@Z 004501d3 f   DB.obj
 0001:0004f1e0       $L90382                    004501e0 f   DB.obj
 0001:0004f1e0       $L89963                    004501e0 f   DB.obj
 0001:0004f1e0       $L91825                    004501e0 f   DB.obj
 0001:0004f1e0       $L92141                    004501e0 f   DB.obj
 0001:0004f1e8       __ehhandler$??0?$hashtable@Vword@svutil@@PAVTable@@@svutil@@QAE@XZ 004501e8 f   DB.obj
 0001:0004f1e8       __ehhandler$??1?$hashtable@Vword@svutil@@PAVTable@@@svutil@@QAE@XZ 004501e8 f   DB.obj
 0001:0004f1e8       __ehhandler$??1?$hashtable@Vword@svutil@@PAVQueue@@@svutil@@QAE@XZ 004501e8 f   DB.obj
 0001:0004f1e8       __ehhandler$??0?$hashtable@Vword@svutil@@PAVQueue@@@svutil@@QAE@XZ 004501e8 f   DB.obj
 0001:0004f200       $L91112                    00450200 f   DB.obj
 0001:0004f209       $L91113                    00450209 f   DB.obj
 0001:0004f212       $L91114                    00450212 f   DB.obj
 0001:0004f21a       $L91118                    0045021a f   DB.obj
 0001:0004f222       __ehhandler$?QueryMassDyn@DB@@QAEHV?$basic_string@DU?$char_traits@D@std@@V?$allocator@D@2@@std@@AAV?$map@V?$basic_string@DU?$char_traits@D@std@@V?$allocator@D@2@@std@@VTTime@svutil@@U?$less@V?$basic_string@DU?$char_traits@D@std@@V?$allocator@D@2@@std@@@2@V?$allocator@U?$pair@$$CBV?$basic_string@DU?$char_traits@D@std@@V?$allocator@D@2@@std@@VTTime@svutil@@@std@@@2@@3@AAV?$list@VSingelRecord@@V?$allocator@VSingelRecord@@@std@@@3@@Z 00450222 f   DB.obj
 0001:0004f230       $L91362                    00450230 f   DB.obj
 0001:0004f239       $L91363                    00450239 f   DB.obj
 0001:0004f242       $L91364                    00450242 f   DB.obj
 0001:0004f24a       $L91366                    0045024a f   DB.obj
 0001:0004f252       __ehhandler$?DeleteTable@DB@@QAE_NV?$basic_string@DU?$char_traits@D@std@@V?$allocator@D@2@@std@@@Z 00450252 f   DB.obj
 0001:0004f260       $L91532                    00450260 f   DB.obj
 0001:0004f260       $L91419                    00450260 f   DB.obj
 0001:0004f269       $L91420                    00450269 f   DB.obj
 0001:0004f269       $L91533                    00450269 f   DB.obj
 0001:0004f272       __ehhandler$?GetAllTableNames@DB@@QAE_NAAV?$list@V?$basic_string@DU?$char_traits@D@std@@V?$allocator@D@2@@std@@V?$allocator@V?$basic_string@DU?$char_traits@D@std@@V?$allocator@D@2@@std@@@2@@std@@@Z 00450272 f   DB.obj
 0001:0004f272       __ehhandler$?GetAllQueueNames@DB@@QAE_NAAV?$list@V?$basic_string@DU?$char_traits@D@std@@V?$allocator@D@2@@std@@V?$allocator@V?$basic_string@DU?$char_traits@D@std@@V?$allocator@D@2@@std@@@2@@std@@@Z 00450272 f   DB.obj
 0001:0004f280       $L91647                    00450280 f   DB.obj
 0001:0004f289       $L91648                    00450289 f   DB.obj
 0001:0004f292       $L91649                    00450292 f   DB.obj
 0001:0004f29a       $L91650                    0045029a f   DB.obj
 0001:0004f2a3       $L91651                    004502a3 f   DB.obj
 0001:0004f2ab       __ehhandler$?DeleteQueue@DB@@QAEHV?$basic_string@DU?$char_traits@D@std@@V?$allocator@D@2@@std@@@Z 004502ab f   DB.obj
 0001:0004f2c0       __ehhandler$??0?$list@PAVStringMap@@V?$allocator@PAVStringMap@@@std@@@std@@QAE@ABV01@@Z 004502c0 f   DB.obj
 0001:0004f2d0       $L92518                    004502d0 f   DB.obj
 0001:0004f2d0       $L92457                    004502d0 f   DB.obj
 0001:0004f2d9       $L92519                    004502d9 f   DB.obj
 0001:0004f2d9       $L92458                    004502d9 f   DB.obj
 0001:0004f2e5       $L92459                    004502e5 f   DB.obj
 0001:0004f2e5       $L92520                    004502e5 f   DB.obj
 0001:0004f2f0       $L92460                    004502f0 f   DB.obj
 0001:0004f2f0       $L92521                    004502f0 f   DB.obj
 0001:0004f2fb       $L92522                    004502fb f   DB.obj
 0001:0004f2fb       $L92461                    004502fb f   DB.obj
 0001:0004f307       $L92523                    00450307 f   DB.obj
 0001:0004f307       $L92462                    00450307 f   DB.obj
 0001:0004f316       __ehhandler$??1DB@@QAE@XZ  00450316 f   DB.obj
 0001:0004f316       __ehhandler$??0DB@@QAE@XZ  00450316 f   DB.obj
 0001:0004f320       $L92670                    00450320 f   DB.obj
 0001:0004f32b       $L92671                    0045032b f   DB.obj
 0001:0004f336       $L92672                    00450336 f   DB.obj
 0001:0004f341       $L92673                    00450341 f   DB.obj
 0001:0004f349       $L92674                    00450349 f   DB.obj
 0001:0004f354       $L92675                    00450354 f   DB.obj
 0001:0004f35c       __ehhandler$?LoadEx@DB@@QAE_NXZ 0045035c f   DB.obj
 0001:0004f370       $L92907                    00450370 f   DB.obj
 0001:0004f379       $L92908                    00450379 f   DB.obj
 0001:0004f382       $L92909                    00450382 f   DB.obj
 0001:0004f38a       $L92910                    0045038a f   DB.obj
 0001:0004f395       $L92911                    00450395 f   DB.obj
 0001:0004f39d       __ehhandler$?CreateQueue@DB@@QAE_NV?$basic_string@DU?$char_traits@D@std@@V?$allocator@D@2@@std@@H@Z 0045039d f   DB.obj
 0001:0004f3b0       $L93043                    004503b0 f   DB.obj
 0001:0004f3b9       $L93044                    004503b9 f   DB.obj
 0001:0004f3c2       $L93045                    004503c2 f   DB.obj
 0001:0004f3ca       $L93046                    004503ca f   DB.obj
 0001:0004f3d5       $L93047                    004503d5 f   DB.obj
 0001:0004f3dd       $L93049                    004503dd f   DB.obj
 0001:0004f3e5       $L93050                    004503e5 f   DB.obj
 0001:0004f3ed       $L93051                    004503ed f   DB.obj
 0001:0004f3f5       $L93052                    004503f5 f   DB.obj
 0001:0004f3fd       $L93054                    004503fd f   DB.obj
 0001:0004f406       $L93055                    00450406 f   DB.obj
 0001:0004f40e       __ehhandler$?InsertTableEx@DB@@QAE_NV?$basic_string@DU?$char_traits@D@std@@V?$allocator@D@2@@std@@H@Z 0045040e f   DB.obj
 0001:0004f420       $L93490                    00450420 f   DB.obj
 0001:0004f429       $L93491                    00450429 f   DB.obj
 0001:0004f435       __ehhandler$?Init@DB@@QAE_NV?$basic_string@DU?$char_traits@D@std@@V?$allocator@D@2@@std@@PAVSvdbMain@@HH@Z 00450435 f   DB.obj
 0001:0004f440       $L93632                    00450440 f   DB.obj
 0001:0004f449       $L93633                    00450449 f   DB.obj
 0001:0004f452       $L93634                    00450452 f   DB.obj
 0001:0004f45e       __ehhandler$?Init@DB@@QAE_NV?$basic_string@DU?$char_traits@D@std@@V?$allocator@D@2@@std@@0PAVSvdbMain@@HH@Z 0045045e f   DB.obj
 0001:0004f470       $L93760                    00450470 f   DB.obj
 0001:0004f479       $L93761                    00450479 f   DB.obj
 0001:0004f482       $L93762                    00450482 f   DB.obj
 0001:0004f48a       $L93763                    0045048a f   DB.obj
 0001:0004f493       $L93764                    00450493 f   DB.obj
 0001:0004f49b       $L93765                    0045049b f   DB.obj
 0001:0004f4a3       $L93767                    004504a3 f   DB.obj
 0001:0004f4ab       __ehhandler$?AppendRecord@DB@@QAEHV?$basic_string@DU?$char_traits@D@std@@V?$allocator@D@2@@std@@PBDI@Z 004504ab f   DB.obj
 0001:0004f4c0       $L47359                    004504c0 f   Entity.obj
 0001:0004f4d1       __ehhandler$?_Buynode@?$list@Vword@svutil@@V?$allocator@Vword@svutil@@@std@@@std@@IAEPAU_Node@?$_List_nod@Vword@svutil@@V?$allocator@Vword@svutil@@@std@@@2@PAU342@0ABVword@svutil@@@Z 004504d1 f   Entity.obj
 0001:0004f4e0       $L47392                    004504e0 f   Entity.obj
 0001:0004f4e9       $L47412                    004504e9 f   Entity.obj
 0001:0004f4f2       __ehhandler$?_Incsize@?$list@Vword@svutil@@V?$allocator@Vword@svutil@@@std@@@std@@IAEXI@Z 004504f2 f   Entity.obj
 0001:0004f500       $L47982                    00450500 f   Entity.obj
 0001:0004f508       __ehhandler$?CreateObjectByRawData@Entity@@UAEHPBDI@Z 00450508 f   Entity.obj
 0001:0004f520       $L48025                    00450520 f   Entity.obj
 0001:0004f52b       $L48026                    0045052b f   Entity.obj
 0001:0004f536       $L48027                    00450536 f   Entity.obj
 0001:0004f541       __ehhandler$??0Entity@@QAE@XZ 00450541 f   Entity.obj
 0001:0004f550       $L48129                    00450550 f   Entity.obj
 0001:0004f55b       __ehhandler$??1Entity@@QAE@XZ 0045055b f   Entity.obj
 0001:0004f570       $L53699                    00450570 f   EntityGroup.obj
 0001:0004f578       __ehhandler$?CreateObjectByRawData@EntityGroup@@UAEHPBDI@Z 00450578 f   EntityGroup.obj
 0001:0004f590       $L53999                    00450590 f   EntityGroup.obj
 0001:0004f59b       $L54000                    0045059b f   EntityGroup.obj
 0001:0004f5a6       $L54001                    004505a6 f   EntityGroup.obj
 0001:0004f5b1       __ehhandler$??0EntityGroup@@QAE@XZ 004505b1 f   EntityGroup.obj
 0001:0004f5c0       $L54103                    004505c0 f   EntityGroup.obj
 0001:0004f5cb       __ehhandler$??1EntityGroup@@QAE@XZ 004505cb f   EntityGroup.obj
 0001:0004f5e0       $L54152                    004505e0 f   EntityGroup.obj
 0001:0004f5e8       __ehhandler$?ResolveIds@EntityGroup@@QAE_NPAVResource@@@Z 004505e8 f   EntityGroup.obj
 0001:0004f600       $L54197                    00450600 f   EntityGroup.obj
 0001:0004f608       $L54198                    00450608 f   EntityGroup.obj
 0001:0004f611       $L54199                    00450611 f   EntityGroup.obj
 0001:0004f61a       $L54201                    0045061a f   EntityGroup.obj
 0001:0004f623       $L54202                    00450623 f   EntityGroup.obj
 0001:0004f62e       __ehhandler$?SaveNewIds@EntityGroup@@QAE_NPAVResource@@@Z 0045062e f   EntityGroup.obj
 0001:0004f640       $L52005                    00450640 f   EntityGroupPool.obj
 0001:0004f648       $L52006                    00450648 f   EntityGroupPool.obj
 0001:0004f653       $L52007                    00450653 f   EntityGroupPool.obj
 0001:0004f65f       __ehhandler$??0PoolBase@@QAE@Vword@svutil@@@Z 0045065f f   EntityGroupPool.obj
 0001:0004f670       $L52066                    00450670 f   EntityGroupPool.obj
 0001:0004f67c       $L52067                    0045067c f   EntityGroupPool.obj
 0001:0004f688       __ehhandler$?Load@EntityGroupPool@@UAE_NXZ 00450688 f   EntityGroupPool.obj
 0001:0004f6a0       $L52099                    004506a0 f   EntityGroupPool.obj
 0001:0004f6ac       $L52100                    004506ac f   EntityGroupPool.obj
 0001:0004f6b8       __ehhandler$?Submit@EntityGroupPool@@UAE_NXZ 004506b8 f   EntityGroupPool.obj
 0001:0004f6d0       $L52268                    004506d0 f   EntityGroupPool.obj
 0001:0004f6d0       $L52281                    004506d0 f   EntityGroupPool.obj
 0001:0004f6d0       $L54788                    004506d0 f   EntityGroupPool.obj
 0001:0004f6d8       __ehhandler$??0?$hashelement@Vword@svutil@@PAVEntityGroup@@@svutil@@QAE@ABVword@1@ABQAVEntityGroup@@@Z 004506d8 f   EntityGroupPool.obj
 0001:0004f6d8       __ehhandler$??1?$hashnode@Vword@svutil@@PAVEntityGroup@@@svutil@@QAE@XZ 004506d8 f   EntityGroupPool.obj
 0001:0004f6d8       __ehhandler$??0?$hashelement@Vword@svutil@@PAVEntityGroup@@@svutil@@QAE@ABVword@1@@Z 004506d8 f   EntityGroupPool.obj
 0001:0004f6f0       $L52377                    004506f0 f   EntityGroupPool.obj
 0001:0004f6f9       $L52381                    004506f9 f   EntityGroupPool.obj
 0001:0004f702       __ehhandler$?_Xlen@?$vector@PAV?$hashnode@Vword@svutil@@PAVEntityGroup@@@svutil@@V?$allocator@PAV?$hashnode@Vword@svutil@@PAVEntityGroup@@@svutil@@@std@@@std@@IBEXXZ 00450702 f   EntityGroupPool.obj
 0001:0004f710       $L52489                    00450710 f   EntityGroupPool.obj
 0001:0004f710       $L52526                    00450710 f   EntityGroupPool.obj
 0001:0004f718       __ehhandler$??O?$treenode@V?$hashelement@Vword@svutil@@PAVEntityGroup@@@svutil@@@svutil@@QAE_NV01@@Z 00450718 f   EntityGroupPool.obj
 0001:0004f718       __ehhandler$??M?$treenode@V?$hashelement@Vword@svutil@@PAVEntityGroup@@@svutil@@@svutil@@QAE_NV01@@Z 00450718 f   EntityGroupPool.obj
 0001:0004f730       $L52784                    00450730 f   EntityGroupPool.obj
 0001:0004f730       $L52562                    00450730 f   EntityGroupPool.obj
 0001:0004f73b       __ehhandler$??0?$treenode@V?$hashelement@Vword@svutil@@PAVEntityGroup@@@svutil@@@svutil@@QAE@ABV01@@Z 0045073b f   EntityGroupPool.obj
 0001:0004f73b       __ehhandler$??0?$treenode@V?$hashelement@Vword@svutil@@PAVEntityGroup@@@svutil@@@svutil@@QAE@ABV?$hashelement@Vword@svutil@@PAVEntityGroup@@@1@@Z 0045073b f   EntityGroupPool.obj
 0001:0004f750       $L54358                    00450750 f   EntityGroupPool.obj
 0001:0004f750       $L56353                    00450750 f   EntityGroupPool.obj
 0001:0004f75b       __ehhandler$??$CreateNode@V?$hashelement@Vword@svutil@@PAVEntityGroup@@@svutil@@@?$sorttree@V?$hashelement@Vword@svutil@@PAVEntityGroup@@@svutil@@@svutil@@SAPAV?$treenode@V?$hashelement@Vword@svutil@@PAVEntityGroup@@@svutil@@@1@ABV?$hashelement@Vword@svutil@@PAVEntityGroup@@@1@@Z 0045075b f   EntityGroupPool.obj
 0001:0004f75b       __ehhandler$?insert@?$hashtable@Vword@svutil@@PAVEntityGroup@@@svutil@@QAEAAPAVEntityGroup@@ABVword@2@ABQAV3@@Z 0045075b f   EntityGroupPool.obj
 0001:0004f770       $L54859                    00450770 f   EntityGroupPool.obj
 0001:0004f770       $L54544                    00450770 f   EntityGroupPool.obj
 0001:0004f778       __ehhandler$?insert@?$hashnode@Vword@svutil@@PAVEntityGroup@@@svutil@@QAEAAV?$hashelement@Vword@svutil@@PAVEntityGroup@@@2@ABVword@2@ABQAVEntityGroup@@@Z 00450778 f   EntityGroupPool.obj
 0001:0004f778       __ehhandler$?find@?$hashnode@Vword@svutil@@PAVEntityGroup@@@svutil@@QAE_NABVword@2@PAPAV?$hashelement@Vword@svutil@@PAVEntityGroup@@@2@@Z 00450778 f   EntityGroupPool.obj
 0001:0004f790       $L55682                    00450790 f   EntityGroupPool.obj
 0001:0004f798       __ehhandler$?GetEntityGroup@EntityGroupPool@@QAEPAVEntityGroup@@Vword@svutil@@@Z 00450798 f   EntityGroupPool.obj
 0001:0004f7b0       $L55705                    004507b0 f   EntityGroupPool.obj
 0001:0004f7b9       __ehhandler$?SaveNewIds@EntityGroupPool@@QAE_NV?$basic_string@DU?$char_traits@D@std@@V?$allocator@D@2@@std@@PAVResource@@@Z 004507b9 f   EntityGroupPool.obj
 0001:0004f7d0       $L56255                    004507d0 f   EntityGroupPool.obj
 0001:0004f7d8       __ehhandler$??0?$hashtable@Vword@svutil@@PAVEntityGroup@@@svutil@@QAE@XZ 004507d8 f   EntityGroupPool.obj
 0001:0004f7f0       $L56584                    004507f0 f   EntityGroupPool.obj
 0001:0004f7f8       $L56586                    004507f8 f   EntityGroupPool.obj
 0001:0004f800       __ehhandler$??0EntityGroupPool@@QAE@Vword@svutil@@_N@Z 00450800 f   EntityGroupPool.obj
 0001:0004f810       $L56614                    00450810 f   EntityGroupPool.obj
 0001:0004f81b       $L56615                    0045081b f   EntityGroupPool.obj
 0001:0004f823       __ehhandler$?CreateObjectByRawData@EntityGroupPool@@UAEHPBDI@Z 00450823 f   EntityGroupPool.obj
 0001:0004f830       $L56640                    00450830 f   EntityGroupPool.obj
 0001:0004f839       $L56641                    00450839 f   EntityGroupPool.obj
 0001:0004f841       $L56642                    00450841 f   EntityGroupPool.obj
 0001:0004f849       __ehhandler$?Push@EntityGroupPool@@QAE_NPAVEntityGroup@@@Z 00450849 f   EntityGroupPool.obj
 0001:0004f860       $L56690                    00450860 f   EntityGroupPool.obj
 0001:0004f869       $L56691                    00450869 f   EntityGroupPool.obj
 0001:0004f874       $L56692                    00450874 f   EntityGroupPool.obj
 0001:0004f87c       __ehhandler$?Push@EntityGroupPool@@QAE_NPBDIPAVResource@@@Z 0045087c f   EntityGroupPool.obj
 0001:0004f890       $L52225                    00450890 f   EntityPool.obj
 0001:0004f899       $L52226                    00450899 f   EntityPool.obj
 0001:0004f8a5       __ehhandler$?SubmitToFile@EntityPool@@QAE_NV?$basic_string@DU?$char_traits@D@std@@V?$allocator@D@2@@std@@PAV1@@Z 004508a5 f   EntityPool.obj
 0001:0004f8b0       $L52263                    004508b0 f   EntityPool.obj
 0001:0004f8b9       $L52264                    004508b9 f   EntityPool.obj
 0001:0004f8c5       $L52265                    004508c5 f   EntityPool.obj
 0001:0004f8d1       __ehhandler$?LoadFile@EntityPool@@QAE_NV?$basic_string@DU?$char_traits@D@std@@V?$allocator@D@2@@std@@@Z 004508d1 f   EntityPool.obj
 0001:0004f8e0       $L52312                    004508e0 f   EntityPool.obj
 0001:0004f8ec       $L52313                    004508ec f   EntityPool.obj
 0001:0004f8f8       __ehhandler$?Load@EntityPool@@UAE_NXZ 004508f8 f   EntityPool.obj
 0001:0004f910       $L58851                    00450910 f   EntityPool.obj
 0001:0004f910       $L52705                    00450910 f   EntityPool.obj
 0001:0004f910       $L52692                    00450910 f   EntityPool.obj
 0001:0004f918       __ehhandler$??0?$hashelement@Vword@svutil@@PAVEntity@@@svutil@@QAE@ABVword@1@@Z 00450918 f   EntityPool.obj
 0001:0004f918       __ehhandler$??0?$hashelement@Vword@svutil@@PAVEntity@@@svutil@@QAE@ABVword@1@ABQAVEntity@@@Z 00450918 f   EntityPool.obj
 0001:0004f918       __ehhandler$??1?$hashnode@Vword@svutil@@PAVEntity@@@svutil@@QAE@XZ 00450918 f   EntityPool.obj
 0001:0004f930       $L53253                    00450930 f   EntityPool.obj
 0001:0004f930       $L53216                    00450930 f   EntityPool.obj
 0001:0004f938       __ehhandler$??M?$treenode@V?$hashelement@Vword@svutil@@PAVEntity@@@svutil@@@svutil@@QAE_NV01@@Z 00450938 f   EntityPool.obj
 0001:0004f938       __ehhandler$??O?$treenode@V?$hashelement@Vword@svutil@@PAVEntity@@@svutil@@@svutil@@QAE_NV01@@Z 00450938 f   EntityPool.obj
 0001:0004f950       $L53289                    00450950 f   EntityPool.obj
 0001:0004f950       $L53716                    00450950 f   EntityPool.obj
 0001:0004f95b       __ehhandler$??0?$treenode@V?$hashelement@Vword@svutil@@PAVEntity@@@svutil@@@svutil@@QAE@ABV?$hashelement@Vword@svutil@@PAVEntity@@@1@@Z 0045095b f   EntityPool.obj
 0001:0004f95b       __ehhandler$??0?$treenode@V?$hashelement@Vword@svutil@@PAVEntity@@@svutil@@@svutil@@QAE@ABV01@@Z 0045095b f   EntityPool.obj
 0001:0004f970       $L61418                    00450970 f   EntityPool.obj
 0001:0004f970       $L57452                    00450970 f   EntityPool.obj
 0001:0004f970       $L58922                    00450970 f   EntityPool.obj
 0001:0004f970       $L54896                    00450970 f   EntityPool.obj
 0001:0004f978       __ehhandler$?erase@?$hashnode@Vword@svutil@@PAVEntity@@@svutil@@QAE_NABVword@2@@Z 00450978 f   EntityPool.obj
 0001:0004f978       __ehhandler$?find@?$hashnode@Vword@svutil@@PAVEntity@@@svutil@@QAE_NABVword@2@PAPAV?$hashelement@Vword@svutil@@PAVEntity@@@2@@Z 00450978 f   EntityPool.obj
 0001:0004f978       __ehhandler$?insert@?$hashnode@Vword@svutil@@PAVEntity@@@svutil@@QAEAAV?$hashelement@Vword@svutil@@PAVEntity@@@2@ABVword@2@ABQAVEntity@@@Z 00450978 f   EntityPool.obj
