 MonitorSchedule

 Timestamp is 463dda78 (Sun May 06 21:39:04 2007)

 Preferred load address is 00400000

 Start         Length     Name                   Class
 0001:00000000 00021568H .text                   CODE
 0001:00021570 00002b52H .text$x                 CODE
 0001:000240d0 0000022bH .text$yc                CODE
 0001:00024300 0000011aH .text$yd                CODE
 0002:00000000 000003ccH .idata$5                DATA
 0002:000003d0 00003478H .rdata                  DATA
 0002:00003848 0000005fH .rdata$debug            DATA
 0002:000038a8 00000044H .rdata$r                DATA
 0002:000038f0 000002ccH .rdata$sxdata           DATA
 0002:00003bbc 00000004H .rtc$IAA                DATA
 0002:00003bc0 00000004H .rtc$IZZ                DATA
 0002:00003bc4 00000004H .rtc$TAA                DATA
 0002:00003bc8 00000004H .rtc$TZZ                DATA
 0002:00003bcc 0000335cH .xdata$x                DATA
 0002:00006f28 000000a0H .idata$2                DATA
 0002:00006fc8 00000014H .idata$3                DATA
 0002:00006fdc 000003ccH .idata$4                DATA
 0002:000073a8 00002974H .idata$6                DATA
 0002:00009d1c 00000000H .edata                  DATA
 0003:00000000 00000004H .CRT$XCA                DATA
 0003:00000004 00000004H .CRT$XCAA               DATA
 0003:00000008 00000048H .CRT$XCU                DATA
 0003:00000050 00000004H .CRT$XCZ                DATA
 0003:00000054 00000004H .CRT$XIA                DATA
 0003:00000058 00000004H .CRT$XIZ                DATA
 0003:00000060 00000214H .data                   DATA
 0003:00000278 0000026cH .bss                    DATA

  Address         Publics by Value              Rva+Base     Lib:Object

 0000:00000000       __except_list              00000000     <absolute>
 0000:000000b3       ___safe_se_handler_count   000000b3     <absolute>
 0000:00009876       __ldused                   00009876     <absolute>
 0000:00009876       __fltused                  00009876     <absolute>
 0001:00000000       ??0Des@@QAE@XZ             00401000 f   Des.obj
 0001:00000010       ??1Des@@UAE@XZ             00401010 f   Des.obj
 0001:00000020       ?bitsel@Des@@AAEIPAIPBHH@Z 00401020 f   Des.obj
 0001:00000080       ?des_decipher@Des@@AAEXPAIIIPAUDESContext@@@Z 00401080 f   Des.obj
 0001:00000a00       ??_GDes@@UAEPAXI@Z         00401a00 f i Des.obj
 0001:00000a00       ??_EDes@@UAEPAXI@Z         00401a00 f i Des.obj
 0001:00000a20       ?des_key_setup@Des@@AAEXIIPAUDESContext@@@Z 00401a20 f   Des.obj
 0001:00000ba0       ?des_cbc_decrypt@Des@@AAEXPAEPBEIPAUDESContext@@@Z 00401ba0 f   Des.obj
 0001:00000cd0       ?Decrypt@Des@@QAE_NPBDPAD@Z 00401cd0 f   Des.obj
 0001:00000ef0       ??0Entity@@QAE@XZ          00401ef0 f   Entity.obj
 0001:00000f30       ??1Entity@@QAE@XZ          00401f30 f   Entity.obj
 0001:00000f50       ?InitActiveMonitorsArray@Entity@@QAEHH@Z 00401f50 f   Entity.obj
 0001:00000fa0       ?SetMonitorTypeCount@Entity@@QAEXH@Z 00401fa0 f   Entity.obj
 0001:00000fb0       ?AdjustActiveMonitorRef@Entity@@QAEXHH@Z 00401fb0 f   Entity.obj
 0001:00001010       ??1sentry@?$basic_istream@DU?$char_traits@D@std@@@std@@QAE@XZ 00402010 f i Entity.obj
 0001:00001010       ??1_Sentry_base@?$basic_istream@DU?$char_traits@D@std@@@std@@QAE@XZ 00402010 f i Entity.obj
 0001:00001010       ??1_Sentry_base@?$basic_ostream@DU?$char_traits@D@std@@@std@@QAE@XZ 00402010 f i Entity.obj
 0001:00001030       ??$use_facet@V?$ctype@D@std@@@std@@YAABV?$ctype@D@0@ABVlocale@0@@Z 00402030 f i Entity.obj
 0001:00001130       ??$?HDU?$char_traits@D@std@@V?$allocator@D@1@@std@@YA?AV?$basic_string@DU?$char_traits@D@std@@V?$allocator@D@2@@0@ABV10@0@Z 00402130 f i Entity.obj
 0001:000011b0       ??$?HDU?$char_traits@D@std@@V?$allocator@D@1@@std@@YA?AV?$basic_string@DU?$char_traits@D@std@@V?$allocator@D@2@@0@ABV10@PBD@Z 004021b0 f i Entity.obj
 0001:00001230       ??0sentry@?$basic_istream@DU?$char_traits@D@std@@@std@@QAE@AAV12@_N@Z 00402230 f i Entity.obj
 0001:000012a0       ??0sentry@?$basic_ostream@DU?$char_traits@D@std@@@std@@QAE@AAV12@@Z 004022a0 f i Entity.obj
 0001:00001330       ??1sentry@?$basic_ostream@DU?$char_traits@D@std@@@std@@QAE@XZ 00402330 f i Entity.obj
 0001:000013a0       ??$?5DU?$char_traits@D@std@@V?$allocator@D@1@@std@@YAAAV?$basic_istream@DU?$char_traits@D@std@@@0@AAV10@AAV?$basic_string@DU?$char_traits@D@std@@V?$allocator@D@2@@0@@Z 004023a0 f i Entity.obj
 0001:00001550       ??$?6DU?$char_traits@D@std@@V?$allocator@D@1@@std@@YAAAV?$basic_ostream@DU?$char_traits@D@std@@@0@AAV10@ABV?$basic_string@DU?$char_traits@D@std@@V?$allocator@D@2@@0@@Z 00402550 f i Entity.obj
 0001:00001750       ??1logic_error@std@@UAE@XZ 00402750 f i Groups.obj
 0001:000017b0       ?what@logic_error@std@@UBEPBDXZ 004027b0 f i Groups.obj
 0001:000017c0       ??_Glogic_error@std@@UAEPAXI@Z 004027c0 f i Groups.obj
 0001:000017c0       ??_Elogic_error@std@@UAEPAXI@Z 004027c0 f i Groups.obj
 0001:000017e0       ??_Elength_error@std@@UAEPAXI@Z 004027e0 f i Groups.obj
 0001:000017e0       ??_Glength_error@std@@UAEPAXI@Z 004027e0 f i Groups.obj
 0001:00001800       ??1length_error@std@@UAE@XZ 00402800 f i Groups.obj
 0001:00001810       ??0MSException@@QAE@PBD0@Z 00402810 f i Groups.obj
 0001:000018d0       ??_GMSException@@UAEPAXI@Z 004028d0 f i Groups.obj
 0001:000018d0       ??_EMSException@@UAEPAXI@Z 004028d0 f i Groups.obj
 0001:000018f0       ??0exception@svutil@@QAE@PBD0@Z 004028f0 f i Groups.obj
 0001:000019b0       ?GetErrorType@MSException@@UBEPBDXZ 004029b0 f i Groups.obj
 0001:000019b0       ?GetErrorType@exception@svutil@@UBEPBDXZ 004029b0 f i Groups.obj
 0001:000019c0       ?GetDescription@exception@svutil@@UBEPBDXZ 004029c0 f i Groups.obj
 0001:000019c0       ?GetDescription@MSException@@UBEPBDXZ 004029c0 f i Groups.obj
 0001:000019d0       ??_Eexception@svutil@@UAEPAXI@Z 004029d0 f i Groups.obj
 0001:000019d0       ??_Gexception@svutil@@UAEPAXI@Z 004029d0 f i Groups.obj
 0001:000019f0       ??1?$hashelement@Vword@svutil@@PAVTask@@@svutil@@QAE@XZ 004029f0 f i MonitorSchedule.obj
 0001:000019f0       ??1word@svutil@@UAE@XZ     004029f0 f i Groups.obj
 0001:00001a10       ??_Eword@svutil@@UAEPAXI@Z 00402a10 f i Groups.obj
 0001:00001a10       ??_Gword@svutil@@UAEPAXI@Z 00402a10 f i Groups.obj
 0001:00001a40       ?SetEntityID@Entity@@QAEXPBD@Z 00402a40 f i Groups.obj
 0001:00001ab0       ??1MSException@@UAE@XZ     00402ab0 f i Groups.obj
 0001:00001ac0       ?SetSystemType@Entity@@QAEXPBD@Z 00402ac0 f i Groups.obj
 0001:00001b30       ?SetDepend@Entity@@QAEXPBD@Z 00402b30 f i Groups.obj
 0001:00001ba0       ?SetIPAdress@Entity@@QAEXPBD@Z 00402ba0 f i Groups.obj
 0001:00001c10       ??0MSException@@QAE@ABV0@@Z 00402c10 f i Groups.obj
 0001:00001c60       ?SetGroupID@GroupsItem@@QAEXPBD@Z 00402c60 f i Groups.obj
 0001:00001cd0       ?SetParentID@GroupsItem@@QAEXPBD@Z 00402cd0 f i Groups.obj
 0001:00001d40       ?SetDepedSon@GroupsItem@@QAEXPBD@Z 00402d40 f i Groups.obj
 0001:00001db0       ??0?$hashelement@Vword@svutil@@V12@@svutil@@QAE@ABVword@1@@Z 00402db0 f i Groups.obj
 0001:00001e30       ??0?$hashelement@Vword@svutil@@V12@@svutil@@QAE@ABVword@1@0@Z 00402e30 f i Groups.obj
 0001:00001ec0       ??1?$hashelement@Vword@svutil@@V12@@svutil@@QAE@XZ 00402ec0 f i Groups.obj
 0001:00001f00       ??1?$treenode@V?$hashelement@Vword@svutil@@V12@@svutil@@@svutil@@UAE@XZ 00402f00 f i Groups.obj
 0001:00001f40       ??_E?$treenode@V?$hashelement@Vword@svutil@@V12@@svutil@@@svutil@@UAEPAXI@Z 00402f40 f i Groups.obj
 0001:00001f40       ??_G?$treenode@V?$hashelement@Vword@svutil@@V12@@svutil@@@svutil@@UAEPAXI@Z 00402f40 f i Groups.obj
 0001:00001f60       ?_Xlen@?$vector@PAV?$hashnode@Vword@svutil@@V12@@svutil@@V?$allocator@PAV?$hashnode@Vword@svutil@@V12@@svutil@@@std@@@std@@IBEXXZ 00402f60 f i Groups.obj
 0001:00001fe0       ??0logic_error@std@@QAE@ABV01@@Z 00402fe0 f i Groups.obj
 0001:00002040       ??M?$treenode@V?$hashelement@Vword@svutil@@V12@@svutil@@@svutil@@QAE_NV01@@Z 00403040 f i Groups.obj
 0001:000020c0       ??O?$treenode@V?$hashelement@Vword@svutil@@V12@@svutil@@@svutil@@QAE_NV01@@Z 004030c0 f i Groups.obj
 0001:00002140       ??0?$treenode@V?$hashelement@Vword@svutil@@V12@@svutil@@@svutil@@QAE@ABV?$hashelement@Vword@svutil@@V12@@1@@Z 00403140 f i Groups.obj
 0001:000021e0       ?DeleteTree@?$sorttree@V?$hashelement@Vword@svutil@@V12@@svutil@@@svutil@@QAEXPAV?$treenode@V?$hashelement@Vword@svutil@@V12@@svutil@@@2@@Z 004031e0 f i Groups.obj
 0001:00002230       ??0length_error@std@@QAE@ABV01@@Z 00403230 f i Groups.obj
 0001:00002250       ?findnode@?$sorttree@V?$hashelement@Vword@svutil@@V12@@svutil@@@svutil@@QAEPAV?$treenode@V?$hashelement@Vword@svutil@@V12@@svutil@@@2@ABV?$hashelement@Vword@svutil@@V12@@2@PAV32@@Z 00403250 f i Groups.obj
 0001:000022c0       ??0?$treenode@V?$hashelement@Vword@svutil@@V12@@svutil@@@svutil@@QAE@ABV01@@Z 004032c0 f i Groups.obj
 0001:00002360       ??$CreateNode@V?$hashelement@Vword@svutil@@V12@@svutil@@@?$sorttree@V?$hashelement@Vword@svutil@@V12@@svutil@@@svutil@@SAPAV?$treenode@V?$hashelement@Vword@svutil@@V12@@svutil@@@1@ABV?$hashelement@Vword@svutil@@V12@@1@@Z 00403360 f i Groups.obj
 0001:000023c0       ?clear@?$list@PAVMonitor@@V?$allocator@PAVMonitor@@@std@@@std@@QAEXXZ 004033c0 f i MonitorSchedule.obj
 0001:000023c0       ?clear@?$list@PAVGroupsItem@@V?$allocator@PAVGroupsItem@@@std@@@std@@QAEXXZ 004033c0 f i Groups.obj
 0001:000023c0       ?clear@?$list@PAUtmsg@@V?$allocator@PAUtmsg@@@std@@@std@@QAEXXZ 004033c0 f i MSGQueue.obj
 0001:000023c0       ?clear@?$list@PAVReturnData@@V?$allocator@PAVReturnData@@@std@@@std@@QAEXXZ 004033c0 f i Monitor.obj
 0001:000023c0       ?clear@?$list@PAVSubsequentItem@@V?$allocator@PAVSubsequentItem@@@std@@@std@@QAEXXZ 004033c0 f i Subsequent.obj
 0001:000023c0       ?clear@?$list@PAVReturnValue@@V?$allocator@PAVReturnValue@@@std@@@std@@QAEXXZ 004033c0 f i MonitorThread.obj
 0001:000023c0       ?clear@?$list@PAVThreadEx@@V?$allocator@PAVThreadEx@@@std@@@std@@QAEXXZ 004033c0 f i ScheduleThread.obj
 0001:000023c0       ?clear@?$list@PAVStateConditionItem@@V?$allocator@PAVStateConditionItem@@@std@@@std@@QAEXXZ 004033c0 f i StateCondition.obj
 0001:000023c0       ?clear@?$list@PAVEntity@@V?$allocator@PAVEntity@@@std@@@std@@QAEXXZ 004033c0 f i Groups.obj
 0001:00002400       ??_G?$sorttree@V?$hashelement@Vword@svutil@@V12@@svutil@@@svutil@@UAEPAXI@Z 00403400 f i Groups.obj
 0001:00002400       ??_E?$sorttree@V?$hashelement@Vword@svutil@@V12@@svutil@@@svutil@@UAEPAXI@Z 00403400 f i Groups.obj
 0001:00002460       ?_Incsize@?$list@PAVGroupsItem@@V?$allocator@PAVGroupsItem@@@std@@@std@@IAEXI@Z 00403460 f i Groups.obj
 0001:00002460       ?_Incsize@?$list@PAVEntity@@V?$allocator@PAVEntity@@@std@@@std@@IAEXI@Z 00403460 f i Groups.obj
 0001:00002500       ?find@?$hashnode@Vword@svutil@@V12@@svutil@@QAE_NABVword@2@PAPAV?$hashelement@Vword@svutil@@V12@@2@@Z 00403500 f i Groups.obj
 0001:00002600       ?InsertNode@?$sorttree@V?$hashelement@Vword@svutil@@V12@@svutil@@@svutil@@QAEXPAV?$treenode@V?$hashelement@Vword@svutil@@V12@@svutil@@@2@0@Z 00403600 f i Groups.obj
 0001:00002690       ??$_Ucopy@PAPAV?$hashnode@Vword@svutil@@V12@@svutil@@@?$vector@PAV?$hashnode@Vword@svutil@@V12@@svutil@@V?$allocator@PAV?$hashnode@Vword@svutil@@V12@@svutil@@@std@@@std@@IAEPAPAV?$hashnode@Vword@svutil@@V12@@svutil@@PAPAV23@00@Z 00403690 f i Groups.obj
 0001:00002690       ??$_Ucopy@PAPAV?$hashnode@Vword@svutil@@PAVTask@@@svutil@@@?$vector@PAV?$hashnode@Vword@svutil@@PAVTask@@@svutil@@V?$allocator@PAV?$hashnode@Vword@svutil@@PAVTask@@@svutil@@@std@@@std@@IAEPAPAV?$hashnode@Vword@svutil@@PAVTask@@@svutil@@PAPAV23@00@Z 00403690 f i MonitorSchedule.obj
 0001:000026c0       ?GetEntityByID@Groups@@QAEPAVEntity@@PBD@Z 004036c0 f   Groups.obj
 0001:00002720       ?GetSingleGroupByID@Groups@@QAEPAVGroupsItem@@PBD@Z 00403720 f   Groups.obj
 0001:00002780       ?InitAllEntityActiveMonitorArray@Groups@@QAEHH@Z 00403780 f   Groups.obj
 0001:000027c0       ?find@?$hashnode@Vword@svutil@@V12@@svutil@@QAE_NABVword@2@PAPAV32@@Z 004037c0 f i Groups.obj
 0001:00002820       ?InsertNodeEx@?$sorttree@V?$hashelement@Vword@svutil@@V12@@svutil@@@svutil@@QAEAAV?$hashelement@Vword@svutil@@V12@@2@ABV32@@Z 00403820 f i Groups.obj
 0001:000028b0       ??1exception@svutil@@UAE@XZ 004038b0 f i Groups.obj
 0001:000028c0       ??0exception@svutil@@QAE@ABV01@@Z 004038c0 f i Groups.obj
 0001:00002910       ??1Groups@@UAE@XZ          00403910 f   Groups.obj
 0001:00002a80       ?push_back@?$list@PAVEntity@@V?$allocator@PAVEntity@@@std@@@std@@QAEXABQAVEntity@@@Z 00403a80 f i Groups.obj
 0001:00002a80       ?push_back@?$list@PAVGroupsItem@@V?$allocator@PAVGroupsItem@@@std@@@std@@QAEXABQAVGroupsItem@@@Z 00403a80 f i Groups.obj
 0001:00002ac0       ?find@?$hashtable@Vword@svutil@@V12@@svutil@@QAEPAVword@2@ABV32@@Z 00403ac0 f i Groups.obj
 0001:00002b30       ?insert@?$hashnode@Vword@svutil@@V12@@svutil@@QAEAAV?$hashelement@Vword@svutil@@V12@@2@ABVword@2@0@Z 00403b30 f i Groups.obj
 0001:00002c30       ?_Insert_n@?$vector@PAV?$hashnode@Vword@svutil@@V12@@svutil@@V?$allocator@PAV?$hashnode@Vword@svutil@@V12@@svutil@@@std@@@std@@IAEXViterator@12@IABQAV?$hashnode@Vword@svutil@@V12@@svutil@@@Z 00403c30 f i Groups.obj
 0001:00002e20       ??0Groups@@QAE@XZ          00403e20 f   Groups.obj
 0001:00002ea0       ??_GGroups@@UAEPAXI@Z      00403ea0 f i Groups.obj
 0001:00002ea0       ??_EGroups@@UAEPAXI@Z      00403ea0 f i Groups.obj
 0001:00002ec0       ?FromTextMap@Groups@@QAE_NAAV?$hashtable@Vword@svutil@@V12@@svutil@@@Z 00403ec0 f   Groups.obj
 0001:00003700       ?resize@?$vector@PAV?$hashnode@Vword@svutil@@V12@@svutil@@V?$allocator@PAV?$hashnode@Vword@svutil@@V12@@svutil@@@std@@@std@@QAEXIPAV?$hashnode@Vword@svutil@@V12@@svutil@@@Z 00404700 f i Groups.obj
 0001:00003790       ?insert@?$hashtable@Vword@svutil@@V12@@svutil@@QAEAAVword@2@ABV32@0@Z 00404790 f i Groups.obj
 0001:00003880       ??A?$hashtable@Vword@svutil@@V12@@svutil@@QAEAAVword@1@ABV21@@Z 00404880 f i Groups.obj
 0001:00003910       ?ToTextMap@Groups@@QAE_NAAV?$hashtable@Vword@svutil@@V12@@svutil@@@Z 00404910 f   Groups.obj
 0001:00003ff0       ??0GroupsItem@@QAE@XZ      00404ff0 f   GroupsItem.obj
 0001:00004010       ??_GGroupsItem@@UAEPAXI@Z  00405010 f i GroupsItem.obj
 0001:00004010       ??_EGroupsItem@@UAEPAXI@Z  00405010 f i GroupsItem.obj
 0001:00004030       ??0TString@@QAE@PBD@Z      00405030 f i LoadConfig.obj
 0001:00004050       ??4TString@@QAEABV0@PBD@Z  00405050 f i LoadConfig.obj
 0001:00004070       ??_GTString@@UAEPAXI@Z     00405070 f i LoadConfig.obj
 0001:00004070       ??_ETString@@UAEPAXI@Z     00405070 f i LoadConfig.obj
 0001:00004090       ?SetProcess@Monitor@@QAEXPBD@Z 00405090 f i LoadConfig.obj
 0001:000040b0       ?SetEntityType@Monitor@@QAEXPBD@Z 004050b0 f i LoadConfig.obj
 0001:000040d0       ?GetParentID@Monitor@@QBE?AV?$basic_string@DU?$char_traits@D@std@@V?$allocator@D@2@@std@@XZ 004050d0 f i LoadConfig.obj
 0001:00004110       ?SetTaskName@Monitor@@QAEXV?$basic_string@DU?$char_traits@D@std@@V?$allocator@D@2@@std@@@Z 00405110 f i LoadConfig.obj
 0001:00004160       ??0LoadConfig@@QAE@XZ      00405160 f   LoadConfig.obj
 0001:00004180       ?LoadAll@LoadConfig@@QAEHXZ 00405180 f   LoadConfig.obj
 0001:00004410       ?GetMonitorPro@LoadConfig@@AAEHPAVMonitor@@V?$basic_string@DU?$char_traits@D@std@@V?$allocator@D@2@@std@@@Z 00405410 f   LoadConfig.obj
 0001:00004a70       ?LoadCommonEntity@LoadConfig@@AAEHV?$basic_string@DU?$char_traits@D@std@@V?$allocator@D@2@@std@@AAV?$list@V?$basic_string@DU?$char_traits@D@std@@V?$allocator@D@2@@std@@V?$allocator@V?$basic_string@DU?$char_traits@D@std@@V?$allocator@D@2@@std@@@2@@3@@Z 00405a70 f   LoadConfig.obj
 0001:00004bd0       ?GetReturnList@LoadConfig@@AAEHPAVMonitor@@H@Z 00405bd0 f   LoadConfig.obj
 0001:00004d50       ?LoadSingleEntity@LoadConfig@@AAEXPAVEntity@@V?$basic_string@DU?$char_traits@D@std@@V?$allocator@D@2@@std@@@Z 00405d50 f   LoadConfig.obj
 0001:00005140       ?ClearBuffer@LoadConfig@@QAE_NXZ 00406140 f   LoadConfig.obj
 0001:00005190       ?CreateSingleEntity@LoadConfig@@QAEHPAVEntity@@V?$basic_string@DU?$char_traits@D@std@@V?$allocator@D@2@@std@@@Z 00406190 f   LoadConfig.obj
 0001:00005270       ?CreateSingleGroup@LoadConfig@@QAEHPAVGroupsItem@@V?$basic_string@DU?$char_traits@D@std@@V?$allocator@D@2@@std@@@Z 00406270 f   LoadConfig.obj
 0001:00005510       ?LoadTaskPlan@LoadConfig@@QAE_NAAV?$hashtable@Vword@svutil@@PAVTask@@@svutil@@@Z 00406510 f   LoadConfig.obj
 0001:00005520       ??1_Node@?$_List_nod@V?$basic_string@DU?$char_traits@D@std@@V?$allocator@D@2@@std@@V?$allocator@V?$basic_string@DU?$char_traits@D@std@@V?$allocator@D@2@@std@@@2@@std@@QAE@XZ 00406520 f i LoadConfig.obj
 0001:00005530       ??1LoadConfig@@UAE@XZ      00406530 f   LoadConfig.obj
 0001:000055f0       ?GetStateCondition@LoadConfig@@AAEHPAVMonitor@@V?$basic_string@DU?$char_traits@D@std@@V?$allocator@D@2@@std@@@Z 004065f0 f   LoadConfig.obj
 0001:00005b60       ?CreateSubsequent@LoadConfig@@QAEHPAVSubsequent@@@Z 00406b60 f   LoadConfig.obj
 0001:00005bb0       ??_GLoadConfig@@UAEPAXI@Z  00406bb0 f i LoadConfig.obj
 0001:00005bb0       ??_ELoadConfig@@UAEPAXI@Z  00406bb0 f i LoadConfig.obj
 0001:00005bd0       ?_Buynode@?$list@V?$basic_string@DU?$char_traits@D@std@@V?$allocator@D@2@@std@@V?$allocator@V?$basic_string@DU?$char_traits@D@std@@V?$allocator@D@2@@std@@@2@@std@@IAEPAU_Node@?$_List_nod@V?$basic_string@DU?$char_traits@D@std@@V?$allocator@D@2@@std@@V?$allocator@V?$basic_string@DU?$char_traits@D@std@@V?$allocator@D@2@@std@@@2@@2@XZ 00406bd0 f i LoadConfig.obj
 0001:00005bf0       ?_Buynode@?$list@V?$basic_string@DU?$char_traits@D@std@@V?$allocator@D@2@@std@@V?$allocator@V?$basic_string@DU?$char_traits@D@std@@V?$allocator@D@2@@std@@@2@@std@@IAEPAU_Node@?$_List_nod@V?$basic_string@DU?$char_traits@D@std@@V?$allocator@D@2@@std@@V?$allocator@V?$basic_string@DU?$char_traits@D@std@@V?$allocator@D@2@@std@@@2@@2@PAU342@0ABV?$basic_string@DU?$char_traits@D@std@@V?$allocator@D@2@@2@@Z 00406bf0 f i LoadConfig.obj
 0001:00005c80       ?_Incsize@?$list@V?$basic_string@DU?$char_traits@D@std@@V?$allocator@D@2@@std@@V?$allocator@V?$basic_string@DU?$char_traits@D@std@@V?$allocator@D@2@@std@@@2@@std@@IAEXI@Z 00406c80 f i LoadConfig.obj
 0001:00005d20       ?_Buynode@?$list@PAVThreadEx@@V?$allocator@PAVThreadEx@@@std@@@std@@IAEPAU_Node@?$_List_nod@PAVThreadEx@@V?$allocator@PAVThreadEx@@@std@@@2@PAU342@0ABQAVThreadEx@@@Z 00406d20 f i ThreadContrl.obj
 0001:00005d20       ?_Buynode@?$list@PAVMonitor@@V?$allocator@PAVMonitor@@@std@@@std@@IAEPAU_Node@?$_List_nod@PAVMonitor@@V?$allocator@PAVMonitor@@@std@@@2@PAU342@0ABQAVMonitor@@@Z 00406d20 f i LoadConfig.obj
 0001:00005d20       ?_Buynode@?$list@PAVReturnValue@@V?$allocator@PAVReturnValue@@@std@@@std@@IAEPAU_Node@?$_List_nod@PAVReturnValue@@V?$allocator@PAVReturnValue@@@std@@@2@PAU342@0ABQAVReturnValue@@@Z 00406d20 f i MonitorThread.obj
 0001:00005d20       ?_Buynode@?$list@PAVReturnData@@V?$allocator@PAVReturnData@@@std@@@std@@IAEPAU_Node@?$_List_nod@PAVReturnData@@V?$allocator@PAVReturnData@@@std@@@2@PAU342@0ABQAVReturnData@@@Z 00406d20 f i Monitor.obj
 0001:00005d20       ?_Buynode@?$list@PAVGroupsItem@@V?$allocator@PAVGroupsItem@@@std@@@std@@IAEPAU_Node@?$_List_nod@PAVGroupsItem@@V?$allocator@PAVGroupsItem@@@std@@@2@PAU342@0ABQAVGroupsItem@@@Z 00406d20 f i Groups.obj
 0001:00005d20       ?_Buynode@?$list@PAVSubsequentItem@@V?$allocator@PAVSubsequentItem@@@std@@@std@@IAEPAU_Node@?$_List_nod@PAVSubsequentItem@@V?$allocator@PAVSubsequentItem@@@std@@@2@PAU342@0ABQAVSubsequentItem@@@Z 00406d20 f i readSVDB.obj
 0001:00005d20       ?_Buynode@?$list@PAVEntity@@V?$allocator@PAVEntity@@@std@@@std@@IAEPAU_Node@?$_List_nod@PAVEntity@@V?$allocator@PAVEntity@@@std@@@2@PAU342@0ABQAVEntity@@@Z 00406d20 f i Groups.obj
 0001:00005d20       ?_Buynode@?$list@PAVStateConditionItem@@V?$allocator@PAVStateConditionItem@@@std@@@std@@IAEPAU_Node@?$_List_nod@PAVStateConditionItem@@V?$allocator@PAVStateConditionItem@@@std@@@2@PAU342@0ABQAVStateConditionItem@@@Z 00406d20 f i Monitor.obj
 0001:00005d50       ?_Incsize@?$list@PAVMonitor@@V?$allocator@PAVMonitor@@@std@@@std@@IAEXI@Z 00406d50 f i LoadConfig.obj
 0001:00005df0       ??0?$list@V?$basic_string@DU?$char_traits@D@std@@V?$allocator@D@2@@std@@V?$allocator@V?$basic_string@DU?$char_traits@D@std@@V?$allocator@D@2@@std@@@2@@std@@QAE@XZ 00406df0 f i LoadConfig.obj
 0001:00005e10       ?push_back@?$list@V?$basic_string@DU?$char_traits@D@std@@V?$allocator@D@2@@std@@V?$allocator@V?$basic_string@DU?$char_traits@D@std@@V?$allocator@D@2@@std@@@2@@std@@QAEXABV?$basic_string@DU?$char_traits@D@std@@V?$allocator@D@2@@2@@Z 00406e10 f i LoadConfig.obj
 0001:00005e50       ?clear@?$list@V?$basic_string@DU?$char_traits@D@std@@V?$allocator@D@2@@std@@V?$allocator@V?$basic_string@DU?$char_traits@D@std@@V?$allocator@D@2@@std@@@2@@std@@QAEXXZ 00406e50 f i LoadConfig.obj
 0001:00005e90       ?GetParamList@LoadConfig@@AAEHPAVMonitor@@V?$basic_string@DU?$char_traits@D@std@@V?$allocator@D@2@@std@@1@Z 00406e90 f   LoadConfig.obj
 0001:00006a30       ?CreateSingleMonitor@LoadConfig@@QAEHPAVMonitor@@V?$basic_string@DU?$char_traits@D@std@@V?$allocator@D@2@@std@@@Z 00407a30 f   LoadConfig.obj
 0001:00006b70       ??1?$list@V?$basic_string@DU?$char_traits@D@std@@V?$allocator@D@2@@std@@V?$allocator@V?$basic_string@DU?$char_traits@D@std@@V?$allocator@D@2@@std@@@2@@std@@QAE@XZ 00407b70 f i LoadConfig.obj
 0001:00006b90       ?CreateMonitors@LoadConfig@@QAEHAAV?$list@PAVMonitor@@V?$allocator@PAVMonitor@@@std@@@std@@@Z 00407b90 f   LoadConfig.obj
 0001:00006e50       ?LoadEntitys@LoadConfig@@AAEXAAV?$list@PAVEntity@@V?$allocator@PAVEntity@@@std@@@std@@@Z 00407e50 f   LoadConfig.obj
 0001:000070a0       ?LoadGroups@LoadConfig@@AAEXAAV?$list@PAVGroupsItem@@V?$allocator@PAVGroupsItem@@@std@@@std@@@Z 004080a0 f   LoadConfig.obj
 0001:000074e0       ?CreateGroups@LoadConfig@@QAEHPAVGroups@@@Z 004084e0 f   LoadConfig.obj
 0001:00007540       ?GetCurrentTimeEx@TTime@svutil@@SA?AV12@XZ 00408540 f i MakeRecord.obj
 0001:00007570       ??3@YAXPAX0@Z              00408570 f   Groups.obj
 0001:00007570       ??1MakeRecord@@QAE@XZ      00408570 f   MakeRecord.obj
 0001:00007570       ?ReleaseAll@LoadConfig@@QAEXXZ 00408570 f   LoadConfig.obj
 0001:00007580       ?buildbuffer@MakeRecord@@AAEPADMPADH@Z 00408580 f   MakeRecord.obj
 0001:000075b0       ?buildbuffer@MakeRecord@@AAEPADV?$basic_string@DU?$char_traits@D@std@@V?$allocator@D@2@@std@@PADH@Z 004085b0 f   MakeRecord.obj
 0001:00007650       ??0MakeRecord@@QAE@PADHH@Z 00408650 f   MakeRecord.obj
 0001:00007690       ?MakeBuf@MakeRecord@@QAE_NPAVReturnValue@@@Z 00408690 f   MakeRecord.obj
 0001:000077e0       ?MakeError@MakeRecord@@QAE_NHV?$basic_string@DU?$char_traits@D@std@@V?$allocator@D@2@@std@@@Z 004087e0 f   MakeRecord.obj
 0001:000078a0       ??0TTime@svutil@@QAE@HHHHHHH@Z 004088a0 f i Monitor.obj
 0001:00007970       ??GTTime@svutil@@QBE?AVTTimeSpan@1@V01@@Z 00408970 f i Monitor.obj
 0001:00007990       ?CalculateNextRunTime@Monitor@@QAEXVTTime@svutil@@@Z 00408990 f   Monitor.obj
 0001:000079b0       ?CalculateNextRunTime@Monitor@@QAEXXZ 004089b0 f   Monitor.obj
 0001:00007a70       ?CalculateErrorFrequency@Monitor@@QAEX_N@Z 00408a70 f   Monitor.obj
 0001:00007ac0       ?_Incsize@?$list@PAVReturnData@@V?$allocator@PAVReturnData@@@std@@@std@@IAEXI@Z 00408ac0 f i Monitor.obj
 0001:00007ac0       ?_Incsize@?$list@PAVStateConditionItem@@V?$allocator@PAVStateConditionItem@@@std@@@std@@IAEXI@Z 00408ac0 f i Monitor.obj
 0001:00007b60       ?push_back@?$list@PAVReturnData@@V?$allocator@PAVReturnData@@@std@@@std@@QAEXABQAVReturnData@@@Z 00408b60 f i Monitor.obj
 0001:00007b60       ?push_back@?$list@PAVStateConditionItem@@V?$allocator@PAVStateConditionItem@@@std@@@std@@QAEXABQAVStateConditionItem@@@Z 00408b60 f i Monitor.obj
 0001:00007ba0       ?FromTextMap@Monitor@@QAEHAAV?$hashtable@Vword@svutil@@V12@@svutil@@@Z 00408ba0 f   Monitor.obj
 0001:00009510       ??0Monitor@@QAE@XZ         0040a510 f   Monitor.obj
 0001:00009670       ??1Monitor@@UAE@XZ         0040a670 f   Monitor.obj
 0001:00009840       ??_EMonitor@@UAEPAXI@Z     0040a840 f i Monitor.obj
 0001:00009840       ??_GMonitor@@UAEPAXI@Z     0040a840 f i Monitor.obj
 0001:00009860       ?ToTextMap@Monitor@@QAEHAAV?$hashtable@Vword@svutil@@V12@@svutil@@@Z 0040a860 f   Monitor.obj
 0001:0000ad20       ??0TString@@QAE@ABV0@@Z    0040bd20 f i MonitorSchedule.obj
 0001:0000ad80       ?Replace@TString@@QAEHPBD0@Z 0040bd80 f i MonitorSchedule.obj
 0001:0000ae20       ?GetMonitorClass@Monitor@@QAE?AVTString@@XZ 0040be20 f i MonitorSchedule.obj
 0001:0000ae50       ?GetSEID@Monitor@@QBE?AV?$basic_string@DU?$char_traits@D@std@@V?$allocator@D@2@@std@@XZ 0040be50 f i MonitorSchedule.obj
 0001:0000ae90       ?Run@@YAXXZ                0040be90 f   MonitorSchedule.obj
 0001:0000b000       ?CheckReturnLen@@YAHPBD@Z  0040c000 f   MonitorSchedule.obj
 0001:0000b030       ?Run_ProcessMonitor@@YAXV?$basic_string@DU?$char_traits@D@std@@V?$allocator@D@2@@std@@@Z 0040c030 f   MonitorSchedule.obj
 0001:0000b4d0       ?_Xlen@?$vector@PAV?$hashnode@Vword@svutil@@PAVTask@@@svutil@@V?$allocator@PAV?$hashnode@Vword@svutil@@PAVTask@@@svutil@@@std@@@std@@IBEXXZ 0040c4d0 f i MonitorSchedule.obj
 0001:0000b550       ?CountNodes@?$sorttree@V?$hashelement@Vword@svutil@@PAVTask@@@svutil@@@svutil@@AAEXPAV?$treenode@V?$hashelement@Vword@svutil@@PAVTask@@@svutil@@@2@AAK@Z 0040c550 f i MonitorSchedule.obj
 0001:0000b580       ??$fill@PAPAV?$hashnode@Vword@svutil@@PAVTask@@@svutil@@PAV12@@std@@YAXPAPAV?$hashnode@Vword@svutil@@PAVTask@@@svutil@@0ABQAV12@@Z 0040c580 f i MonitorSchedule.obj
 0001:0000b580       ??$fill@PAPAV?$hashnode@Vword@svutil@@V12@@svutil@@PAV12@@std@@YAXPAPAV?$hashnode@Vword@svutil@@V12@@svutil@@0ABQAV12@@Z 0040c580 f i Groups.obj
 0001:0000b5a0       ?DeleteTree@?$sorttree@V?$hashelement@Vword@svutil@@PAVTask@@@svutil@@@svutil@@QAEXPAV?$treenode@V?$hashelement@Vword@svutil@@PAVTask@@@svutil@@@2@@Z 0040c5a0 f i MonitorSchedule.obj
 0001:0000b5f0       ?findnextnode@?$sorttree@V?$hashelement@Vword@svutil@@PAVTask@@@svutil@@@svutil@@ABEPAV?$treenode@V?$hashelement@Vword@svutil@@PAVTask@@@svutil@@@2@AAV?$hashelement@Vword@svutil@@PAVTask@@@2@AA_NPAV32@@Z 0040c5f0 f i MonitorSchedule.obj
 0001:0000b660       ??$copy_backward@PAPAV?$hashnode@Vword@svutil@@V12@@svutil@@PAPAV12@@std@@YAPAPAV?$hashnode@Vword@svutil@@V12@@svutil@@PAPAV12@00@Z 0040c660 f i Groups.obj
 0001:0000b660       ??$copy_backward@PAPAV?$hashnode@Vword@svutil@@PAVTask@@@svutil@@PAPAV12@@std@@YAPAPAV?$hashnode@Vword@svutil@@PAVTask@@@svutil@@PAPAV12@00@Z 0040c660 f i MonitorSchedule.obj
 0001:0000b690       ??_E?$sorttree@V?$hashelement@Vword@svutil@@PAVTask@@@svutil@@@svutil@@UAEPAXI@Z 0040c690 f i MonitorSchedule.obj
 0001:0000b690       ??_G?$sorttree@V?$hashelement@Vword@svutil@@PAVTask@@@svutil@@@svutil@@UAEPAXI@Z 0040c690 f i MonitorSchedule.obj
 0001:0000b6f0       ??1?$hashnode@Vword@svutil@@PAVTask@@@svutil@@QAE@XZ 0040c6f0 f i MonitorSchedule.obj
 0001:0000b780       ?_Ufill@?$vector@PAV?$hashnode@Vword@svutil@@PAVTask@@@svutil@@V?$allocator@PAV?$hashnode@Vword@svutil@@PAVTask@@@svutil@@@std@@@std@@IAEPAPAV?$hashnode@Vword@svutil@@PAVTask@@@svutil@@PAPAV34@IABQAV34@@Z 0040c780 f i MonitorSchedule.obj
 0001:0000b780       ?_Ufill@?$vector@PAV?$hashnode@Vword@svutil@@V12@@svutil@@V?$allocator@PAV?$hashnode@Vword@svutil@@V12@@svutil@@@std@@@std@@IAEPAPAV?$hashnode@Vword@svutil@@V12@@svutil@@PAPAV34@IABQAV34@@Z 0040c780 f i Groups.obj
 0001:0000b7b0       ??0?$list@PAVMonitor@@V?$allocator@PAVMonitor@@@std@@@std@@QAE@XZ 0040c7b0 f i MonitorSchedule.obj
 0001:0000b7d0       ?push_back@?$list@PAVMonitor@@V?$allocator@PAVMonitor@@@std@@@std@@QAEXABQAVMonitor@@@Z 0040c7d0 f i MonitorSchedule.obj
 0001:0000b810       ?clearnodes@?$hashtable@Vword@svutil@@PAVTask@@@svutil@@IAEXXZ 0040c810 f i MonitorSchedule.obj
 0001:0000b880       ?findnext@?$hashnode@Vword@svutil@@PAVTask@@@svutil@@QAE_NAAV?$hashelement@Vword@svutil@@PAVTask@@@2@PAPAV32@@Z 0040c880 f i MonitorSchedule.obj
 0001:0000b930       ?_Insert_n@?$vector@PAV?$hashnode@Vword@svutil@@PAVTask@@@svutil@@V?$allocator@PAV?$hashnode@Vword@svutil@@PAVTask@@@svutil@@@std@@@std@@IAEXViterator@12@IABQAV?$hashnode@Vword@svutil@@PAVTask@@@svutil@@@Z 0040c930 f i MonitorSchedule.obj
 0001:0000bb20       ?GetMonitorListByFile@@YAHAAV?$list@PAVMonitor@@V?$allocator@PAVMonitor@@@std@@@std@@PBD@Z 0040cb20 f   MonitorSchedule.obj
 0001:0000be10       ?MakeMonitorListByBuf@@YA_NAAV?$list@PAVMonitor@@V?$allocator@PAVMonitor@@@std@@@std@@PBD@Z 0040ce10 f   MonitorSchedule.obj
 0001:0000bfd0       ?GetMonitorListByPipe@@YA_NAAV?$list@PAVMonitor@@V?$allocator@PAVMonitor@@@std@@@std@@V?$basic_string@DU?$char_traits@D@std@@V?$allocator@D@2@@2@11@Z 0040cfd0 f   MonitorSchedule.obj
 0001:0000c210       _main                      0040d210 f   MonitorSchedule.obj
 0001:0000c940       ??1?$hashtable@Vword@svutil@@PAVTask@@@svutil@@QAE@XZ 0040d940 f i MonitorSchedule.obj
 0001:0000c9a0       ?findnext@?$hashtable@Vword@svutil@@PAVTask@@@svutil@@QAE_NAAViterator@12@@Z 0040d9a0 f i MonitorSchedule.obj
 0001:0000ca40       ?resize@?$vector@PAV?$hashnode@Vword@svutil@@PAVTask@@@svutil@@V?$allocator@PAV?$hashnode@Vword@svutil@@PAVTask@@@svutil@@@std@@@std@@QAEXIPAV?$hashnode@Vword@svutil@@PAVTask@@@svutil@@@Z 0040da40 f i MonitorSchedule.obj
 0001:0000cad0       ??0?$hashtable@Vword@svutil@@PAVTask@@@svutil@@QAE@XZ 0040dad0 f i MonitorSchedule.obj
 0001:0000cb20       ??_Gout_of_range@std@@UAEPAXI@Z 0040db20 f i MonitorSchMain.obj
 0001:0000cb20       ??_Eout_of_range@std@@UAEPAXI@Z 0040db20 f i MonitorSchMain.obj
 0001:0000cb40       ??1out_of_range@std@@UAE@XZ 0040db40 f i MonitorSchMain.obj
 0001:0000cb50       ??1sv_dyn@@QAE@XZ          0040db50 f i MonitorSchMain.obj
 0001:0000cb60       ?GetLastState@Monitor@@QAEHXZ 0040db60 f i MonitorSchMain.obj
 0001:0000cc30       ?GetNextRunTime@Monitor@@QAE?AVTTime@svutil@@XZ 0040dc30 f i MonitorSchMain.obj
 0001:0000cc40       ?GetTaskName@Monitor@@QAE?AV?$basic_string@DU?$char_traits@D@std@@V?$allocator@D@2@@std@@XZ 0040dc40 f i MonitorSchMain.obj
 0001:0000cc70       ?GetParentID@Entity@@QBE?AV?$basic_string@DU?$char_traits@D@std@@V?$allocator@D@2@@std@@XZ 0040dc70 f i MonitorSchMain.obj
 0001:0000ccb0       ?CopyTempData@Entity@@QAE_NPBV1@@Z 0040dcb0 f i MonitorSchMain.obj
 0001:0000cd90       ??_GCommunicationThread@@UAEPAXI@Z 0040dd90 f i MonitorSchMain.obj
 0001:0000cd90       ??_ECommunicationThread@@UAEPAXI@Z 0040dd90 f i MonitorSchMain.obj
 0001:0000cdb0       ??_EScheduleThread@@UAEPAXI@Z 0040ddb0 f i MonitorSchMain.obj
 0001:0000cdb0       ??_GScheduleThread@@UAEPAXI@Z 0040ddb0 f i MonitorSchMain.obj
 0001:0000cdd0       ??0SerialData@@QAE@V?$basic_string@DU?$char_traits@D@std@@V?$allocator@D@2@@std@@@Z 0040ddd0 f i MonitorSchMain.obj
 0001:0000ce40       ?Run@MonitorSchMain@@QAEXXZ 0040de40 f   MonitorSchMain.obj
 0001:0000ce50       ?GetMonitorList@MonitorSchMain@@QAEAAV?$list@PAVMonitor@@V?$allocator@PAVMonitor@@@std@@@std@@XZ 0040de50 f   MonitorSchMain.obj
 0001:0000ce60       ?ParseOpt@MonitorSchMain@@KA_NV?$basic_string@DU?$char_traits@D@std@@V?$allocator@D@2@@std@@AAV23@1@Z 0040de60 f   MonitorSchMain.obj
 0001:0000cf70       ?LoadPreLibrary@MonitorSchMain@@QAE_NXZ 0040df70 f   MonitorSchMain.obj
 0001:0000d110       ??0?$hashelement@Vword@svutil@@PAVTask@@@svutil@@QAE@ABVword@1@@Z 0040e110 f i MonitorSchMain.obj
 0001:0000d170       ?_Max@?$_Tree@V?$_Tmap_traits@V?$basic_string@DU?$char_traits@D@std@@V?$allocator@D@2@@std@@V?$map@V?$basic_string@DU?$char_traits@D@std@@V?$allocator@D@2@@std@@V12@UStlIniCompareStringNoCase@@V?$allocator@U?$pair@$$CBV?$basic_string@DU?$char_traits@D@std@@V?$allocator@D@2@@std@@V12@@std@@@2@@2@UStlIniCompareStringNoCase@@V?$allocator@U?$pair@$$CBV?$basic_string@DU?$char_traits@D@std@@V?$allocator@D@2@@std@@V?$map@V?$basic_string@DU?$char_traits@D@std@@V?$allocator@D@2@@std@@V12@UStlIniCompareStringNoCase@@V?$allocator@U?$pair@$$CBV?$basic_string@DU?$char_traits@D@std@@V?$allocator@D@2@@std@@V12@@std@@@2@@2@@std@@@2@$0A@@std@@@std@@KAPAU_Node@?$_Tree_nod@V?$_Tmap_traits@V?$basic_string@DU?$char_traits@D@std@@V?$allocator@D@2@@std@@V?$map@V?$basic_string@DU?$char_traits@D@std@@V?$allocator@D@2@@std@@V12@UStlIniCompareStringNoCase@@V?$allocator@U?$pair@$$CBV?$basic_string@DU?$char_traits@D@std@@V?$allocator@D@2@@std@@V12@@std@@@2@@2@UStlIniCompareStringNoCase@@V?$allocator@U?$pair@$$CBV?$basic_string@DU?$char_traits@D@std@@V?$allocator@D@2@@std@@V?$map@V?$basic_string@DU?$char_traits@D@std@@V?$allocator@D@2@@std@@V12@UStlIniCompareStringNoCase@@V?$allocator@U?$pair@$$CBV?$basic_string@DU?$char_traits@D@std@@V?$allocator@D@2@@std@@V12@@std@@@2@@2@@std@@@2@$0A@@std@@@2@PAU342@@Z 0040e170 f i MonitorSchMain.obj
 0001:0000d190       ?_Min@?$_Tree@V?$_Tmap_traits@V?$basic_string@DU?$char_traits@D@std@@V?$allocator@D@2@@std@@V?$map@V?$basic_string@DU?$char_traits@D@std@@V?$allocator@D@2@@std@@V12@UStlIniCompareStringNoCase@@V?$allocator@U?$pair@$$CBV?$basic_string@DU?$char_traits@D@std@@V?$allocator@D@2@@std@@V12@@std@@@2@@2@UStlIniCompareStringNoCase@@V?$allocator@U?$pair@$$CBV?$basic_string@DU?$char_traits@D@std@@V?$allocator@D@2@@std@@V?$map@V?$basic_string@DU?$char_traits@D@std@@V?$allocator@D@2@@std@@V12@UStlIniCompareStringNoCase@@V?$allocator@U?$pair@$$CBV?$basic_string@DU?$char_traits@D@std@@V?$allocator@D@2@@std@@V12@@std@@@2@@2@@std@@@2@$0A@@std@@@std@@KAPAU_Node@?$_Tree_nod@V?$_Tmap_traits@V?$basic_string@DU?$char_traits@D@std@@V?$allocator@D@2@@std@@V?$map@V?$basic_string@DU?$char_traits@D@std@@V?$allocator@D@2@@std@@V12@UStlIniCompareStringNoCase@@V?$allocator@U?$pair@$$CBV?$basic_string@DU?$char_traits@D@std@@V?$allocator@D@2@@std@@V12@@std@@@2@@2@UStlIniCompareStringNoCase@@V?$allocator@U?$pair@$$CBV?$basic_string@DU?$char_traits@D@std@@V?$allocator@D@2@@std@@V?$map@V?$basic_string@DU?$char_traits@D@std@@V?$allocator@D@2@@std@@V12@UStlIniCompareStringNoCase@@V?$allocator@U?$pair@$$CBV?$basic_string@DU?$char_traits@D@std@@V?$allocator@D@2@@std@@V12@@std@@@2@@2@@std@@@2@$0A@@std@@@2@PAU342@@Z 0040e190 f i MonitorSchMain.obj
 0001:0000d1b0       ?_Rrotate@?$_Tree@V?$_Tmap_traits@V?$basic_string@DU?$char_traits@D@std@@V?$allocator@D@2@@std@@V?$map@V?$basic_string@DU?$char_traits@D@std@@V?$allocator@D@2@@std@@V12@UStlIniCompareStringNoCase@@V?$allocator@U?$pair@$$CBV?$basic_string@DU?$char_traits@D@std@@V?$allocator@D@2@@std@@V12@@std@@@2@@2@UStlIniCompareStringNoCase@@V?$allocator@U?$pair@$$CBV?$basic_string@DU?$char_traits@D@std@@V?$allocator@D@2@@std@@V?$map@V?$basic_string@DU?$char_traits@D@std@@V?$allocator@D@2@@std@@V12@UStlIniCompareStringNoCase@@V?$allocator@U?$pair@$$CBV?$basic_string@DU?$char_traits@D@std@@V?$allocator@D@2@@std@@V12@@std@@@2@@2@@std@@@2@$0A@@std@@@std@@IAEXPAU_Node@?$_Tree_nod@V?$_Tmap_traits@V?$basic_string@DU?$char_traits@D@std@@V?$allocator@D@2@@std@@V?$map@V?$basic_string@DU?$char_traits@D@std@@V?$allocator@D@2@@std@@V12@UStlIniCompareStringNoCase@@V?$allocator@U?$pair@$$CBV?$basic_string@DU?$char_traits@D@std@@V?$allocator@D@2@@std@@V12@@std@@@2@@2@UStlIniCompareStringNoCase@@V?$allocator@U?$pair@$$CBV?$basic_string@DU?$char_traits@D@std@@V?$allocator@D@2@@std@@V?$map@V?$basic_string@DU?$char_traits@D@std@@V?$allocator@D@2@@std@@V12@UStlIniCompareStringNoCase@@V?$allocator@U?$pair@$$CBV?$basic_string@DU?$char_traits@D@std@@V?$allocator@D@2@@std@@V12@@std@@@2@@2@@std@@@2@$0A@@std@@@2@@Z 0040e1b0 f i MonitorSchMain.obj
 0001:0000d210       ?_Inc@const_iterator@?$_Tree@V?$_Tmap_traits@V?$basic_string@DU?$char_traits@D@std@@V?$allocator@D@2@@std@@V?$map@V?$basic_string@DU?$char_traits@D@std@@V?$allocator@D@2@@std@@V12@UStlIniCompareStringNoCase@@V?$allocator@U?$pair@$$CBV?$basic_string@DU?$char_traits@D@std@@V?$allocator@D@2@@std@@V12@@std@@@2@@2@UStlIniCompareStringNoCase@@V?$allocator@U?$pair@$$CBV?$basic_string@DU?$char_traits@D@std@@V?$allocator@D@2@@std@@V?$map@V?$basic_string@DU?$char_traits@D@std@@V?$allocator@D@2@@std@@V12@UStlIniCompareStringNoCase@@V?$allocator@U?$pair@$$CBV?$basic_string@DU?$char_traits@D@std@@V?$allocator@D@2@@std@@V12@@std@@@2@@2@@std@@@2@$0A@@std@@@std@@QAEXXZ 0040e210 f i MonitorSchMain.obj
 0001:0000d270       ?_Max@?$_Tree@V?$_Tmap_traits@V?$basic_string@DU?$char_traits@D@std@@V?$allocator@D@2@@std@@V12@UStlIniCompareStringNoCase@@V?$allocator@U?$pair@$$CBV?$basic_string@DU?$char_traits@D@std@@V?$allocator@D@2@@std@@V12@@std@@@2@$0A@@std@@@std@@KAPAU_Node@?$_Tree_nod@V?$_Tmap_traits@V?$basic_string@DU?$char_traits@D@std@@V?$allocator@D@2@@std@@V12@UStlIniCompareStringNoCase@@V?$allocator@U?$pair@$$CBV?$basic_string@DU?$char_traits@D@std@@V?$allocator@D@2@@std@@V12@@std@@@2@$0A@@std@@@2@PAU342@@Z 0040e270 f i MonitorSchMain.obj
 0001:0000d290       ?_Min@?$_Tree@V?$_Tmap_traits@V?$basic_string@DU?$char_traits@D@std@@V?$allocator@D@2@@std@@V12@UStlIniCompareStringNoCase@@V?$allocator@U?$pair@$$CBV?$basic_string@DU?$char_traits@D@std@@V?$allocator@D@2@@std@@V12@@std@@@2@$0A@@std@@@std@@KAPAU_Node@?$_Tree_nod@V?$_Tmap_traits@V?$basic_string@DU?$char_traits@D@std@@V?$allocator@D@2@@std@@V12@UStlIniCompareStringNoCase@@V?$allocator@U?$pair@$$CBV?$basic_string@DU?$char_traits@D@std@@V?$allocator@D@2@@std@@V12@@std@@@2@$0A@@std@@@2@PAU342@@Z 0040e290 f i MonitorSchMain.obj
 0001:0000d2b0       ?_Rrotate@?$_Tree@V?$_Tmap_traits@V?$basic_string@DU?$char_traits@D@std@@V?$allocator@D@2@@std@@V12@UStlIniCompareStringNoCase@@V?$allocator@U?$pair@$$CBV?$basic_string@DU?$char_traits@D@std@@V?$allocator@D@2@@std@@V12@@std@@@2@$0A@@std@@@std@@IAEXPAU_Node@?$_Tree_nod@V?$_Tmap_traits@V?$basic_string@DU?$char_traits@D@std@@V?$allocator@D@2@@std@@V12@UStlIniCompareStringNoCase@@V?$allocator@U?$pair@$$CBV?$basic_string@DU?$char_traits@D@std@@V?$allocator@D@2@@std@@V12@@std@@@2@$0A@@std@@@2@@Z 0040e2b0 f i MonitorSchMain.obj
 0001:0000d310       ?_Inc@const_iterator@?$_Tree@V?$_Tmap_traits@V?$basic_string@DU?$char_traits@D@std@@V?$allocator@D@2@@std@@V12@UStlIniCompareStringNoCase@@V?$allocator@U?$pair@$$CBV?$basic_string@DU?$char_traits@D@std@@V?$allocator@D@2@@std@@V12@@std@@@2@$0A@@std@@@std@@QAEXXZ 0040e310 f i MonitorSchMain.obj
 0001:0000d370       ??1?$pair@$$CBV?$basic_string@DU?$char_traits@D@std@@V?$allocator@D@2@@std@@V12@@std@@QAE@XZ 0040e370 f i MonitorSchMain.obj
 0001:0000d3c0       ?SerialMonitorData@MonitorSchMain@@QAE_N_N@Z 0040e3c0 f   MonitorSchMain.obj
 0001:0000d4e0       ?findnode@?$sorttree@V?$hashelement@Vword@svutil@@PAVTask@@@svutil@@@svutil@@QAEPAV?$treenode@V?$hashelement@Vword@svutil@@PAVTask@@@svutil@@@2@ABV?$hashelement@Vword@svutil@@PAVTask@@@2@PAV32@@Z 0040e4e0 f i MonitorSchMain.obj
 0001:0000d550       ?_Lrotate@?$_Tree@V?$_Tmap_traits@V?$basic_string@DU?$char_traits@D@std@@V?$allocator@D@2@@std@@V?$map@V?$basic_string@DU?$char_traits@D@std@@V?$allocator@D@2@@std@@V12@UStlIniCompareStringNoCase@@V?$allocator@U?$pair@$$CBV?$basic_string@DU?$char_traits@D@std@@V?$allocator@D@2@@std@@V12@@std@@@2@@2@UStlIniCompareStringNoCase@@V?$allocator@U?$pair@$$CBV?$basic_string@DU?$char_traits@D@std@@V?$allocator@D@2@@std@@V?$map@V?$basic_string@DU?$char_traits@D@std@@V?$allocator@D@2@@std@@V12@UStlIniCompareStringNoCase@@V?$allocator@U?$pair@$$CBV?$basic_string@DU?$char_traits@D@std@@V?$allocator@D@2@@std@@V12@@std@@@2@@2@@std@@@2@$0A@@std@@@std@@IAEXPAU_Node@?$_Tree_nod@V?$_Tmap_traits@V?$basic_string@DU?$char_traits@D@std@@V?$allocator@D@2@@std@@V?$map@V?$basic_string@DU?$char_traits@D@std@@V?$allocator@D@2@@std@@V12@UStlIniCompareStringNoCase@@V?$allocator@U?$pair@$$CBV?$basic_string@DU?$char_traits@D@std@@V?$allocator@D@2@@std@@V12@@std@@@2@@2@UStlIniCompareStringNoCase@@V?$allocator@U?$pair@$$CBV?$basic_string@DU?$char_traits@D@std@@V?$allocator@D@2@@std@@V?$map@V?$basic_string@DU?$char_traits@D@std@@V?$allocator@D@2@@std@@V12@UStlIniCompareStringNoCase@@V?$allocator@U?$pair@$$CBV?$basic_string@DU?$char_traits@D@std@@V?$allocator@D@2@@std@@V12@@std@@@2@@2@@std@@@2@$0A@@std@@@2@@Z 0040e550 f i MonitorSchMain.obj
 0001:0000d5b0       ?_Lrotate@?$_Tree@V?$_Tmap_traits@V?$basic_string@DU?$char_traits@D@std@@V?$allocator@D@2@@std@@V12@UStlIniCompareStringNoCase@@V?$allocator@U?$pair@$$CBV?$basic_string@DU?$char_traits@D@std@@V?$allocator@D@2@@std@@V12@@std@@@2@$0A@@std@@@std@@IAEXPAU_Node@?$_Tree_nod@V?$_Tmap_traits@V?$basic_string@DU?$char_traits@D@std@@V?$allocator@D@2@@std@@V12@UStlIniCompareStringNoCase@@V?$allocator@U?$pair@$$CBV?$basic_string@DU?$char_traits@D@std@@V?$allocator@D@2@@std@@V12@@std@@@2@$0A@@std@@@2@@Z 0040e5b0 f i MonitorSchMain.obj
 0001:0000d610       ??1_Node@?$_Tree_nod@V?$_Tmap_traits@V?$basic_string@DU?$char_traits@D@std@@V?$allocator@D@2@@std@@V12@UStlIniCompareStringNoCase@@V?$allocator@U?$pair@$$CBV?$basic_string@DU?$char_traits@D@std@@V?$allocator@D@2@@std@@V12@@std@@@2@$0A@@std@@@std@@QAE@XZ 0040e610 f i MonitorSchMain.obj
 0001:0000d620       ?Init@MonitorSchMain@@QAEHXZ 0040e620 f   MonitorSchMain.obj
 0001:0000da90       ?find@?$hashnode@Vword@svutil@@PAVTask@@@svutil@@QAE_NABVword@2@PAPAV?$hashelement@Vword@svutil@@PAVTask@@@2@@Z 0040ea90 f i MonitorSchMain.obj
 0001:0000db60       ?GetMonitorByID@MonitorSchMain@@QAEPAVMonitor@@PBD@Z 0040eb60 f   MonitorSchMain.obj
 0001:0000dbe0       ?InitGroupDependByMonitorChangeV70@MonitorSchMain@@IAE_NPAVMonitor@@0_N@Z 0040ebe0 f   MonitorSchMain.obj
 0001:0000dc50       ?EntityChangeV70@MonitorSchMain@@IAE_NPAVEntity@@0_N@Z 0040ec50 f   MonitorSchMain.obj
 0001:0000dca0       ?erase@?$list@PAVGroupsItem@@V?$allocator@PAVGroupsItem@@@std@@@std@@QAE?AViterator@12@V312@@Z 0040eca0 f i MonitorSchMain.obj
 0001:0000dca0       ?erase@?$list@PAVEntity@@V?$allocator@PAVEntity@@@std@@@std@@QAE?AViterator@12@V312@@Z 0040eca0 f i MonitorSchMain.obj
 0001:0000dce0       ?find@?$hashnode@Vword@svutil@@PAVTask@@@svutil@@QAE_NABVword@2@PAPAPAVTask@@@Z 0040ece0 f i MonitorSchMain.obj
 0001:0000dd40       ?CheckGroupDependState@MonitorSchMain@@QAEHPAVMonitor@@AAVTString@@@Z 0040ed40 f   MonitorSchMain.obj
 0001:0000e0a0       ?DeleteMonitorV70@MonitorSchMain@@IAE_NV?$basic_string@DU?$char_traits@D@std@@V?$allocator@D@2@@std@@@Z 0040f0a0 f   MonitorSchMain.obj
 0001:0000e1a0       ?find@?$hashtable@Vword@svutil@@PAVTask@@@svutil@@QAEPAPAVTask@@ABVword@2@@Z 0040f1a0 f i MonitorSchMain.obj
 0001:0000e210       ?CheckTask@MonitorSchMain@@QAE_NPAVMonitor@@VTTime@svutil@@AA_N@Z 0040f210 f   MonitorSchMain.obj
 0001:0000e5b0       ?AddMonitorV70@MonitorSchMain@@IAE_NV?$basic_string@DU?$char_traits@D@std@@V?$allocator@D@2@@std@@_N@Z 0040f5b0 f   MonitorSchMain.obj
 0001:0000e910       ?erase@?$_Tree@V?$_Tmap_traits@V?$basic_string@DU?$char_traits@D@std@@V?$allocator@D@2@@std@@V12@UStlIniCompareStringNoCase@@V?$allocator@U?$pair@$$CBV?$basic_string@DU?$char_traits@D@std@@V?$allocator@D@2@@std@@V12@@std@@@2@$0A@@std@@@std@@QAE?AViterator@12@V312@@Z 0040f910 f i MonitorSchMain.obj
 0001:0000ec10       ??0out_of_range@std@@QAE@ABV01@@Z 0040fc10 f i MonitorSchMain.obj
 0001:0000ec30       ?_Erase@?$_Tree@V?$_Tmap_traits@V?$basic_string@DU?$char_traits@D@std@@V?$allocator@D@2@@std@@V12@UStlIniCompareStringNoCase@@V?$allocator@U?$pair@$$CBV?$basic_string@DU?$char_traits@D@std@@V?$allocator@D@2@@std@@V12@@std@@@2@$0A@@std@@@std@@IAEXPAU_Node@?$_Tree_nod@V?$_Tmap_traits@V?$basic_string@DU?$char_traits@D@std@@V?$allocator@D@2@@std@@V12@UStlIniCompareStringNoCase@@V?$allocator@U?$pair@$$CBV?$basic_string@DU?$char_traits@D@std@@V?$allocator@D@2@@std@@V12@@std@@@2@$0A@@std@@@2@@Z 0040fc30 f i MonitorSchMain.obj
 0001:0000ec70       ??1MonitorSchMain@@UAE@XZ  0040fc70 f   MonitorSchMain.obj
 0001:0000ed90       ?ReLoadTaskV70@MonitorSchMain@@IAE_NXZ 0040fd90 f   MonitorSchMain.obj
 0001:0000ee50       ??0MonitorSchMain@@QAE@XZ  0040fe50 f   MonitorSchMain.obj
 0001:0000eef0       ??_GMonitorSchMain@@UAEPAXI@Z 0040fef0 f i MonitorSchMain.obj
 0001:0000eef0       ??_EMonitorSchMain@@UAEPAXI@Z 0040fef0 f i MonitorSchMain.obj
 0001:0000ef10       ?ReLoadMonitorsV70@MonitorSchMain@@IAE_NV?$basic_string@DU?$char_traits@D@std@@V?$allocator@D@2@@std@@@Z 0040ff10 f   MonitorSchMain.obj
 0001:0000f0b0       ?InitMonitorsGroupDependV70@MonitorSchMain@@IAE_NV?$basic_string@DU?$char_traits@D@std@@V?$allocator@D@2@@std@@@Z 004100b0 f   MonitorSchMain.obj
 0001:0000f1a0       ?AddGroupV70@MonitorSchMain@@IAE_NV?$basic_string@DU?$char_traits@D@std@@V?$allocator@D@2@@std@@_N@Z 004101a0 f   MonitorSchMain.obj
 0001:0000f420       ?erase@?$_Tree@V?$_Tmap_traits@V?$basic_string@DU?$char_traits@D@std@@V?$allocator@D@2@@std@@V12@UStlIniCompareStringNoCase@@V?$allocator@U?$pair@$$CBV?$basic_string@DU?$char_traits@D@std@@V?$allocator@D@2@@std@@V12@@std@@@2@$0A@@std@@@std@@QAE?AViterator@12@V312@0@Z 00410420 f i MonitorSchMain.obj
 0001:0000f4e0       ?AddEntityV70@MonitorSchMain@@IAE_NV?$basic_string@DU?$char_traits@D@std@@V?$allocator@D@2@@std@@_N@Z 004104e0 f   MonitorSchMain.obj
 0001:0000f790       ?ProcessConfigChange@MonitorSchMain@@QAE_NV?$basic_string@DU?$char_traits@D@std@@V?$allocator@D@2@@std@@0@Z 00410790 f   MonitorSchMain.obj
 0001:0000fb20       ??1?$map@V?$basic_string@DU?$char_traits@D@std@@V?$allocator@D@2@@std@@V12@UStlIniCompareStringNoCase@@V?$allocator@U?$pair@$$CBV?$basic_string@DU?$char_traits@D@std@@V?$allocator@D@2@@std@@V12@@std@@@2@@std@@QAE@XZ 00410b20 f i MonitorSchMain.obj
 0001:0000fb20       ?_Tidy@?$_Tree@V?$_Tmap_traits@V?$basic_string@DU?$char_traits@D@std@@V?$allocator@D@2@@std@@V12@UStlIniCompareStringNoCase@@V?$allocator@U?$pair@$$CBV?$basic_string@DU?$char_traits@D@std@@V?$allocator@D@2@@std@@V12@@std@@@2@$0A@@std@@@std@@IAEXXZ 00410b20 f i MonitorSchMain.obj
 0001:0000fb50       ??1?$pair@$$CBV?$basic_string@DU?$char_traits@D@std@@V?$allocator@D@2@@std@@V?$map@V?$basic_string@DU?$char_traits@D@std@@V?$allocator@D@2@@std@@V12@UStlIniCompareStringNoCase@@V?$allocator@U?$pair@$$CBV?$basic_string@DU?$char_traits@D@std@@V?$allocator@D@2@@std@@V12@@std@@@2@@2@@std@@QAE@XZ 00410b50 f i MonitorSchMain.obj
 0001:0000fbd0       ??1_Node@?$_Tree_nod@V?$_Tmap_traits@V?$basic_string@DU?$char_traits@D@std@@V?$allocator@D@2@@std@@V?$map@V?$basic_string@DU?$char_traits@D@std@@V?$allocator@D@2@@std@@V12@UStlIniCompareStringNoCase@@V?$allocator@U?$pair@$$CBV?$basic_string@DU?$char_traits@D@std@@V?$allocator@D@2@@std@@V12@@std@@@2@@2@UStlIniCompareStringNoCase@@V?$allocator@U?$pair@$$CBV?$basic_string@DU?$char_traits@D@std@@V?$allocator@D@2@@std@@V?$map@V?$basic_string@DU?$char_traits@D@std@@V?$allocator@D@2@@std@@V12@UStlIniCompareStringNoCase@@V?$allocator@U?$pair@$$CBV?$basic_string@DU?$char_traits@D@std@@V?$allocator@D@2@@std@@V12@@std@@@2@@2@@std@@@2@$0A@@std@@@std@@QAE@XZ 00410bd0 f i MonitorSchMain.obj
 0001:0000fbe0       ?erase@?$_Tree@V?$_Tmap_traits@V?$basic_string@DU?$char_traits@D@std@@V?$allocator@D@2@@std@@V?$map@V?$basic_string@DU?$char_traits@D@std@@V?$allocator@D@2@@std@@V12@UStlIniCompareStringNoCase@@V?$allocator@U?$pair@$$CBV?$basic_string@DU?$char_traits@D@std@@V?$allocator@D@2@@std@@V12@@std@@@2@@2@UStlIniCompareStringNoCase@@V?$allocator@U?$pair@$$CBV?$basic_string@DU?$char_traits@D@std@@V?$allocator@D@2@@std@@V?$map@V?$basic_string@DU?$char_traits@D@std@@V?$allocator@D@2@@std@@V12@UStlIniCompareStringNoCase@@V?$allocator@U?$pair@$$CBV?$basic_string@DU?$char_traits@D@std@@V?$allocator@D@2@@std@@V12@@std@@@2@@2@@std@@@2@$0A@@std@@@std@@QAE?AViterator@12@V312@@Z 00410be0 f i MonitorSchMain.obj
 0001:0000fec0       ?_Erase@?$_Tree@V?$_Tmap_traits@V?$basic_string@DU?$char_traits@D@std@@V?$allocator@D@2@@std@@V?$map@V?$basic_string@DU?$char_traits@D@std@@V?$allocator@D@2@@std@@V12@UStlIniCompareStringNoCase@@V?$allocator@U?$pair@$$CBV?$basic_string@DU?$char_traits@D@std@@V?$allocator@D@2@@std@@V12@@std@@@2@@2@UStlIniCompareStringNoCase@@V?$allocator@U?$pair@$$CBV?$basic_string@DU?$char_traits@D@std@@V?$allocator@D@2@@std@@V?$map@V?$basic_string@DU?$char_traits@D@std@@V?$allocator@D@2@@std@@V12@UStlIniCompareStringNoCase@@V?$allocator@U?$pair@$$CBV?$basic_string@DU?$char_traits@D@std@@V?$allocator@D@2@@std@@V12@@std@@@2@@2@@std@@@2@$0A@@std@@@std@@IAEXPAU_Node@?$_Tree_nod@V?$_Tmap_traits@V?$basic_string@DU?$char_traits@D@std@@V?$allocator@D@2@@std@@V?$map@V?$basic_string@DU?$char_traits@D@std@@V?$allocator@D@2@@std@@V12@UStlIniCompareStringNoCase@@V?$allocator@U?$pair@$$CBV?$basic_string@DU?$char_traits@D@std@@V?$allocator@D@2@@std@@V12@@std@@@2@@2@UStlIniCompareStringNoCase@@V?$allocator@U?$pair@$$CBV?$basic_string@DU?$char_traits@D@std@@V?$allocator@D@2@@std@@V?$map@V?$basic_string@DU?$char_traits@D@std@@V?$allocator@D@2@@std@@V12@UStlIniCompareStringNoCase@@V?$allocator@U?$pair@$$CBV?$basic_string@DU?$char_traits@D@std@@V?$allocator@D@2@@std@@V12@@std@@@2@@2@@std@@@2@$0A@@std@@@2@@Z 00410ec0 f i MonitorSchMain.obj
 0001:0000ff00       ?erase@?$_Tree@V?$_Tmap_traits@V?$basic_string@DU?$char_traits@D@std@@V?$allocator@D@2@@std@@V?$map@V?$basic_string@DU?$char_traits@D@std@@V?$allocator@D@2@@std@@V12@UStlIniCompareStringNoCase@@V?$allocator@U?$pair@$$CBV?$basic_string@DU?$char_traits@D@std@@V?$allocator@D@2@@std@@V12@@std@@@2@@2@UStlIniCompareStringNoCase@@V?$allocator@U?$pair@$$CBV?$basic_string@DU?$char_traits@D@std@@V?$allocator@D@2@@std@@V?$map@V?$basic_string@DU?$char_traits@D@std@@V?$allocator@D@2@@std@@V12@UStlIniCompareStringNoCase@@V?$allocator@U?$pair@$$CBV?$basic_string@DU?$char_traits@D@std@@V?$allocator@D@2@@std@@V12@@std@@@2@@2@@std@@@2@$0A@@std@@@std@@QAE?AViterator@12@V312@0@Z 00410f00 f i MonitorSchMain.obj
 0001:0000ffc0       ?_Tidy@?$_Tree@V?$_Tmap_traits@V?$basic_string@DU?$char_traits@D@std@@V?$allocator@D@2@@std@@V?$map@V?$basic_string@DU?$char_traits@D@std@@V?$allocator@D@2@@std@@V12@UStlIniCompareStringNoCase@@V?$allocator@U?$pair@$$CBV?$basic_string@DU?$char_traits@D@std@@V?$allocator@D@2@@std@@V12@@std@@@2@@2@UStlIniCompareStringNoCase@@V?$allocator@U?$pair@$$CBV?$basic_string@DU?$char_traits@D@std@@V?$allocator@D@2@@std@@V?$map@V?$basic_string@DU?$char_traits@D@std@@V?$allocator@D@2@@std@@V12@UStlIniCompareStringNoCase@@V?$allocator@U?$pair@$$CBV?$basic_string@DU?$char_traits@D@std@@V?$allocator@D@2@@std@@V12@@std@@@2@@2@@std@@@2@$0A@@std@@@std@@IAEXXZ 00410fc0 f i MonitorSchMain.obj
 0001:0000ffc0       ??1?$map@V?$basic_string@DU?$char_traits@D@std@@V?$allocator@D@2@@std@@V?$map@V?$basic_string@DU?$char_traits@D@std@@V?$allocator@D@2@@std@@V12@UStlIniCompareStringNoCase@@V?$allocator@U?$pair@$$CBV?$basic_string@DU?$char_traits@D@std@@V?$allocator@D@2@@std@@V12@@std@@@2@@2@UStlIniCompareStringNoCase@@V?$allocator@U?$pair@$$CBV?$basic_string@DU?$char_traits@D@std@@V?$allocator@D@2@@std@@V?$map@V?$basic_string@DU?$char_traits@D@std@@V?$allocator@D@2@@std@@V12@UStlIniCompareStringNoCase@@V?$allocator@U?$pair@$$CBV?$basic_string@DU?$char_traits@D@std@@V?$allocator@D@2@@std@@V12@@std@@@2@@2@@std@@@2@@std@@QAE@XZ 00410fc0 f i MonitorSchMain.obj
 0001:0000fff0       ??0TString@@QAE@VString@ost@@@Z 00410ff0 f i MonitorThread.obj
 0001:00010050       ?Mid@TString@@QAE?AV1@HH@Z 00411050 f i MonitorThread.obj
 0001:00010090       ??4TString@@QAEAAV0@AAV?$basic_string@DU?$char_traits@D@std@@V?$allocator@D@2@@std@@@Z 00411090 f i MonitorThread.obj
 0001:000100d0       ?Format@TTime@svutil@@QBE?AV?$basic_string@DU?$char_traits@D@std@@V?$allocator@D@2@@std@@XZ 004110d0 f i MonitorThread.obj
 0001:00010160       ?GetLibrary@Monitor@@QAE?AVTString@@XZ 00411160 f i MonitorThread.obj
 0001:00010180       ?GetProcess@Monitor@@QAE?AVTString@@XZ 00411180 f i MonitorThread.obj
 0001:000101a0       ?Judge@MonitorThread@@AAEHPBD00@Z 004111a0 f   MonitorThread.obj
 0001:000103c0       ?ExecuteMonitor@MonitorThread@@QAEXPAVMonitor@@@Z 004113c0 f   MonitorThread.obj
 0001:00010400       ?InitSocket@MonitorThread@@IAEHXZ 00411400 f   MonitorThread.obj
 0001:00010460       ?RunInProcess@MonitorThread@@IAE_NHV?$basic_string@DU?$char_traits@D@std@@V?$allocator@D@2@@std@@0@Z 00411460 f   MonitorThread.obj
 0001:00010e00       ?CountNodes@?$sorttree@V?$hashelement@Vword@svutil@@V12@@svutil@@@svutil@@AAEXPAV?$treenode@V?$hashelement@Vword@svutil@@V12@@svutil@@@2@AAK@Z 00411e00 f i MonitorThread.obj
 0001:00010e30       ?findnextnode@?$sorttree@V?$hashelement@Vword@svutil@@V12@@svutil@@@svutil@@ABEPAV?$treenode@V?$hashelement@Vword@svutil@@V12@@svutil@@@2@AAV?$hashelement@Vword@svutil@@V12@@2@AA_NPAV32@@Z 00411e30 f i MonitorThread.obj
 0001:00010ea0       ?_Incsize@?$list@PAVReturnValue@@V?$allocator@PAVReturnValue@@@std@@@std@@IAEXI@Z 00411ea0 f i MonitorThread.obj
 0001:00010f40       ??1?$hashnode@Vword@svutil@@V12@@svutil@@QAE@XZ 00411f40 f i MonitorThread.obj
 0001:00010ff0       ?MakeInBuf@MonitorThread@@AAEHXZ 00411ff0 f   MonitorThread.obj
 0001:000110a0       ?InitData@MonitorThread@@AAEXXZ 004120a0 f   MonitorThread.obj
 0001:00011170       ?CheckSingleItemState@MonitorThread@@AAEHPAVStateCondition@@H@Z 00412170 f   MonitorThread.obj
 0001:00011380       ?ClearResult@MonitorThread@@AAEXXZ 00412380 f   MonitorThread.obj
 0001:00011420       ?ProcessResultV70@MonitorThread@@AAEXXZ 00412420 f   MonitorThread.obj
 0001:00011850       ??1?$list@PAVSubsequentItem@@V?$allocator@PAVSubsequentItem@@@std@@@std@@QAE@XZ 00412850 f i Subsequent.obj
 0001:00011850       ??1?$list@PAUtmsg@@V?$allocator@PAUtmsg@@@std@@@std@@QAE@XZ 00412850 f i MSGQueue.obj
 0001:00011850       ??1?$list@PAVStateConditionItem@@V?$allocator@PAVStateConditionItem@@@std@@@std@@QAE@XZ 00412850 f i StateCondition.obj
 0001:00011850       ??1?$list@PAVMonitor@@V?$allocator@PAVMonitor@@@std@@@std@@QAE@XZ 00412850 f i MonitorSchedule.obj
 0001:00011850       ??1?$list@PAVEntity@@V?$allocator@PAVEntity@@@std@@@std@@QAE@XZ 00412850 f i Groups.obj
 0001:00011850       ??1?$list@PAVGroupsItem@@V?$allocator@PAVGroupsItem@@@std@@@std@@QAE@XZ 00412850 f i Groups.obj
 0001:00011850       ??1?$list@PAVThreadEx@@V?$allocator@PAVThreadEx@@@std@@@std@@QAE@XZ 00412850 f i ScheduleThread.obj
 0001:00011850       ??1?$list@PAVReturnData@@V?$allocator@PAVReturnData@@@std@@@std@@QAE@XZ 00412850 f i Monitor.obj
 0001:00011850       ??1?$list@PAVReturnValue@@V?$allocator@PAVReturnValue@@@std@@@std@@QAE@XZ 00412850 f i MonitorThread.obj
 0001:00011870       ?push_back@?$list@PAVReturnValue@@V?$allocator@PAVReturnValue@@@std@@@std@@QAEXABQAVReturnValue@@@Z 00412870 f i MonitorThread.obj
 0001:000118b0       ?size@?$hashtable@Vword@svutil@@V12@@svutil@@QAEIXZ 004128b0 f i MonitorThread.obj
 0001:00011950       ?clearnodes@?$hashtable@Vword@svutil@@V12@@svutil@@IAEXXZ 00412950 f i MonitorThread.obj
 0001:000119c0       ?findnext@?$hashnode@Vword@svutil@@V12@@svutil@@QAE_NAAV?$hashelement@Vword@svutil@@V12@@2@PAPAV32@@Z 004129c0 f i MonitorThread.obj
 0001:00011a70       ?ParserExpression@MonitorThread@@AAEHVTString@@AAV?$list@V?$basic_string@DU?$char_traits@D@std@@V?$allocator@D@2@@std@@V?$allocator@V?$basic_string@DU?$char_traits@D@std@@V?$allocator@D@2@@std@@@2@@std@@1@Z 00412a70 f   MonitorThread.obj
 0001:00011e90       ??1?$hashtable@Vword@svutil@@V12@@svutil@@QAE@XZ 00412e90 f i MonitorThread.obj
 0001:00011ef0       ?findnext@?$hashtable@Vword@svutil@@V12@@svutil@@QAE_NAAViterator@12@@Z 00412ef0 f i MonitorThread.obj
 0001:00011f90       ??1MonitorThread@@UAE@XZ   00412f90 f   MonitorThread.obj
 0001:00012050       ??0?$hashtable@Vword@svutil@@V12@@svutil@@QAE@XZ 00413050 f i MonitorThread.obj
 0001:000120a0       ??_GMonitorThread@@UAEPAXI@Z 004130a0 f i MonitorThread.obj
 0001:000120a0       ??_EMonitorThread@@UAEPAXI@Z 004130a0 f i MonitorThread.obj
 0001:000120c0       ??0MonitorThread@@QAE@XZ   004130c0 f   MonitorThread.obj
 0001:000121b0       ?CheckStateByType@MonitorThread@@AAEHH@Z 004131b0 f   MonitorThread.obj
 0001:00012710       ?ParserMonitorState@MonitorThread@@AAEXXZ 00413710 f   MonitorThread.obj
 0001:000127b0       ?BulidStringMap@MonitorThread@@AAE_NAAV?$hashtable@Vword@svutil@@V12@@svutil@@PBD@Z 004137b0 f   MonitorThread.obj
 0001:00012a20       ?PaserResultV70@MonitorThread@@AAEHXZ 00413a20 f   MonitorThread.obj
 0001:00012ef0       ?RunMonitor@MonitorThread@@IAEXXZ 00413ef0 f   MonitorThread.obj
 0001:000133b0       ?run@MonitorThread@@UAEXXZ 004143b0 f   MonitorThread.obj
 0001:00013700       ?_Buynode@?$list@PAVEntity@@V?$allocator@PAVEntity@@@std@@@std@@IAEPAU_Node@?$_List_nod@PAVEntity@@V?$allocator@PAVEntity@@@std@@@2@XZ 00414700 f i Groups.obj
 0001:00013700       ?_Buynode@?$list@PAVReturnData@@V?$allocator@PAVReturnData@@@std@@@std@@IAEPAU_Node@?$_List_nod@PAVReturnData@@V?$allocator@PAVReturnData@@@std@@@2@XZ 00414700 f i Monitor.obj
 0001:00013700       ?_Buynode@?$list@PAVSubsequentItem@@V?$allocator@PAVSubsequentItem@@@std@@@std@@IAEPAU_Node@?$_List_nod@PAVSubsequentItem@@V?$allocator@PAVSubsequentItem@@@std@@@2@XZ 00414700 f i Subsequent.obj
 0001:00013700       ?_Buynode@?$list@PAVGroupsItem@@V?$allocator@PAVGroupsItem@@@std@@@std@@IAEPAU_Node@?$_List_nod@PAVGroupsItem@@V?$allocator@PAVGroupsItem@@@std@@@2@XZ 00414700 f i Groups.obj
 0001:00013700       ?_Buynode@?$list@PAVReturnValue@@V?$allocator@PAVReturnValue@@@std@@@std@@IAEPAU_Node@?$_List_nod@PAVReturnValue@@V?$allocator@PAVReturnValue@@@std@@@2@XZ 00414700 f i MonitorThread.obj
 0001:00013700       ?_Buynode@?$list@PAUtmsg@@V?$allocator@PAUtmsg@@@std@@@std@@IAEPAU_Node@?$_List_nod@PAUtmsg@@V?$allocator@PAUtmsg@@@std@@@2@XZ 00414700 f i MSGQueue.obj
 0001:00013700       ?_Buynode@?$list@PAVMonitor@@V?$allocator@PAVMonitor@@@std@@@std@@IAEPAU_Node@?$_List_nod@PAVMonitor@@V?$allocator@PAVMonitor@@@std@@@2@XZ 00414700 f i MonitorSchedule.obj
 0001:00013700       ?_Buynode@?$list@PAVStateConditionItem@@V?$allocator@PAVStateConditionItem@@@std@@@std@@IAEPAU_Node@?$_List_nod@PAVStateConditionItem@@V?$allocator@PAVStateConditionItem@@@std@@@2@XZ 00414700 f i StateCondition.obj
 0001:00013700       ?_Buynode@?$list@PAVThreadEx@@V?$allocator@PAVThreadEx@@@std@@@std@@IAEPAU_Node@?$_List_nod@PAVThreadEx@@V?$allocator@PAVThreadEx@@@std@@@2@XZ 00414700 f i ScheduleThread.obj
 0001:00013720       ??0MSGQueue@@QAE@XZ        00414720 f   MSGQueue.obj
 0001:000137b0       ??1MSGQueue@@QAE@XZ        004147b0 f   MSGQueue.obj
 0001:00013830       ??1CommunicationThread@@UAE@XZ 00414830 f   ommunicationThread.obj
 0001:00013840       ?run@CommunicationThread@@UAEXXZ 00414840 f   ommunicationThread.obj
 0001:00013be0       ??0Option@@QAE@XZ          00414be0 f   Option.obj
 0001:00013ca0       ?LoadOption@Option@@QAE_NXZ 00414ca0 f   Option.obj
 0001:00014130       ??0ProcessMonitorData@@QAE@XZ 00415130 f   ProcessMonitorData.obj
 0001:000141c0       ??1ProcessMonitorData@@QAE@XZ 004151c0 f   ProcessMonitorData.obj
 0001:00014210       ?GetRawDataSize@ProcessMonitorData@@QAEHXZ 00415210 f   ProcessMonitorData.obj
 0001:00014220       ?GetRawData@ProcessMonitorData@@QAE_NPADH@Z 00415220 f   ProcessMonitorData.obj
 0001:000142e0       ?CreateObjectByRawData@ProcessMonitorData@@QAE_NPBDH@Z 004152e0 f   ProcessMonitorData.obj
 0001:00014410       ?Clear@ProcessMonitorData@@QAEXXZ 00415410 f   ProcessMonitorData.obj
 0001:00014420       ??1QueueItem@@UAE@XZ       00415420 f   QueueItem.obj
 0001:000144a0       ?Push@QueueItem@@QAEXPAVMonitor@@H@Z 004154a0 f   QueueItem.obj
 0001:000145d0       ?Pop@QueueItem@@QAEPAVMonitor@@XZ 004155d0 f   QueueItem.obj
 0001:00014680       ??_EQueueItem@@UAEPAXI@Z   00415680 f i QueueItem.obj
 0001:00014680       ??_GQueueItem@@UAEPAXI@Z   00415680 f i QueueItem.obj
 0001:000146a0       ?Pop@QueuesManager@@QAEPAVMonitor@@H@Z 004156a0 f   QueuesManager.obj
 0001:000146c0       ??_EQueuesManager@@UAEPAXI@Z 004156c0 f i QueuesManager.obj
 0001:000146c0       ??_GQueuesManager@@UAEPAXI@Z 004156c0 f i QueuesManager.obj
 0001:000146e0       ?ListAllQueueInfo@QueuesManager@@QAEXXZ 004156e0 f   QueuesManager.obj
 0001:00014730       ?GetQueueIndexByClass@QueuesManager@@QAEHPBD@Z 00415730 f   QueuesManager.obj
 0001:000147a0       ?Pop@QueuesManager@@QAEPAVMonitor@@PBD@Z 004157a0 f   QueuesManager.obj
 0001:000147d0       ?Push@QueuesManager@@QAEHPAVMonitor@@PBDH@Z 004157d0 f   QueuesManager.obj
 0001:00014830       ?Push@QueuesManager@@QAEHPAVMonitor@@H@Z 00415830 f   QueuesManager.obj
 0001:000148f0       ??0QueueItem@@QAE@PBD@Z    004158f0 f i QueuesManager.obj
 0001:00014960       ?CreateQueueBySubsequent@QueuesManager@@AAEHXZ 00415960 f   QueuesManager.obj
 0001:00014a30       ?CreateMainQueue@QueuesManager@@AAEHXZ 00415a30 f   QueuesManager.obj
 0001:00014ad0       ?Init@QueuesManager@@QAEHXZ 00415ad0 f   QueuesManager.obj
 0001:00014b30       ??1sv_pair@@QAE@XZ         00415b30 f i readSVDB.obj
 0001:00014b80       ??0readSVDB@@QAE@XZ        00415b80 f   readSVDB.obj
 0001:00014bf0       ??1readSVDB@@QAE@XZ        00415bf0 f   readSVDB.obj
 0001:00014c60       ??1?$pair@V?$basic_string@DU?$char_traits@D@std@@V?$allocator@D@2@@std@@PAX@std@@QAE@XZ 00415c60 f i readSVDB.obj
 0001:00014c60       ??1SerialData@@QAE@XZ      00415c60 f i SerialData.obj
 0001:00014c60       ??1?$pair@$$CBV?$basic_string@DU?$char_traits@D@std@@V?$allocator@D@2@@std@@PAX@std@@QAE@XZ 00415c60 f i readSVDB.obj
 0001:00014c70       ?GetSGProValue@readSVDB@@QAE_NV?$basic_string@DU?$char_traits@D@std@@V?$allocator@D@2@@std@@0AAV23@@Z 00415c70 f   readSVDB.obj
 0001:00014df0       ?_Xlen@?$vector@U?$pair@HH@std@@V?$allocator@U?$pair@HH@std@@@2@@std@@IBEXXZ 00415df0 f i readSVDB.obj
 0001:00014df0       ?_Xlen@?$vector@UPairTime@@V?$allocator@UPairTime@@@std@@@std@@IBEXXZ 00415df0 f i readSVDB.obj
 0001:00014e70       ??0?$hashelement@Vword@svutil@@PAVTask@@@svutil@@QAE@ABVword@1@ABQAVTask@@@Z 00415e70 f i readSVDB.obj
 0001:00014ee0       ?_Min@?$_Tree@V?$_Tmap_traits@HPAXU?$less@H@std@@V?$allocator@U?$pair@$$CBHPAX@std@@@2@$0A@@std@@@std@@KAPAU_Node@?$_Tree_nod@V?$_Tmap_traits@HPAXU?$less@H@std@@V?$allocator@U?$pair@$$CBHPAX@std@@@2@$0A@@std@@@2@PAU342@@Z 00415ee0 f i readSVDB.obj
 0001:00014f00       ?_Min@?$_Tree@V?$_Tmap_traits@V?$basic_string@DU?$char_traits@D@std@@V?$allocator@D@2@@std@@PAXU?$less@V?$basic_string@DU?$char_traits@D@std@@V?$allocator@D@2@@std@@@2@V?$allocator@U?$pair@$$CBV?$basic_string@DU?$char_traits@D@std@@V?$allocator@D@2@@std@@PAX@std@@@2@$0A@@std@@@std@@KAPAU_Node@?$_Tree_nod@V?$_Tmap_traits@V?$basic_string@DU?$char_traits@D@std@@V?$allocator@D@2@@std@@PAXU?$less@V?$basic_string@DU?$char_traits@D@std@@V?$allocator@D@2@@std@@@2@V?$allocator@U?$pair@$$CBV?$basic_string@DU?$char_traits@D@std@@V?$allocator@D@2@@std@@PAX@std@@@2@$0A@@std@@@2@PAU342@@Z 00415f00 f i readSVDB.obj
 0001:00014f20       ??1?$treenode@V?$hashelement@Vword@svutil@@PAVTask@@@svutil@@@svutil@@UAE@XZ 00415f20 f i readSVDB.obj
 0001:00014f40       ??_G?$treenode@V?$hashelement@Vword@svutil@@PAVTask@@@svutil@@@svutil@@UAEPAXI@Z 00415f40 f i readSVDB.obj
 0001:00014f40       ??_E?$treenode@V?$hashelement@Vword@svutil@@PAVTask@@@svutil@@@svutil@@UAEPAXI@Z 00415f40 f i readSVDB.obj
 0001:00014f60       ?_Max@?$_Tree@V?$_Tmap_traits@HPAXU?$less@H@std@@V?$allocator@U?$pair@$$CBHPAX@std@@@2@$0A@@std@@@std@@KAPAU_Node@?$_Tree_nod@V?$_Tmap_traits@HPAXU?$less@H@std@@V?$allocator@U?$pair@$$CBHPAX@std@@@2@$0A@@std@@@2@PAU342@@Z 00415f60 f i readSVDB.obj
 0001:00014f80       ?_Max@?$_Tree@V?$_Tmap_traits@V?$basic_string@DU?$char_traits@D@std@@V?$allocator@D@2@@std@@PAXU?$less@V?$basic_string@DU?$char_traits@D@std@@V?$allocator@D@2@@std@@@2@V?$allocator@U?$pair@$$CBV?$basic_string@DU?$char_traits@D@std@@V?$allocator@D@2@@std@@PAX@std@@@2@$0A@@std@@@std@@KAPAU_Node@?$_Tree_nod@V?$_Tmap_traits@V?$basic_string@DU?$char_traits@D@std@@V?$allocator@D@2@@std@@PAXU?$less@V?$basic_string@DU?$char_traits@D@std@@V?$allocator@D@2@@std@@@2@V?$allocator@U?$pair@$$CBV?$basic_string@DU?$char_traits@D@std@@V?$allocator@D@2@@std@@PAX@std@@@2@$0A@@std@@@2@PAU342@@Z 00415f80 f i readSVDB.obj
 0001:00014fa0       ??M?$treenode@V?$hashelement@Vword@svutil@@PAVTask@@@svutil@@@svutil@@QAE_NV01@@Z 00415fa0 f i readSVDB.obj
 0001:00015010       ??O?$treenode@V?$hashelement@Vword@svutil@@PAVTask@@@svutil@@@svutil@@QAE_NV01@@Z 00416010 f i readSVDB.obj
 0001:00015080       ??$fill@PAUPairTime@@U1@@std@@YAXPAUPairTime@@0ABU1@@Z 00416080 f i readSVDB.obj
 0001:000150c0       ??$fill@PAU?$pair@HH@std@@U12@@std@@YAXPAU?$pair@HH@0@0ABU10@@Z 004160c0 f i readSVDB.obj
 0001:000150f0       ??1_Node@?$_Tree_nod@V?$_Tmap_traits@V?$basic_string@DU?$char_traits@D@std@@V?$allocator@D@2@@std@@PAXU?$less@V?$basic_string@DU?$char_traits@D@std@@V?$allocator@D@2@@std@@@2@V?$allocator@U?$pair@$$CBV?$basic_string@DU?$char_traits@D@std@@V?$allocator@D@2@@std@@PAX@std@@@2@$0A@@std@@@std@@QAE@XZ 004160f0 f i readSVDB.obj
 0001:00015100       ??1_Node@?$_List_nod@Usv_pair@@V?$allocator@Usv_pair@@@std@@@std@@QAE@XZ 00416100 f i readSVDB.obj
 0001:00015110       ??0?$treenode@V?$hashelement@Vword@svutil@@PAVTask@@@svutil@@@svutil@@QAE@ABV?$hashelement@Vword@svutil@@PAVTask@@@1@@Z 00416110 f i readSVDB.obj
 0001:00015190       ??$_Copy_backward_opt@PAUPairTime@@PAU1@@std@@YAPAUPairTime@@PAU1@00U_Nonscalar_ptr_iterator_tag@0@@Z 00416190 f i readSVDB.obj
 0001:000151d0       ?_Lrotate@?$_Tree@V?$_Tmap_traits@HPAXU?$less@H@std@@V?$allocator@U?$pair@$$CBHPAX@std@@@2@$0A@@std@@@std@@IAEXPAU_Node@?$_Tree_nod@V?$_Tmap_traits@HPAXU?$less@H@std@@V?$allocator@U?$pair@$$CBHPAX@std@@@2@$0A@@std@@@2@@Z 004161d0 f i readSVDB.obj
 0001:00015230       ?_Rrotate@?$_Tree@V?$_Tmap_traits@HPAXU?$less@H@std@@V?$allocator@U?$pair@$$CBHPAX@std@@@2@$0A@@std@@@std@@IAEXPAU_Node@?$_Tree_nod@V?$_Tmap_traits@HPAXU?$less@H@std@@V?$allocator@U?$pair@$$CBHPAX@std@@@2@$0A@@std@@@2@@Z 00416230 f i readSVDB.obj
 0001:00015290       ?_Lbound@?$_Tree@V?$_Tmap_traits@V?$basic_string@DU?$char_traits@D@std@@V?$allocator@D@2@@std@@PAXU?$less@V?$basic_string@DU?$char_traits@D@std@@V?$allocator@D@2@@std@@@2@V?$allocator@U?$pair@$$CBV?$basic_string@DU?$char_traits@D@std@@V?$allocator@D@2@@std@@PAX@std@@@2@$0A@@std@@@std@@IBEPAU_Node@?$_Tree_nod@V?$_Tmap_traits@V?$basic_string@DU?$char_traits@D@std@@V?$allocator@D@2@@std@@PAXU?$less@V?$basic_string@DU?$char_traits@D@std@@V?$allocator@D@2@@std@@@2@V?$allocator@U?$pair@$$CBV?$basic_string@DU?$char_traits@D@std@@V?$allocator@D@2@@std@@PAX@std@@@2@$0A@@std@@@2@ABV?$basic_string@DU?$char_traits@D@std@@V?$allocator@D@2@@2@@Z 00416290 f i readSVDB.obj
 0001:000152e0       ?_Lrotate@?$_Tree@V?$_Tmap_traits@V?$basic_string@DU?$char_traits@D@std@@V?$allocator@D@2@@std@@PAXU?$less@V?$basic_string@DU?$char_traits@D@std@@V?$allocator@D@2@@std@@@2@V?$allocator@U?$pair@$$CBV?$basic_string@DU?$char_traits@D@std@@V?$allocator@D@2@@std@@PAX@std@@@2@$0A@@std@@@std@@IAEXPAU_Node@?$_Tree_nod@V?$_Tmap_traits@V?$basic_string@DU?$char_traits@D@std@@V?$allocator@D@2@@std@@PAXU?$less@V?$basic_string@DU?$char_traits@D@std@@V?$allocator@D@2@@std@@@2@V?$allocator@U?$pair@$$CBV?$basic_string@DU?$char_traits@D@std@@V?$allocator@D@2@@std@@PAX@std@@@2@$0A@@std@@@2@@Z 004162e0 f i readSVDB.obj
 0001:00015340       ?_Rrotate@?$_Tree@V?$_Tmap_traits@V?$basic_string@DU?$char_traits@D@std@@V?$allocator@D@2@@std@@PAXU?$less@V?$basic_string@DU?$char_traits@D@std@@V?$allocator@D@2@@std@@@2@V?$allocator@U?$pair@$$CBV?$basic_string@DU?$char_traits@D@std@@V?$allocator@D@2@@std@@PAX@std@@@2@$0A@@std@@@std@@IAEXPAU_Node@?$_Tree_nod@V?$_Tmap_traits@V?$basic_string@DU?$char_traits@D@std@@V?$allocator@D@2@@std@@PAXU?$less@V?$basic_string@DU?$char_traits@D@std@@V?$allocator@D@2@@std@@@2@V?$allocator@U?$pair@$$CBV?$basic_string@DU?$char_traits@D@std@@V?$allocator@D@2@@std@@PAX@std@@@2@$0A@@std@@@2@@Z 00416340 f i readSVDB.obj
 0001:000153a0       ?_Inc@const_iterator@?$_Tree@V?$_Tmap_traits@HPAXU?$less@H@std@@V?$allocator@U?$pair@$$CBHPAX@std@@@2@$0A@@std@@@std@@QAEXXZ 004163a0 f i readSVDB.obj
 0001:00015400       ?_Inc@const_iterator@?$_Tree@V?$_Tmap_traits@V?$basic_string@DU?$char_traits@D@std@@V?$allocator@D@2@@std@@PAXU?$less@V?$basic_string@DU?$char_traits@D@std@@V?$allocator@D@2@@std@@@2@V?$allocator@U?$pair@$$CBV?$basic_string@DU?$char_traits@D@std@@V?$allocator@D@2@@std@@PAX@std@@@2@$0A@@std@@@std@@QAEXXZ 00416400 f i readSVDB.obj
 0001:00015460       ?_Dec@const_iterator@?$_Tree@V?$_Tmap_traits@HPAXU?$less@H@std@@V?$allocator@U?$pair@$$CBHPAX@std@@@2@$0A@@std@@@std@@QAEXXZ 00416460 f i readSVDB.obj
 0001:000154c0       ?_Dec@const_iterator@?$_Tree@V?$_Tmap_traits@V?$basic_string@DU?$char_traits@D@std@@V?$allocator@D@2@@std@@PAXU?$less@V?$basic_string@DU?$char_traits@D@std@@V?$allocator@D@2@@std@@@2@V?$allocator@U?$pair@$$CBV?$basic_string@DU?$char_traits@D@std@@V?$allocator@D@2@@std@@PAX@std@@@2@$0A@@std@@@std@@QAEXXZ 004164c0 f i readSVDB.obj
 0001:00015520       ??0?$treenode@V?$hashelement@Vword@svutil@@PAVTask@@@svutil@@@svutil@@QAE@ABV01@@Z 00416520 f i readSVDB.obj
 0001:000155a0       ??$make_pair@V?$basic_string@DU?$char_traits@D@std@@V?$allocator@D@2@@std@@PAX@std@@YA?AU?$pair@V?$basic_string@DU?$char_traits@D@std@@V?$allocator@D@2@@std@@PAX@0@V?$basic_string@DU?$char_traits@D@std@@V?$allocator@D@2@@0@PAX@Z 004165a0 f i readSVDB.obj
 0001:00015610       ??$copy_backward@PAU?$pair@HH@std@@PAU12@@std@@YAPAU?$pair@HH@0@PAU10@00@Z 00416610 f i readSVDB.obj
 0001:00015640       ??$CreateNode@V?$hashelement@Vword@svutil@@PAVTask@@@svutil@@@?$sorttree@V?$hashelement@Vword@svutil@@PAVTask@@@svutil@@@svutil@@SAPAV?$treenode@V?$hashelement@Vword@svutil@@PAVTask@@@svutil@@@1@ABV?$hashelement@Vword@svutil@@PAVTask@@@1@@Z 00416640 f i readSVDB.obj
 0001:000156a0       ??$_Uninit_copy@PAUPairTime@@PAU1@V?$allocator@UPairTime@@@std@@@std@@YAPAUPairTime@@PAU1@00AAV?$allocator@UPairTime@@@0@U_Nonscalar_ptr_iterator_tag@0@@Z 004166a0 f i readSVDB.obj
 0001:000156e0       ??$_Uninit_copy@PAU?$pair@HH@std@@PAU12@V?$allocator@U?$pair@HH@std@@@2@@std@@YAPAU?$pair@HH@0@PAU10@00AAV?$allocator@U?$pair@HH@std@@@0@U_Nonscalar_ptr_iterator_tag@0@@Z 004166e0 f i readSVDB.obj
 0001:00015710       ?_Erase@?$_Tree@V?$_Tmap_traits@HPAXU?$less@H@std@@V?$allocator@U?$pair@$$CBHPAX@std@@@2@$0A@@std@@@std@@IAEXPAU_Node@?$_Tree_nod@V?$_Tmap_traits@HPAXU?$less@H@std@@V?$allocator@U?$pair@$$CBHPAX@std@@@2@$0A@@std@@@2@@Z 00416710 f i readSVDB.obj
 0001:00015750       ?_Buynode@?$list@Usv_pair@@V?$allocator@Usv_pair@@@std@@@std@@IAEPAU_Node@?$_List_nod@Usv_pair@@V?$allocator@Usv_pair@@@std@@@2@XZ 00416750 f i readSVDB.obj
 0001:00015770       ?_Incsize@?$list@PAVSubsequentItem@@V?$allocator@PAVSubsequentItem@@@std@@@std@@IAEXI@Z 00416770 f i readSVDB.obj
 0001:00015810       ?_Buynode@?$_Tree@V?$_Tmap_traits@HPAXU?$less@H@std@@V?$allocator@U?$pair@$$CBHPAX@std@@@2@$0A@@std@@@std@@IAEPAU_Node@?$_Tree_nod@V?$_Tmap_traits@HPAXU?$less@H@std@@V?$allocator@U?$pair@$$CBHPAX@std@@@2@$0A@@std@@@2@PAU342@00ABU?$pair@$$CBHPAX@2@D@Z 00416810 f i readSVDB.obj
 0001:00015850       ?_Buynode@?$_Tree@V?$_Tmap_traits@V?$basic_string@DU?$char_traits@D@std@@V?$allocator@D@2@@std@@PAXU?$less@V?$basic_string@DU?$char_traits@D@std@@V?$allocator@D@2@@std@@@2@V?$allocator@U?$pair@$$CBV?$basic_string@DU?$char_traits@D@std@@V?$allocator@D@2@@std@@PAX@std@@@2@$0A@@std@@@std@@IAEPAU_Node@?$_Tree_nod@V?$_Tmap_traits@V?$basic_string@DU?$char_traits@D@std@@V?$allocator@D@2@@std@@PAXU?$less@V?$basic_string@DU?$char_traits@D@std@@V?$allocator@D@2@@std@@@2@V?$allocator@U?$pair@$$CBV?$basic_string@DU?$char_traits@D@std@@V?$allocator@D@2@@std@@PAX@std@@@2@$0A@@std@@@2@PAU342@00ABU?$pair@$$CBV?$basic_string@DU?$char_traits@D@std@@V?$allocator@D@2@@std@@PAX@2@D@Z 00416850 f i readSVDB.obj
 0001:000158f0       ?_Buynode@?$_Tree@V?$_Tmap_traits@HPAXU?$less@H@std@@V?$allocator@U?$pair@$$CBHPAX@std@@@2@$0A@@std@@@std@@IAEPAU_Node@?$_Tree_nod@V?$_Tmap_traits@HPAXU?$less@H@std@@V?$allocator@U?$pair@$$CBHPAX@std@@@2@$0A@@std@@@2@XZ 004168f0 f i readSVDB.obj
 0001:00015930       ?_Buynode@?$_Tree@V?$_Tmap_traits@V?$basic_string@DU?$char_traits@D@std@@V?$allocator@D@2@@std@@PAXU?$less@V?$basic_string@DU?$char_traits@D@std@@V?$allocator@D@2@@std@@@2@V?$allocator@U?$pair@$$CBV?$basic_string@DU?$char_traits@D@std@@V?$allocator@D@2@@std@@PAX@std@@@2@$0A@@std@@@std@@IAEPAU_Node@?$_Tree_nod@V?$_Tmap_traits@V?$basic_string@DU?$char_traits@D@std@@V?$allocator@D@2@@std@@PAXU?$less@V?$basic_string@DU?$char_traits@D@std@@V?$allocator@D@2@@std@@@2@V?$allocator@U?$pair@$$CBV?$basic_string@DU?$char_traits@D@std@@V?$allocator@D@2@@std@@PAX@std@@@2@$0A@@std@@@2@XZ 00416930 f i readSVDB.obj
 0001:00015970       ?InsertNode@?$sorttree@V?$hashelement@Vword@svutil@@PAVTask@@@svutil@@@svutil@@QAEXPAV?$treenode@V?$hashelement@Vword@svutil@@PAVTask@@@svutil@@@2@0@Z 00416970 f i readSVDB.obj
 0001:00015a00       ??$_Uninit_fill_n@PAUPairTime@@IU1@V?$allocator@UPairTime@@@std@@@std@@YAXPAUPairTime@@IABU1@AAV?$allocator@UPairTime@@@0@U_Nonscalar_ptr_iterator_tag@0@@Z 00416a00 f i readSVDB.obj
 0001:00015a40       ??$_Uninit_fill_n@PAU?$pair@HH@std@@IU12@V?$allocator@U?$pair@HH@std@@@2@@std@@YAXPAU?$pair@HH@0@IABU10@AAV?$allocator@U?$pair@HH@std@@@0@U_Nonscalar_ptr_iterator_tag@0@@Z 00416a40 f i readSVDB.obj
 0001:00015a70       ?find@?$_Tree@V?$_Tmap_traits@HPAXU?$less@H@std@@V?$allocator@U?$pair@$$CBHPAX@std@@@2@$0A@@std@@@std@@QAE?AViterator@12@ABH@Z 00416a70 f i readSVDB.obj
 0001:00015ae0       ?_Insert@?$_Tree@V?$_Tmap_traits@HPAXU?$less@H@std@@V?$allocator@U?$pair@$$CBHPAX@std@@@2@$0A@@std@@@std@@IAE?AViterator@12@_NPAU_Node@?$_Tree_nod@V?$_Tmap_traits@HPAXU?$less@H@std@@V?$allocator@U?$pair@$$CBHPAX@std@@@2@$0A@@std@@@2@ABU?$pair@$$CBHPAX@2@@Z 00416ae0 f i readSVDB.obj
 0001:00015ca0       ?_Insert@?$_Tree@V?$_Tmap_traits@V?$basic_string@DU?$char_traits@D@std@@V?$allocator@D@2@@std@@PAXU?$less@V?$basic_string@DU?$char_traits@D@std@@V?$allocator@D@2@@std@@@2@V?$allocator@U?$pair@$$CBV?$basic_string@DU?$char_traits@D@std@@V?$allocator@D@2@@std@@PAX@std@@@2@$0A@@std@@@std@@IAE?AViterator@12@_NPAU_Node@?$_Tree_nod@V?$_Tmap_traits@V?$basic_string@DU?$char_traits@D@std@@V?$allocator@D@2@@std@@PAXU?$less@V?$basic_string@DU?$char_traits@D@std@@V?$allocator@D@2@@std@@@2@V?$allocator@U?$pair@$$CBV?$basic_string@DU?$char_traits@D@std@@V?$allocator@D@2@@std@@PAX@std@@@2@$0A@@std@@@2@ABU?$pair@$$CBV?$basic_string@DU?$char_traits@D@std@@V?$allocator@D@2@@std@@PAX@2@@Z 00416ca0 f i readSVDB.obj
 0001:00015e60       ?InsertNodeEx@?$sorttree@V?$hashelement@Vword@svutil@@PAVTask@@@svutil@@@svutil@@QAEAAV?$hashelement@Vword@svutil@@PAVTask@@@2@ABV32@@Z 00416e60 f i readSVDB.obj
 0001:00015ef0       ?erase@?$_Tree@V?$_Tmap_traits@HPAXU?$less@H@std@@V?$allocator@U?$pair@$$CBHPAX@std@@@2@$0A@@std@@@std@@QAE?AViterator@12@V312@@Z 00416ef0 f i readSVDB.obj
 0001:000161c0       ?erase@?$_Tree@V?$_Tmap_traits@V?$basic_string@DU?$char_traits@D@std@@V?$allocator@D@2@@std@@PAXU?$less@V?$basic_string@DU?$char_traits@D@std@@V?$allocator@D@2@@std@@@2@V?$allocator@U?$pair@$$CBV?$basic_string@DU?$char_traits@D@std@@V?$allocator@D@2@@std@@PAX@std@@@2@$0A@@std@@@std@@QAE?AViterator@12@V312@@Z 004171c0 f i readSVDB.obj
 0001:000164a0       ?insert@?$_Tree@V?$_Tmap_traits@HPAXU?$less@H@std@@V?$allocator@U?$pair@$$CBHPAX@std@@@2@$0A@@std@@@std@@QAE?AU?$pair@Viterator@?$_Tree@V?$_Tmap_traits@HPAXU?$less@H@std@@V?$allocator@U?$pair@$$CBHPAX@std@@@2@$0A@@std@@@std@@_N@2@ABU?$pair@$$CBHPAX@2@@Z 004174a0 f i readSVDB.obj
 0001:00016560       ?insert@?$_Tree@V?$_Tmap_traits@V?$basic_string@DU?$char_traits@D@std@@V?$allocator@D@2@@std@@PAXU?$less@V?$basic_string@DU?$char_traits@D@std@@V?$allocator@D@2@@std@@@2@V?$allocator@U?$pair@$$CBV?$basic_string@DU?$char_traits@D@std@@V?$allocator@D@2@@std@@PAX@std@@@2@$0A@@std@@@std@@QAE?AU?$pair@Viterator@?$_Tree@V?$_Tmap_traits@V?$basic_string@DU?$char_traits@D@std@@V?$allocator@D@2@@std@@PAXU?$less@V?$basic_string@DU?$char_traits@D@std@@V?$allocator@D@2@@std@@@2@V?$allocator@U?$pair@$$CBV?$basic_string@DU?$char_traits@D@std@@V?$allocator@D@2@@std@@PAX@std@@@2@$0A@@std@@@std@@_N@2@ABU?$pair@$$CBV?$basic_string@DU?$char_traits@D@std@@V?$allocator@D@2@@std@@PAX@2@@Z 00417560 f i readSVDB.obj
 0001:00016640       ??0?$list@Usv_pair@@V?$allocator@Usv_pair@@@std@@@std@@QAE@XZ 00417640 f i readSVDB.obj
 0001:00016660       ?_Ufill@?$vector@UPairTime@@V?$allocator@UPairTime@@@std@@@std@@IAEPAUPairTime@@PAU3@IABU3@@Z 00417660 f i readSVDB.obj
 0001:00016690       ?_Erase@?$_Tree@V?$_Tmap_traits@V?$basic_string@DU?$char_traits@D@std@@V?$allocator@D@2@@std@@PAXU?$less@V?$basic_string@DU?$char_traits@D@std@@V?$allocator@D@2@@std@@@2@V?$allocator@U?$pair@$$CBV?$basic_string@DU?$char_traits@D@std@@V?$allocator@D@2@@std@@PAX@std@@@2@$0A@@std@@@std@@IAEXPAU_Node@?$_Tree_nod@V?$_Tmap_traits@V?$basic_string@DU?$char_traits@D@std@@V?$allocator@D@2@@std@@PAXU?$less@V?$basic_string@DU?$char_traits@D@std@@V?$allocator@D@2@@std@@@2@V?$allocator@U?$pair@$$CBV?$basic_string@DU?$char_traits@D@std@@V?$allocator@D@2@@std@@PAX@std@@@2@$0A@@std@@@2@@Z 00417690 f i readSVDB.obj
 0001:000166d0       ?_Ufill@?$vector@U?$pair@HH@std@@V?$allocator@U?$pair@HH@std@@@2@@std@@IAEPAU?$pair@HH@2@PAU32@IABU32@@Z 004176d0 f i readSVDB.obj
 0001:00016700       ?insert@?$hashnode@Vword@svutil@@PAVTask@@@svutil@@QAEAAV?$hashelement@Vword@svutil@@PAVTask@@@2@ABVword@2@ABQAVTask@@@Z 00417700 f i readSVDB.obj
 0001:000167e0       ?erase@?$_Tree@V?$_Tmap_traits@HPAXU?$less@H@std@@V?$allocator@U?$pair@$$CBHPAX@std@@@2@$0A@@std@@@std@@QAE?AViterator@12@V312@0@Z 004177e0 f i readSVDB.obj
 0001:000168a0       ?clear@?$list@Usv_pair@@V?$allocator@Usv_pair@@@std@@@std@@QAEXXZ 004178a0 f i readSVDB.obj
 0001:000168e0       ?_Insert_n@?$vector@U?$pair@HH@std@@V?$allocator@U?$pair@HH@std@@@2@@std@@IAEXViterator@12@IABU?$pair@HH@2@@Z 004178e0 f i readSVDB.obj
 0001:00016b30       ?FastGetMonitorTPL@readSVDB@@AAEPAXH@Z 00417b30 f   readSVDB.obj
 0001:00016c10       ?FastGetEntityTPL@readSVDB@@AAEPAXV?$basic_string@DU?$char_traits@D@std@@V?$allocator@D@2@@std@@@Z 00417c10 f   readSVDB.obj
 0001:00016db0       ?FastGetMonitor@readSVDB@@AAEPAXV?$basic_string@DU?$char_traits@D@std@@V?$allocator@D@2@@std@@@Z 00417db0 f   readSVDB.obj
 0001:00016f50       ?FastGetEntity@readSVDB@@AAEPAXV?$basic_string@DU?$char_traits@D@std@@V?$allocator@D@2@@std@@@Z 00417f50 f   readSVDB.obj
 0001:000170f0       ?GetMonitorParaValueByName@readSVDB@@QAE_NV?$basic_string@DU?$char_traits@D@std@@V?$allocator@D@2@@std@@0AAV23@@Z 004180f0 f   readSVDB.obj
 0001:00017650       ?GetSMCommon@readSVDB@@QAE_NPAVMonitor@@V?$basic_string@DU?$char_traits@D@std@@V?$allocator@D@2@@std@@@Z 00418650 f   readSVDB.obj
 0001:00017970       ?GetConditionString@readSVDB@@QAE_NV?$basic_string@DU?$char_traits@D@std@@V?$allocator@D@2@@std@@IAAV23@@Z 00418970 f   readSVDB.obj
 0001:00017aa0       ?GetSMStateConditionItemList@readSVDB@@QAE_NV?$basic_string@DU?$char_traits@D@std@@V?$allocator@D@2@@std@@AAV?$list@PAVStateConditionItem@@V?$allocator@PAVStateConditionItem@@@std@@@3@I@Z 00418aa0 f   readSVDB.obj
 0001:00017dc0       ?GetEntityConfigValue@readSVDB@@QAE_NV?$basic_string@DU?$char_traits@D@std@@V?$allocator@D@2@@std@@0AAV23@@Z 00418dc0 f   readSVDB.obj
 0001:00017ef0       ?GetMLValue@readSVDB@@QAE_NV?$basic_string@DU?$char_traits@D@std@@V?$allocator@D@2@@std@@0AAV23@@Z 00418ef0 f   readSVDB.obj
 0001:00018020       ?GetMLRunParaNames@readSVDB@@QAE_NV?$basic_string@DU?$char_traits@D@std@@V?$allocator@D@2@@std@@AAV?$list@V?$basic_string@DU?$char_traits@D@std@@V?$allocator@D@2@@std@@V?$allocator@V?$basic_string@DU?$char_traits@D@std@@V?$allocator@D@2@@std@@@2@@3@@Z 00419020 f   readSVDB.obj
 0001:000182c0       ?GetMLReturnDataList@readSVDB@@QAE_NAAV?$list@PAVReturnData@@V?$allocator@PAVReturnData@@@std@@@std@@H@Z 004192c0 f   readSVDB.obj
 0001:00018610       ?_Insert_n@?$vector@UPairTime@@V?$allocator@UPairTime@@@std@@@std@@IAEXViterator@12@IABUPairTime@@@Z 00419610 f i readSVDB.obj
 0001:00018880       ?erase@?$_Tree@V?$_Tmap_traits@V?$basic_string@DU?$char_traits@D@std@@V?$allocator@D@2@@std@@PAXU?$less@V?$basic_string@DU?$char_traits@D@std@@V?$allocator@D@2@@std@@@2@V?$allocator@U?$pair@$$CBV?$basic_string@DU?$char_traits@D@std@@V?$allocator@D@2@@std@@PAX@std@@@2@$0A@@std@@@std@@QAE?AViterator@12@V312@0@Z 00419880 f i readSVDB.obj
 0001:00018940       ?ReleaseAll@readSVDB@@QAE_NXZ 00419940 f   readSVDB.obj
 0001:00018c00       ?SetSvdbAddr@readSVDB@@QAE_NV?$basic_string@DU?$char_traits@D@std@@V?$allocator@D@2@@std@@@Z 00419c00 f   readSVDB.obj
 0001:00018c60       ??1?$list@Usv_pair@@V?$allocator@Usv_pair@@@std@@@std@@QAE@XZ 00419c60 f i readSVDB.obj
 0001:00018c80       ?insert@?$hashtable@Vword@svutil@@PAVTask@@@svutil@@QAEAAPAVTask@@ABVword@2@ABQAV3@@Z 00419c80 f i readSVDB.obj
 0001:00018d70       ??1?$vector@PAV?$hashnode@Vword@svutil@@V12@@svutil@@V?$allocator@PAV?$hashnode@Vword@svutil@@V12@@svutil@@@std@@@std@@QAE@XZ 00419d70 f i MonitorThread.obj
 0001:00018d70       ??1?$vector@PAV?$hashnode@Vword@svutil@@PAVTask@@@svutil@@V?$allocator@PAV?$hashnode@Vword@svutil@@PAVTask@@@svutil@@@std@@@std@@QAE@XZ 00419d70 f i MonitorSchedule.obj
 0001:00018d70       ??1?$vector@U?$pair@HH@std@@V?$allocator@U?$pair@HH@std@@@2@@std@@QAE@XZ 00419d70 f i readSVDB.obj
 0001:00018d70       ??1TaskWeekDay@@QAE@XZ     00419d70 f i Task.obj
 0001:00018da0       ??1?$map@HPAXU?$less@H@std@@V?$allocator@U?$pair@$$CBHPAX@std@@@2@@std@@QAE@XZ 00419da0 f i readSVDB.obj
 0001:00018dd0       ?GetSubsequentList@readSVDB@@QAEHAAV?$list@PAVSubsequentItem@@V?$allocator@PAVSubsequentItem@@@std@@@std@@@Z 00419dd0 f   readSVDB.obj
 0001:00019250       ?GetMonitorIDLSTBySE@readSVDB@@QAEJAAV?$list@V?$basic_string@DU?$char_traits@D@std@@V?$allocator@D@2@@std@@V?$allocator@V?$basic_string@DU?$char_traits@D@std@@V?$allocator@D@2@@std@@@2@@std@@H@Z 0041a250 f   readSVDB.obj
 0001:00019460       ?GetEntityList@readSVDB@@QAE_NV?$basic_string@DU?$char_traits@D@std@@V?$allocator@D@2@@std@@AAV?$list@V?$basic_string@DU?$char_traits@D@std@@V?$allocator@D@2@@std@@V?$allocator@V?$basic_string@DU?$char_traits@D@std@@V?$allocator@D@2@@std@@@2@@3@@Z 0041a460 f   readSVDB.obj
 0001:00019980       ?GetEntityIDListBySE@readSVDB@@QAE_NAAV?$list@V?$basic_string@DU?$char_traits@D@std@@V?$allocator@D@2@@std@@V?$allocator@V?$basic_string@DU?$char_traits@D@std@@V?$allocator@D@2@@std@@@2@@std@@H@Z 0041a980 f   readSVDB.obj
 0001:00019b70       ?GetGroupIDList@readSVDB@@QAE_NAAV?$list@V?$basic_string@DU?$char_traits@D@std@@V?$allocator@D@2@@std@@V?$allocator@V?$basic_string@DU?$char_traits@D@std@@V?$allocator@D@2@@std@@@2@@std@@@Z 0041ab70 f   readSVDB.obj
 0001:00019cf0       ??0?$map@HPAXU?$less@H@std@@V?$allocator@U?$pair@$$CBHPAX@std@@@2@@std@@QAE@XZ 0041acf0 f i readSVDB.obj
 0001:00019d20       ??1?$map@V?$basic_string@DU?$char_traits@D@std@@V?$allocator@D@2@@std@@PAXU?$less@V?$basic_string@DU?$char_traits@D@std@@V?$allocator@D@2@@std@@@2@V?$allocator@U?$pair@$$CBV?$basic_string@DU?$char_traits@D@std@@V?$allocator@D@2@@std@@PAX@std@@@2@@std@@QAE@XZ 0041ad20 f i readSVDB.obj
 0001:00019d50       ?GetTaskMap@readSVDB@@QAE_NAAV?$hashtable@Vword@svutil@@PAVTask@@@svutil@@@Z 0041ad50 f   readSVDB.obj
 0001:0001a840       ??0?$map@V?$basic_string@DU?$char_traits@D@std@@V?$allocator@D@2@@std@@PAXU?$less@V?$basic_string@DU?$char_traits@D@std@@V?$allocator@D@2@@std@@@2@V?$allocator@U?$pair@$$CBV?$basic_string@DU?$char_traits@D@std@@V?$allocator@D@2@@std@@PAX@std@@@2@@std@@QAE@XZ 0041b840 f i readSVDB.obj
 0001:0001a870       ??0ReturnData@@QAE@XZ      0041b870 f   ReturnData.obj
 0001:0001a8c0       ??1ReturnData@@QAE@XZ      0041b8c0 f   ReturnData.obj
 0001:0001a910       ??1ReturnValue@@UAE@XZ     0041b910 f   ReturnValue.obj
 0001:0001a920       ?Clear@ReturnValue@@QAEXXZ 0041b920 f   ReturnValue.obj
 0001:0001a940       ??0ReturnValue@@QAE@XZ     0041b940 f   ReturnValue.obj
 0001:0001a960       ??_GReturnValue@@UAEPAXI@Z 0041b960 f i ReturnValue.obj
 0001:0001a960       ??_EReturnValue@@UAEPAXI@Z 0041b960 f i ReturnValue.obj
 0001:0001a990       ?GetBeginTDTime@Monitor@@QAE?AVTTime@svutil@@XZ 0041b990 f i ScheduleThread.obj
 0001:0001a9a0       ?GetEndTDTime@Monitor@@QAE?AVTTime@svutil@@XZ 0041b9a0 f i ScheduleThread.obj
 0001:0001a9b0       ??1ScheduleThread@@UAE@XZ  0041b9b0 f   ScheduleThread.obj
 0001:0001a9c0       ?InitMonitorTime@ScheduleThread@@IAEHXZ 0041b9c0 f   ScheduleThread.obj
 0001:0001aac0       ?run@ScheduleThread@@UAEXXZ 0041bac0 f   ScheduleThread.obj
 0001:0001b450       ??0ThreadContrl@@QAE@PAVMonitorSchMain@@@Z 0041c450 f i ScheduleThread.obj
 0001:0001b500       ??_GThreadContrl@@UAEPAXI@Z 0041c500 f i ScheduleThread.obj
 0001:0001b500       ??_EThreadContrl@@UAEPAXI@Z 0041c500 f i ScheduleThread.obj
 0001:0001b520       ?Init@ScheduleThread@@QAEHXZ 0041c520 f   ScheduleThread.obj
 0001:0001b810       ?SerialStringMap@SerialData@@AAE_NAAV?$hashtable@Vword@svutil@@V12@@svutil@@PAU_iobuf@@@Z 0041c810 f   SerialData.obj
 0001:0001b880       ??A?$hashtable@Vword@svutil@@PAVTask@@@svutil@@QAEAAPAVTask@@ABVword@1@@Z 0041c880 f i SerialData.obj
 0001:0001b8b0       ?CovertStringToMap@SerialData@@AAE_NV?$basic_string@DU?$char_traits@D@std@@V?$allocator@D@2@@std@@AAV?$hashtable@Vword@svutil@@V12@@svutil@@@Z 0041c8b0 f   SerialData.obj
 0001:0001ba60       ?Serial@SerialData@@AAEHPAU_iobuf@@AAV?$list@PAVMonitor@@V?$allocator@PAVMonitor@@@std@@@std@@PAVGroups@@PAVSubsequent@@AAV?$hashtable@Vword@svutil@@PAVTask@@@svutil@@_N@Z 0041ca60 f   SerialData.obj
 0001:0001c4b0       ?Serial@SerialData@@QAEHAAV?$list@PAVMonitor@@V?$allocator@PAVMonitor@@@std@@@std@@PAVGroups@@PAVSubsequent@@AAV?$hashtable@Vword@svutil@@PAVTask@@@svutil@@_N@Z 0041d4b0 f   SerialData.obj
 0001:0001c550       ??1StateCondition@@QAE@XZ  0041d550 f   StateCondition.obj
 0001:0001c630       ??0StateCondition@@QAE@XZ  0041d630 f   StateCondition.obj
 0001:0001c680       ??0StateConditionItem@@QAE@XZ 0041d680 f   StateConditionItem.obj
 0001:0001c6e0       ??1StateConditionItem@@QAE@XZ 0041d6e0 f   StateConditionItem.obj
 0001:0001c730       ??RStlIniCompareStringNoCase@@QBE_NABV?$basic_string@DU?$char_traits@D@std@@V?$allocator@D@2@@std@@0@Z 0041d730 f i stlini.obj
 0001:0001c780       ??1?$pair@V?$basic_string@DU?$char_traits@D@std@@V?$allocator@D@2@@std@@V12@@std@@QAE@XZ 0041d780 f i stlini.obj
 0001:0001c7d0       ??0?$pair@V?$basic_string@DU?$char_traits@D@std@@V?$allocator@D@2@@std@@V12@@std@@QAE@ABV?$basic_string@DU?$char_traits@D@std@@V?$allocator@D@2@@1@0@Z 0041d7d0 f i stlini.obj
 0001:0001c830       ?_Dec@const_iterator@?$_Tree@V?$_Tmap_traits@V?$basic_string@DU?$char_traits@D@std@@V?$allocator@D@2@@std@@V?$map@V?$basic_string@DU?$char_traits@D@std@@V?$allocator@D@2@@std@@V12@UStlIniCompareStringNoCase@@V?$allocator@U?$pair@$$CBV?$basic_string@DU?$char_traits@D@std@@V?$allocator@D@2@@std@@V12@@std@@@2@@2@UStlIniCompareStringNoCase@@V?$allocator@U?$pair@$$CBV?$basic_string@DU?$char_traits@D@std@@V?$allocator@D@2@@std@@V?$map@V?$basic_string@DU?$char_traits@D@std@@V?$allocator@D@2@@std@@V12@UStlIniCompareStringNoCase@@V?$allocator@U?$pair@$$CBV?$basic_string@DU?$char_traits@D@std@@V?$allocator@D@2@@std@@V12@@std@@@2@@2@@std@@@2@$0A@@std@@@std@@QAEXXZ 0041d830 f i stlini.obj
 0001:0001c890       ?_Dec@const_iterator@?$_Tree@V?$_Tmap_traits@V?$basic_string@DU?$char_traits@D@std@@V?$allocator@D@2@@std@@V12@UStlIniCompareStringNoCase@@V?$allocator@U?$pair@$$CBV?$basic_string@DU?$char_traits@D@std@@V?$allocator@D@2@@std@@V12@@std@@@2@$0A@@std@@@std@@QAEXXZ 0041d890 f i stlini.obj
 0001:0001c8f0       ??0?$pair@$$CBV?$basic_string@DU?$char_traits@D@std@@V?$allocator@D@2@@std@@V12@@std@@QAE@ABU01@@Z 0041d8f0 f i stlini.obj
 0001:0001c8f0       ??$?0V?$basic_string@DU?$char_traits@D@std@@V?$allocator@D@2@@std@@V01@@?$pair@$$CBV?$basic_string@DU?$char_traits@D@std@@V?$allocator@D@2@@std@@V12@@std@@QAE@ABU?$pair@V?$basic_string@DU?$char_traits@D@std@@V?$allocator@D@2@@std@@V12@@1@@Z 0041d8f0 f i stlini.obj
 0001:0001c950       ?_Lbound@?$_Tree@V?$_Tmap_traits@V?$basic_string@DU?$char_traits@D@std@@V?$allocator@D@2@@std@@V?$map@V?$basic_string@DU?$char_traits@D@std@@V?$allocator@D@2@@std@@V12@UStlIniCompareStringNoCase@@V?$allocator@U?$pair@$$CBV?$basic_string@DU?$char_traits@D@std@@V?$allocator@D@2@@std@@V12@@std@@@2@@2@UStlIniCompareStringNoCase@@V?$allocator@U?$pair@$$CBV?$basic_string@DU?$char_traits@D@std@@V?$allocator@D@2@@std@@V?$map@V?$basic_string@DU?$char_traits@D@std@@V?$allocator@D@2@@std@@V12@UStlIniCompareStringNoCase@@V?$allocator@U?$pair@$$CBV?$basic_string@DU?$char_traits@D@std@@V?$allocator@D@2@@std@@V12@@std@@@2@@2@@std@@@2@$0A@@std@@@std@@IBEPAU_Node@?$_Tree_nod@V?$_Tmap_traits@V?$basic_string@DU?$char_traits@D@std@@V?$allocator@D@2@@std@@V?$map@V?$basic_string@DU?$char_traits@D@std@@V?$allocator@D@2@@std@@V12@UStlIniCompareStringNoCase@@V?$allocator@U?$pair@$$CBV?$basic_string@DU?$char_traits@D@std@@V?$allocator@D@2@@std@@V12@@std@@@2@@2@UStlIniCompareStringNoCase@@V?$allocator@U?$pair@$$CBV?$basic_string@DU?$char_traits@D@std@@V?$allocator@D@2@@std@@V?$map@V?$basic_string@DU?$char_traits@D@std@@V?$allocator@D@2@@std@@V12@UStlIniCompareStringNoCase@@V?$allocator@U?$pair@$$CBV?$basic_string@DU?$char_traits@D@std@@V?$allocator@D@2@@std@@V12@@std@@@2@@2@@std@@@2@$0A@@std@@@2@ABV?$basic_string@DU?$char_traits@D@std@@V?$allocator@D@2@@2@@Z 0041d950 f i stlini.obj
 0001:0001c9c0       ?_Lbound@?$_Tree@V?$_Tmap_traits@V?$basic_string@DU?$char_traits@D@std@@V?$allocator@D@2@@std@@V12@UStlIniCompareStringNoCase@@V?$allocator@U?$pair@$$CBV?$basic_string@DU?$char_traits@D@std@@V?$allocator@D@2@@std@@V12@@std@@@2@$0A@@std@@@std@@IBEPAU_Node@?$_Tree_nod@V?$_Tmap_traits@V?$basic_string@DU?$char_traits@D@std@@V?$allocator@D@2@@std@@V12@UStlIniCompareStringNoCase@@V?$allocator@U?$pair@$$CBV?$basic_string@DU?$char_traits@D@std@@V?$allocator@D@2@@std@@V12@@std@@@2@$0A@@std@@@2@ABV?$basic_string@DU?$char_traits@D@std@@V?$allocator@D@2@@2@@Z 0041d9c0 f i stlini.obj
 0001:0001ca30       ?_Buynode@?$_Tree@V?$_Tmap_traits@V?$basic_string@DU?$char_traits@D@std@@V?$allocator@D@2@@std@@V?$map@V?$basic_string@DU?$char_traits@D@std@@V?$allocator@D@2@@std@@V12@UStlIniCompareStringNoCase@@V?$allocator@U?$pair@$$CBV?$basic_string@DU?$char_traits@D@std@@V?$allocator@D@2@@std@@V12@@std@@@2@@2@UStlIniCompareStringNoCase@@V?$allocator@U?$pair@$$CBV?$basic_string@DU?$char_traits@D@std@@V?$allocator@D@2@@std@@V?$map@V?$basic_string@DU?$char_traits@D@std@@V?$allocator@D@2@@std@@V12@UStlIniCompareStringNoCase@@V?$allocator@U?$pair@$$CBV?$basic_string@DU?$char_traits@D@std@@V?$allocator@D@2@@std@@V12@@std@@@2@@2@@std@@@2@$0A@@std@@@std@@IAEPAU_Node@?$_Tree_nod@V?$_Tmap_traits@V?$basic_string@DU?$char_traits@D@std@@V?$allocator@D@2@@std@@V?$map@V?$basic_string@DU?$char_traits@D@std@@V?$allocator@D@2@@std@@V12@UStlIniCompareStringNoCase@@V?$allocator@U?$pair@$$CBV?$basic_string@DU?$char_traits@D@std@@V?$allocator@D@2@@std@@V12@@std@@@2@@2@UStlIniCompareStringNoCase@@V?$allocator@U?$pair@$$CBV?$basic_string@DU?$char_traits@D@std@@V?$allocator@D@2@@std@@V?$map@V?$basic_string@DU?$char_traits@D@std@@V?$allocator@D@2@@std@@V12@UStlIniCompareStringNoCase@@V?$allocator@U?$pair@$$CBV?$basic_string@DU?$char_traits@D@std@@V?$allocator@D@2@@std@@V12@@std@@@2@@2@@std@@@2@$0A@@std@@@2@XZ 0041da30 f i stlini.obj
 0001:0001ca70       ?_Buynode@?$_Tree@V?$_Tmap_traits@V?$basic_string@DU?$char_traits@D@std@@V?$allocator@D@2@@std@@V12@UStlIniCompareStringNoCase@@V?$allocator@U?$pair@$$CBV?$basic_string@DU?$char_traits@D@std@@V?$allocator@D@2@@std@@V12@@std@@@2@$0A@@std@@@std@@IAEPAU_Node@?$_Tree_nod@V?$_Tmap_traits@V?$basic_string@DU?$char_traits@D@std@@V?$allocator@D@2@@std@@V12@UStlIniCompareStringNoCase@@V?$allocator@U?$pair@$$CBV?$basic_string@DU?$char_traits@D@std@@V?$allocator@D@2@@std@@V12@@std@@@2@$0A@@std@@@2@PAU342@00ABU?$pair@$$CBV?$basic_string@DU?$char_traits@D@std@@V?$allocator@D@2@@std@@V12@@2@D@Z 0041da70 f i stlini.obj
 0001:0001cb10       ?_Buynode@?$_Tree@V?$_Tmap_traits@V?$basic_string@DU?$char_traits@D@std@@V?$allocator@D@2@@std@@V12@UStlIniCompareStringNoCase@@V?$allocator@U?$pair@$$CBV?$basic_string@DU?$char_traits@D@std@@V?$allocator@D@2@@std@@V12@@std@@@2@$0A@@std@@@std@@IAEPAU_Node@?$_Tree_nod@V?$_Tmap_traits@V?$basic_string@DU?$char_traits@D@std@@V?$allocator@D@2@@std@@V12@UStlIniCompareStringNoCase@@V?$allocator@U?$pair@$$CBV?$basic_string@DU?$char_traits@D@std@@V?$allocator@D@2@@std@@V12@@std@@@2@$0A@@std@@@2@XZ 0041db10 f i stlini.obj
 0001:0001cb50       ?find@?$_Tree@V?$_Tmap_traits@V?$basic_string@DU?$char_traits@D@std@@V?$allocator@D@2@@std@@V12@UStlIniCompareStringNoCase@@V?$allocator@U?$pair@$$CBV?$basic_string@DU?$char_traits@D@std@@V?$allocator@D@2@@std@@V12@@std@@@2@$0A@@std@@@std@@QAE?AViterator@12@ABV?$basic_string@DU?$char_traits@D@std@@V?$allocator@D@2@@2@@Z 0041db50 f i stlini.obj
 0001:0001cbb0       ?_Insert@?$_Tree@V?$_Tmap_traits@V?$basic_string@DU?$char_traits@D@std@@V?$allocator@D@2@@std@@V12@UStlIniCompareStringNoCase@@V?$allocator@U?$pair@$$CBV?$basic_string@DU?$char_traits@D@std@@V?$allocator@D@2@@std@@V12@@std@@@2@$0A@@std@@@std@@IAE?AViterator@12@_NPAU_Node@?$_Tree_nod@V?$_Tmap_traits@V?$basic_string@DU?$char_traits@D@std@@V?$allocator@D@2@@std@@V12@UStlIniCompareStringNoCase@@V?$allocator@U?$pair@$$CBV?$basic_string@DU?$char_traits@D@std@@V?$allocator@D@2@@std@@V12@@std@@@2@$0A@@std@@@2@ABU?$pair@$$CBV?$basic_string@DU?$char_traits@D@std@@V?$allocator@D@2@@std@@V12@@2@@Z 0041dbb0 f i stlini.obj
 0001:0001cd70       ?GetIniSetting@@YA?AV?$basic_string@DU?$char_traits@D@std@@V?$allocator@D@2@@std@@AAV?$map@V?$basic_string@DU?$char_traits@D@std@@V?$allocator@D@2@@std@@V?$map@V?$basic_string@DU?$char_traits@D@std@@V?$allocator@D@2@@std@@V12@UStlIniCompareStringNoCase@@V?$allocator@U?$pair@$$CBV?$basic_string@DU?$char_traits@D@std@@V?$allocator@D@2@@std@@V12@@std@@@2@@2@UStlIniCompareStringNoCase@@V?$allocator@U?$pair@$$CBV?$basic_string@DU?$char_traits@D@std@@V?$allocator@D@2@@std@@V?$map@V?$basic_string@DU?$char_traits@D@std@@V?$allocator@D@2@@std@@V12@UStlIniCompareStringNoCase@@V?$allocator@U?$pair@$$CBV?$basic_string@DU?$char_traits@D@std@@V?$allocator@D@2@@std@@V12@@std@@@2@@2@@std@@@2@@2@PBD11@Z 0041dd70 f   stlini.obj
 0001:0001cea0       ?insert@?$_Tree@V?$_Tmap_traits@V?$basic_string@DU?$char_traits@D@std@@V?$allocator@D@2@@std@@V12@UStlIniCompareStringNoCase@@V?$allocator@U?$pair@$$CBV?$basic_string@DU?$char_traits@D@std@@V?$allocator@D@2@@std@@V12@@std@@@2@$0A@@std@@@std@@QAE?AU?$pair@Viterator@?$_Tree@V?$_Tmap_traits@V?$basic_string@DU?$char_traits@D@std@@V?$allocator@D@2@@std@@V12@UStlIniCompareStringNoCase@@V?$allocator@U?$pair@$$CBV?$basic_string@DU?$char_traits@D@std@@V?$allocator@D@2@@std@@V12@@std@@@2@$0A@@std@@@std@@_N@2@ABU?$pair@$$CBV?$basic_string@DU?$char_traits@D@std@@V?$allocator@D@2@@std@@V12@@2@@Z 0041dea0 f i stlini.obj
 0001:0001cf90       ?_Copy@?$_Tree@V?$_Tmap_traits@V?$basic_string@DU?$char_traits@D@std@@V?$allocator@D@2@@std@@V12@UStlIniCompareStringNoCase@@V?$allocator@U?$pair@$$CBV?$basic_string@DU?$char_traits@D@std@@V?$allocator@D@2@@std@@V12@@std@@@2@$0A@@std@@@std@@IAEPAU_Node@?$_Tree_nod@V?$_Tmap_traits@V?$basic_string@DU?$char_traits@D@std@@V?$allocator@D@2@@std@@V12@UStlIniCompareStringNoCase@@V?$allocator@U?$pair@$$CBV?$basic_string@DU?$char_traits@D@std@@V?$allocator@D@2@@std@@V12@@std@@@2@$0A@@std@@@2@PAU342@0@Z 0041df90 f i stlini.obj
 0001:0001d040       ?_Copy@?$_Tree@V?$_Tmap_traits@V?$basic_string@DU?$char_traits@D@std@@V?$allocator@D@2@@std@@V12@UStlIniCompareStringNoCase@@V?$allocator@U?$pair@$$CBV?$basic_string@DU?$char_traits@D@std@@V?$allocator@D@2@@std@@V12@@std@@@2@$0A@@std@@@std@@IAEXABV12@@Z 0041e040 f i stlini.obj
 0001:0001d0d0       ??0?$_Tree@V?$_Tmap_traits@V?$basic_string@DU?$char_traits@D@std@@V?$allocator@D@2@@std@@V12@UStlIniCompareStringNoCase@@V?$allocator@U?$pair@$$CBV?$basic_string@DU?$char_traits@D@std@@V?$allocator@D@2@@std@@V12@@std@@@2@$0A@@std@@@std@@QAE@ABV01@@Z 0041e0d0 f i stlini.obj
 0001:0001d160       ??1?$pair@V?$basic_string@DU?$char_traits@D@std@@V?$allocator@D@2@@std@@V?$map@V?$basic_string@DU?$char_traits@D@std@@V?$allocator@D@2@@std@@V12@UStlIniCompareStringNoCase@@V?$allocator@U?$pair@$$CBV?$basic_string@DU?$char_traits@D@std@@V?$allocator@D@2@@std@@V12@@std@@@2@@2@@std@@QAE@XZ 0041e160 f i stlini.obj
 0001:0001d1e0       ??$?0V?$basic_string@DU?$char_traits@D@std@@V?$allocator@D@2@@std@@V?$map@V?$basic_string@DU?$char_traits@D@std@@V?$allocator@D@2@@std@@V12@UStlIniCompareStringNoCase@@V?$allocator@U?$pair@$$CBV?$basic_string@DU?$char_traits@D@std@@V?$allocator@D@2@@std@@V12@@std@@@2@@1@@?$pair@$$CBV?$basic_string@DU?$char_traits@D@std@@V?$allocator@D@2@@std@@V?$map@V?$basic_string@DU?$char_traits@D@std@@V?$allocator@D@2@@std@@V12@UStlIniCompareStringNoCase@@V?$allocator@U?$pair@$$CBV?$basic_string@DU?$char_traits@D@std@@V?$allocator@D@2@@std@@V12@@std@@@2@@2@@std@@QAE@ABU?$pair@V?$basic_string@DU?$char_traits@D@std@@V?$allocator@D@2@@std@@V?$map@V?$basic_string@DU?$char_traits@D@std@@V?$allocator@D@2@@std@@V12@UStlIniCompareStringNoCase@@V?$allocator@U?$pair@$$CBV?$basic_string@DU?$char_traits@D@std@@V?$allocator@D@2@@std@@V12@@std@@@2@@2@@1@@Z 0041e1e0 f i stlini.obj
 0001:0001d1e0       ??0?$pair@$$CBV?$basic_string@DU?$char_traits@D@std@@V?$allocator@D@2@@std@@V?$map@V?$basic_string@DU?$char_traits@D@std@@V?$allocator@D@2@@std@@V12@UStlIniCompareStringNoCase@@V?$allocator@U?$pair@$$CBV?$basic_string@DU?$char_traits@D@std@@V?$allocator@D@2@@std@@V12@@std@@@2@@2@@std@@QAE@ABU01@@Z 0041e1e0 f i stlini.obj
 0001:0001d240       ??0?$pair@V?$basic_string@DU?$char_traits@D@std@@V?$allocator@D@2@@std@@V?$map@V?$basic_string@DU?$char_traits@D@std@@V?$allocator@D@2@@std@@V12@UStlIniCompareStringNoCase@@V?$allocator@U?$pair@$$CBV?$basic_string@DU?$char_traits@D@std@@V?$allocator@D@2@@std@@V12@@std@@@2@@2@@std@@QAE@ABV?$basic_string@DU?$char_traits@D@std@@V?$allocator@D@2@@1@ABV?$map@V?$basic_string@DU?$char_traits@D@std@@V?$allocator@D@2@@std@@V12@UStlIniCompareStringNoCase@@V?$allocator@U?$pair@$$CBV?$basic_string@DU?$char_traits@D@std@@V?$allocator@D@2@@std@@V12@@std@@@2@@1@@Z 0041e240 f i stlini.obj
 0001:0001d2a0       ?_Buynode@?$_Tree@V?$_Tmap_traits@V?$basic_string@DU?$char_traits@D@std@@V?$allocator@D@2@@std@@V?$map@V?$basic_string@DU?$char_traits@D@std@@V?$allocator@D@2@@std@@V12@UStlIniCompareStringNoCase@@V?$allocator@U?$pair@$$CBV?$basic_string@DU?$char_traits@D@std@@V?$allocator@D@2@@std@@V12@@std@@@2@@2@UStlIniCompareStringNoCase@@V?$allocator@U?$pair@$$CBV?$basic_string@DU?$char_traits@D@std@@V?$allocator@D@2@@std@@V?$map@V?$basic_string@DU?$char_traits@D@std@@V?$allocator@D@2@@std@@V12@UStlIniCompareStringNoCase@@V?$allocator@U?$pair@$$CBV?$basic_string@DU?$char_traits@D@std@@V?$allocator@D@2@@std@@V12@@std@@@2@@2@@std@@@2@$0A@@std@@@std@@IAEPAU_Node@?$_Tree_nod@V?$_Tmap_traits@V?$basic_string@DU?$char_traits@D@std@@V?$allocator@D@2@@std@@V?$map@V?$basic_string@DU?$char_traits@D@std@@V?$allocator@D@2@@std@@V12@UStlIniCompareStringNoCase@@V?$allocator@U?$pair@$$CBV?$basic_string@DU?$char_traits@D@std@@V?$allocator@D@2@@std@@V12@@std@@@2@@2@UStlIniCompareStringNoCase@@V?$allocator@U?$pair@$$CBV?$basic_string@DU?$char_traits@D@std@@V?$allocator@D@2@@std@@V?$map@V?$basic_string@DU?$char_traits@D@std@@V?$allocator@D@2@@std@@V12@UStlIniCompareStringNoCase@@V?$allocator@U?$pair@$$CBV?$basic_string@DU?$char_traits@D@std@@V?$allocator@D@2@@std@@V12@@std@@@2@@2@@std@@@2@$0A@@std@@@2@PAU342@00ABU?$pair@$$CBV?$basic_string@DU?$char_traits@D@std@@V?$allocator@D@2@@std@@V?$map@V?$basic_string@DU?$char_traits@D@std@@V?$allocator@D@2@@std@@V12@UStlIniCompareStringNoCase@@V?$allocator@U?$pair@$$CBV?$basic_string@DU?$char_traits@D@std@@V?$allocator@D@2@@std@@V12@@std@@@2@@2@@2@D@Z 0041e2a0 f i stlini.obj
 0001:0001d340       ?_Insert@?$_Tree@V?$_Tmap_traits@V?$basic_string@DU?$char_traits@D@std@@V?$allocator@D@2@@std@@V?$map@V?$basic_string@DU?$char_traits@D@std@@V?$allocator@D@2@@std@@V12@UStlIniCompareStringNoCase@@V?$allocator@U?$pair@$$CBV?$basic_string@DU?$char_traits@D@std@@V?$allocator@D@2@@std@@V12@@std@@@2@@2@UStlIniCompareStringNoCase@@V?$allocator@U?$pair@$$CBV?$basic_string@DU?$char_traits@D@std@@V?$allocator@D@2@@std@@V?$map@V?$basic_string@DU?$char_traits@D@std@@V?$allocator@D@2@@std@@V12@UStlIniCompareStringNoCase@@V?$allocator@U?$pair@$$CBV?$basic_string@DU?$char_traits@D@std@@V?$allocator@D@2@@std@@V12@@std@@@2@@2@@std@@@2@$0A@@std@@@std@@IAE?AViterator@12@_NPAU_Node@?$_Tree_nod@V?$_Tmap_traits@V?$basic_string@DU?$char_traits@D@std@@V?$allocator@D@2@@std@@V?$map@V?$basic_string@DU?$char_traits@D@std@@V?$allocator@D@2@@std@@V12@UStlIniCompareStringNoCase@@V?$allocator@U?$pair@$$CBV?$basic_string@DU?$char_traits@D@std@@V?$allocator@D@2@@std@@V12@@std@@@2@@2@UStlIniCompareStringNoCase@@V?$allocator@U?$pair@$$CBV?$basic_string@DU?$char_traits@D@std@@V?$allocator@D@2@@std@@V?$map@V?$basic_string@DU?$char_traits@D@std@@V?$allocator@D@2@@std@@V12@UStlIniCompareStringNoCase@@V?$allocator@U?$pair@$$CBV?$basic_string@DU?$char_traits@D@std@@V?$allocator@D@2@@std@@V12@@std@@@2@@2@@std@@@2@$0A@@std@@@2@ABU?$pair@$$CBV?$basic_string@DU?$char_traits@D@std@@V?$allocator@D@2@@std@@V?$map@V?$basic_string@DU?$char_traits@D@std@@V?$allocator@D@2@@std@@V12@UStlIniCompareStringNoCase@@V?$allocator@U?$pair@$$CBV?$basic_string@DU?$char_traits@D@std@@V?$allocator@D@2@@std@@V12@@std@@@2@@2@@2@@Z 0041e340 f i stlini.obj
 0001:0001d500       ?insert@?$_Tree@V?$_Tmap_traits@V?$basic_string@DU?$char_traits@D@std@@V?$allocator@D@2@@std@@V?$map@V?$basic_string@DU?$char_traits@D@std@@V?$allocator@D@2@@std@@V12@UStlIniCompareStringNoCase@@V?$allocator@U?$pair@$$CBV?$basic_string@DU?$char_traits@D@std@@V?$allocator@D@2@@std@@V12@@std@@@2@@2@UStlIniCompareStringNoCase@@V?$allocator@U?$pair@$$CBV?$basic_string@DU?$char_traits@D@std@@V?$allocator@D@2@@std@@V?$map@V?$basic_string@DU?$char_traits@D@std@@V?$allocator@D@2@@std@@V12@UStlIniCompareStringNoCase@@V?$allocator@U?$pair@$$CBV?$basic_string@DU?$char_traits@D@std@@V?$allocator@D@2@@std@@V12@@std@@@2@@2@@std@@@2@$0A@@std@@@std@@QAE?AU?$pair@Viterator@?$_Tree@V?$_Tmap_traits@V?$basic_string@DU?$char_traits@D@std@@V?$allocator@D@2@@std@@V?$map@V?$basic_string@DU?$char_traits@D@std@@V?$allocator@D@2@@std@@V12@UStlIniCompareStringNoCase@@V?$allocator@U?$pair@$$CBV?$basic_string@DU?$char_traits@D@std@@V?$allocator@D@2@@std@@V12@@std@@@2@@2@UStlIniCompareStringNoCase@@V?$allocator@U?$pair@$$CBV?$basic_string@DU?$char_traits@D@std@@V?$allocator@D@2@@std@@V?$map@V?$basic_string@DU?$char_traits@D@std@@V?$allocator@D@2@@std@@V12@UStlIniCompareStringNoCase@@V?$allocator@U?$pair@$$CBV?$basic_string@DU?$char_traits@D@std@@V?$allocator@D@2@@std@@V12@@std@@@2@@2@@std@@@2@$0A@@std@@@std@@_N@2@ABU?$pair@$$CBV?$basic_string@DU?$char_traits@D@std@@V?$allocator@D@2@@std@@V?$map@V?$basic_string@DU?$char_traits@D@std@@V?$allocator@D@2@@std@@V12@UStlIniCompareStringNoCase@@V?$allocator@U?$pair@$$CBV?$basic_string@DU?$char_traits@D@std@@V?$allocator@D@2@@std@@V12@@std@@@2@@2@@2@@Z 0041e500 f i stlini.obj
 0001:0001d5f0       ?PutIniSetting@@YAXAAV?$map@V?$basic_string@DU?$char_traits@D@std@@V?$allocator@D@2@@std@@V?$map@V?$basic_string@DU?$char_traits@D@std@@V?$allocator@D@2@@std@@V12@UStlIniCompareStringNoCase@@V?$allocator@U?$pair@$$CBV?$basic_string@DU?$char_traits@D@std@@V?$allocator@D@2@@std@@V12@@std@@@2@@2@UStlIniCompareStringNoCase@@V?$allocator@U?$pair@$$CBV?$basic_string@DU?$char_traits@D@std@@V?$allocator@D@2@@std@@V?$map@V?$basic_string@DU?$char_traits@D@std@@V?$allocator@D@2@@std@@V12@UStlIniCompareStringNoCase@@V?$allocator@U?$pair@$$CBV?$basic_string@DU?$char_traits@D@std@@V?$allocator@D@2@@std@@V12@@std@@@2@@2@@std@@@2@@std@@PBD11@Z 0041e5f0 f   stlini.obj
 0001:0001d960       ?_Copy@?$_Tree@V?$_Tmap_traits@V?$basic_string@DU?$char_traits@D@std@@V?$allocator@D@2@@std@@V?$map@V?$basic_string@DU?$char_traits@D@std@@V?$allocator@D@2@@std@@V12@UStlIniCompareStringNoCase@@V?$allocator@U?$pair@$$CBV?$basic_string@DU?$char_traits@D@std@@V?$allocator@D@2@@std@@V12@@std@@@2@@2@UStlIniCompareStringNoCase@@V?$allocator@U?$pair@$$CBV?$basic_string@DU?$char_traits@D@std@@V?$allocator@D@2@@std@@V?$map@V?$basic_string@DU?$char_traits@D@std@@V?$allocator@D@2@@std@@V12@UStlIniCompareStringNoCase@@V?$allocator@U?$pair@$$CBV?$basic_string@DU?$char_traits@D@std@@V?$allocator@D@2@@std@@V12@@std@@@2@@2@@std@@@2@$0A@@std@@@std@@IAEPAU_Node@?$_Tree_nod@V?$_Tmap_traits@V?$basic_string@DU?$char_traits@D@std@@V?$allocator@D@2@@std@@V?$map@V?$basic_string@DU?$char_traits@D@std@@V?$allocator@D@2@@std@@V12@UStlIniCompareStringNoCase@@V?$allocator@U?$pair@$$CBV?$basic_string@DU?$char_traits@D@std@@V?$allocator@D@2@@std@@V12@@std@@@2@@2@UStlIniCompareStringNoCase@@V?$allocator@U?$pair@$$CBV?$basic_string@DU?$char_traits@D@std@@V?$allocator@D@2@@std@@V?$map@V?$basic_string@DU?$char_traits@D@std@@V?$allocator@D@2@@std@@V12@UStlIniCompareStringNoCase@@V?$allocator@U?$pair@$$CBV?$basic_string@DU?$char_traits@D@std@@V?$allocator@D@2@@std@@V12@@std@@@2@@2@@std@@@2@$0A@@std@@@2@PAU342@0@Z 0041e960 f i stlini.obj
 0001:0001da10       ?_Copy@?$_Tree@V?$_Tmap_traits@V?$basic_string@DU?$char_traits@D@std@@V?$allocator@D@2@@std@@V?$map@V?$basic_string@DU?$char_traits@D@std@@V?$allocator@D@2@@std@@V12@UStlIniCompareStringNoCase@@V?$allocator@U?$pair@$$CBV?$basic_string@DU?$char_traits@D@std@@V?$allocator@D@2@@std@@V12@@std@@@2@@2@UStlIniCompareStringNoCase@@V?$allocator@U?$pair@$$CBV?$basic_string@DU?$char_traits@D@std@@V?$allocator@D@2@@std@@V?$map@V?$basic_string@DU?$char_traits@D@std@@V?$allocator@D@2@@std@@V12@UStlIniCompareStringNoCase@@V?$allocator@U?$pair@$$CBV?$basic_string@DU?$char_traits@D@std@@V?$allocator@D@2@@std@@V12@@std@@@2@@2@@std@@@2@$0A@@std@@@std@@IAEXABV12@@Z 0041ea10 f i stlini.obj
 0001:0001daa0       ??0?$_Tree@V?$_Tmap_traits@V?$basic_string@DU?$char_traits@D@std@@V?$allocator@D@2@@std@@V?$map@V?$basic_string@DU?$char_traits@D@std@@V?$allocator@D@2@@std@@V12@UStlIniCompareStringNoCase@@V?$allocator@U?$pair@$$CBV?$basic_string@DU?$char_traits@D@std@@V?$allocator@D@2@@std@@V12@@std@@@2@@2@UStlIniCompareStringNoCase@@V?$allocator@U?$pair@$$CBV?$basic_string@DU?$char_traits@D@std@@V?$allocator@D@2@@std@@V?$map@V?$basic_string@DU?$char_traits@D@std@@V?$allocator@D@2@@std@@V12@UStlIniCompareStringNoCase@@V?$allocator@U?$pair@$$CBV?$basic_string@DU?$char_traits@D@std@@V?$allocator@D@2@@std@@V12@@std@@@2@@2@@std@@@2@$0A@@std@@@std@@QAE@ABV01@@Z 0041eaa0 f i stlini.obj
 0001:0001db30       ?LoadIni@@YA?AV?$map@V?$basic_string@DU?$char_traits@D@std@@V?$allocator@D@2@@std@@V?$map@V?$basic_string@DU?$char_traits@D@std@@V?$allocator@D@2@@std@@V12@UStlIniCompareStringNoCase@@V?$allocator@U?$pair@$$CBV?$basic_string@DU?$char_traits@D@std@@V?$allocator@D@2@@std@@V12@@std@@@2@@2@UStlIniCompareStringNoCase@@V?$allocator@U?$pair@$$CBV?$basic_string@DU?$char_traits@D@std@@V?$allocator@D@2@@std@@V?$map@V?$basic_string@DU?$char_traits@D@std@@V?$allocator@D@2@@std@@V12@UStlIniCompareStringNoCase@@V?$allocator@U?$pair@$$CBV?$basic_string@DU?$char_traits@D@std@@V?$allocator@D@2@@std@@V12@@std@@@2@@2@@std@@@2@@std@@PBD@Z 0041eb30 f   stlini.obj
 0001:0001ddd0       ?GetValueByMonitor@Subsequent@@QAEHPAVMonitor@@AAH1@Z 0041edd0 f   Subsequent.obj
 0001:0001deb0       ??1Subsequent@@UAE@XZ      0041eeb0 f   Subsequent.obj
 0001:0001df90       ??0Subsequent@@QAE@XZ      0041ef90 f   Subsequent.obj
 0001:0001dfc0       ??_ESubsequent@@UAEPAXI@Z  0041efc0 f i Subsequent.obj
 0001:0001dfc0       ??_GSubsequent@@UAEPAXI@Z  0041efc0 f i Subsequent.obj
 0001:0001dfe0       ?FromTextMap@Subsequent@@QAE_NAAV?$hashtable@Vword@svutil@@V12@@svutil@@@Z 0041efe0 f   Subsequent.obj
 0001:0001e2e0       ?ToTextMap@Subsequent@@QAE_NAAV?$hashtable@Vword@svutil@@V12@@svutil@@@Z 0041f2e0 f   Subsequent.obj
 0001:0001e550       ??0SubsequentItem@@QAE@XZ  0041f550 f   SubsequentItem.obj
 0001:0001e5b0       ??1SubsequentItem@@QAE@XZ  0041f5b0 f   SubsequentItem.obj
 0001:0001e600       ??$_Copy_opt@PAUPairTime@@PAU1@@std@@YAPAUPairTime@@PAU1@00U_Nonscalar_ptr_iterator_tag@0@@Z 0041f600 f i Task.obj
 0001:0001e640       ?resize@?$vector@UPairTime@@V?$allocator@UPairTime@@@std@@@std@@QAEXIUPairTime@@@Z 0041f640 f i Task.obj
 0001:0001e6c0       ??0TaskWeekDay@@QAE@XZ     0041f6c0 f i Task.obj
 0001:0001e6d0       ??1Task@@QAE@XZ            0041f6d0 f   Task.obj
 0001:0001e730       ??0Task@@QAE@XZ            0041f730 f   Task.obj
 0001:0001e790       ?ToTextMap@Task@@QAE_NAAV?$hashtable@Vword@svutil@@V12@@svutil@@@Z 0041f790 f   Task.obj
 0001:0001ec90       ?FromTextMap@Task@@QAE_NAAV?$hashtable@Vword@svutil@@V12@@svutil@@@Z 0041fc90 f   Task.obj
 0001:0001f1b0       ?CheckSubsequent@ThreadContrl@@IAE_NPAVMonitor@@AA_N1@Z 004201b0 f   ThreadContrl.obj
 0001:0001f370       ?CheckSubsequent@ThreadContrl@@IAEHPAVMonitor@@@Z 00420370 f   ThreadContrl.obj
 0001:0001f570       ?CheckTaskQueueByMonitor@ThreadContrl@@QAEXPAVMonitor@@@Z 00420570 f   ThreadContrl.obj
 0001:0001f590       ?PrintTaskQueueInfo@ThreadContrl@@QAEXXZ 00420590 f   ThreadContrl.obj
 0001:0001f5a0       ?AdjustRetByMonitor@ThreadContrl@@QAEXPAVMonitor@@H@Z 004205a0 f   ThreadContrl.obj
 0001:0001f690       ?_Incsize@?$list@PAVThreadEx@@V?$allocator@PAVThreadEx@@@std@@@std@@IAEXI@Z 00420690 f i ThreadContrl.obj
 0001:0001f730       ??0ThreadContrl@@QAE@XZ    00420730 f   ThreadContrl.obj
 0001:0001f7d0       ??1ThreadContrl@@UAE@XZ    004207d0 f   ThreadContrl.obj
 0001:0001f860       ?AddNewThreads@ThreadContrl@@AAEHH@Z 00420860 f   ThreadContrl.obj
 0001:0001f9e0       ?GetIdleThread@ThreadContrl@@AAEPAVThreadEx@@XZ 004209e0 f   ThreadContrl.obj
 0001:0001fae0       ?StartMonitor@ThreadContrl@@AAEXPAVMonitor@@@Z 00420ae0 f   ThreadContrl.obj
 0001:0001fb20       ?ProcessSingleTaskQueueByIndex@ThreadContrl@@IAEHH@Z 00420b20 f   ThreadContrl.obj
 0001:0001fba0       ?CheckAllTaskQueue@ThreadContrl@@IAEXXZ 00420ba0 f   ThreadContrl.obj
 0001:0001fbd0       ?AddToIdleThread@ThreadContrl@@QAEXPAVThreadEx@@@Z 00420bd0 f   ThreadContrl.obj
 0001:0001fc60       ?ExecuteMonitor@ThreadContrl@@QAEXPAVMonitor@@@Z 00420c60 f   ThreadContrl.obj
 0001:0001fd30       ?InitRefresh@ThreadContrl@@QAE_NH@Z 00420d30 f   ThreadContrl.obj
 0001:0001fd80       ?RefreshMonitors@ThreadContrl@@QAEXAAV?$list@PAVMonitor@@V?$allocator@PAVMonitor@@@std@@@std@@@Z 00420d80 f   ThreadContrl.obj
 0001:0001fe90       ?Init@ThreadContrl@@QAEHXZ 00420e90 f   ThreadContrl.obj
 0001:0001ff60       ?AddTask@ThreadContrl@@QAEHPAVMonitor@@@Z 00420f60 f   ThreadContrl.obj
 0001:000200e0       ?ProcessSingleTaskEx@ThreadContrl@@IAEHPAVMonitor@@@Z 004210e0 f   ThreadContrl.obj
 0001:00020250       ?run@ThreadContrl@@UAEXXZ  00421250 f   ThreadContrl.obj
 0001:000203d0       ??0ThreadEx@@QAE@XZ        004213d0 f   ThreadEx.obj
 0001:00020400       ??1ThreadEx@@UAE@XZ        00421400 f   ThreadEx.obj
 0001:00020410       ??_GThreadEx@@UAEPAXI@Z    00421410 f i ThreadEx.obj
 0001:00020410       ??_EThreadEx@@UAEPAXI@Z    00421410 f i ThreadEx.obj
 0001:00020430       ??0TString@@QAE@XZ         00421430 f   TString.obj
 0001:00020450       ??1TString@@UAE@XZ         00421450 f   TString.obj
 0001:00020460       ?Format@TString@@QAAHPBDZZ 00421460 f   TString.obj
 0001:00020500       ?Right@TString@@QAE?AV1@H@Z 00421500 f   TString.obj
 0001:00020590       ?CompareNoCase@TString@@QAEHPBD@Z 00421590 f   TString.obj
 0001:000205b0       ?InsertSvdb@Util@@SA_NV?$basic_string@DU?$char_traits@D@std@@V?$allocator@D@2@@std@@PBDH0@Z 004215b0 f   Util.obj
 0001:000206d0       ?InsertSvdb@Util@@SA_NV?$basic_string@DU?$char_traits@D@std@@V?$allocator@D@2@@std@@PBDH@Z 004216d0 f   Util.obj
 0001:000207d0       ?FreeStringList@Util@@SAXAAV?$list@V?$basic_string@DU?$char_traits@D@std@@V?$allocator@D@2@@std@@V?$allocator@V?$basic_string@DU?$char_traits@D@std@@V?$allocator@D@2@@std@@@2@@std@@@Z 004217d0 f   Util.obj
 0001:000207e0       ?GetRootPath@Util@@SA?AVTString@@XZ 004217e0 f   Util.obj
 0001:00020870       ?ErrorLog@Util@@SAXVTString@@@Z 00421870 f   Util.obj
 0001:00020a80       ?GetSVMQAddress@Util@@SA?AVTString@@XZ 00421a80 f   Util.obj
 0001:00020c40       ??0Util@@QAE@XZ            00421c40 f   Util.obj
 0001:00020ca0       ?compare@String@ost@@MBEHPBDII@Z 00421ca0 f   ccgnu2:ccgnu2.dll
 0001:00020ca6       ?notify@Thread@ost@@MAEXPAV12@@Z 00421ca6 f   ccgnu2:ccgnu2.dll
 0001:00020cac       ?getExtended@Thread@ost@@MAEPAXXZ 00421cac f   ccgnu2:ccgnu2.dll
 0001:00020cb2       ?initial@Thread@ost@@MAEXXZ 00421cb2 f   ccgnu2:ccgnu2.dll
 0001:00020cb8       ?final@Thread@ost@@MAEXXZ  00421cb8 f   ccgnu2:ccgnu2.dll
 0001:00020cc0       ??0word@svutil@@QAE@PBD@Z  00421cc0 f   libutil:strkey.obj
 0001:00020d00       ??0word@svutil@@QAE@ABV?$basic_string@DU?$char_traits@D@std@@V?$allocator@D@2@@std@@@Z 00421d00 f   libutil:strkey.obj
 0001:00020d50       ??4word@svutil@@QAEAAV01@PBD@Z 00421d50 f   libutil:strkey.obj
 0001:00020da0       ??4word@svutil@@QAEAAV01@ABV01@@Z 00421da0 f   libutil:strkey.obj
 0001:00020df0       ??8word@svutil@@QBE_NABV01@@Z 00421df0 f   libutil:strkey.obj
 0001:00020e60       ??Mword@svutil@@QBE_NABV01@@Z 00421e60 f   libutil:strkey.obj
 0001:00020ee0       ??Oword@svutil@@QBE_NABV01@@Z 00421ee0 f   libutil:strkey.obj
 0001:00020f60       ??0buffer@svutil@@QAE@XZ   00421f60 f   libutil:buffer.obj
 0001:00020f70       ??1buffer@svutil@@QAE@XZ   00421f70 f   libutil:buffer.obj
 0001:00020f80       ?checksize@buffer@svutil@@QAE_NI@Z 00421f80 f   libutil:buffer.obj
 0001:00020fe0       ??3@YAXPAX@Z               00421fe0 f   MSVCRT:MSVCR71.dll
 0001:00021017       @__security_check_cookie@4 00422017 f   MSVCRT:secchk.obj
 0001:00021030       __chkstk                   00422030 f   MSVCRT:chkstk.obj
 0001:00021030       __alloca_probe             00422030     MSVCRT:chkstk.obj
 0001:0002106e       ??_V@YAXPAX@Z              0042206e f   MSVCRT:MSVCR71.dll
 0001:00021074       ??_U@YAPAXI@Z              00422074 f   MSVCRT:MSVCR71.dll
 0001:0002107a       ??0exception@@QAE@ABV0@@Z  0042207a f   MSVCRT:MSVCR71.dll
 0001:00021080       ??0bad_cast@@QAE@ABV0@@Z   00422080 f   MSVCRT:MSVCR71.dll
 0001:00021086       ??_Etype_info@@UAEPAXI@Z   00422086 f i MSVCRT:ti_inst.obj
 0001:000210d2       ??1bad_cast@@UAE@XZ        004220d2 f   MSVCRT:MSVCR71.dll
 0001:000210d8       ___CxxFrameHandler         004220d8 f   MSVCRT:MSVCR71.dll
 0001:000210e0       __CxxThrowException@8      004220e0 f   MSVCRT:MSVCR71.dll
 0001:000210e6       ??2@YAPAXI@Z               004220e6 f   MSVCRT:MSVCR71.dll
 0001:000210ec       __onexit                   004220ec f   MSVCRT:atonexit.obj
 0001:00021112       _atexit                    00422112 f   MSVCRT:atonexit.obj
 0001:00021124       __except_handler3          00422124 f   MSVCRT:MSVCR71.dll
 0001:0002112a       ?__ArrayUnwind@@YGXPAXIHP6EX0@Z@Z 0042212a f   MSVCRT:ehvecdtr.obj
 0001:00021188       ??_M@YGXPAXIHP6EX0@Z@Z     00422188 f   MSVCRT:ehvecdtr.obj
 0001:000211e8       ??_L@YGXPAXIHP6EX0@Z1@Z    004221e8 f   MSVCRT:ehvecctr.obj
 0001:0002124a       __purecall                 0042224a f   MSVCRT:MSVCR71.dll
 0001:00021250       _mainCRTStartup            00422250 f   MSVCRT:crtexe.obj
 0001:000213e8       ___security_init_cookie    004223e8 f   MSVCRT:seccinit.obj
 0001:0002144e       ___security_error_handler  0042244e f   MSVCRT:MSVCR71.dll
 0001:00021454       __SEH_prolog               00422454 f   MSVCRT:sehprolg.obj
 0001:0002148f       __SEH_epilog               0042248f f   MSVCRT:sehprolg.obj
 0001:000214a0       ??1type_info@@UAE@XZ       004224a0 f   MSVCRT:MSVCR71.dll
 0001:000214a6       ___dllonexit               004224a6 f   MSVCRT:MSVCR71.dll
 0001:000214ac       ?terminate@@YAXXZ          004224ac f   MSVCRT:MSVCR71.dll
 0001:000214b2       __XcptFilter               004224b2 f   MSVCRT:MSVCR71.dll
 0001:000214b8       __amsg_exit                004224b8 f   MSVCRT:MSVCR71.dll
 0001:000214be       __RTC_Initialize           004224be f   MSVCRT:initsect.obj
 0001:00021502       __RTC_Terminate            00422502 f   MSVCRT:initsect.obj
 0001:00021546       __initterm                 00422546 f   MSVCRT:MSVCR71.dll
 0001:0002154c       __setdefaultprecision      0042254c f   MSVCRT:fp8.obj
 0001:0002155e       __setargv                  0042255e f   MSVCRT:dllargv.obj
 0001:0002155e       __matherr                  0042255e f   MSVCRT:merr.obj
 0001:00021562       __controlfp                00422562 f   MSVCRT:MSVCR71.dll
 0002:00000000       __imp__GetSystemTimeAsFileTime@4 00426000     kernel32:KERNEL32.dll
 0002:00000004       __imp__GetCurrentProcessId@0 00426004     kernel32:KERNEL32.dll
 0002:00000008       __imp__GetTickCount@0      00426008     kernel32:KERNEL32.dll
 0002:0000000c       __imp__QueryPerformanceCounter@4 0042600c     kernel32:KERNEL32.dll
 0002:00000010       __imp__GetModuleHandleA@4  00426010     kernel32:KERNEL32.dll
 0002:00000014       __imp__ExitProcess@4       00426014     kernel32:KERNEL32.dll
 0002:00000018       __imp__GetProcAddress@8    00426018     kernel32:KERNEL32.dll
 0002:0000001c       __imp__LoadLibraryA@4      0042601c     kernel32:KERNEL32.dll
 0002:00000020       __imp__Sleep@4             00426020     kernel32:KERNEL32.dll
 0002:00000024       __imp__ResetEvent@4        00426024     kernel32:KERNEL32.dll
 0002:00000028       __imp__SetLastError@4      00426028     kernel32:KERNEL32.dll
 0002:0000002c       __imp__GetLastError@0      0042602c     kernel32:KERNEL32.dll
 0002:00000030       __imp__CreateEventA@16     00426030     kernel32:KERNEL32.dll
 0002:00000034       __imp__WaitForSingleObject@8 00426034     kernel32:KERNEL32.dll
 0002:00000038       __imp__CreateProcessA@40   00426038     kernel32:KERNEL32.dll
 0002:0000003c       __imp__GetCurrentThreadId@0 0042603c     kernel32:KERNEL32.dll
 0002:00000040       __imp__FreeLibrary@4       00426040     kernel32:KERNEL32.dll
 0002:00000044       \177KERNEL32_NULL_THUNK_DATA 00426044     kernel32:KERNEL32.dll
 0002:00000048       __imp_??$?6U?$char_traits@D@std@@@std@@YAAAV?$basic_ostream@DU?$char_traits@D@std@@@0@AAV10@PBD@Z 00426048     msvcprt:MSVCP71.dll
 0002:0000004c       __imp_??6?$basic_ostream@DU?$char_traits@D@std@@@std@@QAEAAV01@P6AAAV01@AAV01@@Z@Z 0042604c     msvcprt:MSVCP71.dll
 0002:00000050       __imp_??$?8DU?$char_traits@D@std@@V?$allocator@D@1@@std@@YA_NABV?$basic_string@DU?$char_traits@D@std@@V?$allocator@D@2@@0@0@Z 00426050     msvcprt:MSVCP71.dll
 0002:00000054       __imp_??$?MDU?$char_traits@D@std@@V?$allocator@D@1@@std@@YA_NABV?$basic_string@DU?$char_traits@D@std@@V?$allocator@D@2@@0@0@Z 00426054     msvcprt:MSVCP71.dll
 0002:00000058       __imp_??$?8DU?$char_traits@D@std@@V?$allocator@D@1@@std@@YA_NABV?$basic_string@DU?$char_traits@D@std@@V?$allocator@D@2@@0@PBD@Z 00426058     msvcprt:MSVCP71.dll
 0002:0000005c       __imp_?clear@?$basic_string@DU?$char_traits@D@std@@V?$allocator@D@2@@std@@QAEXXZ 0042605c     msvcprt:MSVCP71.dll
 0002:00000060       __imp_?compare@?$basic_string@DU?$char_traits@D@std@@V?$allocator@D@2@@std@@QBEHABV12@@Z 00426060     msvcprt:MSVCP71.dll
 0002:00000064       __imp_?find@?$basic_string@DU?$char_traits@D@std@@V?$allocator@D@2@@std@@QBEIPBDII@Z 00426064     msvcprt:MSVCP71.dll
 0002:00000068       __imp_?substr@?$basic_string@DU?$char_traits@D@std@@V?$allocator@D@2@@std@@QBE?AV12@II@Z 00426068     msvcprt:MSVCP71.dll
 0002:0000006c       __imp_??0?$basic_string@DU?$char_traits@D@std@@V?$allocator@D@2@@std@@QAE@XZ 0042606c     msvcprt:MSVCP71.dll
 0002:00000070       __imp_??4?$basic_string@DU?$char_traits@D@std@@V?$allocator@D@2@@std@@QAEAAV01@PBD@Z 00426070     msvcprt:MSVCP71.dll
 0002:00000074       __imp_?compare@?$basic_string@DU?$char_traits@D@std@@V?$allocator@D@2@@std@@QBEHIIPBDI@Z 00426074     msvcprt:MSVCP71.dll
 0002:00000078       __imp_??0?$basic_ostringstream@DU?$char_traits@D@std@@V?$allocator@D@2@@std@@QAE@H@Z 00426078     msvcprt:MSVCP71.dll
 0002:0000007c       __imp_??6?$basic_ostream@DU?$char_traits@D@std@@@std@@QAEAAV01@H@Z 0042607c     msvcprt:MSVCP71.dll
 0002:00000080       __imp_?str@?$basic_ostringstream@DU?$char_traits@D@std@@V?$allocator@D@2@@std@@QBE?AV?$basic_string@DU?$char_traits@D@std@@V?$allocator@D@2@@2@XZ 00426080     msvcprt:MSVCP71.dll
 0002:00000084       __imp_??_D?$basic_ostringstream@DU?$char_traits@D@std@@V?$allocator@D@2@@std@@QAEXXZ 00426084     msvcprt:MSVCP71.dll
 0002:00000088       __imp_??4?$basic_string@DU?$char_traits@D@std@@V?$allocator@D@2@@std@@QAEAAV01@ABV01@@Z 00426088     msvcprt:MSVCP71.dll
 0002:0000008c       __imp_?sputc@?$basic_streambuf@DU?$char_traits@D@std@@@std@@QAEHD@Z 0042608c     msvcprt:MSVCP71.dll
 0002:00000090       __imp_?getloc@ios_base@std@@QBE?AVlocale@2@XZ 00426090     msvcprt:MSVCP71.dll
 0002:00000094       __imp_??1locale@std@@QAE@XZ 00426094     msvcprt:MSVCP71.dll
 0002:00000098       __imp_?npos@?$basic_string@DU?$char_traits@D@std@@V?$allocator@D@2@@std@@2IB 00426098     msvcprt:MSVCP71.dll
 0002:0000009c       __imp_?cout@std@@3V?$basic_ostream@DU?$char_traits@D@std@@@1@A 0042609c     msvcprt:MSVCP71.dll
 0002:000000a0       __imp_?max_size@?$basic_string@DU?$char_traits@D@std@@V?$allocator@D@2@@std@@QBEIXZ 004260a0     msvcprt:MSVCP71.dll
 0002:000000a4       __imp_?sgetc@?$basic_streambuf@DU?$char_traits@D@std@@@std@@QAEHXZ 004260a4     msvcprt:MSVCP71.dll
 0002:000000a8       __imp_?append@?$basic_string@DU?$char_traits@D@std@@V?$allocator@D@2@@std@@QAEAAV12@ID@Z 004260a8     msvcprt:MSVCP71.dll
 0002:000000ac       __imp_?snextc@?$basic_streambuf@DU?$char_traits@D@std@@@std@@QAEHXZ 004260ac     msvcprt:MSVCP71.dll
 0002:000000b0       __imp_?clear@ios_base@std@@QAEXH_N@Z 004260b0     msvcprt:MSVCP71.dll
 0002:000000b4       __imp_?_Osfx@?$basic_ostream@DU?$char_traits@D@std@@@std@@QAEXXZ 004260b4     msvcprt:MSVCP71.dll
 0002:000000b8       __imp_?flush@?$basic_ostream@DU?$char_traits@D@std@@@std@@QAEAAV12@XZ 004260b8     msvcprt:MSVCP71.dll
 0002:000000bc       __imp_?_Ipfx@?$basic_istream@DU?$char_traits@D@std@@@std@@QAE_N_N@Z 004260bc     msvcprt:MSVCP71.dll
 0002:000000c0       __imp_?uncaught_exception@std@@YA_NXZ 004260c0     msvcprt:MSVCP71.dll
 0002:000000c4       __imp_??Y?$basic_string@DU?$char_traits@D@std@@V?$allocator@D@2@@std@@QAEAAV01@PBD@Z 004260c4     msvcprt:MSVCP71.dll
 0002:000000c8       __imp_??0?$basic_string@DU?$char_traits@D@std@@V?$allocator@D@2@@std@@QAE@PBD@Z 004260c8     msvcprt:MSVCP71.dll
 0002:000000cc       __imp_??0?$basic_string@DU?$char_traits@D@std@@V?$allocator@D@2@@std@@QAE@ABV01@@Z 004260cc     msvcprt:MSVCP71.dll
 0002:000000d0       __imp_??Y?$basic_string@DU?$char_traits@D@std@@V?$allocator@D@2@@std@@QAEAAV01@ABV01@@Z 004260d0     msvcprt:MSVCP71.dll
 0002:000000d4       __imp_??1?$basic_string@DU?$char_traits@D@std@@V?$allocator@D@2@@std@@QAE@XZ 004260d4     msvcprt:MSVCP71.dll
 0002:000000d8       __imp_??0_Lockit@std@@QAE@H@Z 004260d8     msvcprt:MSVCP71.dll
 0002:000000dc       __imp_?id@?$ctype@D@std@@2V0locale@2@A 004260dc     msvcprt:MSVCP71.dll
 0002:000000e0       __imp_??1_Lockit@std@@QAE@XZ 004260e0     msvcprt:MSVCP71.dll
 0002:000000e4       __imp_?_Id_cnt@id@locale@std@@0HA 004260e4     msvcprt:MSVCP71.dll
 0002:000000e8       __imp_?_Getfacet@locale@std@@QBEPBVfacet@12@I@Z 004260e8     msvcprt:MSVCP71.dll
 0002:000000ec       __imp_?_Getcat@?$ctype@D@std@@SAIPAPBVfacet@locale@2@@Z 004260ec     msvcprt:MSVCP71.dll
 0002:000000f0       __imp_?_Incref@facet@locale@std@@QAEXXZ 004260f0     msvcprt:MSVCP71.dll
 0002:000000f4       __imp_?_Register@facet@locale@std@@QAEXXZ 004260f4     msvcprt:MSVCP71.dll
 0002:000000f8       __imp_?_Lock@_Mutex@std@@QAEXXZ 004260f8     msvcprt:MSVCP71.dll
 0002:000000fc       __imp_?_Unlock@_Mutex@std@@QAEXXZ 004260fc     msvcprt:MSVCP71.dll
 0002:00000100       __imp_?endl@std@@YAAAV?$basic_ostream@DU?$char_traits@D@std@@@1@AAV21@@Z 00426100     msvcprt:MSVCP71.dll
 0002:00000104       __imp_??_D?$basic_istringstream@DU?$char_traits@D@std@@V?$allocator@D@2@@std@@QAEXXZ 00426104     msvcprt:MSVCP71.dll
 0002:00000108       __imp_??0?$basic_istringstream@DU?$char_traits@D@std@@V?$allocator@D@2@@std@@QAE@ABV?$basic_string@DU?$char_traits@D@std@@V?$allocator@D@2@@1@H@Z 00426108     msvcprt:MSVCP71.dll
 0002:0000010c       __imp_?replace@?$basic_string@DU?$char_traits@D@std@@V?$allocator@D@2@@std@@QAEAAV12@IIPBD@Z 0042610c     msvcprt:MSVCP71.dll
 0002:00000110       __imp_?find_first_of@?$basic_string@DU?$char_traits@D@std@@V?$allocator@D@2@@std@@QBEIPBDII@Z 00426110     msvcprt:MSVCP71.dll
 0002:00000114       __imp_?rfind@?$basic_string@DU?$char_traits@D@std@@V?$allocator@D@2@@std@@QBEIPBDII@Z 00426114     msvcprt:MSVCP71.dll
 0002:00000118       __imp_??_D?$basic_fstream@DU?$char_traits@D@std@@@std@@QAEXXZ 00426118     msvcprt:MSVCP71.dll
 0002:0000011c       __imp_??0?$basic_fstream@DU?$char_traits@D@std@@@std@@QAE@PBDHH@Z 0042611c     msvcprt:MSVCP71.dll
 0002:00000120       __imp_?getline@?$basic_istream@DU?$char_traits@D@std@@@std@@QAEAAV12@PADH@Z 00426120     msvcprt:MSVCP71.dll
 0002:00000124       __imp_?erase@?$basic_string@DU?$char_traits@D@std@@V?$allocator@D@2@@std@@QAEAAV12@II@Z 00426124     msvcprt:MSVCP71.dll
 0002:00000128       \177MSVCP71_NULL_THUNK_DATA 00426128     msvcprt:MSVCP71.dll
 0002:0000012c       __imp____p___initenv       0042612c     MSVCRT:MSVCR71.dll
 0002:00000130       __imp___amsg_exit          00426130     MSVCRT:MSVCR71.dll
 0002:00000134       __imp____getmainargs       00426134     MSVCRT:MSVCR71.dll
 0002:00000138       __imp___initterm           00426138     MSVCRT:MSVCR71.dll
 0002:0000013c       __imp____setusermatherr    0042613c     MSVCRT:MSVCR71.dll
 0002:00000140       __imp___adjust_fdiv        00426140     MSVCRT:MSVCR71.dll
 0002:00000144       __imp____p__commode        00426144     MSVCRT:MSVCR71.dll
 0002:00000148       __imp____p__fmode          00426148     MSVCRT:MSVCR71.dll
 0002:0000014c       __imp____set_app_type      0042614c     MSVCRT:MSVCR71.dll
 0002:00000150       __imp___controlfp          00426150     MSVCRT:MSVCR71.dll
 0002:00000154       __imp_??1exception@@UAE@XZ 00426154     MSVCRT:MSVCR71.dll
 0002:00000158       __imp__exit                00426158     MSVCRT:MSVCR71.dll
 0002:0000015c       __imp___cexit              0042615c     MSVCRT:MSVCR71.dll
 0002:00000160       __imp___XcptFilter         00426160     MSVCRT:MSVCR71.dll
 0002:00000164       __imp___exit               00426164     MSVCRT:MSVCR71.dll
 0002:00000168       __imp___c_exit             00426168     MSVCRT:MSVCR71.dll
 0002:0000016c       __imp_?terminate@@YAXXZ    0042616c     MSVCRT:MSVCR71.dll
 0002:00000170       __imp___onexit             00426170     MSVCRT:MSVCR71.dll
 0002:00000174       __imp____dllonexit         00426174     MSVCRT:MSVCR71.dll
 0002:00000178       __imp_??1type_info@@UAE@XZ 00426178     MSVCRT:MSVCR71.dll
 0002:0000017c       __imp_??3@YAXPAX@Z         0042617c     MSVCRT:MSVCR71.dll
 0002:00000180       __imp__sprintf             00426180     MSVCRT:MSVCR71.dll
 0002:00000184       __imp__time                00426184     MSVCRT:MSVCR71.dll
 0002:00000188       __imp_??_V@YAXPAX@Z        00426188     MSVCRT:MSVCR71.dll
 0002:0000018c       __imp_??_U@YAPAXI@Z        0042618c     MSVCRT:MSVCR71.dll
 0002:00000190       __imp_??0exception@@QAE@ABV0@@Z 00426190     MSVCRT:MSVCR71.dll
 0002:00000194       __imp_??0bad_cast@@QAE@ABV0@@Z 00426194     MSVCRT:MSVCR71.dll
 0002:00000198       __imp_??1bad_cast@@UAE@XZ  00426198     MSVCRT:MSVCR71.dll
 0002:0000019c       __imp_??0bad_cast@@QAE@PBD@Z 0042619c     MSVCRT:MSVCR71.dll
 0002:000001a0       __imp____CxxFrameHandler   004261a0     MSVCRT:MSVCR71.dll
 0002:000001a4       __imp___CxxThrowException@8 004261a4     MSVCRT:MSVCR71.dll
 0002:000001a8       __imp___itoa               004261a8     MSVCRT:MSVCR71.dll
 0002:000001a8       __imp__itoa                004261a8     MSVCRT:MSVCR71.dll
 0002:000001ac       __imp_??0exception@@QAE@XZ 004261ac     MSVCRT:MSVCR71.dll
 0002:000001b0       __imp__strdup              004261b0     MSVCRT:MSVCR71.dll
 0002:000001b0       __imp___strdup             004261b0     MSVCRT:MSVCR71.dll
 0002:000001b4       __imp__free                004261b4     MSVCRT:MSVCR71.dll
 0002:000001b8       __imp_??2@YAPAXI@Z         004261b8     MSVCRT:MSVCR71.dll
 0002:000001bc       __imp__memmove             004261bc     MSVCRT:MSVCR71.dll
 0002:000001c0       __imp__atoi                004261c0     MSVCRT:MSVCR71.dll
 0002:000001c4       __imp___i64toa             004261c4     MSVCRT:MSVCR71.dll
 0002:000001c8       __imp__puts                004261c8     MSVCRT:MSVCR71.dll
 0002:000001cc       __imp__printf              004261cc     MSVCRT:MSVCR71.dll
 0002:000001d0       __imp__mktime              004261d0     MSVCRT:MSVCR71.dll
 0002:000001d4       __imp___atoi64             004261d4     MSVCRT:MSVCR71.dll
 0002:000001d8       __imp__fclose              004261d8     MSVCRT:MSVCR71.dll
 0002:000001dc       __imp__fgets               004261dc     MSVCRT:MSVCR71.dll
 0002:000001e0       __imp__fopen               004261e0     MSVCRT:MSVCR71.dll
 0002:000001e4       __imp__localtime           004261e4     MSVCRT:MSVCR71.dll
 0002:000001e8       __imp___stricmp            004261e8     MSVCRT:MSVCR71.dll
 0002:000001e8       __imp__stricmp             004261e8     MSVCRT:MSVCR71.dll
 0002:000001ec       __imp___except_handler3    004261ec     MSVCRT:MSVCR71.dll
 0002:000001f0       __imp__atof                004261f0     MSVCRT:MSVCR71.dll
 0002:000001f4       __imp__strstr              004261f4     MSVCRT:MSVCR71.dll
 0002:000001f8       __imp__sscanf              004261f8     MSVCRT:MSVCR71.dll
 0002:000001fc       __imp__fprintf             004261fc     MSVCRT:MSVCR71.dll
 0002:00000200       __imp__fputs               00426200     MSVCRT:MSVCR71.dll
 0002:00000204       __imp__strrchr             00426204     MSVCRT:MSVCR71.dll
 0002:00000208       __imp__strchr              00426208     MSVCRT:MSVCR71.dll
 0002:0000020c       __imp___purecall           0042620c     MSVCRT:MSVCR71.dll
 0002:00000210       __imp___vsnprintf          00426210     MSVCRT:MSVCR71.dll
 0002:00000214       __imp____security_error_handler 00426214     MSVCRT:MSVCR71.dll
 0002:00000218       \177MSVCR71_NULL_THUNK_DATA 00426218     MSVCRT:MSVCR71.dll
 0002:0000021c       __imp__GetMessageA@16      0042621c     user32:USER32.dll
 0002:00000220       __imp__TranslateMessage@4  00426220     user32:USER32.dll
 0002:00000224       __imp__PeekMessageA@20     00426224     user32:USER32.dll
 0002:00000228       __imp__WaitMessage@0       00426228     user32:USER32.dll
 0002:0000022c       __imp__PostThreadMessageA@16 0042622c     user32:USER32.dll
 0002:00000230       __imp__DispatchMessageA@4  00426230     user32:USER32.dll
 0002:00000234       \177USER32_NULL_THUNK_DATA 00426234     user32:USER32.dll
 0002:00000238       __imp__WSAStartup@8        00426238     ws2_32:WS2_32.dll
 0002:0000023c       \177WS2_32_NULL_THUNK_DATA 0042623c     ws2_32:WS2_32.dll
 0002:00000240       __imp_??0Mutex@ost@@QAE@PBD@Z 00426240     ccgnu2:ccgnu2.dll
 0002:00000244       __imp_??0ThreadFile@ost@@QAE@PBD@Z 00426244     ccgnu2:ccgnu2.dll
 0002:00000248       __imp_??1Mutex@ost@@UAE@XZ 00426248     ccgnu2:ccgnu2.dll
 0002:0000024c       __imp_?leaveMutex@Mutex@ost@@QAEXXZ 0042624c     ccgnu2:ccgnu2.dll
 0002:00000250       __imp_?enterMutex@Mutex@ost@@QAEXXZ 00426250     ccgnu2:ccgnu2.dll
 0002:00000254       __imp_??1String@ost@@UAE@XZ 00426254     ccgnu2:ccgnu2.dll
 0002:00000258       __imp_??0String@ost@@QAE@XZ 00426258     ccgnu2:ccgnu2.dll
 0002:0000025c       __imp_?compare@String@ost@@MBEHPBDII@Z 0042625c     ccgnu2:ccgnu2.dll
 0002:00000260       __imp_??0String@ost@@QAE@PBD@Z 00426260     ccgnu2:ccgnu2.dll
 0002:00000264       __imp_?set@String@ost@@IAEPBDPBDI@Z 00426264     ccgnu2:ccgnu2.dll
 0002:00000268       __imp_?getText@String@ost@@QBEPADXZ 00426268     ccgnu2:ccgnu2.dll
 0002:0000026c       __imp_?copy@String@ost@@IAEXABV12@@Z 0042626c     ccgnu2:ccgnu2.dll
 0002:00000270       __imp_?init@String@ost@@IAEXXZ 00426270     ccgnu2:ccgnu2.dll
 0002:00000274       __imp_?find@String@ost@@QBEIPBDIII@Z 00426274     ccgnu2:ccgnu2.dll
 0002:00000278       __imp_?replace@String@ost@@QAEXIIPBDI@Z 00426278     ccgnu2:ccgnu2.dll
 0002:0000027c       __imp_?isEmpty@String@ost@@QBE_NXZ 0042627c     ccgnu2:ccgnu2.dll
 0002:00000280       __imp_?wait@Event@ost@@QAE_NXZ 00426280     ccgnu2:ccgnu2.dll
 0002:00000284       __imp_??1MutexLock@ost@@QAE@XZ 00426284     ccgnu2:ccgnu2.dll
 0002:00000288       __imp_?start@Thread@ost@@QAEHPAVSemaphore@2@@Z 00426288     ccgnu2:ccgnu2.dll
 0002:0000028c       __imp_?notify@Thread@ost@@MAEXPAV12@@Z 0042628c     ccgnu2:ccgnu2.dll
 0002:00000290       __imp_?getExtended@Thread@ost@@MAEPAXXZ 00426290     ccgnu2:ccgnu2.dll
 0002:00000294       __imp_?initial@Thread@ost@@MAEXXZ 00426294     ccgnu2:ccgnu2.dll
 0002:00000298       __imp_?final@Thread@ost@@MAEXXZ 00426298     ccgnu2:ccgnu2.dll
 0002:0000029c       __imp_??0String@ost@@QAE@ABV01@@Z 0042629c     ccgnu2:ccgnu2.dll
 0002:000002a0       __imp_?rfind@String@ost@@QBEIPBDII@Z 004262a0     ccgnu2:ccgnu2.dll
 0002:000002a4       __imp_?substr@String@ost@@QBE?AV12@II@Z 004262a4     ccgnu2:ccgnu2.dll
 0002:000002a8       __imp_?getLength@String@ost@@QBE?BIXZ 004262a8     ccgnu2:ccgnu2.dll
 0002:000002ac       __imp_?signal@Event@ost@@QAEXXZ 004262ac     ccgnu2:ccgnu2.dll
 0002:000002b0       __imp_?append@String@ost@@QAEXABV12@@Z 004262b0     ccgnu2:ccgnu2.dll
 0002:000002b4       __imp_?clear@String@ost@@QAEXXZ 004262b4     ccgnu2:ccgnu2.dll
 0002:000002b8       __imp_??8String@ost@@QBE_NABV01@@Z 004262b8     ccgnu2:ccgnu2.dll
 0002:000002bc       __imp_?append@String@ost@@QAEXPBDI@Z 004262bc     ccgnu2:ccgnu2.dll
 0002:000002c0       __imp_??1Event@ost@@UAE@XZ 004262c0     ccgnu2:ccgnu2.dll
 0002:000002c4       __imp_??0Event@ost@@QAE@XZ 004262c4     ccgnu2:ccgnu2.dll
 0002:000002c8       __imp_?getValue@String@ost@@QBEJJ@Z 004262c8     ccgnu2:ccgnu2.dll
 0002:000002cc       __imp_?reset@Event@ost@@QAEXXZ 004262cc     ccgnu2:ccgnu2.dll
 0002:000002d0       __imp_?sleep@Thread@ost@@SAXK@Z 004262d0     ccgnu2:ccgnu2.dll
 0002:000002d4       __imp_??0Thread@ost@@QAE@HI@Z 004262d4     ccgnu2:ccgnu2.dll
 0002:000002d8       __imp_??1Thread@ost@@UAE@XZ 004262d8     ccgnu2:ccgnu2.dll
 0002:000002dc       __imp_?setLength@String@ost@@IAEXI@Z 004262dc     ccgnu2:ccgnu2.dll
 0002:000002e0       __imp_?resize@String@ost@@QAEXI@Z 004262e0     ccgnu2:ccgnu2.dll
 0002:000002e4       __imp_??1ThreadFile@ost@@UAE@XZ 004262e4     ccgnu2:ccgnu2.dll
 0002:000002e8       __imp_?append@ThreadFile@ost@@QAE?AW4Error@File@2@PAXK@Z 004262e8     ccgnu2:ccgnu2.dll
 0002:000002ec       \177ccgnu2_NULL_THUNK_DATA 004262ec     ccgnu2:ccgnu2.dll
 0002:000002f0       __imp__CoInitialize@4      004262f0     ole32:ole32.dll
 0002:000002f4       \177ole32_NULL_THUNK_DATA  004262f4     ole32:ole32.dll
 0002:000002f8       __imp_?ClearQueueMessage@@YA_NV?$basic_string@DU?$char_traits@D@std@@V?$allocator@D@2@@std@@00@Z 004262f8     svapi:svapi.dll
 0002:000002fc       __imp_?DeleteQueue@@YA_NV?$basic_string@DU?$char_traits@D@std@@V?$allocator@D@2@@std@@00@Z 004262fc     svapi:svapi.dll
 0002:00000300       __imp_?GetSVDYNNODisplayString@@YA_NV?$basic_string@DU?$char_traits@D@std@@V?$allocator@D@2@@std@@AAUsv_dyn@@00@Z 00426300     svapi:svapi.dll
 0002:00000304       __imp_?PopMessage@@YAPAXV?$basic_string@DU?$char_traits@D@std@@V?$allocator@D@2@@std@@I00@Z 00426304     svapi:svapi.dll
 0002:00000308       __imp_?GetMessageData@@YA_NPAXAAV?$basic_string@DU?$char_traits@D@std@@V?$allocator@D@2@@std@@AAVTTime@svutil@@PADAAI@Z 00426308     svapi:svapi.dll
 0002:0000030c       __imp_?CloseMQRecord@@YA_NAAPAX@Z 0042630c     svapi:svapi.dll
 0002:00000310       __imp_?PushMessage@@YA_NV?$basic_string@DU?$char_traits@D@std@@V?$allocator@D@2@@std@@0PBDI00@Z 00426310     svapi:svapi.dll
 0002:00000314       __imp_?FindSEID@@YA?AV?$basic_string@DU?$char_traits@D@std@@V?$allocator@D@2@@std@@V12@@Z 00426314     svapi:svapi.dll
 0002:00000318       __imp_?FindParentID@@YA?AV?$basic_string@DU?$char_traits@D@std@@V?$allocator@D@2@@std@@V12@@Z 00426318     svapi:svapi.dll
 0002:0000031c       __imp_?CreateQueue@@YA_NV?$basic_string@DU?$char_traits@D@std@@V?$allocator@D@2@@std@@H00@Z 0042631c     svapi:svapi.dll
 0002:00000320       __imp_?CloseResource@@YA_NAAPAX@Z 00426320     svapi:svapi.dll
 0002:00000324       __imp_?CloseGroup@@YA_NAAPAX@Z 00426324     svapi:svapi.dll
 0002:00000328       __imp_?FindNodeValue@@YA_NPAXV?$basic_string@DU?$char_traits@D@std@@V?$allocator@D@2@@std@@AAV12@@Z 00426328     svapi:svapi.dll
 0002:0000032c       __imp_?GetGroupMainAttribNode@@YAPAXPAX@Z 0042632c     svapi:svapi.dll
 0002:00000330       __imp_?GetGroup@@YAPAXV?$basic_string@DU?$char_traits@D@std@@V?$allocator@D@2@@std@@00@Z 00426330     svapi:svapi.dll
 0002:00000334       __imp_?GetMonitorTemplet@@YAPAXHV?$basic_string@DU?$char_traits@D@std@@V?$allocator@D@2@@std@@0@Z 00426334     svapi:svapi.dll
 0002:00000338       __imp_?GetEntityTemplet@@YAPAXV?$basic_string@DU?$char_traits@D@std@@V?$allocator@D@2@@std@@00@Z 00426338     svapi:svapi.dll
 0002:0000033c       __imp_?GetMonitor@@YAPAXV?$basic_string@DU?$char_traits@D@std@@V?$allocator@D@2@@std@@00@Z 0042633c     svapi:svapi.dll
 0002:00000340       __imp_?GetEntity@@YAPAXV?$basic_string@DU?$char_traits@D@std@@V?$allocator@D@2@@std@@00@Z 00426340     svapi:svapi.dll
 0002:00000344       __imp_?FindMTAdvanceParameterFirst@@YA_NPAXAAUsv_list@@@Z 00426344     svapi:svapi.dll
 0002:00000348       __imp_?ReleaseItemList@@YAXABUsv_list@@@Z 00426348     svapi:svapi.dll
 0002:0000034c       __imp_?FindNext@@YAPAXABUsv_list@@@Z 0042634c     svapi:svapi.dll
 0002:00000350       __imp_?FindMTParameterFirst@@YA_NPAXAAUsv_list@@@Z 00426350     svapi:svapi.dll
 0002:00000354       __imp_?GetMonitorMainAttribNode@@YAPAXPAX@Z 00426354     svapi:svapi.dll
 0002:00000358       __imp_?GetMonitorAdvanceParameterNode@@YAPAXPAX@Z 00426358     svapi:svapi.dll
 0002:0000035c       __imp_?GetMonitorParameter@@YAPAXPAX@Z 0042635c     svapi:svapi.dll
 0002:00000360       __imp_?GetMonitorGoodAlertCondition@@YAPAXPAX@Z 00426360     svapi:svapi.dll
 0002:00000364       __imp_?GetMonitorWarningAlertCondition@@YAPAXPAX@Z 00426364     svapi:svapi.dll
 0002:00000368       __imp_?GetMonitorErrorAlertCondition@@YAPAXPAX@Z 00426368     svapi:svapi.dll
 0002:0000036c       __imp_?GetEntityMainAttribNode@@YAPAXPAX@Z 0042636c     svapi:svapi.dll
 0002:00000370       __imp_?FindETContrlFirst@@YA_NPAXAAUsv_list@@@Z 00426370     svapi:svapi.dll
 0002:00000374       __imp_?GetMTMainAttribNode@@YAPAXPAX@Z 00426374     svapi:svapi.dll
 0002:00000378       __imp_?FindMTReturnFirst@@YA_NPAXAAUsv_list@@@Z 00426378     svapi:svapi.dll
 0002:0000037c       __imp_?GetResourceNode@@YAPAXPAX@Z 0042637c     svapi:svapi.dll
 0002:00000380       __imp_?LoadResource@@YAPAXV?$basic_string@DU?$char_traits@D@std@@V?$allocator@D@2@@std@@0@Z 00426380     svapi:svapi.dll
 0002:00000384       __imp_?CloseEntity@@YA_NAAPAX@Z 00426384     svapi:svapi.dll
 0002:00000388       __imp_?CloseMonitor@@YAXAAPAX@Z 00426388     svapi:svapi.dll
 0002:0000038c       __imp_?CloseEntityTemplet@@YA_NAAPAX@Z 0042638c     svapi:svapi.dll
 0002:00000390       __imp_?CloseMonitorTemplet@@YAXAAPAX@Z 00426390     svapi:svapi.dll
 0002:00000394       __imp_?GetIniFileString@@YA?AV?$basic_string@DU?$char_traits@D@std@@V?$allocator@D@2@@std@@V12@0000@Z 00426394     svapi:svapi.dll
 0002:00000398       __imp_?GetIniFileSections@@YA_NAAV?$list@V?$basic_string@DU?$char_traits@D@std@@V?$allocator@D@2@@std@@V?$allocator@V?$basic_string@DU?$char_traits@D@std@@V?$allocator@D@2@@std@@@2@@std@@V?$basic_string@DU?$char_traits@D@std@@V?$allocator@D@2@@2@1@Z 00426398     svapi:svapi.dll
 0002:0000039c       __imp_?GetMonitorsInfoBySE@@YA_NV?$basic_string@DU?$char_traits@D@std@@V?$allocator@D@2@@std@@AAV?$list@Usv_pair@@V?$allocator@Usv_pair@@@std@@@2@000@Z 0042639c     svapi:svapi.dll
 0002:000003a0       __imp_?EnumNodeAttrib@@YA_NPAXAAV?$list@Usv_pair@@V?$allocator@Usv_pair@@@std@@@std@@@Z 004263a0     svapi:svapi.dll
 0002:000003a4       __imp_?GetAllEntitysInfo@@YA_NAAV?$list@Usv_pair@@V?$allocator@Usv_pair@@@std@@@std@@V?$basic_string@DU?$char_traits@D@std@@V?$allocator@D@2@@2@11@Z 004263a4     svapi:svapi.dll
 0002:000003a8       __imp_?GetAllGroupsInfo@@YA_NAAV?$list@Usv_pair@@V?$allocator@Usv_pair@@@std@@@std@@V?$basic_string@DU?$char_traits@D@std@@V?$allocator@D@2@@2@11@Z 004263a8     svapi:svapi.dll
 0002:000003ac       __imp_?CloseTask@@YAXAAPAX@Z 004263ac     svapi:svapi.dll
 0002:000003b0       __imp_?GetTaskValue@@YA?AV?$basic_string@DU?$char_traits@D@std@@V?$allocator@D@2@@std@@V12@PAX@Z 004263b0     svapi:svapi.dll
 0002:000003b4       __imp_?GetTask@@YAPAXV?$basic_string@DU?$char_traits@D@std@@V?$allocator@D@2@@std@@00@Z 004263b4     svapi:svapi.dll
 0002:000003b8       __imp_?GetAllTaskName@@YA_NAAV?$list@V?$basic_string@DU?$char_traits@D@std@@V?$allocator@D@2@@std@@V?$allocator@V?$basic_string@DU?$char_traits@D@std@@V?$allocator@D@2@@std@@@2@@std@@V?$basic_string@DU?$char_traits@D@std@@V?$allocator@D@2@@2@1@Z 004263b8     svapi:svapi.dll
 0002:000003bc       __imp_?AppendRecord@@YA_NV?$basic_string@DU?$char_traits@D@std@@V?$allocator@D@2@@std@@PBDI00@Z 004263bc     svapi:svapi.dll
 0002:000003c0       __imp_?GetSiteViewRootPath@@YA?AV?$basic_string@DU?$char_traits@D@std@@V?$allocator@D@2@@std@@XZ 004263c0     svapi:svapi.dll
 0002:000003c4       __imp_?BlockPopMessage@@YAPAXV?$basic_string@DU?$char_traits@D@std@@V?$allocator@D@2@@std@@00@Z 004263c4     svapi:svapi.dll
 0002:000003c8       \177svapi_NULL_THUNK_DATA  004263c8     svapi:svapi.dll
 0002:00000bf0       ??_7Des@@6B@               00426bf0     Des.obj
 0002:00000e18       ??_C@_02DKCKIIND@?$CFs?$AA@ 00426e18     Des.obj
 0002:00000e1c       ??_C@_08EPJLHIJG@bad?5cast?$AA@ 00426e1c     Entity.obj
 0002:00000e28       ??_7logic_error@std@@6B@   00426e28     Groups.obj
 0002:00000e30       ??_7length_error@std@@6B@  00426e30     Groups.obj
 0002:00000e38       ??_C@_0M@IGBDGEOL@MSException?$AA@ 00426e38     Groups.obj
 0002:00000e44       ??_C@_09FBNMMHMJ@Exception?$AA@ 00426e44     Groups.obj
 0002:00000e50       ??_7MSException@@6B@       00426e50     Groups.obj
 0002:00000e5c       ??_7exception@svutil@@6B@  00426e5c     Groups.obj
 0002:00000e68       ??_7word@svutil@@6B@       00426e68     Groups.obj
 0002:00000e6c       ??_C@_00CNPNBAHC@?$AA@     00426e6c     Groups.obj
 0002:00000e70       ??_C@_0BN@NKJIKKBC@Invalid?5parameter?5?$DMEntityID?$DO?$AA@ 00426e70     Groups.obj
 0002:00000e90       ??_C@_0BP@CECHBOBE@Invalid?5parameter?5?$DMSystemType?$DO?$AA@ 00426e90     Groups.obj
 0002:00000eb0       ??_C@_0BL@NKDFBEPA@Invalid?5parameter?5?$DMDepend?$DO?$AA@ 00426eb0     Groups.obj
 0002:00000ecc       ??_C@_0BN@EHFGBPEL@Invalid?5parameter?5?$DMIPAdress?$DO?$AA@ 00426ecc     Groups.obj
 0002:00000eec       ??_C@_0BM@PFPPIFLI@Invalid?5parameter?5?$DMGroupID?$DO?$AA@ 00426eec     Groups.obj
 0002:00000f08       ??_C@_0BN@JPLEKJNA@Invalid?5parameter?5?$DMParentID?$DO?$AA@ 00426f08     Groups.obj
 0002:00000f28       ??_C@_0BO@MMLCMJIC@Invalid?5parameter?5?$DMDependSon?$DO?$AA@ 00426f28     Groups.obj
 0002:00000f48       ??_7?$sorttree@V?$hashelement@Vword@svutil@@V12@@svutil@@@svutil@@6B@ 00426f48     Groups.obj
 0002:00000f4c       ??_7?$treenode@V?$hashelement@Vword@svutil@@V12@@svutil@@@svutil@@6B@ 00426f4c     Groups.obj
 0002:00000f50       ??_C@_0BD@OLBABOEK@vector?$DMT?$DO?5too?5long?$AA@ 00426f50     Groups.obj
 0002:00000f64       ??_C@_0BB@MOGOBHAF@list?$DMT?$DO?5too?5long?$AA@ 00426f64     Groups.obj
 0002:00000f78       ??_C@_0BD@JEAHJBKA@Create?5node?5failed?$AA@ 00426f78     Groups.obj
 0002:00000f8c       ??_7Groups@@6B@            00426f8c     Groups.obj
 0002:00000f90       ??_C@_0CB@GAEFAOHM@Entitys_Item_DependsCondition_?$CFd@ 00426f90     Groups.obj
 0002:00000fb4       ??_C@_0BH@KBGGFLBK@Entitys_Item_Depend_?$CFd?$AA@ 00426fb4     Groups.obj
 0002:00000fcc       ??_C@_0BJ@EJCPENMK@Entitys_Item_IPAdress_?$CFd?$AA@ 00426fcc     Groups.obj
 0002:00000fe8       ??_C@_0BL@HAKPDGFG@Entitys_Item_SystemType_?$CFd?$AA@ 00426fe8     Groups.obj
 0002:00001004       ??_C@_0BJ@JJFNHBBK@Entitys_Item_EntityID_?$CFd?$AA@ 00427004     Groups.obj
 0002:00001020       ??_C@_0CB@FIHKPOBH@Entitys_Item_MonitorTypeCount_?$CFd@ 00427020     Groups.obj
 0002:00001044       ??_C@_0P@NPEHJNPL@EntityListSize?$AA@ 00427044     Groups.obj
 0002:00001054       ??_C@_0CA@NHLGKIAC@Groups_Item_DependsCondition_?$CFd?$AA@ 00427054     Groups.obj
 0002:00001074       ??_C@_0BJ@OFKMGMMG@Groups_Item_DependSon_?$CFd?$AA@ 00427074     Groups.obj
 0002:00001090       ??_C@_0BI@DCOLEJA@Groups_Item_ParentID_?$CFd?$AA@ 00427090     Groups.obj
 0002:000010a8       ??_C@_0BH@PIGADCGA@Groups_Item_GroupID_?$CFd?$AA@ 004270a8     Groups.obj
 0002:000010c0       ??_C@_0O@DBCCCLIC@GroupListSize?$AA@ 004270c0     Groups.obj
 0002:000010d0       ??_C@_04MNMAMLMA@seid?$AA@ 004270d0     Groups.obj
 0002:000010d8       ??_7GroupsItem@@6B@        004270d8     GroupsItem.obj
 0002:000010dc       ??_7TString@@6B@           004270dc     LoadConfig.obj
 0002:000010e4       ??_7LoadConfig@@6B@        004270e4     LoadConfig.obj
 0002:000010e8       ??_C@_0BF@HINMIOOM@Create?5config?5failed?$AA@ 004270e8     LoadConfig.obj
 0002:00001100       ??_C@_0BE@OBGFNBGK@Config?5already?5load?$AA@ 00427100     LoadConfig.obj
 0002:00001114       ??_C@_07PACLKGJM@sv_plan?$AA@ 00427114     LoadConfig.obj
 0002:0000111c       ??_C@_0DJ@PFNMPLK@MonitorLibaray?9Get?5?$DMsv_class?$DO?5pa@ 0042711c     LoadConfig.obj
 0002:00001158       ??_C@_08GMOHJOOK@sv_class?$AA@ 00427158     LoadConfig.obj
 0002:00001164       ??_C@_05LAPONLG@false?$AA@ 00427164     LoadConfig.obj
 0002:0000116c       ??_C@_04LOAJBDKD@true?$AA@ 0042716c     LoadConfig.obj
 0002:00001174       ??_C@_0M@BABONBBP@sv_checkerr?$AA@ 00427174     LoadConfig.obj
 0002:00001180       ??_C@_0L@KPGOGJAI@sv_errfreq?$AA@ 00427180     LoadConfig.obj
 0002:0000118c       ??_C@_0CD@HHDJCACO@Frequency?5is?5zero?5error?4MonitorI@ 0042718c     LoadConfig.obj
 0002:000011b0       ??_C@_0DF@DCKNPJGI@Moniotor?9Get?5?8_frequency?8?5parame@ 004271b0     LoadConfig.obj
 0002:000011e8       ??_C@_0L@MKCONOGM@_frequency?$AA@ 004271e8     LoadConfig.obj
 0002:000011f4       ??_C@_0DD@INKJNDOK@Moniotor?9Get?5moniotor?5common?5par@ 004271f4     LoadConfig.obj
 0002:00001228       ??_C@_0CM@ONDGMBMO@Entity?9Get?5common?5parameter?5erro@ 00427228     LoadConfig.obj
 0002:00001254       ??_C@_0L@CEPMLCGK@MonitorID?3?$AA@ 00427254     LoadConfig.obj
 0002:00001260       ??_C@_0DH@PGLIJNFM@MoniotorLibrary?9Get?5ReturnData?5l@ 00427260     LoadConfig.obj
 0002:00001298       ??_C@_0DL@LPAIEIEM@Entity?9Get?5parameter?5?$DMsv_depends@ 00427298     LoadConfig.obj
 0002:000012d4       ??_C@_0BE@DMLELPDP@sv_dependscondition?$AA@ 004272d4     LoadConfig.obj
 0002:000012e8       ??_C@_0DE@GLFNNPLE@Entity?9Get?5parameter?5?$DMsv_depends@ 004272e8     LoadConfig.obj
 0002:0000131c       ??_C@_0N@PDJBEMBD@sv_dependson?$AA@ 0042731c     LoadConfig.obj
 0002:0000132c       ??_C@_0DE@IKEHINJM@Entity?9Get?5parameter?5?$DM_MachineNa@ 0042732c     LoadConfig.obj
 0002:00001360       ??_C@_0N@EMEEJLAO@_MachineName?$AA@ 00427360     LoadConfig.obj
 0002:00001370       ??_C@_0DF@PCCOCNCH@Entity?9Get?5parameter?5?$DMsv_devicet@ 00427370     LoadConfig.obj
 0002:000013a8       ??_C@_0O@MDBDMLPJ@sv_devicetype?$AA@ 004273a8     LoadConfig.obj
 0002:000013b8       ??_C@_0DE@JCAFDBEA@Subsequent?9Get?5parameter?5?$DMSubseq@ 004273b8     LoadConfig.obj
 0002:000013ec       ??_C@_0DJ@NBCDHHFD@Group?9Get?5parameter?5?$DMsv_dependsc@ 004273ec     LoadConfig.obj
 0002:00001428       ??_C@_0DC@IEOHKCK@Group?9Get?5parameter?5?$DMsv_dependso@ 00427428     LoadConfig.obj
 0002:0000145c       ??_C@_0DN@HABCADCA@Monitor?9Get?5?$DM?5Normal?5StateCondit@ 0042745c     LoadConfig.obj
 0002:0000149c       ??_C@_0DI@EJMEGOO@Monitor?9Get?5?$DM?5Normal?5StateCondit@ 0042749c     LoadConfig.obj
 0002:000014d4       ??_C@_0DO@DMFOJBAD@Monitor?9Get?5?$DM?5Warning?5StateCondi@ 004274d4     LoadConfig.obj
 0002:00001514       ??_C@_0DJ@PIJAOJFD@Monitor?9Get?5?$DM?5Warning?5StateCondi@ 00427514     LoadConfig.obj
 0002:00001550       ??_C@_0DM@HGCNHHG@Monitor?9Get?5?$DM?5Error?5StateConditi@ 00427550     LoadConfig.obj
 0002:0000158c       ??_C@_0DG@DGDEJGHI@Monitor?9Get?5?$DM?5Error?5StateConditi@ 0042758c     LoadConfig.obj
 0002:000015c4       ??_C@_0BA@MGPMAEBD@sv_RunInProcess?$AA@ 004275c4     LoadConfig.obj
 0002:000015d4       ??_C@_06PAGNDDEB@?0MLID?3?$AA@ 004275d4     LoadConfig.obj
 0002:000015dc       ??_C@_0BB@OKBJNAJH@error?0MonitorID?3?$AA@ 004275dc     LoadConfig.obj
 0002:000015f0       ??_C@_0BP@JOFBNLMM@MonitorLibrary?9Get?5parameter?5?$DM?$AA@ 004275f0     LoadConfig.obj
 0002:00001610       ??_C@_0M@DFAAJGFD@_MonitorID?$DN?$AA@ 00427610     LoadConfig.obj
 0002:0000161c       ??_C@_0N@IELGHDHP@_TemplateID?$DN?$AA@ 0042761c     LoadConfig.obj
 0002:0000162c       ??_C@_07IMGIOFNL@sv_func?$AA@ 0042762c     LoadConfig.obj
 0002:00001634       ??_C@_06OEOKCKEK@sv_dll?$AA@ 00427634     LoadConfig.obj
 0002:0000163c       ??_C@_0O@BHPIBBCC@N_ExecuteFunc?$AA@ 0042763c     LoadConfig.obj
 0002:0000164c       ??_C@_0BG@MIMMHCPG@N_ExecuteAssemblyName?$AA@ 0042764c     LoadConfig.obj
 0002:00001664       ??_C@_0BD@OGCGEDOB@?$DO?5error?3MonitorID?3?$AA@ 00427664     LoadConfig.obj
 0002:00001678       ??_C@_0BI@PKCIHLB@Monitor?9Get?5parameter?5?$DM?$AA@ 00427678     LoadConfig.obj
 0002:00001690       ??_C@_0L@BCKPHCDG@?0EntityID?3?$AA@ 00427690     LoadConfig.obj
 0002:0000169c       ??_C@_0DG@EAIAJFEE@Entity?9Get?5parameter?5?$DMsv_systemt@ 0042769c     LoadConfig.obj
 0002:000016d4       ??_C@_01NEMOKFLO@?$DN?$AA@ 004276d4     LoadConfig.obj
 0002:000016d8       ??_C@_0DD@NFNJDPCP@MonitorLibaray?9Get?5parameter?5lis@ 004276d8     LoadConfig.obj
 0002:0000170c       ??_C@_0BH@GCAEPELM@Monitors?5count?5is?5?3?$CFd?6?$AA@ 0042770c     LoadConfig.obj
 0002:00001724       ??_C@_0BF@GBOKHCBC@Config?5file?5not?5load?$AA@ 00427724     LoadConfig.obj
 0002:0000173c       ??_C@_0CL@OMKPCHHB@Entity?9Get?5parameter?5?$DMEntityID?5l@ 0042773c     LoadConfig.obj
 0002:00001768       ??_C@_0BE@OHOKBJLJ@Toatal?5groupid?5?3?$CFd?6?$AA@ 00427768     LoadConfig.obj
 0002:0000177c       ??_C@_0CJ@IEDCIDHF@Group?9Get?5parameter?5?$DMGroupID?5lis@ 0042777c     LoadConfig.obj
 0002:000017a8       ??_C@_06ENNEIMBA@String?$AA@ 004277a8     MakeRecord.obj
 0002:000017b0       ??_C@_05KKPNNHNB@Float?$AA@ 004277b0     MakeRecord.obj
 0002:000017b8       ??_C@_03DBLNGNIM@Int?$AA@  004277b8     MakeRecord.obj
 0002:000017bc       ??_C@_0BC@HMPPKDEN@ParamList_Item_?$CFd?$AA@ 004277bc     Monitor.obj
 0002:000017d0       ??_C@_0P@IOGPDDKM@ParamList_Size?$AA@ 004277d0     Monitor.obj
 0002:000017e0       ??_C@_0BE@GKGINBKG@ReturnItem_?$CFd_Label?$AA@ 004277e0     Monitor.obj
 0002:000017f4       ??_C@_0BD@ONGJGNDP@ReturnItem_?$CFd_Name?$AA@ 004277f4     Monitor.obj
 0002:00001808       ??_C@_0BD@PGOKFADG@ReturnItem_?$CFd_Unit?$AA@ 00427808     Monitor.obj
 0002:0000181c       ??_C@_0BD@EGGKKNEP@ReturnItem_?$CFd_Type?$AA@ 0042781c     Monitor.obj
 0002:00001830       ??_C@_0BA@HINIIEBH@ReturnList_Size?$AA@ 00427830     Monitor.obj
 0002:00001840       ??_C@_0CJ@DAJMJBB@StateCondition_Normal_Item_?$CFd_Pa@ 00427840     Monitor.obj
 0002:0000186c       ??_C@_0CH@COFEOHOE@StateCondition_Normal_Item_?$CFd_Op@ 0042786c     Monitor.obj
 0002:00001894       ??_C@_0CI@JJGDCMHA@StateCondition_Normal_Item_?$CFd_Pa@ 00427894     Monitor.obj
 0002:000018bc       ??_C@_0CF@PLKCAOPP@StateCondition_Normal_Item_?$CFd_It@ 004278bc     Monitor.obj
 0002:000018e4       ??_C@_0BP@FJBKJKF@StateCondition_Normal_ItemSize?$AA@ 004278e4     Monitor.obj
 0002:00001904       ??_C@_0CB@LJFNKGOJ@StateCondition_Normal_Expression@ 00427904     Monitor.obj
 0002:00001928       ??_C@_0BL@BJAIFNAC@StateCondition_Normal_Type?$AA@ 00427928     Monitor.obj
 0002:00001944       ??_C@_0CK@OACOBDNF@StateCondition_Warning_Item_?$CFd_P@ 00427944     Monitor.obj
 0002:00001970       ??_C@_0CI@PLKPBMII@StateCondition_Warning_Item_?$CFd_O@ 00427970     Monitor.obj
 0002:00001998       ??_C@_0CJ@NNLCPKPI@StateCondition_Warning_Item_?$CFd_P@ 00427998     Monitor.obj
 0002:000019c4       ??_C@_0CG@CFOIJMDP@StateCondition_Warning_Item_?$CFd_I@ 004279c4     Monitor.obj
 0002:000019ec       ??_C@_0CA@EGKBADGJ@StateCondition_Warning_ItemSize?$AA@ 004279ec     Monitor.obj
 0002:00001a0c       ??_C@_0CC@OIBBDHGN@StateCondition_Warning_Expressio@ 00427a0c     Monitor.obj
 0002:00001a30       ??_C@_0BM@JBALEJIL@StateCondition_Warning_Type?$AA@ 00427a30     Monitor.obj
 0002:00001a4c       ??_C@_0CI@EDHHHBHD@StateCondition_Error_Item_?$CFd_Par@ 00427a4c     Monitor.obj
 0002:00001a74       ??_C@_0CG@EMMDHDEF@StateCondition_Error_Item_?$CFd_Ope@ 00427a74     Monitor.obj
 0002:00001a9c       ??_C@_0CH@DINACIJK@StateCondition_Error_Item_?$CFd_Par@ 00427a9c     Monitor.obj
 0002:00001ac4       ??_C@_0CE@KNHJBDJL@StateCondition_Error_Item_?$CFd_Ite@ 00427ac4     Monitor.obj
 0002:00001ae8       ??_C@_0BO@EFCEKJGC@StateCondition_Error_ItemSize?$AA@ 00427ae8     Monitor.obj
 0002:00001b08       ??_C@_0CA@DNOGKHNF@StateCondition_Error_Expression?$AA@ 00427b08     Monitor.obj
 0002:00001b28       ??_C@_0BK@CDNDAEBJ@StateCondition_Error_Type?$AA@ 00427b28     Monitor.obj
 0002:00001b44       ??_C@_08KJGGNPPO@TaskName?$AA@ 00427b44     Monitor.obj
 0002:00001b50       ??_C@_0N@KEPOEGEN@MonitorClass?$AA@ 00427b50     Monitor.obj
 0002:00001b60       ??_C@_0L@JLPANJNL@CheckError?$AA@ 00427b60     Monitor.obj
 0002:00001b6c       ??_C@_09BGPDCJH@ErrorFreq?$AA@ 00427b6c     Monitor.obj
 0002:00001b78       ??_C@_09OGDICNME@Frequency?$AA@ 00427b78     Monitor.obj
 0002:00001b84       ??_C@_0L@DNHHDPKK@EntityType?$AA@ 00427b84     Monitor.obj
 0002:00001b90       ??_C@_07MNGBFJEN@Process?$AA@ 00427b90     Monitor.obj
 0002:00001b98       ??_C@_07BGPNANBL@Library?$AA@ 00427b98     Monitor.obj
 0002:00001ba0       ??_C@_0M@FCPFJAEP@MonitorType?$AA@ 00427ba0     Monitor.obj
 0002:00001bac       ??_C@_0M@HMLPEDLP@NextRunTime?$AA@ 00427bac     Monitor.obj
 0002:00001bb8       ??_C@_09KKNMDBLO@isDisable?$AA@ 00427bb8     Monitor.obj
 0002:00001bc4       ??_C@_0O@JDMAIHJK@isTempDisable?$AA@ 00427bc4     Monitor.obj
 0002:00001bd4       ??_C@_09HLNADPAH@endTDTime?$AA@ 00427bd4     Monitor.obj
 0002:00001be0       ??_C@_0M@PHDBPIMP@beginTDTime?$AA@ 00427be0     Monitor.obj
 0002:00001bec       ??_C@_09KHLDHEFF@LastState?$AA@ 00427bec     Monitor.obj
 0002:00001bf8       ??_C@_08CGFBPIO@TaskType?$AA@ 00427bf8     Monitor.obj
 0002:00001c04       ??_C@_0N@IGKEHPBK@RunInProcess?$AA@ 00427c04     Monitor.obj
 0002:00001c14       ??_C@_09IOBNBFEB@MonitorID?$AA@ 00427c14     Monitor.obj
 0002:00001c20       ??_7Monitor@@6B@           00427c20     Monitor.obj
 0002:00001c24       ??_C@_0P@FDDDHPEK@Run?5failed?5?3?$CFs?$AA@ 00427c24     MonitorSchedule.obj
 0002:00001c34       ??_C@_0BE@KJIBIAAE@Root?5path?5is?5empty?$CB?$AA@ 00427c34     MonitorSchedule.obj
 0002:00001c48       ??_C@_04KMIAGBLD@ssss?$AA@ 00427c48     MonitorSchedule.obj
 0002:00001c50       ??_C@_0CM@LLPGHKEN@RunMonitor?9Execute?5monitor?5happe@ 00427c50     MonitorSchedule.obj
 0002:00001c7c       ??_C@_0DD@MIDNHJJE@Push?5message?5failed?5in?5Run_Proce@ 00427c7c     MonitorSchedule.obj
 0002:00001cb0       ??_C@_0BA@OBJIJCHB@SiteView_Return?$AA@ 00427cb0     MonitorSchedule.obj
 0002:00001cc0       ??_C@_0DD@IDPLGFOF@Return?5result?5error?5in?5Run_Proce@ 00427cc0     MonitorSchedule.obj
 0002:00001cf4       ??_C@_0CB@MEACFEKE@RunMonitor?9GetProcAddress?5failed@ 00427cf4     MonitorSchedule.obj
 0002:00001d18       ??_C@_0CL@MPNDFCGM@RunMonitor?9Load?5library?5failed?0D@ 00427d18     MonitorSchedule.obj
 0002:00001d44       ??_C@_0DE@FEIJPGCO@Create?5object?5failed?5in?5Run_Proc@ 00427d44     MonitorSchedule.obj
 0002:00001d78       ??_C@_0DJ@NDDLCMKI@Get?5Message?5failed?5failed?5in?5Run@ 00427d78     MonitorSchedule.obj
 0002:00001db4       ??_C@_0DJ@JGDPEGMD@Pop?5Message?5failed?5failed?5in?5Run@ 00427db4     MonitorSchedule.obj
 0002:00001df0       ??_C@_07DLHCIBDH@default?$AA@ 00427df0     MonitorSchedule.obj
 0002:00001df8       ??_C@_09IPAEKDAI@localhost?$AA@ 00427df8     MonitorSchedule.obj
 0002:00001e04       ??_7?$sorttree@V?$hashelement@Vword@svutil@@PAVTask@@@svutil@@@svutil@@6B@ 00427e04     MonitorSchedule.obj
 0002:00001e08       ??_C@_03OFAPEBGM@?$CFs?6?$AA@ 00427e08     MonitorSchedule.obj
 0002:00001e0c       ??_C@_0BB@LOANPNJH@Open?5file?5failed?$AA@ 00427e0c     MonitorSchedule.obj
 0002:00001e20       ??_C@_0O@HJCOBDKN@Create?5failed?$AA@ 00427e20     MonitorSchedule.obj
 0002:00001e30       ??_C@_07MJJJJMCG@push?5ok?$AA@ 00427e30     MonitorSchedule.obj
 0002:00001e38       ??_C@_09KGLGAPFC@Create?5ok?$AA@ 00427e38     MonitorSchedule.obj
 0002:00001e44       ??_C@_01EEMJAFIK@?6?$AA@   00427e44     MonitorSchedule.obj
 0002:00001e48       ??_C@_01LIIJDEN@?$AN?$AA@  00427e48     MonitorSchedule.obj
 0002:00001e4c       ??_C@_02CBLLGHLK@r?$CL?$AA@ 00427e4c     MonitorSchedule.obj
 0002:00001e50       ??_C@_0BJ@IDJBHEIG@?$CFs?1MonitorManager?1?$CFs?4txt?$AA@ 00427e50     MonitorSchedule.obj
 0002:00001e6c       ??_C@_0BB@EOLFOCDC@Create?5exception?$AA@ 00427e6c     MonitorSchedule.obj
 0002:00001e80       ??_C@_08COMDHBON@len?5?3?$CFd?6?$AA@ 00427e80     MonitorSchedule.obj
 0002:00001e8c       ??_C@_0L@IBJCMAFA@label?5?3?$CFs?6?$AA@ 00427e8c     MonitorSchedule.obj
 0002:00001e98       ??_C@_0N@IKGPHILO@Exit?5process?$AA@ 00427e98     MonitorSchedule.obj
 0002:00001ea8       ??_C@_0DJ@ONBABEIK@?$EA?$EA?$EA?$EA?$EA?$EA?$EA?$EA?$EA?$EA?$EA?$EA?$EA?$EA?$EA?$EA?$EA?$EA?$EA?$EA?$EACOMMUNICATI@ 00427ea8     MonitorSchedule.obj
 0002:00001ee4       ??_C@_0BL@NJEBMHAC@Parent?5process?5isn?8t?5exist?$AA@ 00427ee4     MonitorSchedule.obj
 0002:00001f00       ??_C@_0CG@EPCAALMK@Create?5event?5of?5communication?5?5f@ 00427f00     MonitorSchedule.obj
 0002:00001f28       ??_C@_0BO@GKBOFLJB@Global?2Siteview?9Communictions?$AA@ 00427f28     MonitorSchedule.obj
 0002:00001f48       ??_C@_0M@COPBGLJN@Refresh_END?$AA@ 00427f48     MonitorSchedule.obj
 0002:00001f54       ??_C@_0M@FIIINBPP@Refresh?5end?$AA@ 00427f54     MonitorSchedule.obj
 0002:00001f60       ??_C@_08BNACBFOL@eeeeeeee?$AA@ 00427f60     MonitorSchedule.obj
 0002:00001f6c       ??_C@_0BH@GMAKLKD@Refresh?5Monitors?5empty?$AA@ 00427f6c     MonitorSchedule.obj
 0002:00001f84       ??_C@_0BE@ODKJPBLG@Parameter?3?$CFs?0?$CFs?0?$CFs?6?$AA@ 00427f84     MonitorSchedule.obj
 0002:00001f98       ??_C@_0BD@KKHPGBEA@Monitor?5list?5empty?$AA@ 00427f98     MonitorSchedule.obj
 0002:00001fac       ??_C@_0BH@CPLBAGDL@Monitor?5counts?5is?5?3?$CFd?6?$AA@ 00427fac     MonitorSchedule.obj
 0002:00001fc4       ??_C@_02CIKBGMLM@?9e?$AA@  00427fc4     MonitorSchedule.obj
 0002:00001fc8       ??_C@_0BG@OHEKBIGI@Create?5Monitor?5failed?$AA@ 00427fc8     MonitorSchedule.obj
 0002:00001fe0       ??_C@_0BM@BKLPBNGF@Create?5Option?5object?5failed?$AA@ 00427fe0     MonitorSchedule.obj
 0002:00001ffc       ??_C@_0O@DKOMNNKD@Begin?5refresh?$AA@ 00427ffc     MonitorSchedule.obj
 0002:0000200c       ??_C@_0BA@ODMDFNCK@Parameter?5error?$AA@ 0042800c     MonitorSchedule.obj
 0002:0000201c       ??_C@_06DKODENEM@D?3?2v70?$AA@ 0042801c     MonitorSchedule.obj
 0002:00002024       ??_C@_0BH@OCJGEBAB@SiteView70?9ConfigTrack?$AA@ 00428024     MonitorSchedule.obj
 0002:0000203c       ??_7out_of_range@std@@6B@  0042803c     MonitorSchMain.obj
 0002:00002044       ??_7CommunicationThread@@6B@ 00428044     MonitorSchMain.obj
 0002:0000205c       ??_7ScheduleThread@@6B@    0042805c     MonitorSchMain.obj
 0002:00002074       ??_C@_0M@HGDNMOCL@PreLoad?3?$CFs?6?$AA@ 00428074     MonitorSchMain.obj
 0002:00002080       ??_C@_0P@OJKKMJNH@?$CFs?1fcgi?9bin?1?$CFs?$AA@ 00428080     MonitorSchMain.obj
 0002:00002090       ??_C@_0BF@BLHLOIID@SerialData?5exception?$AA@ 00428090     MonitorSchMain.obj
 0002:000020a8       ??_C@_0CG@POBFDFOL@?$CFs?1temp?1MonitorScheduleSerialDat@ 004280a8     MonitorSchMain.obj
 0002:000020d0       ??_C@_0CD@LINIEKLA@Create?5communication?5thread?5fail@ 004280d0     MonitorSchMain.obj
 0002:000020f4       ??_C@_0BN@LAHKCMAL@Create?5schdule?5thread?5failed?$AA@ 004280f4     MonitorSchMain.obj
 0002:00002114       ??_C@_0BG@PLMGMAEI@Monitor?5list?5is?5empty?$AA@ 00428114     MonitorSchMain.obj
 0002:0000212c       ??_C@_01KDCPPGHE@r?$AA@    0042812c     MonitorSchMain.obj
 0002:00002130       ??_C@_0BM@INHHDILN@Create?5option?5object?5failed?$AA@ 00428130     MonitorSchMain.obj
 0002:0000214c       ??_C@_0P@EBHJPAIL@Add?5Monitor?5Ok?$AA@ 0042814c     MonitorSchMain.obj
 0002:0000215c       ??_C@_0BB@NMJODGP@Get?5edit?5monitor?$AA@ 0042815c     MonitorSchMain.obj
 0002:00002170       ??_C@_0CK@PHKPLIGE@Create?5monitor?5failed?5while?5upda@ 00428170     MonitorSchMain.obj
 0002:0000219c       ??_C@_0BG@GPIPCGPG@Create?5monitor?5failed?$AA@ 0042819c     MonitorSchMain.obj
 0002:000021b4       ??_C@_0P@KCMOAJFO@In?5Add?5Monitor?$AA@ 004281b4     MonitorSchMain.obj
 0002:000021c4       ??_C@_0BM@PAPJHAGI@invalid?5map?1set?$DMT?$DO?5iterator?$AA@ 004281c4     MonitorSchMain.obj
 0002:000021e0       ??_7MonitorSchMain@@6B@    004281e0     MonitorSchMain.obj
 0002:000021e4       ??_C@_0N@HIJAOLDA@Add?5group?5ok?$AA@ 004281e4     MonitorSchMain.obj
 0002:000021f4       ??_C@_0CI@KMELCGME@Create?5group?5failed?5while?5update@ 004281f4     MonitorSchMain.obj
 0002:0000221c       ??_C@_0M@JKBGGIP@In?5AddGroup?$AA@ 0042821c     MonitorSchMain.obj
 0002:00002228       ??_C@_0O@EKLHKEHP@Add?5Entity?5ok?$AA@ 00428228     MonitorSchMain.obj
 0002:00002238       ??_C@_0CJ@PENADMNH@Create?5entity?5failed?5while?5updat@ 00428238     MonitorSchMain.obj
 0002:00002264       ??_C@_0O@NJAIJLAF@In?5Add?5Entity?$AA@ 00428264     MonitorSchMain.obj
 0002:00002274       ??_C@_04KKJBFIJG@TASK?$AA@ 00428274     MonitorSchMain.obj
 0002:0000227c       ??_C@_05NAIABEH@GROUP?$AA@ 0042827c     MonitorSchMain.obj
 0002:00002284       ??_C@_06GKLBAPIO@ENTITY?$AA@ 00428284     MonitorSchMain.obj
 0002:0000228c       ??_C@_06FKDAMKFP@DELETE?$AA@ 0042828c     MonitorSchMain.obj
 0002:00002294       ??_C@_06HHJABCJL@UPDATE?$AA@ 00428294     MonitorSchMain.obj
 0002:0000229c       ??_C@_06EBDFEDAJ@ADDNEW?$AA@ 0042829c     MonitorSchMain.obj
 0002:000022a4       ??_C@_07ENJDMOMA@MONITOR?$AA@ 004282a4     MonitorSchMain.obj
 0002:000022ac       ??_C@_0BG@LMGENGAM@InProcessConfigChange?$AA@ 004282ac     MonitorSchMain.obj
 0002:000022c4       ??_C@_01HIHLOKLC@1?$AA@    004282c4     MonitorSchMain.obj
 0002:000022c8       ??_C@_04GPMDFGEJ@type?$AA@ 004282c8     MonitorSchMain.obj
 0002:000022d0       ??_C@_0BM@DAFDJKHJ@?$CFd?9?$CF02d?9?$CF02d?5?$CF02d?3?$CF02d?3?$CF02d?$AA@ 004282d0     MonitorThread.obj
 0002:000022ec       ??_C@_09DPNCKCBF@?$CBcontains?$AA@ 004282ec     MonitorThread.obj
 0002:000022f8       ??_C@_08JKMOLGCD@contains?$AA@ 004282f8     MonitorThread.obj
 0002:00002304       ??_C@_02EHCHHCKH@?$DM?$DN?$AA@ 00428304     MonitorThread.obj
 0002:00002308       ??_C@_02EEKDKGMJ@?$DO?$DN?$AA@ 00428308     MonitorThread.obj
 0002:0000230c       ??_C@_01MNNFJEPP@?$DM?$AA@ 0042830c     MonitorThread.obj
 0002:00002310       ??_C@_01PPODPGHN@?$DO?$AA@ 00428310     MonitorThread.obj
 0002:00002314       ??_C@_02FDNJECIE@?$CB?$DN?$AA@ 00428314     MonitorThread.obj
 0002:00002318       ??_C@_02EGOFBIJA@?$DN?$DN?$AA@ 00428318     MonitorThread.obj
 0002:0000231c       ??_C@_0DA@LHLAIABH@GetMessageData?5failed2?5in?5RunInP@ 0042831c     MonitorThread.obj
 0002:0000234c       ??_C@_0CN@DCFBGIDL@Return?5data?5too?5big?5in?5RunInProc@ 0042834c     MonitorThread.obj
 0002:0000237c       ??_C@_0CL@NJMKJCHL@Return?5data?5error?5in?5RunInProces@ 0042837c     MonitorThread.obj
 0002:000023a8       ??_C@_0CP@EKBANMBJ@GetMessageData?5failed?5in?5RunInPr@ 004283a8     MonitorThread.obj
 0002:000023d8       ??_C@_0DA@MKCJNPGI@Receive?5messgae?5failed?5in?5RunInP@ 004283d8     MonitorThread.obj
 0002:00002408       ??_C@_0CP@GMCAPNHE@Create?5process?5failed?5in?5RunInPr@ 00428408     MonitorThread.obj
 0002:00002438       ??_C@_09OJMDMBJI@error?3?$CFd?6?$AA@ 00428438     MonitorThread.obj
 0002:00002444       ??_C@_08HLKDIFPF@dir?5?3?$CFs?6?$AA@ 00428444     MonitorThread.obj
 0002:00002450       ??_C@_0BB@EHFLIOOB@CommandLine?5?3?$CFs?6?$AA@ 00428450     MonitorThread.obj
 0002:00002464       ??_C@_0N@EIBEEKIA@?$CFs?2fcgi?9bin?2?$AA@ 00428464     MonitorThread.obj
 0002:00002474       ??_C@_0CG@NHIMFGNN@?$CFs?2fcgi?9bin?2MonitorSchedule?4exe?5@ 00428474     MonitorThread.obj
 0002:0000249c       ??_C@_0CK@NCGHLLJB@Get?5data?5failed2?5in?5RunInProcess@ 0042849c     MonitorThread.obj
 0002:000024c8       ??_C@_0CP@HNBAPGGM@Malloc?5memmory?5failed?5in?5RunInPr@ 004284c8     MonitorThread.obj
 0002:000024f8       ??_C@_0CM@LPGCBDMF@PushMessage?5failed?5in?5RunInProce@ 004284f8     MonitorThread.obj
 0002:00002524       ??_C@_06IAAJIKIE@InData?$AA@ 00428524     MonitorThread.obj
 0002:0000252c       ??_C@_0CJ@CNPCJMEB@Get?5data?5failed?5in?5RunInProcess?5@ 0042852c     MonitorThread.obj
 0002:00002558       ??_C@_0BH@IGJPFBMJ@SiteView_RunMonitor_?$CFd?$AA@ 00428558     MonitorThread.obj
 0002:00002570       ??_C@_0CK@DONCMLPK@Monitor?5is?5empty?5in?5RunInProcess@ 00428570     MonitorThread.obj
 0002:0000259c       ??_C@_0CA@LDKDPKBK@Malloc?5memmory?5failed?5for?5inbuf?$AA@ 0042859c     MonitorThread.obj
 0002:000025bc       ??_C@_05OMNIFHIN@?$CF0?42f?$AA@ 004285bc     MonitorThread.obj
 0002:000025c4       ??_C@_02DPKJAMEF@?$CFd?$AA@ 004285c4     MonitorThread.obj
 0002:000025c8       ??_C@_04CGFJFPFD@none?$AA@ 004285c8     MonitorThread.obj
 0002:000025d0       ??_C@_06KHDOHNKC@always?$AA@ 004285d0     MonitorThread.obj
 0002:000025d8       ??_C@_0BN@ECGJGGAO@Refresh?5?3?5PushMessage?5failed?$AA@ 004285d8     MonitorThread.obj
 0002:000025f8       ??_C@_0L@EEDHOIGH@Refresh_OK?$AA@ 004285f8     MonitorThread.obj
 0002:00002604       ??_C@_08OODBKCDL@defaulet?$AA@ 00428604     MonitorThread.obj
 0002:00002610       ??_C@_0CO@CPHJELHI@MonitorId?3?$CFs?0MonitorType?3?$CFd?0stat@ 00428610     MonitorThread.obj
 0002:00002640       ??_C@_0BD@FFBGGDBK@Make?5record?5failed?$AA@ 00428640     MonitorThread.obj
 0002:00002654       ??_C@_0BD@IAPAOBID@Make?5result?5failed?$AA@ 00428654     MonitorThread.obj
 0002:00002668       ??_C@_0BF@IBAAHGOJ@Return?5value?5is?5NULL?$AA@ 00428668     MonitorThread.obj
 0002:00002680       ??_C@_0CB@FLKOHBGO@Process?5result?5?9?9?5string?5too?5big@ 00428680     MonitorThread.obj
 0002:000026a4       ??_C@_0CF@PDPKBCHG@ParserResult?5error?5unknown?5type?5@ 004286a4     MonitorThread.obj
 0002:000026cc       ??_C@_07JKFHKGEB@?$CFs?$DN?$CFs?0?5?$AA@ 004286cc     MonitorThread.obj
 0002:000026d4       ??_C@_0L@OEJPABKB@?$CFs?$DN?$CF0?42f?0?5?$AA@ 004286d4     MonitorThread.obj
 0002:000026e0       ??_C@_07FHJJMJGH@?$CFs?$DN?$CFd?0?5?$AA@ 004286e0     MonitorThread.obj
 0002:000026e8       ??_C@_0BG@ELBFGNJG@Return?5value?5is?5empty?$AA@ 004286e8     MonitorThread.obj
 0002:00002700       ??_7MonitorThread@@6B@     00428700     MonitorThread.obj
 0002:00002718       ??_C@_0M@OBPHACEC@Work?5thread?$AA@ 00428718     MonitorThread.obj
 0002:00002724       ??_C@_03BOPJPIAM@and?$AA@  00428724     MonitorThread.obj
 0002:00002728       ??_C@_02FODMLBIE@or?$AA@   00428728     MonitorThread.obj
 0002:0000272c       ??_C@_05KHAAJFEE@dddd2?$AA@ 0042872c     MonitorThread.obj
 0002:00002734       ??_C@_0BL@CCPCOPBL@Parser?5monitor?5state?5error?$AA@ 00428734     MonitorThread.obj
 0002:00002750       ??_C@_0BC@NBPKJOIJ@No?5state?5be?5match?$AA@ 00428750     MonitorThread.obj
 0002:00002764       ??_C@_0BM@DJALOLKD@Return?5string?5value?5too?5big?$AA@ 00428764     MonitorThread.obj
 0002:00002780       ??_C@_0CH@BGOCKFJK@ParserResult?5error?5return?5value?5@ 00428780     MonitorThread.obj
 0002:000027a8       ??_C@_09NNKKCEBL@name?5?3?$CFs?6?$AA@ 004287a8     MonitorThread.obj
 0002:000027b4       ??_C@_05KKCIMGE@error?$AA@ 004287b4     MonitorThread.obj
 0002:000027bc       ??_C@_0DO@KOBGHNKJ@?9?9?9?9?9?9?9?9?9?9?9?9?9?9?9?9?9?9?9?9?9?9?9?9?9End?5ret@ 004287bc     MonitorThread.obj
 0002:000027fc       ??_C@_06BAKFFEGN@?$CFs?$DN?$CFs?6?$AA@ 004287fc     MonitorThread.obj
 0002:00002804       ??_C@_0DN@PHDDFDJC@?6?9?9?9?9?9?9?9?9?9?9?9?9?9?9?9?9?9?9?9?9?9?9?9?9Return?5@ 00428804     MonitorThread.obj
 0002:00002844       ??_C@_0BJ@LDLKKICI@Build?5return?5data?5failed?$AA@ 00428844     MonitorThread.obj
 0002:00002860       ??_C@_0BG@LNJMHBDP@Error?3Set?5state?5error?$AA@ 00428860     MonitorThread.obj
 0002:00002878       ??_C@_0O@KLOAMOGB@?4?4?4?4?4?$CFs?4?4?4?4?4?6?$AA@ 00428878     MonitorThread.obj
 0002:00002888       ??_C@_0DH@MCIGBLIO@?9?9?9?9?9?9?9?9?9?9?9?9?9?9?9?9End?5input?5parame@ 00428888     MonitorThread.obj
 0002:000028c0       ??_C@_0DI@LANHKPNL@?6?9?9?9?9?9?9?9?9?9?9?9?9?9?9?9?9?9Input?5paramete@ 004288c0     MonitorThread.obj
 0002:000028f8       ??_C@_0DH@NMAEPFAK@?9?9?9?9?9?9?9?9?9?9?9?9?9?9?9?9?9End?5load?5librar@ 004288f8     MonitorThread.obj
 0002:00002930       ??_C@_0BC@HBIOKDBG@Function?5name?3?$CFs?6?$AA@ 00428930     MonitorThread.obj
 0002:00002944       ??_C@_0BB@MAHGPIEF@Library?5name?3?$CFs?6?$AA@ 00428944     MonitorThread.obj
 0002:00002958       ??_C@_0DH@ECHEPDHL@?9?9?9?9?9?9?9?9?9?9?9?9?9?9?9?9?9Load?5library?9?9?9@ 00428958     MonitorThread.obj
 0002:00002990       ??_C@_0CC@EBGODKGI@RunMonitor?9Function?5name?5is?5empt@ 00428990     MonitorThread.obj
 0002:000029b4       ??_C@_0DE@CKEBKLBI@?$DN?$DN?$DN?$DN?$DN?$DN?$DN?$DN?$DN?$DN?$DN?$DN?$DN?$DN?$DN?$DN?$DNDemo?5mode?$DN?$DN?$DN?$DN?$DN?$DN@ 004289b4     MonitorThread.obj
 0002:000029e8       ??_C@_0BA@FDBPJKBO@Monitor?5is?5NULL?$AA@ 004289e8     MonitorThread.obj
 0002:000029f8       ??_C@_0CF@CKIHHJPD@Thread?5?5exit?5by?5exception?0?5threa@ 004289f8     MonitorThread.obj
 0002:00002a20       ??_C@_0CJ@DDLOPBPP@Executent?5monitor?5exception?0Moni@ 00428a20     MonitorThread.obj
 0002:00002a4c       ??_C@_0BD@EIBIEDMG@?$CFs?0?$CFs?0MonitorID?3?$CFs?$AA@ 00428a4c     MonitorThread.obj
 0002:00002a60       ??_C@_0BD@KIEJNJGK@Init?5socket?5failed?$AA@ 00428a60     MonitorThread.obj
 0002:00002a74       ??_C@_0BK@OGJDDKA@MonitorThread?5wait?5failed?$AA@ 00428a74     MonitorThread.obj
 0002:00002a90       ??_C@_0P@OFIOIKFL@In?5Thread?5?3?$CFs?6?$AA@ 00428a90     MonitorThread.obj
 0002:00002aa0       ??_C@_0CK@NDPCMGE@CoInitialize?5failed?5when?5create?5@ 00428aa0     MonitorThread.obj
 0002:00002acc       ??_C@_0BI@JNFJPIOH@Update?5config?5exception?$AA@ 00428acc     ommunicationThread.obj
 0002:00002ae4       ??_C@_0DH@IFDEAPCF@?9?9?9?9?9?9?9?9?9?9?9?9Config?5update?3OPT?3?$CFs@ 00428ae4     ommunicationThread.obj
 0002:00002b1c       ??_C@_0BH@PPHCKACI@configtq?3?$CFs?0scaddr?3?$CFs?6?$AA@ 00428b1c     ommunicationThread.obj
 0002:00002b34       ??_C@_03HCMCBFLP@_?$CFd?$AA@ 00428b34     ommunicationThread.obj
 0002:00002b38       ??_C@_0BG@IPBNEDAD@GetMonitorRandomValue?$AA@ 00428b38     Option.obj
 0002:00002b50       ??_C@_0BD@BGPFHAHE@GetRandomValue?4dll?$AA@ 00428b50     Option.obj
 0002:00002b68       ??_C@_0EN@OAOPOKND@Monitor?4dll?0AimParser?4dll?0NTPerf@ 00428b68     Option.obj
 0002:00002bb8       ??_C@_0P@MDHIJODC@UseLocalBuffer?$AA@ 00428bb8     Option.obj
 0002:00002bc8       ??_C@_0M@FJGFLLPA@information?$AA@ 00428bc8     Option.obj
 0002:00002bd4       ??_C@_09BNBNBJLL@CheckTime?$AA@ 00428bd4     Option.obj
 0002:00002be0       ??_C@_0L@HPMGBIOI@ServerHost?$AA@ 00428be0     Option.obj
 0002:00002bec       ??_C@_04BPKCJLI@SEID?$AA@  00428bec     Option.obj
 0002:00002bf4       ??_C@_0N@GILKEGBN@DemoFunction?$AA@ 00428bf4     Option.obj
 0002:00002c04       ??_C@_0M@LNCPGDFN@DemoLibrary?$AA@ 00428c04     Option.obj
 0002:00002c10       ??_C@_0P@PLKHAMGL@PreLoadLibrary?$AA@ 00428c10     Option.obj
 0002:00002c20       ??_C@_0BA@GGPFGLLN@MonitorSchedule?$AA@ 00428c20     Option.obj
 0002:00002c30       ??_C@_08IFDCAAJM@DemoMode?$AA@ 00428c30     Option.obj
 0002:00002c3c       ??_C@_0BG@BCDLAJLI@?$CFs?1fcgi?9bin?1mc?4config?$AA@ 00428c3c     Option.obj
 0002:00002c54       ??_7QueueItem@@6B@         00428c54     QueueItem.obj
 0002:00002c58       ??_C@_0BB@MDMKLOLD@?$CFs?5has?5in?5queue?6?$AA@ 00428c58     QueueItem.obj
 0002:00002c6c       ??_7QueuesManager@@6B@     00428c6c     QueuesManager.obj
 0002:00002c70       ??_C@_0CB@GOJDKLND@Queue?5name?3?$CFs?9?9Monitor?5count?3?$CFd?6@ 00428c70     QueuesManager.obj
 0002:00002c94       ??_C@_0CA@LOGPADMM@Error?5?3?5Create?5main?5queue?5error?$AA@ 00428c94     QueuesManager.obj
 0002:00002cb4       ??_C@_0O@BCGHPMGH@MainQueueName?$AA@ 00428cb4     QueuesManager.obj
 0002:00002cc4       ??_C@_0DM@JPOBCMBO@Error?5?3?5m_pSchMain?5is?5NULL?5when?5@ 00428cc4     QueuesManager.obj
 0002:00002d00       ??_7?$treenode@V?$hashelement@Vword@svutil@@PAVTask@@@svutil@@@svutil@@6B@ 00428d00     readSVDB.obj
 0002:00002d04       ??_C@_0BE@JONHPENG@map?1set?$DMT?$DO?5too?5long?$AA@ 00428d04     readSVDB.obj
 0002:00002d18       ??_C@_08NLHBPEGP@password?$AA@ 00428d18     readSVDB.obj
 0002:00002d24       ??_C@_07JMHMLHHN@sv_type?$AA@ 00428d24     readSVDB.obj
 0002:00002d2c       ??_C@_07DHHPHHAN@sv_name?$AA@ 00428d2c     readSVDB.obj
 0002:00002d34       ??_C@_0P@MHFALFJ@sv_monitortype?$AA@ 00428d34     readSVDB.obj
 0002:00002d44       ??_C@_0L@GHBKOMKF@sv_endtime?$AA@ 00428d44     readSVDB.obj
 0002:00002d50       ??_C@_0P@IBIONABC@?$CFd?9?$CFd?9?$CFd?9?$CFd?3?$CFd?$AA@ 00428d50     readSVDB.obj
 0002:00002d60       ??_C@_0N@ICEJBPGE@sv_starttime?$AA@ 00428d60     readSVDB.obj
 0002:00002d70       ??_C@_04CLCEDBPF@time?$AA@ 00428d70     readSVDB.obj
 0002:00002d78       ??_C@_0L@OAHBFFC@sv_disable?$AA@ 00428d78     readSVDB.obj
 0002:00002d84       ??_C@_0O@CCOOCICD@sv_expression?$AA@ 00428d84     readSVDB.obj
 0002:00002d94       ??_C@_0BA@LGICCOFJ@sv_paramvalue?$CFd?$AA@ 00428d94     readSVDB.obj
 0002:00002da4       ??_C@_0N@BICCOAFN@sv_operate?$CFd?$AA@ 00428da4     readSVDB.obj
 0002:00002db4       ??_C@_0P@OGMJOHM@sv_paramname?$CFd?$AA@ 00428db4     readSVDB.obj
 0002:00002dc4       ??_C@_0BC@FODCJCHA@sv_conditioncount?$AA@ 00428dc4     readSVDB.obj
 0002:00002dd8       ??_C@_06LAFJNIHE@sv_run?$AA@ 00428dd8     readSVDB.obj
 0002:00002de0       ??_C@_07CMPMEKAE@sv_unit?$AA@ 00428de0     readSVDB.obj
 0002:00002de8       ??_C@_08KCGFJGDM@sv_label?$AA@ 00428de8     readSVDB.obj
 0002:00002df4       ??_C@_06KHAHGKPO@Total?3?$AA@ 00428df4     readSVDB.obj
 0002:00002dfc       ??_C@_05KGEAEGFG@Total?$AA@ 00428dfc     readSVDB.obj
 0002:00002e04       ??_C@_09JOFEILIG@PerEntity?$AA@ 00428e04     readSVDB.obj
 0002:00002e10       ??_C@_0P@PDBODGCK@subsequent?4ini?$AA@ 00428e10     readSVDB.obj
 0002:00002e20       ??_C@_05GAOAHFKE@sv_id?$AA@ 00428e20     readSVDB.obj
 0002:00002e28       ??_C@_0BJ@FDFMDGLH@FindETContrlFirst?5failed?$AA@ 00428e28     readSVDB.obj
 0002:00002e44       ??_C@_0BI@BBIPGNJB@FastGetEntityTPL?5failed?$AA@ 00428e44     readSVDB.obj
 0002:00002e5c       ??_C@_0CE@HIMICJOA@FindNodeValue?9?9sv_devicetype?5fai@ 00428e5c     readSVDB.obj
 0002:00002e80       ??_C@_0BP@PPHIBCG@GetEntityMainAttribNode?5failed?$AA@ 00428e80     readSVDB.obj
 0002:00002ea0       ??_C@_0BF@LLGPBLJJ@FastGetEntity?5failed?$AA@ 00428ea0     readSVDB.obj
 0002:00002eb8       ??_C@_05LLFFEDGF@end?$CFd?$AA@ 00428eb8     readSVDB.obj
 0002:00002ec0       ??_C@_01JLIPDDHJ@?3?$AA@   00428ec0     readSVDB.obj
 0002:00002ec4       ??_C@_01CLKCMJKC@?5?$AA@   00428ec4     readSVDB.obj
 0002:00002ec8       ??_C@_01IHBHIGKO@?0?$AA@   00428ec8     readSVDB.obj
 0002:00002ecc       ??_C@_07DLNFDAOO@start?$CFd?$AA@ 00428ecc     readSVDB.obj
 0002:00002ed4       ??_C@_01GBGANLPD@0?$AA@    00428ed4     readSVDB.obj
 0002:00002ed8       ??_C@_07JOFHFJEE@Allow?$CFd?$AA@ 00428ed8     readSVDB.obj
 0002:00002ee0       ??_C@_04KOACHJEN@Type?$AA@ 00428ee0     readSVDB.obj
 0002:00002ee8       ??_7ReturnValue@@6B@       00428ee8     ReturnValue.obj
 0002:00002eec       ??_C@_0CJ@NLLCMNLL@?$LM?$OA?$LC?b?F?w?$LB?$LL?$LM?$OA?J?$LB?$LN?$PL?V?$LJ?0?F?p?J?$LM?J?$LB?$LM?d?3?$CFs?0?V?U?V@ 00428eec     ScheduleThread.obj
 0002:00002f18       ??_C@_0CF@ECDDNBCA@?$LM?$OA?$LC?b?F?w?$LB?$LL?H?N?N?q?$LM?F?$LL?$KO?$LN?$PL?V?$LJ?0?H?N?N?q?$LM?F?$LL?$KO?C?$PL?$LD@ 00428f18     ScheduleThread.obj
 0002:00002f40       ??_C@_0CE@MJLBMCEO@?$LM?$OA?$LC?b?F?w?$LB?$LL?W?i?R?$MA?$LP?$LP?$LN?$PL?V?$LJ?K?y?R?$MA?$LP?$LP?$LM?$OA?$LC?b?F?wID@ 00428f40     ScheduleThread.obj
 0002:00002f64       ??_C@_0N@HMAIBABL@?$LM?$OA?$LC?b?F?w?$LB?$LL?$LN?$PL?V?$LJ?$AA@ 00428f64     ScheduleThread.obj
 0002:00002f74       ??_C@_0DH@LNKBENAH@?$CK?$CK?$CK?$CK?$CK?$CK?$CK?$CK?$CK?$CK?$CK?$CKSchedule?5thread?5exce@ 00428f74     ScheduleThread.obj
 0002:00002fac       ??_C@_0DJ@CNOMCNKI@?$CK?$CK?$CK?$CK?$CK?$CK?$CK?$CK?$CK?$CK?$CK?$CKSchedule?5thread?5erro@ 00428fac     ScheduleThread.obj
 0002:00002fe8       ??_C@_0EM@PJKGAEOB@?$DO?$DO?$DO?$DO?$DO?$DO?$DO?$DO?$DO?$DO?$DO?$DO?$DO?$DO?$DO?$DO?$DO?$DO?$DOTotal?5count?5i@ 00428fe8     ScheduleThread.obj
 0002:00003034       ??_C@_0BA@BPIDHNMI@Disable?5str?3?$CFs?6?$AA@ 00429034     ScheduleThread.obj
 0002:00003048       ??_C@_0EE@HMBHBFOA@?9?9?9?9?9?9?9?9?9?9?9?9?9?9?9?9?9?9?9?9?9?9?9Disable?5b@ 00429048     ScheduleThread.obj
 0002:0000308c       ??_C@_0DP@CGCCEOCJ@?9?9?9?9?9?9?9?9?9?9?9?9?9?9?9?9?9?9Disable?5by?5tas@ 0042908c     ScheduleThread.obj
 0002:000030cc       ??_C@_0DL@JEHCEPA@?$DN?$DN?$DN?$DN?$DN?$DN?$DN?$DN?$DN?$DNmonitorid?3?$CFs?9?9?9?9?9temp?5@ 004290cc     ScheduleThread.obj
 0002:00003108       ??_C@_0DG@HGMHJPKJ@?$DN?$DN?$DN?$DN?$DN?$DN?$DN?$DN?$DN?$DNmonitorid?3?$CFs?9?9?9?9?9disab@ 00429108     ScheduleThread.obj
 0002:00003140       ??_C@_0BF@OOCCECGP@Current?5time?5is?5?3?$CFs?6?$AA@ 00429140     ScheduleThread.obj
 0002:00003158       ??_7ThreadContrl@@6B@      00429158     ScheduleThread.obj
 0002:00003170       ??_C@_0CE@LCGHHEAH@Error?5?3?5Start?5threads?5contrl?5fai@ 00429170     ScheduleThread.obj
 0002:00003194       ??_C@_0CJ@GHIKFLMK@Error?5?3?5initialize?5threads?5contr@ 00429194     ScheduleThread.obj
 0002:000031c0       ??_C@_0BL@LGEOIOEN@IDS_TempDisableMonitorTime?$AA@ 004291c0     ScheduleThread.obj
 0002:000031dc       ??_C@_0BL@IPHPIPPC@IDS_DisableMonitorSchedule?$AA@ 004291dc     ScheduleThread.obj
 0002:000031f8       ??_C@_0BH@GGEAELEE@IDS_GroupDependMonitor?$AA@ 004291f8     ScheduleThread.obj
 0002:00003210       ??_C@_0BE@NDAHHCC@IDS_MonitorDisabled?$AA@ 00429210     ScheduleThread.obj
 0002:00003224       ??_C@_0BF@NKBLJJHD@Main?5dispatch?5thread?$AA@ 00429224     ScheduleThread.obj
 0002:0000323c       ??_C@_07MMLDEGLO@?$CFs?$DN?$CFs?$AN?6?$AA@ 0042923c     SerialData.obj
 0002:00003244       ??_C@_02PCIJFNDE@?$AN?6?$AA@ 00429244     SerialData.obj
 0002:00003248       ??_C@_02CBLDBPFN@?1?1?$AA@ 00429248     SerialData.obj
 0002:0000324c       ??_C@_0L@GJJHIEAE@?$FLTask_End?$FN?$AA@ 0042924c     SerialData.obj
 0002:00003258       ??_C@_0O@FLHJPJCN@?$FLTaskMap_End?$FN?$AA@ 00429258     SerialData.obj
 0002:00003268       ??_C@_0N@FEGMPFPC@?$FLTask_Begin?$FN?$AA@ 00429268     SerialData.obj
 0002:00003278       ??_C@_0BA@DOJOFFHG@?$FLTaskMap_Begin?$FN?$AA@ 00429278     SerialData.obj
 0002:00003288       ??_C@_0BB@NFDMFCMN@?$FLSubsequent_End?$FN?$AA@ 00429288     SerialData.obj
 0002:0000329c       ??_C@_0BD@CBOEFCLP@?$FLSubsequent_Begin?$FN?$AA@ 0042929c     SerialData.obj
 0002:000032b0       ??_C@_0N@OBIMKLGN@?$FLGroups_End?$FN?$AA@ 004292b0     SerialData.obj
 0002:000032c0       ??_C@_0P@ELICJAFO@?$FLGroups_Begin?$FN?$AA@ 004292c0     SerialData.obj
 0002:000032d0       ??_C@_0O@OAMKKKGC@?$FLMonitor_End?$FN?$AA@ 004292d0     SerialData.obj
 0002:000032e0       ??_C@_0BC@LKAKHPAN@?$FLMonitorList_End?$FN?$AA@ 004292e0     SerialData.obj
 0002:000032f4       ??_C@_0BA@LLBNLNEB@?$FLMonitor_Begin?$FN?$AA@ 004292f4     SerialData.obj
 0002:00003304       ??_C@_0BE@KPMBLGLC@?$FLMonitorList_Begin?$FN?$AA@ 00429304     SerialData.obj
 0002:00003318       ??_C@_0BC@GFFAJGOD@Data?5version?57?401?$AA@ 00429318     SerialData.obj
 0002:0000332c       ??_C@_0BO@LKIAPAJI@SiteView?5ECC?5serial?5data?5file?$AA@ 0042932c     SerialData.obj
 0002:0000334c       ??_C@_0BA@BGHMDAPH@?$FLTaskMap_End?$FN?$AN?6?$AA@ 0042934c     SerialData.obj
 0002:0000335c       ??_C@_0N@HMIOJAHD@?$FLTask_End?$FN?$AN?6?$AA@ 0042935c     SerialData.obj
 0002:0000336c       ??_C@_0P@BJGKKKBJ@?$FLTask_Begin?$FN?$AN?6?$AA@ 0042936c     SerialData.obj
 0002:0000337c       ??_C@_0BC@JAFDDOEM@?$FLTaskMap_Begin?$FN?$AN?6?$AA@ 0042937c     SerialData.obj
 0002:00003390       ??_C@_0BD@JAGDHDO@?$FLSubsequent_End?$FN?$AN?6?$AA@ 00429390     SerialData.obj
 0002:000033a4       ??_C@_0BF@BEAPNIJC@?$FLSubsequent_Begin?$FN?$AN?6?$AA@ 004293a4     SerialData.obj
 0002:000033bc       ??_C@_0P@GDGAPFNP@?$FLGroups_End?$FN?$AN?6?$AA@ 004293bc     SerialData.obj
 0002:000033cc       ??_C@_0BB@CGAANDMF@?$FLGroups_Begin?$FN?$AN?6?$AA@ 004293cc     SerialData.obj
 0002:000033e0       ??_C@_0BE@IHCDNDDD@?$FLMonitorList_End?$FN?$AN?6?$AA@ 004293e0     SerialData.obj
 0002:000033f4       ??_C@_0BA@JDPPNIMA@?$FLMonitor_End?$FN?$AN?6?$AA@ 004293f4     SerialData.obj
 0002:00003404       ??_C@_0BC@KOIFHBLB@?$FLMonitor_Begin?$FN?$AN?6?$AA@ 00429404     SerialData.obj
 0002:00003418       ??_C@_0BG@GMGAOJL@?$FLMonitorList_Begin?$FN?$AN?6?$AA@ 00429418     SerialData.obj
 0002:00003430       ??_C@_0BO@CNFKDPCJ@?1?1?$CK?$CK?$CK?$CKData?5version?57?401?$CK?$CK?$CK?$CK?$AN?6?$AA@ 00429430     SerialData.obj
 0002:00003450       ??_C@_0CK@NBGHNGHE@?1?1?$CK?$CK?$CK?$CKSiteView?5ECC?5serial?5data?5f@ 00429450     SerialData.obj
 0002:0000347c       ??_C@_01NOFIACDB@w?$AA@    0042947c     SerialData.obj
 0002:00003480       ??_7Subsequent@@6B@        00429480     Subsequent.obj
 0002:00003484       ??_C@_0O@NFAJKAMD@Item_Total_?$CFd?$AA@ 00429484     Subsequent.obj
 0002:00003494       ??_C@_0BC@EMFKJGHG@Item_PerEntity_?$CFd?$AA@ 00429494     Subsequent.obj
 0002:000034a8       ??_C@_0O@KGPJIDC@Item_Class_?$CFd?$AA@ 004294a8     Subsequent.obj
 0002:000034b8       ??_C@_0N@CKAFJMBL@ItemListSize?$AA@ 004294b8     Subsequent.obj
 0002:000034c8       ??_C@_0BK@OEOIOMLD@week_?$CFd_task_?$CFd_endminute?$AA@ 004294c8     Task.obj
 0002:000034e4       ??_C@_0BI@KFDFDCPF@week_?$CFd_task_?$CFd_endhour?$AA@ 004294e4     Task.obj
 0002:000034fc       ??_C@_0BM@PJDEGFLC@week_?$CFd_task_?$CFd_beginminute?$AA@ 004294fc     Task.obj
 0002:00003518       ??_C@_0BK@FHABNGKF@week_?$CFd_task_?$CFd_beginhour?$AA@ 00429518     Task.obj
 0002:00003534       ??_C@_0BB@DCAFICLF@week_?$CFd_tasksize?$AA@ 00429534     Task.obj
 0002:00003548       ??_C@_07PPGEDGLE@week_?$CFd?$AA@ 00429548     Task.obj
 0002:00003550       ??_C@_08OKFGHCFJ@taskname?$AA@ 00429550     Task.obj
 0002:0000355c       ??_C@_0BL@DCHDNGMB@eeeeeeeeeeeeeeeeeeeeeeeeee?$AA@ 0042955c     ThreadContrl.obj
 0002:00003578       ??_C@_0L@CDENFONM@eid?5is?3?$CFs?6?$AA@ 00429578     ThreadContrl.obj
 0002:00003584       ??_C@_0P@PNNENJOE@Work?5thread?5?$CFd?$AA@ 00429584     ThreadContrl.obj
 0002:00003594       ??_C@_0BC@HCCBKLLK@?$CK?$CK?$CK?$CK?$CKSuccess?$CK?$CK?$CK?$CK?$CK?$AA@ 00429594     ThreadContrl.obj
 0002:000035a8       ??_C@_0BC@MPMOOLEJ@?$CK?$CK?$CK?$CK?$CKTimeout?$CK?$CK?$CK?$CK?$CK?$AA@ 004295a8     ThreadContrl.obj
 0002:000035bc       ??_C@_0BL@CKNCPHPM@?$CK?$CK?$CK?$CK?$CKStart?5monitor?4?4?4?$CK?$CK?$CK?$CK?$CK?$AA@ 004295bc     ThreadContrl.obj
 0002:000035d8       ??_C@_0BG@IADFEHLC@Get?5Idle?5thread?5error?$AA@ 004295d8     ThreadContrl.obj
 0002:000035f0       ??_C@_0BC@MOLLFNMK@Task?5check?5thread?$AA@ 004295f0     ThreadContrl.obj
 0002:00003604       ??_C@_05IAOCCJNL@Enter?$AA@ 00429604     ThreadContrl.obj
 0002:0000360c       ??_C@_0CD@DGKGIDJF@Error?5?3?5Create?5QueueManager?5fail@ 0042960c     ThreadContrl.obj
 0002:00003630       ??_C@_0CE@MHDGOAMB@Monitor?5skip?5count?3?$CFd?0Monitor?5ID@ 00429630     ThreadContrl.obj
 0002:00003654       ??_C@_0CN@FGMKBLEG@Skip?5counts?5out?5of?5MAXSKIPCOUNT?0@ 00429654     ThreadContrl.obj
 0002:00003684       ??_C@_0BB@GIBOBFMF@Monitor?5is?5empty?$AA@ 00429684     ThreadContrl.obj
 0002:00003698       ??_C@_0CJ@DENKKNNJ@ThreadContrl?5dispatch?5thread?5exi@ 00429698     ThreadContrl.obj
 0002:000036c4       ??_C@_0CJ@DBFJCJEP@ThreadContrl?5dispatch?5thread?5exi@ 004296c4     ThreadContrl.obj
 0002:000036f0       ??_C@_0BD@OGAMPDKN@Contrl?5thread?5exit?$AA@ 004296f0     ThreadContrl.obj
 0002:00003704       ??_7ThreadEx@@6B@          00429704     ThreadEx.obj
 0002:0000371c       ??_C@_05OALCLBHC@?$CFs?7?$CFs?$AA@ 0042971c     Util.obj
 0002:00003724       ??_C@_0BC@CMNJFMFG@?1temp?1mserror?4log?$AA@ 00429724     Util.obj
 0002:00003738       ??_C@_09PFCHIMEP@127?40?40?41?$AA@ 00429738     Util.obj
 0002:00003744       ??_C@_0M@PBEHJCJG@InstallPath?$AA@ 00429744     Util.obj
 0002:00003750       ??_C@_0M@IFENNAEF@SVMQAddress?$AA@ 00429750     Util.obj
 0002:0000375c       ??_C@_0BP@BBHFKOOO@?$CFs?1MonitorManager?1siteview?4ini?$AA@ 0042975c     Util.obj
 0002:0000377c       ??_C@_07POIENIBA@Refresh?$AA@ 0042977c     Util.obj
 0002:00003798       ??_7type_info@@6B@         00429798     MSVCRT:ti_inst.obj
 0002:00003800       __load_config_used         00429800     MSVCRT:loadcfg.obj
 0002:000038a8       ??_R1A@?0A@A@type_info@@8  004298a8     MSVCRT:ti_inst.obj
 0002:000038c0       ??_R2type_info@@8          004298c0     MSVCRT:ti_inst.obj
 0002:000038c8       ??_R3type_info@@8          004298c8     MSVCRT:ti_inst.obj
 0002:000038d8       ??_R4type_info@@6B@        004298d8     MSVCRT:ti_inst.obj
 0002:000038f0       ___safe_se_handler_table   004298f0     <linker-defined>
 0002:00003bbc       ___rtc_iaa                 00429bbc     MSVCRT:initsect.obj
 0002:00003bc0       ___rtc_izz                 00429bc0     MSVCRT:initsect.obj
 0002:00003bc4       ___rtc_taa                 00429bc4     MSVCRT:initsect.obj
 0002:00003bc8       ___rtc_tzz                 00429bc8     MSVCRT:initsect.obj
 0002:00003bcc       __CT??_R0?AVexception@@@8??0exception@@QAE@ABV0@@Z12 00429bcc     Entity.obj
 0002:00003be8       __CT??_R0?AVbad_cast@@@8??0bad_cast@@QAE@ABV0@@Z12 00429be8     Entity.obj
 0002:00003c04       __CTA2?AVbad_cast@@        00429c04     Entity.obj
 0002:00003c10       __TI2?AVbad_cast@@         00429c10     Entity.obj
 0002:00003d78       __CT??_R0?AVMSException@@@8??0MSException@@QAE@ABV0@@Z280 00429d78     Groups.obj
 0002:00003d94       __CTA1?AVMSException@@     00429d94     Groups.obj
 0002:00003d9c       __TI1?AVMSException@@      00429d9c     Groups.obj
 0002:00003dd8       __CT??_R0?AVlogic_error@std@@@8??0logic_error@std@@QAE@ABV01@@Z40 00429dd8     Groups.obj
 0002:00003df4       __CT??_R0?AVlength_error@std@@@8??0length_error@std@@QAE@ABV01@@Z40 00429df4     Groups.obj
 0002:00003e10       __CTA3?AVlength_error@std@@ 00429e10     Groups.obj
 0002:00003e20       __TI3?AVlength_error@std@@ 00429e20     Groups.obj
 0002:00003eec       __CT??_R0?AVexception@svutil@@@8??0exception@svutil@@QAE@ABV01@@Z280 00429eec     Groups.obj
 0002:00003f08       __CTA1?AVexception@svutil@@ 00429f08     Groups.obj
 0002:00003f10       __TI1?AVexception@svutil@@ 00429f10     Groups.obj
 0002:000051fc       __CT??_R0?AVout_of_range@std@@@8??0out_of_range@std@@QAE@ABV01@@Z40 0042b1fc     MonitorSchMain.obj
 0002:00005218       __CTA3?AVout_of_range@std@@ 0042b218     MonitorSchMain.obj
 0002:00005228       __TI3?AVout_of_range@std@@ 0042b228     MonitorSchMain.obj
 0002:00006f28       __IMPORT_DESCRIPTOR_ccgnu2 0042cf28     ccgnu2:ccgnu2.dll
 0002:00006f3c       __IMPORT_DESCRIPTOR_svapi  0042cf3c     svapi:svapi.dll
 0002:00006f50       __IMPORT_DESCRIPTOR_WS2_32 0042cf50     ws2_32:WS2_32.dll
 0002:00006f64       __IMPORT_DESCRIPTOR_KERNEL32 0042cf64     kernel32:KERNEL32.dll
 0002:00006f78       __IMPORT_DESCRIPTOR_USER32 0042cf78     user32:USER32.dll
 0002:00006f8c       __IMPORT_DESCRIPTOR_ole32  0042cf8c     ole32:ole32.dll
 0002:00006fa0       __IMPORT_DESCRIPTOR_MSVCR71 0042cfa0     MSVCRT:MSVCR71.dll
 0002:00006fb4       __IMPORT_DESCRIPTOR_MSVCP71 0042cfb4     msvcprt:MSVCP71.dll
 0002:00006fc8       __NULL_IMPORT_DESCRIPTOR   0042cfc8     ccgnu2:ccgnu2.dll
 0003:00000000       ___xc_a                    00430000     MSVCRT:cinitexe.obj
 0003:00000050       ___xc_z                    00430050     MSVCRT:cinitexe.obj
 0003:00000054       ___xi_a                    00430054     MSVCRT:cinitexe.obj
 0003:00000058       ___xi_z                    00430058     MSVCRT:cinitexe.obj
 0003:00000060       ?map@@3PAY0BA@DA           00430060     Des.obj
 0003:00000160       ?key8@@3PAEA               00430160     Des.obj
 0003:00000168       ??_R0?AVexception@@@8      00430168     Entity.obj
 0003:00000180       ??_R0?AVbad_cast@@@8       00430180     Entity.obj
 0003:00000198       ??_R0?AVMSException@@@8    00430198     Groups.obj
 0003:000001b4       ??_R0?AVlogic_error@std@@@8 004301b4     Groups.obj
 0003:000001d4       ??_R0?AVlength_error@std@@@8 004301d4     Groups.obj
 0003:000001f4       ??_R0?AVexception@svutil@@@8 004301f4     Groups.obj
 0003:00000214       ??_R0?AVout_of_range@std@@@8 00430214     MonitorSchMain.obj
 0003:00000234       ?str_disable@@3PBDB        00430234     ScheduleThread.obj
 0003:00000238       ?str_gddisable@@3PBDB      00430238     ScheduleThread.obj
 0003:0000023c       ?str_taskplandisable@@3PBDB 0043023c     ScheduleThread.obj
 0003:00000240       ?str_tempdisable@@3PBDB    00430240     ScheduleThread.obj
 0003:00000244       ___security_cookie         00430244     MSVCRT:seccook.obj
 0003:00000250       ??_R0?AVtype_info@@@8      00430250     MSVCRT:ti_inst.obj
 0003:00000270       ___defaultmatherr          00430270     MSVCRT:merr.obj
 0003:00000308       ?key@@3PAEA                00430308     Des.obj
 0003:00000320       ?_Psave@?$_Facetptr@V?$ctype@D@std@@@std@@2PBVfacet@locale@2@B 00430320     Entity.obj
 0003:00000324       ?putil@@3PAVUtil@@A        00430324     MonitorSchedule.obj
 0003:00000328       ?g_pOption@@3PAVOption@@A  00430328     MonitorSchedule.obj
 0003:0000032c       ?pMain@@3PAVMonitorSchMain@@A 0043032c     MonitorSchedule.obj
 0003:00000330       ?g_ServerHost@@3V?$basic_string@DU?$char_traits@D@std@@V?$allocator@D@2@@std@@A 00430330     MonitorSchedule.obj
 0003:0000034c       ?g_strRootPath@@3VTString@@A 0043034c     MonitorSchedule.obj
 0003:00000360       ?g_QueueAddr@@3V?$basic_string@DU?$char_traits@D@std@@V?$allocator@D@2@@std@@A 00430360     MonitorSchedule.obj
 0003:0000037c       ?g_LastSchTime@@3VTTime@svutil@@A 0043037c     MonitorSchedule.obj
 0003:00000380       ?g_ConfigTrackQueueName@@3V?$basic_string@DU?$char_traits@D@std@@V?$allocator@D@2@@std@@A 00430380     MonitorSchedule.obj
 0003:0000039c       ?g_RefreshQueueName@@3V?$basic_string@DU?$char_traits@D@std@@V?$allocator@D@2@@std@@A 0043039c     MonitorSchedule.obj
 0003:000003b8       ?language_obj@readSVDB@@0PAXA 004303b8     readSVDB.obj
 0003:000003bc       ?EntityTPL@readSVDB@@0V?$map@V?$basic_string@DU?$char_traits@D@std@@V?$allocator@D@2@@std@@PAXU?$less@V?$basic_string@DU?$char_traits@D@std@@V?$allocator@D@2@@std@@@2@V?$allocator@U?$pair@$$CBV?$basic_string@DU?$char_traits@D@std@@V?$allocator@D@2@@std@@PAX@std@@@2@@std@@A 004303bc     readSVDB.obj
 0003:000003c8       ?Monitors@readSVDB@@0V?$map@V?$basic_string@DU?$char_traits@D@std@@V?$allocator@D@2@@std@@PAXU?$less@V?$basic_string@DU?$char_traits@D@std@@V?$allocator@D@2@@std@@@2@V?$allocator@U?$pair@$$CBV?$basic_string@DU?$char_traits@D@std@@V?$allocator@D@2@@std@@PAX@std@@@2@@std@@A 004303c8     readSVDB.obj
 0003:000003d4       ?MonitorTPL@readSVDB@@0V?$map@HPAXU?$less@H@std@@V?$allocator@U?$pair@$$CBHPAX@std@@@2@@std@@A 004303d4     readSVDB.obj
 0003:000003e0       ?Entities@readSVDB@@0V?$map@V?$basic_string@DU?$char_traits@D@std@@V?$allocator@D@2@@std@@PAXU?$less@V?$basic_string@DU?$char_traits@D@std@@V?$allocator@D@2@@std@@@2@V?$allocator@U?$pair@$$CBV?$basic_string@DU?$char_traits@D@std@@V?$allocator@D@2@@std@@PAX@std@@@2@@std@@A 004303e0     readSVDB.obj
 0003:000003f0       ?s_str_tempdisable@@3V?$basic_string@DU?$char_traits@D@std@@V?$allocator@D@2@@std@@A 004303f0     ScheduleThread.obj
 0003:0000040c       ?s_str_disable@@3V?$basic_string@DU?$char_traits@D@std@@V?$allocator@D@2@@std@@A 0043040c     ScheduleThread.obj
 0003:00000428       ?s_str_gddisable@@3V?$basic_string@DU?$char_traits@D@std@@V?$allocator@D@2@@std@@A 00430428     ScheduleThread.obj
 0003:00000444       ?s_str_taskplandisable@@3V?$basic_string@DU?$char_traits@D@std@@V?$allocator@D@2@@std@@A 00430444     ScheduleThread.obj
 0003:00000480       ?g_strSession@Util@@2VTString@@A 00430480     Util.obj
 0003:000004c8       __dowildcard               004304c8     MSVCRT:wildcard.obj
 0003:000004cc       __newmode                  004304cc     MSVCRT:_newmode.obj
 0003:000004d0       __commode                  004304d0     MSVCRT:xncommod.obj
 0003:000004d4       __fmode                    004304d4     MSVCRT:xtxtmode.obj
 0003:000004d8       __adjust_fdiv              004304d8     <common>
 0003:000004dc       ___onexitend               004304dc     <common>
 0003:000004e0       ___onexitbegin             004304e0     <common>

 entry point at        0001:00021250

 Static symbols

 0001:000014af       $L42824                    004024af f i Entity.obj
 0001:000016a1       $L43193                    004026a1 f i Entity.obj
 0001:00005219       $L50281                    00406219 f   LoadConfig.obj
 0001:000054a4       $L50325                    004064a4 f   LoadConfig.obj
 0001:00005c5f       $L52877                    00406c5f f i LoadConfig.obj
 0001:00006b1f       $L55161                    00407b1f f   LoadConfig.obj
 0001:00006db3       $L55253                    00407db3 f   LoadConfig.obj
 0001:00006fb1       $L55665                    00407fb1 f   LoadConfig.obj
 0001:000073d0       $L56225                    004083d0 f   LoadConfig.obj
 0001:0000afc2       $L54043                    0040bfc2 f   MonitorSchedule.obj
 0001:0000b499       $L54140                    0040c499 f   MonitorSchedule.obj
 0001:0000bd52       $L59477                    0040cd52 f   MonitorSchedule.obj
 0001:0000bf52       $L59602                    0040cf52 f   MonitorSchedule.obj
 0001:0000c74f       $L59840                    0040d74f f   MonitorSchedule.obj
 0001:0000c8e9       $L59842                    0040d8e9 f   MonitorSchedule.obj
 0001:0000d491       $L58089                    0040e491 f   MonitorSchMain.obj
 0001:0001323a       $L87613                    0041423a f   MonitorThread.obj
 0001:0001326e       $L87614                    0041426e f   MonitorThread.obj
 0001:00013370       $L87616                    00414370 f   MonitorThread.obj
 0001:0001354a       $L87861                    0041454a f   MonitorThread.obj
 0001:000135b4       $L87862                    004145b4 f   MonitorThread.obj
 0001:00013699       $L87863                    00414699 f   MonitorThread.obj
 0001:00013b71       $L48127                    00414b71 f   ommunicationThread.obj
 0001:00013b9b       $L48128                    00414b9b f   ommunicationThread.obj
 0001:000143e7       $L41508                    004153e7 f   ProcessMonitorData.obj
 0001:000158d7       $L59440                    004168d7 f i readSVDB.obj
 0001:00016a4e       $L63939                    00417a4e f i readSVDB.obj
 0001:00016a5a       $L63941                    00417a5a f i readSVDB.obj
 0001:0001878d       $L66125                    0041978d f i readSVDB.obj
 0001:00018799       $L66127                    00419799 f i readSVDB.obj
 0001:0001b3de       $L55104                    0041c3de f   ScheduleThread.obj
 0001:0001b41a       $L55105                    0041c41a f   ScheduleThread.obj
 0001:0001caee       $L22540                    0041daee f i stlini.obj
 0001:0001d028       $L25075                    0041e028 f i stlini.obj
 0001:0001d141       $L25990                    0041e141 f i stlini.obj
 0001:0001d31e       $L26828                    0041e31e f i stlini.obj
 0001:0001d9f8       $L28477                    0041e9f8 f i stlini.obj
 0001:0001db11       $L29093                    0041eb11 f i stlini.obj
 0001:00020326       $L56751                    00421326 f   ThreadContrl.obj
 0001:00020376       $L56752                    00421376 f   ThreadContrl.obj
 0001:00020683       $L44987                    00421683 f   Util.obj
 0001:00020794       $L45021                    00421794 f   Util.obj
 0001:00020fe6       _report_failure            00421fe6 f   MSVCRT:secchk.obj
 0001:00021570       $L42338                    00422570 f   Entity.obj
 0001:00021579       __ehhandler$??$use_facet@V?$ctype@D@std@@@std@@YAABV?$ctype@D@0@ABVlocale@0@@Z 00422579 f   Entity.obj
 0001:00021590       $L42433                    00422590 f   Entity.obj
 0001:00021590       $L42391                    00422590 f   Entity.obj
 0001:00021599       $L42392                    00422599 f   Entity.obj
 0001:00021599       $L42434                    00422599 f   Entity.obj
 0001:000215b3       __ehhandler$??$?HDU?$char_traits@D@std@@V?$allocator@D@1@@std@@YA?AV?$basic_string@DU?$char_traits@D@std@@V?$allocator@D@2@@0@ABV10@PBD@Z 004225b3 f   Entity.obj
 0001:000215b3       __ehhandler$??$?HDU?$char_traits@D@std@@V?$allocator@D@1@@std@@YA?AV?$basic_string@DU?$char_traits@D@std@@V?$allocator@D@2@@0@ABV10@0@Z 004225b3 f   Entity.obj
 0001:000215c0       $L42787                    004225c0 f   Entity.obj
 0001:000215c0       $L42699                    004225c0 f   Entity.obj
 0001:000215c0       $L42730                    004225c0 f   Entity.obj
 0001:000215c8       __ehhandler$??0sentry@?$basic_istream@DU?$char_traits@D@std@@@std@@QAE@AAV12@_N@Z 004225c8 f   Entity.obj
 0001:000215c8       __ehhandler$??0sentry@?$basic_ostream@DU?$char_traits@D@std@@@std@@QAE@AAV12@@Z 004225c8 f   Entity.obj
 0001:000215c8       __ehhandler$??1sentry@?$basic_ostream@DU?$char_traits@D@std@@@std@@QAE@XZ 004225c8 f   Entity.obj
 0001:000215e0       $L42825                    004225e0 f   Entity.obj
 0001:000215e8       $L42826                    004225e8 f   Entity.obj
 0001:000215f1       __ehhandler$??$?5DU?$char_traits@D@std@@V?$allocator@D@1@@std@@YAAAV?$basic_istream@DU?$char_traits@D@std@@@0@AAV10@AAV?$basic_string@DU?$char_traits@D@std@@V?$allocator@D@2@@0@@Z 004225f1 f   Entity.obj
 0001:00021600       $L43194                    00422600 f   Entity.obj
 0001:00021608       $L43322                    00422608 f   Entity.obj
 0001:00021610       __ehhandler$??$?6DU?$char_traits@D@std@@V?$allocator@D@1@@std@@YAAAV?$basic_ostream@DU?$char_traits@D@std@@@0@AAV10@ABV?$basic_string@DU?$char_traits@D@std@@V?$allocator@D@2@@0@@Z 00422610 f   Entity.obj
 0001:00021620       $L45314                    00422620 f   Groups.obj
 0001:00021620       $L45915                    00422620 f   Groups.obj
 0001:00021629       __ehhandler$??0logic_error@std@@QAE@ABV01@@Z 00422629 f   Groups.obj
 0001:00021629       __ehhandler$??1logic_error@std@@UAE@XZ 00422629 f   Groups.obj
 0001:00021640       $L45782                    00422640 f   Groups.obj
 0001:00021640       $L45764                    00422640 f   Groups.obj
 0001:00021648       $L45783                    00422648 f   Groups.obj
 0001:00021648       $L45765                    00422648 f   Groups.obj
 0001:00021653       __ehhandler$??0?$hashelement@Vword@svutil@@V12@@svutil@@QAE@ABVword@1@@Z 00422653 f   Groups.obj
 0001:00021653       __ehhandler$??0?$hashelement@Vword@svutil@@V12@@svutil@@QAE@ABVword@1@0@Z 00422653 f   Groups.obj
 0001:00021660       $L46006                    00422660 f   Groups.obj
 0001:00021660       $L45958                    00422660 f   Groups.obj
 0001:00021668       __ehhandler$??O?$treenode@V?$hashelement@Vword@svutil@@V12@@svutil@@@svutil@@QAE_NV01@@Z 00422668 f   Groups.obj
 0001:00021668       __ehhandler$??M?$treenode@V?$hashelement@Vword@svutil@@V12@@svutil@@@svutil@@QAE_NV01@@Z 00422668 f   Groups.obj
 0001:00021680       $L46311                    00422680 f   Groups.obj
 0001:00021680       $L46932                    00422680 f   Groups.obj
 0001:0002168b       __ehhandler$??0?$treenode@V?$hashelement@Vword@svutil@@V12@@svutil@@@svutil@@QAE@ABV?$hashelement@Vword@svutil@@V12@@1@@Z 0042268b f   Groups.obj
 0001:0002168b       __ehhandler$??0?$treenode@V?$hashelement@Vword@svutil@@V12@@svutil@@@svutil@@QAE@ABV01@@Z 0042268b f   Groups.obj
 0001:000216a0       $L48622                    004226a0 f   Groups.obj
 0001:000216a0       $L48532                    004226a0 f   Groups.obj
 0001:000216a0       $L45892                    004226a0 f   Groups.obj
 0001:000216a9       $L48552                    004226a9 f   Groups.obj
 0001:000216a9       $L45896                    004226a9 f   Groups.obj
 0001:000216a9       $L48642                    004226a9 f   Groups.obj
 0001:000216b2       __ehhandler$?_Xlen@?$vector@PAV?$hashnode@Vword@svutil@@V12@@svutil@@V?$allocator@PAV?$hashnode@Vword@svutil@@V12@@svutil@@@std@@@std@@IBEXXZ 004226b2 f   Groups.obj
 0001:000216b2       __ehhandler$?_Incsize@?$list@PAVEntity@@V?$allocator@PAVEntity@@@std@@@std@@IAEXI@Z 004226b2 f   Groups.obj
 0001:000216b2       __ehhandler$?_Incsize@?$list@PAVGroupsItem@@V?$allocator@PAVGroupsItem@@@std@@@std@@IAEXI@Z 004226b2 f   Groups.obj
 0001:000216c0       $L48704                    004226c0 f   Groups.obj
 0001:000216c0       $L50370                    004226c0 f   Groups.obj
 0001:000216c8       __ehhandler$?insert@?$hashnode@Vword@svutil@@V12@@svutil@@QAEAAV?$hashelement@Vword@svutil@@V12@@2@ABVword@2@0@Z 004226c8 f   Groups.obj
 0001:000216c8       __ehhandler$?find@?$hashnode@Vword@svutil@@V12@@svutil@@QAE_NABVword@2@PAPAV?$hashelement@Vword@svutil@@V12@@2@@Z 004226c8 f   Groups.obj
 0001:000216e0       $L49557                    004226e0 f   Groups.obj
 0001:000216eb       $L49558                    004226eb f   Groups.obj
 0001:000216f6       __ehhandler$??1Groups@@UAE@XZ 004226f6 f   Groups.obj
 0001:00021700       $L50580                    00422700 f   Groups.obj
 0001:0002170b       __ehhandler$??0Groups@@QAE@XZ 0042270b f   Groups.obj
 0001:00021720       $L50841                    00422720 f   Groups.obj
 0001:0002172b       $L50842                    0042272b f   Groups.obj
 0001:00021736       $L50843                    00422736 f   Groups.obj
 0001:00021744       $L50844                    00422744 f   Groups.obj
 0001:0002174f       $L50845                    0042274f f   Groups.obj
 0001:0002175a       $L50846                    0042275a f   Groups.obj
 0001:00021765       $L50847                    00422765 f   Groups.obj
 0001:00021770       $L50848                    00422770 f   Groups.obj
 0001:0002177b       $L50849                    0042277b f   Groups.obj
 0001:00021789       $L50850                    00422789 f   Groups.obj
 0001:00021794       $L50851                    00422794 f   Groups.obj
 0001:0002179f       $L50852                    0042279f f   Groups.obj
 0001:000217aa       $L50853                    004227aa f   Groups.obj
 0001:000217b5       $L50854                    004227b5 f   Groups.obj
 0001:000217c0       $L50855                    004227c0 f   Groups.obj
 0001:000217cb       __ehhandler$?FromTextMap@Groups@@QAE_NAAV?$hashtable@Vword@svutil@@V12@@svutil@@@Z 004227cb f   Groups.obj
 0001:000217e0       $L51172                    004227e0 f   Groups.obj
 0001:000217e0       $L48024                    004227e0 f   Groups.obj
 0001:000217eb       __ehhandler$?insert@?$hashtable@Vword@svutil@@V12@@svutil@@QAEAAVword@2@ABV32@0@Z 004227eb f   Groups.obj
 0001:000217eb       __ehhandler$??$CreateNode@V?$hashelement@Vword@svutil@@V12@@svutil@@@?$sorttree@V?$hashelement@Vword@svutil@@V12@@svutil@@@svutil@@SAPAV?$treenode@V?$hashelement@Vword@svutil@@V12@@svutil@@@1@ABV?$hashelement@Vword@svutil@@V12@@1@@Z 004227eb f   Groups.obj
 0001:00021800       $L51385                    00422800 f   Groups.obj
 0001:00021808       __ehhandler$??A?$hashtable@Vword@svutil@@V12@@svutil@@QAEAAVword@1@ABV21@@Z 00422808 f   Groups.obj
 0001:00021820       $L51422                    00422820 f   Groups.obj
 0001:0002182b       $L51423                    0042282b f   Groups.obj
 0001:00021836       $L51424                    00422836 f   Groups.obj
 0001:00021841       $L51425                    00422841 f   Groups.obj
 0001:0002184c       $L51426                    0042284c f   Groups.obj
 0001:00021857       $L51427                    00422857 f   Groups.obj
 0001:00021862       $L51428                    00422862 f   Groups.obj
 0001:0002186d       $L51429                    0042286d f   Groups.obj
 0001:00021878       $L51430                    00422878 f   Groups.obj
 0001:00021883       $L51431                    00422883 f   Groups.obj
 0001:0002188e       $L51432                    0042288e f   Groups.obj
 0001:00021899       $L51433                    00422899 f   Groups.obj
 0001:000218a4       $L51434                    004228a4 f   Groups.obj
 0001:000218af       __ehhandler$?ToTextMap@Groups@@QAE_NAAV?$hashtable@Vword@svutil@@V12@@svutil@@@Z 004228af f   Groups.obj
 0001:000218c0       $L49603                    004228c0 f   LoadConfig.obj
 0001:000218c9       __ehhandler$?SetTaskName@Monitor@@QAEXV?$basic_string@DU?$char_traits@D@std@@V?$allocator@D@2@@std@@@Z 004228c9 f   LoadConfig.obj
 0001:000218e0       $L49738                    004228e0 f   LoadConfig.obj
 0001:000218ee       $L49739                    004228ee f   LoadConfig.obj
 0001:000218fc       $L49740                    004228fc f   LoadConfig.obj
 0001:0002190a       $L49741                    0042290a f   LoadConfig.obj
 0001:00021918       $L49742                    00422918 f   LoadConfig.obj
 0001:00021926       __ehhandler$?LoadAll@LoadConfig@@QAEHXZ 00422926 f   LoadConfig.obj
 0001:00021930       $L49780                    00422930 f   LoadConfig.obj
 0001:00021939       $L49781                    00422939 f   LoadConfig.obj
 0001:00021942       $L49783                    00422942 f   LoadConfig.obj
 0001:0002194b       $L49784                    0042294b f   LoadConfig.obj
 0001:00021957       $L49786                    00422957 f   LoadConfig.obj
 0001:00021963       $L49788                    00422963 f   LoadConfig.obj
 0001:0002196f       $L49790                    0042296f f   LoadConfig.obj
 0001:00021978       $L49791                    00422978 f   LoadConfig.obj
 0001:00021984       $L49792                    00422984 f   LoadConfig.obj
 0001:00021990       $L49793                    00422990 f   LoadConfig.obj
 0001:0002199c       $L49795                    0042299c f   LoadConfig.obj
 0001:000219a8       __ehhandler$?GetMonitorPro@LoadConfig@@AAEHPAVMonitor@@V?$basic_string@DU?$char_traits@D@std@@V?$allocator@D@2@@std@@@Z 004229a8 f   LoadConfig.obj
 0001:000219c0       $L50007                    004229c0 f   LoadConfig.obj
 0001:000219c9       $L50008                    004229c9 f   LoadConfig.obj
 0001:000219d2       $L50009                    004229d2 f   LoadConfig.obj
 0001:000219db       __ehhandler$?LoadCommonEntity@LoadConfig@@AAEHV?$basic_string@DU?$char_traits@D@std@@V?$allocator@D@2@@std@@AAV?$list@V?$basic_string@DU?$char_traits@D@std@@V?$allocator@D@2@@std@@V?$allocator@V?$basic_string@DU?$char_traits@D@std@@V?$allocator@D@2@@std@@@2@@3@@Z 004229db f   LoadConfig.obj
 0001:000219f0       $L50041                    004229f0 f   LoadConfig.obj
 0001:000219f9       $L50042                    004229f9 f   LoadConfig.obj
 0001:00021a05       $L50043                    00422a05 f   LoadConfig.obj
 0001:00021a11       __ehhandler$?GetReturnList@LoadConfig@@AAEHPAVMonitor@@H@Z 00422a11 f   LoadConfig.obj
 0001:00021a20       $L50096                    00422a20 f   LoadConfig.obj
 0001:00021a29       $L50097                    00422a29 f   LoadConfig.obj
 0001:00021a32       $L50098                    00422a32 f   LoadConfig.obj
 0001:00021a3b       $L50099                    00422a3b f   LoadConfig.obj
 0001:00021a47       $L50101                    00422a47 f   LoadConfig.obj
 0001:00021a53       $L50103                    00422a53 f   LoadConfig.obj
 0001:00021a5f       $L50105                    00422a5f f   LoadConfig.obj
 0001:00021a6b       __ehhandler$?LoadSingleEntity@LoadConfig@@AAEXPAVEntity@@V?$basic_string@DU?$char_traits@D@std@@V?$allocator@D@2@@std@@@Z 00422a6b f   LoadConfig.obj
 0001:00021a80       $L50282                    00422a80 f   LoadConfig.obj
 0001:00021a89       __ehhandler$?CreateSingleEntity@LoadConfig@@QAEHPAVEntity@@V?$basic_string@DU?$char_traits@D@std@@V?$allocator@D@2@@std@@@Z 00422a89 f   LoadConfig.obj
 0001:00021aa0       $L50326                    00422aa0 f   LoadConfig.obj
 0001:00021aa9       $L50327                    00422aa9 f   LoadConfig.obj
 0001:00021ab2       $L50328                    00422ab2 f   LoadConfig.obj
 0001:00021abb       $L50330                    00422abb f   LoadConfig.obj
 0001:00021ac4       $L50331                    00422ac4 f   LoadConfig.obj
 0001:00021acd       $L50333                    00422acd f   LoadConfig.obj
 0001:00021ad6       __ehhandler$?CreateSingleGroup@LoadConfig@@QAEHPAVGroupsItem@@V?$basic_string@DU?$char_traits@D@std@@V?$allocator@D@2@@std@@@Z 00422ad6 f   LoadConfig.obj
 0001:00021ae0       $L51059                    00422ae0 f   LoadConfig.obj
 0001:00021ae9       $L51060                    00422ae9 f   LoadConfig.obj
 0001:00021af2       $L51061                    00422af2 f   LoadConfig.obj
 0001:00021afb       $L51063                    00422afb f   LoadConfig.obj
 0001:00021b09       $L51066                    00422b09 f   LoadConfig.obj
 0001:00021b17       $L51069                    00422b17 f   LoadConfig.obj
 0001:00021b25       __ehhandler$?GetStateCondition@LoadConfig@@AAEHPAVMonitor@@V?$basic_string@DU?$char_traits@D@std@@V?$allocator@D@2@@std@@@Z 00422b25 f   LoadConfig.obj
 0001:00021b30       $L52878                    00422b30 f   LoadConfig.obj
 0001:00021b41       __ehhandler$?_Buynode@?$list@V?$basic_string@DU?$char_traits@D@std@@V?$allocator@D@2@@std@@V?$allocator@V?$basic_string@DU?$char_traits@D@std@@V?$allocator@D@2@@std@@@2@@std@@IAEPAU_Node@?$_List_nod@V?$basic_string@DU?$char_traits@D@std@@V?$allocator@D@2@@std@@V?$allocator@V?$basic_string@DU?$char_traits@D@std@@V?$allocator@D@2@@std@@@2@@2@PAU342@0ABV?$basic_string@DU?$char_traits@D@std@@V?$allocator@D@2@@2@@Z 00422b41 f   LoadConfig.obj
 0001:00021b50       $L52911                    00422b50 f   LoadConfig.obj
 0001:00021b50       $L53158                    00422b50 f   LoadConfig.obj
 0001:00021b59       $L53178                    00422b59 f   LoadConfig.obj
 0001:00021b59       $L52931                    00422b59 f   LoadConfig.obj
 0001:00021b62       __ehhandler$?_Incsize@?$list@PAVMonitor@@V?$allocator@PAVMonitor@@@std@@@std@@IAEXI@Z 00422b62 f   LoadConfig.obj
 0001:00021b62       __ehhandler$?_Incsize@?$list@V?$basic_string@DU?$char_traits@D@std@@V?$allocator@D@2@@std@@V?$allocator@V?$basic_string@DU?$char_traits@D@std@@V?$allocator@D@2@@std@@@2@@std@@IAEXI@Z 00422b62 f   LoadConfig.obj
 0001:00021b70       $L53698                    00422b70 f   LoadConfig.obj
 0001:00021b79       $L53699                    00422b79 f   LoadConfig.obj
 0001:00021b82       $L53700                    00422b82 f   LoadConfig.obj
 0001:00021b8e       $L53701                    00422b8e f   LoadConfig.obj
 0001:00021b9a       $L53702                    00422b9a f   LoadConfig.obj
 0001:00021ba6       $L53703                    00422ba6 f   LoadConfig.obj
 0001:00021bb2       $L53705                    00422bb2 f   LoadConfig.obj
 0001:00021bbe       $L53706                    00422bbe f   LoadConfig.obj
 0001:00021bca       $L53707                    00422bca f   LoadConfig.obj
 0001:00021bd6       $L53709                    00422bd6 f   LoadConfig.obj
 0001:00021be2       $L53711                    00422be2 f   LoadConfig.obj
 0001:00021bee       $L53712                    00422bee f   LoadConfig.obj
 0001:00021bfa       $L53713                    00422bfa f   LoadConfig.obj
 0001:00021c06       $L53714                    00422c06 f   LoadConfig.obj
 0001:00021c12       $L53715                    00422c12 f   LoadConfig.obj
 0001:00021c1e       $L53716                    00422c1e f   LoadConfig.obj
 0001:00021c2a       $L53717                    00422c2a f   LoadConfig.obj
 0001:00021c36       $L53719                    00422c36 f   LoadConfig.obj
 0001:00021c42       $L53720                    00422c42 f   LoadConfig.obj
 0001:00021c4e       $L53721                    00422c4e f   LoadConfig.obj
 0001:00021c5a       $L53722                    00422c5a f   LoadConfig.obj
 0001:00021c66       $L53723                    00422c66 f   LoadConfig.obj
 0001:00021c72       $L53725                    00422c72 f   LoadConfig.obj
 0001:00021c7e       $L53726                    00422c7e f   LoadConfig.obj
 0001:00021c8a       $L53727                    00422c8a f   LoadConfig.obj
 0001:00021c96       $L53729                    00422c96 f   LoadConfig.obj
 0001:00021ca2       $L53730                    00422ca2 f   LoadConfig.obj
 0001:00021cae       $L53731                    00422cae f   LoadConfig.obj
 0001:00021cba       __ehhandler$?GetParamList@LoadConfig@@AAEHPAVMonitor@@V?$basic_string@DU?$char_traits@D@std@@V?$allocator@D@2@@std@@1@Z 00422cba f   LoadConfig.obj
 0001:00021cd0       $L55162                    00422cd0 f   LoadConfig.obj
 0001:00021cd9       $L55164                    00422cd9 f   LoadConfig.obj
 0001:00021ce2       __ehhandler$?CreateSingleMonitor@LoadConfig@@QAEHPAVMonitor@@V?$basic_string@DU?$char_traits@D@std@@V?$allocator@D@2@@std@@@Z 00422ce2 f   LoadConfig.obj
 0001:00021cf0       $L55254                    00422cf0 f   LoadConfig.obj
 0001:00021cf8       $L55255                    00422cf8 f   LoadConfig.obj
 0001:00021d01       $L55256                    00422d01 f   LoadConfig.obj
 0001:00021d0a       $L55257                    00422d0a f   LoadConfig.obj
 0001:00021d15       $L55260                    00422d15 f   LoadConfig.obj
 0001:00021d1e       __ehhandler$?CreateMonitors@LoadConfig@@QAEHAAV?$list@PAVMonitor@@V?$allocator@PAVMonitor@@@std@@@std@@@Z 00422d1e f   LoadConfig.obj
 0001:00021d30       $L55666                    00422d30 f   LoadConfig.obj
 0001:00021d38       $L55667                    00422d38 f   LoadConfig.obj
 0001:00021d41       $L55668                    00422d41 f   LoadConfig.obj
 0001:00021d4c       __ehhandler$?LoadEntitys@LoadConfig@@AAEXAAV?$list@PAVEntity@@V?$allocator@PAVEntity@@@std@@@std@@@Z 00422d4c f   LoadConfig.obj
 0001:00021d60       $L56226                    00422d60 f   LoadConfig.obj
 0001:00021d68       $L56227                    00422d68 f   LoadConfig.obj
 0001:00021d71       $L56228                    00422d71 f   LoadConfig.obj
 0001:00021d7a       $L56229                    00422d7a f   LoadConfig.obj
 0001:00021d83       $L56230                    00422d83 f   LoadConfig.obj
 0001:00021d8e       $L56232                    00422d8e f   LoadConfig.obj
 0001:00021d9a       $L56233                    00422d9a f   LoadConfig.obj
 0001:00021da3       $L56235                    00422da3 f   LoadConfig.obj
 0001:00021daf       __ehhandler$?LoadGroups@LoadConfig@@AAEXAAV?$list@PAVGroupsItem@@V?$allocator@PAVGroupsItem@@@std@@@std@@@Z 00422daf f   LoadConfig.obj
 0001:00021dc0       $L42158                    00422dc0 f   MakeRecord.obj
 0001:00021dc9       __ehhandler$?buildbuffer@MakeRecord@@AAEPADV?$basic_string@DU?$char_traits@D@std@@V?$allocator@D@2@@std@@PADH@Z 00422dc9 f   MakeRecord.obj
 0001:00021de0       $L42698                    00422de0 f   MakeRecord.obj
 0001:00021de9       __ehhandler$?MakeBuf@MakeRecord@@QAE_NPAVReturnValue@@@Z 00422de9 f   MakeRecord.obj
 0001:00021e00       $L42726                    00422e00 f   MakeRecord.obj
 0001:00021e09       __ehhandler$?MakeError@MakeRecord@@QAE_NHV?$basic_string@DU?$char_traits@D@std@@V?$allocator@D@2@@std@@@Z 00422e09 f   MakeRecord.obj
 0001:00021e20       $L50799                    00422e20 f   Monitor.obj
 0001:00021e20       $L50728                    00422e20 f   Monitor.obj
 0001:00021e29       $L50819                    00422e29 f   Monitor.obj
 0001:00021e29       $L50748                    00422e29 f   Monitor.obj
 0001:00021e32       __ehhandler$?_Incsize@?$list@PAVReturnData@@V?$allocator@PAVReturnData@@@std@@@std@@IAEXI@Z 00422e32 f   Monitor.obj
 0001:00021e32       __ehhandler$?_Incsize@?$list@PAVStateConditionItem@@V?$allocator@PAVStateConditionItem@@@std@@@std@@IAEXI@Z 00422e32 f   Monitor.obj
 0001:00021e40       $L53135                    00422e40 f   Monitor.obj
 0001:00021e4b       $L53136                    00422e4b f   Monitor.obj
 0001:00021e56       $L53137                    00422e56 f   Monitor.obj
 0001:00021e61       $L53138                    00422e61 f   Monitor.obj
 0001:00021e6c       $L53139                    00422e6c f   Monitor.obj
 0001:00021e77       $L53140                    00422e77 f   Monitor.obj
 0001:00021e82       $L53141                    00422e82 f   Monitor.obj
 0001:00021e8d       $L53142                    00422e8d f   Monitor.obj
 0001:00021e98       $L53143                    00422e98 f   Monitor.obj
 0001:00021ea3       $L53144                    00422ea3 f   Monitor.obj
 0001:00021eae       $L53145                    00422eae f   Monitor.obj
 0001:00021eb9       $L53146                    00422eb9 f   Monitor.obj
 0001:00021ec4       $L53147                    00422ec4 f   Monitor.obj
 0001:00021ecf       $L53148                    00422ecf f   Monitor.obj
 0001:00021eda       $L53149                    00422eda f   Monitor.obj
 0001:00021ee5       $L53150                    00422ee5 f   Monitor.obj
 0001:00021ef0       $L53151                    00422ef0 f   Monitor.obj
 0001:00021efb       $L53152                    00422efb f   Monitor.obj
 0001:00021f06       $L53153                    00422f06 f   Monitor.obj
 0001:00021f14       $L53154                    00422f14 f   Monitor.obj
 0001:00021f1f       $L53155                    00422f1f f   Monitor.obj
 0001:00021f2a       $L53156                    00422f2a f   Monitor.obj
 0001:00021f35       $L53157                    00422f35 f   Monitor.obj
 0001:00021f43       $L53158                    00422f43 f   Monitor.obj
 0001:00021f4e       $L53159                    00422f4e f   Monitor.obj
 0001:00021f59       $L53160                    00422f59 f   Monitor.obj
 0001:00021f64       $L53161                    00422f64 f   Monitor.obj
 0001:00021f6f       $L53162                    00422f6f f   Monitor.obj
 0001:00021f7d       $L53163                    00422f7d f   Monitor.obj
 0001:00021f88       $L53164                    00422f88 f   Monitor.obj
 0001:00021f93       $L53165                    00422f93 f   Monitor.obj
 0001:00021f9e       $L53166                    00422f9e f   Monitor.obj
 0001:00021fac       $L53167                    00422fac f   Monitor.obj
 0001:00021fb7       $L53168                    00422fb7 f   Monitor.obj
 0001:00021fc2       $L53169                    00422fc2 f   Monitor.obj
 0001:00021fcd       $L53170                    00422fcd f   Monitor.obj
 0001:00021fd8       $L53171                    00422fd8 f   Monitor.obj
 0001:00021fe6       $L53172                    00422fe6 f   Monitor.obj
 0001:00021ff1       $L53173                    00422ff1 f   Monitor.obj
 0001:00021ffc       $L53174                    00422ffc f   Monitor.obj
 0001:00022007       $L53175                    00423007 f   Monitor.obj
 0001:00022015       $L53176                    00423015 f   Monitor.obj
 0001:00022020       $L53177                    00423020 f   Monitor.obj
 0001:0002202b       $L53178                    0042302b f   Monitor.obj
 0001:00022036       $L53179                    00423036 f   Monitor.obj
 0001:00022041       $L53180                    00423041 f   Monitor.obj
 0001:0002204c       $L53181                    0042304c f   Monitor.obj
 0001:0002205a       $L53182                    0042305a f   Monitor.obj
 0001:00022065       $L53183                    00423065 f   Monitor.obj
 0001:00022070       $L53184                    00423070 f   Monitor.obj
 0001:0002207b       $L53185                    0042307b f   Monitor.obj
 0001:00022086       $L53186                    00423086 f   Monitor.obj
 0001:00022091       $L53187                    00423091 f   Monitor.obj
 0001:0002209a       $L53188                    0042309a f   Monitor.obj
 0001:000220a5       $L53189                    004230a5 f   Monitor.obj
 0001:000220b1       __ehhandler$?FromTextMap@Monitor@@QAEHAAV?$hashtable@Vword@svutil@@V12@@svutil@@@Z 004230b1 f   Monitor.obj
 0001:000220c0       $L54039                    004230c0 f   Monitor.obj
 0001:000220cb       $L54040                    004230cb f   Monitor.obj
 0001:000220d6       $L54041                    004230d6 f   Monitor.obj
 0001:000220e1       $L54042                    004230e1 f   Monitor.obj
 0001:000220ec       $L54043                    004230ec f   Monitor.obj
 0001:000220fa       __ehhandler$??0Monitor@@QAE@XZ 004230fa f   Monitor.obj
 0001:00022110       $L54300                    00423110 f   Monitor.obj
 0001:0002211b       $L54301                    0042311b f   Monitor.obj
 0001:00022126       $L54302                    00423126 f   Monitor.obj
 0001:00022131       $L54303                    00423131 f   Monitor.obj
 0001:0002213c       $L54304                    0042313c f   Monitor.obj
 0001:0002214a       $L54305                    0042314a f   Monitor.obj
 0001:00022159       __ehhandler$??1Monitor@@UAE@XZ 00423159 f   Monitor.obj
 0001:00022170       $L55122                    00423170 f   Monitor.obj
 0001:00022179       $L55123                    00423179 f   Monitor.obj
 0001:00022184       $L55124                    00423184 f   Monitor.obj
 0001:0002218f       $L55125                    0042318f f   Monitor.obj
 0001:0002219a       $L55126                    0042319a f   Monitor.obj
 0001:000221a5       $L55127                    004231a5 f   Monitor.obj
 0001:000221b0       $L55128                    004231b0 f   Monitor.obj
 0001:000221bb       $L55129                    004231bb f   Monitor.obj
 0001:000221c6       $L55130                    004231c6 f   Monitor.obj
 0001:000221d1       $L55131                    004231d1 f   Monitor.obj
 0001:000221dc       $L55132                    004231dc f   Monitor.obj
 0001:000221e7       $L55133                    004231e7 f   Monitor.obj
 0001:000221f2       $L55134                    004231f2 f   Monitor.obj
 0001:000221fd       $L55135                    004231fd f   Monitor.obj
 0001:00022208       $L55136                    00423208 f   Monitor.obj
 0001:00022213       $L55137                    00423213 f   Monitor.obj
 0001:0002221e       $L55138                    0042321e f   Monitor.obj
 0001:00022229       $L55139                    00423229 f   Monitor.obj
 0001:00022234       $L55140                    00423234 f   Monitor.obj
 0001:0002223f       $L55141                    0042323f f   Monitor.obj
 0001:0002224a       $L55142                    0042324a f   Monitor.obj
 0001:00022255       $L55143                    00423255 f   Monitor.obj
 0001:00022260       $L55144                    00423260 f   Monitor.obj
 0001:0002226b       $L55145                    0042326b f   Monitor.obj
 0001:00022276       $L55146                    00423276 f   Monitor.obj
 0001:00022281       $L55147                    00423281 f   Monitor.obj
 0001:0002228c       $L55148                    0042328c f   Monitor.obj
 0001:00022297       $L55149                    00423297 f   Monitor.obj
 0001:000222a2       $L55150                    004232a2 f   Monitor.obj
 0001:000222ad       $L55151                    004232ad f   Monitor.obj
 0001:000222b8       $L55152                    004232b8 f   Monitor.obj
 0001:000222c3       $L55153                    004232c3 f   Monitor.obj
 0001:000222ce       $L55154                    004232ce f   Monitor.obj
 0001:000222d9       $L55155                    004232d9 f   Monitor.obj
 0001:000222e4       $L55156                    004232e4 f   Monitor.obj
 0001:000222ef       $L55157                    004232ef f   Monitor.obj
 0001:000222fa       $L55158                    004232fa f   Monitor.obj
 0001:00022305       $L55159                    00423305 f   Monitor.obj
 0001:00022310       $L55160                    00423310 f   Monitor.obj
 0001:0002231b       $L55161                    0042331b f   Monitor.obj
 0001:00022326       $L55162                    00423326 f   Monitor.obj
 0001:00022331       $L55163                    00423331 f   Monitor.obj
 0001:0002233c       $L55164                    0042333c f   Monitor.obj
 0001:00022347       $L55165                    00423347 f   Monitor.obj
 0001:00022352       $L55166                    00423352 f   Monitor.obj
 0001:0002235d       $L55167                    0042335d f   Monitor.obj
 0001:00022368       $L55168                    00423368 f   Monitor.obj
 0001:00022373       $L55169                    00423373 f   Monitor.obj
 0001:0002237e       $L55170                    0042337e f   Monitor.obj
 0001:00022389       __ehhandler$?ToTextMap@Monitor@@QAEHAAV?$hashtable@Vword@svutil@@V12@@svutil@@@Z 00423389 f   Monitor.obj
 0001:000223a0       $L53894                    004233a0 f   MonitorSchedule.obj
 0001:000223a9       __ehhandler$??0TString@@QAE@ABV0@@Z 004233a9 f   MonitorSchedule.obj
 0001:000223c0       $L54044                    004233c0 f   MonitorSchedule.obj
 0001:000223c8       $L54045                    004233c8 f   MonitorSchedule.obj
 0001:000223d0       $L54046                    004233d0 f   MonitorSchedule.obj
 0001:000223db       $L54047                    004233db f   MonitorSchedule.obj
 0001:000223e6       __ehhandler$?Run@@YAXXZ    004233e6 f   MonitorSchedule.obj
 0001:000223f0       $L54141                    004233f0 f   MonitorSchedule.obj
 0001:000223f9       $L54142                    004233f9 f   MonitorSchedule.obj
 0001:00022401       $L54143                    00423401 f   MonitorSchedule.obj
 0001:0002240d       $L54144                    0042340d f   MonitorSchedule.obj
 0001:00022419       $L54146                    00423419 f   MonitorSchedule.obj
 0001:00022422       $L54147                    00423422 f   MonitorSchedule.obj
 0001:0002242d       $L54148                    0042342d f   MonitorSchedule.obj
 0001:00022438       $L54149                    00423438 f   MonitorSchedule.obj
 0001:00022444       $L54150                    00423444 f   MonitorSchedule.obj
 0001:00022450       $L54151                    00423450 f   MonitorSchedule.obj
 0001:0002245c       __ehhandler$?Run_ProcessMonitor@@YAXV?$basic_string@DU?$char_traits@D@std@@V?$allocator@D@2@@std@@@Z 0042345c f   MonitorSchedule.obj
 0001:00022470       $L54571                    00423470 f   MonitorSchedule.obj
 0001:00022479       $L54575                    00423479 f   MonitorSchedule.obj
 0001:00022482       __ehhandler$?_Xlen@?$vector@PAV?$hashnode@Vword@svutil@@PAVTask@@@svutil@@V?$allocator@PAV?$hashnode@Vword@svutil@@PAVTask@@@svutil@@@std@@@std@@IBEXXZ 00423482 f   MonitorSchedule.obj
 0001:00022490       $L57225                    00423490 f   MonitorSchedule.obj
 0001:00022498       __ehhandler$??1?$hashnode@Vword@svutil@@PAVTask@@@svutil@@QAE@XZ 00423498 f   MonitorSchedule.obj
 0001:000224b0       $L59478                    004234b0 f   MonitorSchedule.obj
 0001:000224b8       $L59479                    004234b8 f   MonitorSchedule.obj
 0001:000224c0       $L59480                    004234c0 f   MonitorSchedule.obj
 0001:000224cb       $L59481                    004234cb f   MonitorSchedule.obj
 0001:000224d9       __ehhandler$?GetMonitorListByFile@@YAHAAV?$list@PAVMonitor@@V?$allocator@PAVMonitor@@@std@@@std@@PBD@Z 004234d9 f   MonitorSchedule.obj
 0001:000224f0       $L59603                    004234f0 f   MonitorSchedule.obj
 0001:000224f9       $L59604                    004234f9 f   MonitorSchedule.obj
 0001:00022501       $L59605                    00423501 f   MonitorSchedule.obj
 0001:0002250c       __ehhandler$?MakeMonitorListByBuf@@YA_NAAV?$list@PAVMonitor@@V?$allocator@PAVMonitor@@@std@@@std@@PBD@Z 0042350c f   MonitorSchedule.obj
 0001:00022520       $L59728                    00423520 f   MonitorSchedule.obj
 0001:00022529       $L59729                    00423529 f   MonitorSchedule.obj
 0001:00022532       $L59730                    00423532 f   MonitorSchedule.obj
 0001:0002253b       $L59731                    0042353b f   MonitorSchedule.obj
 0001:00022544       $L59732                    00423544 f   MonitorSchedule.obj
 0001:0002254d       $L59734                    0042354d f   MonitorSchedule.obj
 0001:00022556       __ehhandler$?GetMonitorListByPipe@@YA_NAAV?$list@PAVMonitor@@V?$allocator@PAVMonitor@@@std@@@std@@V?$basic_string@DU?$char_traits@D@std@@V?$allocator@D@2@@2@11@Z 00423556 f   MonitorSchedule.obj
 0001:00022560       $L59843                    00423560 f   MonitorSchedule.obj
 0001:0002256e       $L59845                    0042356e f   MonitorSchedule.obj
 0001:00022579       $L59846                    00423579 f   MonitorSchedule.obj
 0001:00022587       $L59847                    00423587 f   MonitorSchedule.obj
 0001:00022595       $L59849                    00423595 f   MonitorSchedule.obj
 0001:000225a0       $L59850                    004235a0 f   MonitorSchedule.obj
 0001:000225ae       $L59853                    004235ae f   MonitorSchedule.obj
 0001:000225b9       $L59855                    004235b9 f   MonitorSchedule.obj
 0001:000225c4       $L59856                    004235c4 f   MonitorSchedule.obj
 0001:000225d0       $L59857                    004235d0 f   MonitorSchedule.obj
 0001:000225dc       $L59860                    004235dc f   MonitorSchedule.obj
 0001:000225e8       $L59861                    004235e8 f   MonitorSchedule.obj
 0001:000225f4       $L59862                    004235f4 f   MonitorSchedule.obj
 0001:00022600       __ehhandler$_main          00423600 f   MonitorSchedule.obj
 0001:00022610       $L60347                    00423610 f   MonitorSchedule.obj
 0001:00022610       $L59929                    00423610 f   MonitorSchedule.obj
 0001:00022618       __ehhandler$??0?$hashtable@Vword@svutil@@PAVTask@@@svutil@@QAE@XZ 00423618 f   MonitorSchedule.obj
 0001:00022618       __ehhandler$??1?$hashtable@Vword@svutil@@PAVTask@@@svutil@@QAE@XZ 00423618 f   MonitorSchedule.obj
 0001:00022630       $L56509                    00423630 f   MonitorSchMain.obj
 0001:00022638       $L56510                    00423638 f   MonitorSchMain.obj
 0001:00022641       $L56511                    00423641 f   MonitorSchMain.obj
 0001:0002264a       __ehhandler$?GetLastState@Monitor@@QAEHXZ 0042364a f   MonitorSchMain.obj
 0001:00022660       $L56629                    00423660 f   MonitorSchMain.obj
 0001:00022669       __ehhandler$?CopyTempData@Entity@@QAE_NPBV1@@Z 00423669 f   MonitorSchMain.obj
 0001:00022680       $L56685                    00423680 f   MonitorSchMain.obj
 0001:00022689       $L56686                    00423689 f   MonitorSchMain.obj
 0001:00022692       __ehhandler$??0SerialData@@QAE@V?$basic_string@DU?$char_traits@D@std@@V?$allocator@D@2@@std@@@Z 00423692 f   MonitorSchMain.obj
 0001:000226a0       $L56720                    004236a0 f   MonitorSchMain.obj
 0001:000226a9       $L56721                    004236a9 f   MonitorSchMain.obj
 0001:000226b2       $L56722                    004236b2 f   MonitorSchMain.obj
 0001:000226bb       __ehhandler$?ParseOpt@MonitorSchMain@@KA_NV?$basic_string@DU?$char_traits@D@std@@V?$allocator@D@2@@std@@AAV23@1@Z 004236bb f   MonitorSchMain.obj
 0001:000226d0       $L56750                    004236d0 f   MonitorSchMain.obj
 0001:000226dc       $L56751                    004236dc f   MonitorSchMain.obj
 0001:000226e8       __ehhandler$?LoadPreLibrary@MonitorSchMain@@QAE_NXZ 004236e8 f   MonitorSchMain.obj
 0001:00022700       $L57197                    00423700 f   MonitorSchMain.obj
 0001:00022708       __ehhandler$??0?$hashelement@Vword@svutil@@PAVTask@@@svutil@@QAE@ABVword@1@@Z 00423708 f   MonitorSchMain.obj
 0001:00022720       $L57985                    00423720 f   MonitorSchMain.obj
 0001:00022729       __ehhandler$??1?$pair@$$CBV?$basic_string@DU?$char_traits@D@std@@V?$allocator@D@2@@std@@V12@@std@@QAE@XZ 00423729 f   MonitorSchMain.obj
 0001:00022740       $L58091                    00423740 f   MonitorSchMain.obj
 0001:00022748       __ehhandler$?SerialMonitorData@MonitorSchMain@@QAE_N_N@Z 00423748 f   MonitorSchMain.obj
 0001:00022760       $L60125                    00423760 f   MonitorSchMain.obj
 0001:0002276e       $L60126                    0042376e f   MonitorSchMain.obj
 0001:0002277c       $L60127                    0042377c f   MonitorSchMain.obj
 0001:0002278a       $L60128                    0042378a f   MonitorSchMain.obj
 0001:00022798       $L60129                    00423798 f   MonitorSchMain.obj
 0001:000227a6       $L60130                    004237a6 f   MonitorSchMain.obj
 0001:000227b4       $L60131                    004237b4 f   MonitorSchMain.obj
 0001:000227c2       $L60132                    004237c2 f   MonitorSchMain.obj
 0001:000227d0       $L60133                    004237d0 f   MonitorSchMain.obj
 0001:000227de       __ehhandler$?Init@MonitorSchMain@@QAEHXZ 004237de f   MonitorSchMain.obj
 0001:000227f0       $L61167                    004237f0 f   MonitorSchMain.obj
 0001:000227f8       __ehhandler$?find@?$hashnode@Vword@svutil@@PAVTask@@@svutil@@QAE_NABVword@2@PAPAV?$hashelement@Vword@svutil@@PAVTask@@@2@@Z 004237f8 f   MonitorSchMain.obj
 0001:00022810       $L62398                    00423810 f   MonitorSchMain.obj
 0001:00022819       $L62399                    00423819 f   MonitorSchMain.obj
 0001:00022822       $L62400                    00423822 f   MonitorSchMain.obj
 0001:0002282b       __ehhandler$?CheckGroupDependState@MonitorSchMain@@QAEHPAVMonitor@@AAVTString@@@Z 0042382b f   MonitorSchMain.obj
 0001:00022840       $L62585                    00423840 f   MonitorSchMain.obj
 0001:00022849       $L62586                    00423849 f   MonitorSchMain.obj
 0001:00022852       __ehhandler$?DeleteMonitorV70@MonitorSchMain@@IAE_NV?$basic_string@DU?$char_traits@D@std@@V?$allocator@D@2@@std@@@Z 00423852 f   MonitorSchMain.obj
 0001:00022860       $L63632                    00423860 f   MonitorSchMain.obj
 0001:00022869       $L63633                    00423869 f   MonitorSchMain.obj
 0001:00022872       $L63634                    00423872 f   MonitorSchMain.obj
 0001:0002287a       __ehhandler$?CheckTask@MonitorSchMain@@QAE_NPAVMonitor@@VTTime@svutil@@AA_N@Z 0042387a f   MonitorSchMain.obj
 0001:00022890       $L64248                    00423890 f   MonitorSchMain.obj
 0001:00022899       $L64249                    00423899 f   MonitorSchMain.obj
 0001:000228a5       $L64250                    004238a5 f   MonitorSchMain.obj
 0001:000228b0       $L64251                    004238b0 f   MonitorSchMain.obj
 0001:000228be       __ehhandler$?AddMonitorV70@MonitorSchMain@@IAE_NV?$basic_string@DU?$char_traits@D@std@@V?$allocator@D@2@@std@@_N@Z 004238be f   MonitorSchMain.obj
 0001:000228d0       $L65010                    004238d0 f   MonitorSchMain.obj
 0001:000228d9       $L65020                    004238d9 f   MonitorSchMain.obj
 0001:000228e2       $L65391                    004238e2 f   MonitorSchMain.obj
 0001:000228eb       __ehhandler$?erase@?$_Tree@V?$_Tmap_traits@V?$basic_string@DU?$char_traits@D@std@@V?$allocator@D@2@@std@@V12@UStlIniCompareStringNoCase@@V?$allocator@U?$pair@$$CBV?$basic_string@DU?$char_traits@D@std@@V?$allocator@D@2@@std@@V12@@std@@@2@$0A@@std@@@std@@QAE?AViterator@12@V312@@Z 004238eb f   MonitorSchMain.obj
 0001:00022900       $L65503                    00423900 f   MonitorSchMain.obj
 0001:0002290c       $L65504                    0042390c f   MonitorSchMain.obj
 0001:00022917       $L65505                    00423917 f   MonitorSchMain.obj
 0001:00022922       $L65506                    00423922 f   MonitorSchMain.obj
 0001:0002292d       $L65507                    0042392d f   MonitorSchMain.obj
 0001:00022939       __ehhandler$??1MonitorSchMain@@UAE@XZ 00423939 f   MonitorSchMain.obj
 0001:00022950       $L65647                    00423950 f   MonitorSchMain.obj
 0001:00022959       __ehhandler$?ReLoadTaskV70@MonitorSchMain@@IAE_NXZ 00423959 f   MonitorSchMain.obj
 0001:00022970       $L65839                    00423970 f   MonitorSchMain.obj
 0001:0002297c       $L65840                    0042397c f   MonitorSchMain.obj
 0001:00022987       $L65841                    00423987 f   MonitorSchMain.obj
 0001:00022992       $L65842                    00423992 f   MonitorSchMain.obj
 0001:0002299d       __ehhandler$??0MonitorSchMain@@QAE@XZ 0042399d f   MonitorSchMain.obj
 0001:000229b0       $L65951                    004239b0 f   MonitorSchMain.obj
 0001:000229b9       $L65952                    004239b9 f   MonitorSchMain.obj
 0001:000229c2       $L65953                    004239c2 f   MonitorSchMain.obj
 0001:000229ca       $L65954                    004239ca f   MonitorSchMain.obj
 0001:000229d3       __ehhandler$?ReLoadMonitorsV70@MonitorSchMain@@IAE_NV?$basic_string@DU?$char_traits@D@std@@V?$allocator@D@2@@std@@@Z 004239d3 f   MonitorSchMain.obj
 0001:000229e0       $L66511                    004239e0 f   MonitorSchMain.obj
 0001:000229e9       $L66512                    004239e9 f   MonitorSchMain.obj
 0001:000229f2       $L66513                    004239f2 f   MonitorSchMain.obj
 0001:000229fa       __ehhandler$?InitMonitorsGroupDependV70@MonitorSchMain@@IAE_NV?$basic_string@DU?$char_traits@D@std@@V?$allocator@D@2@@std@@@Z 004239fa f   MonitorSchMain.obj
 0001:00022a10       $L66762                    00423a10 f   MonitorSchMain.obj
 0001:00022a19       $L66763                    00423a19 f   MonitorSchMain.obj
 0001:00022a21       $L66764                    00423a21 f   MonitorSchMain.obj
 0001:00022a2f       __ehhandler$?AddGroupV70@MonitorSchMain@@IAE_NV?$basic_string@DU?$char_traits@D@std@@V?$allocator@D@2@@std@@_N@Z 00423a2f f   MonitorSchMain.obj
 0001:00022a40       $L67304                    00423a40 f   MonitorSchMain.obj
 0001:00022a49       $L67305                    00423a49 f   MonitorSchMain.obj
 0001:00022a51       $L67306                    00423a51 f   MonitorSchMain.obj
 0001:00022a5f       __ehhandler$?AddEntityV70@MonitorSchMain@@IAE_NV?$basic_string@DU?$char_traits@D@std@@V?$allocator@D@2@@std@@_N@Z 00423a5f f   MonitorSchMain.obj
 0001:00022a70       $L67504                    00423a70 f   MonitorSchMain.obj
 0001:00022a79       $L67505                    00423a79 f   MonitorSchMain.obj
 0001:00022a82       $L67506                    00423a82 f   MonitorSchMain.obj
 0001:00022a8b       $L67507                    00423a8b f   MonitorSchMain.obj
 0001:00022a94       __ehhandler$?ProcessConfigChange@MonitorSchMain@@QAE_NV?$basic_string@DU?$char_traits@D@std@@V?$allocator@D@2@@std@@0@Z 00423a94 f   MonitorSchMain.obj
 0001:00022aa0       $L67928                    00423aa0 f   MonitorSchMain.obj
 0001:00022aa9       __ehhandler$??1?$pair@$$CBV?$basic_string@DU?$char_traits@D@std@@V?$allocator@D@2@@std@@V?$map@V?$basic_string@DU?$char_traits@D@std@@V?$allocator@D@2@@std@@V12@UStlIniCompareStringNoCase@@V?$allocator@U?$pair@$$CBV?$basic_string@DU?$char_traits@D@std@@V?$allocator@D@2@@std@@V12@@std@@@2@@2@@std@@QAE@XZ 00423aa9 f   MonitorSchMain.obj
 0001:00022ac0       $L68133                    00423ac0 f   MonitorSchMain.obj
 0001:00022ac9       $L68143                    00423ac9 f   MonitorSchMain.obj
 0001:00022ad2       __ehhandler$?erase@?$_Tree@V?$_Tmap_traits@V?$basic_string@DU?$char_traits@D@std@@V?$allocator@D@2@@std@@V?$map@V?$basic_string@DU?$char_traits@D@std@@V?$allocator@D@2@@std@@V12@UStlIniCompareStringNoCase@@V?$allocator@U?$pair@$$CBV?$basic_string@DU?$char_traits@D@std@@V?$allocator@D@2@@std@@V12@@std@@@2@@2@UStlIniCompareStringNoCase@@V?$allocator@U?$pair@$$CBV?$basic_string@DU?$char_traits@D@std@@V?$allocator@D@2@@std@@V?$map@V?$basic_string@DU?$char_traits@D@std@@V?$allocator@D@2@@std@@V12@UStlIniCompareStringNoCase@@V?$allocator@U?$pair@$$CBV?$basic_string@DU?$char_traits@D@std@@V?$allocator@D@2@@std@@V12@@std@@@2@@2@@std@@@2@$0A@@std@@@std@@QAE?AViterator@12@V312@@Z 00423ad2 f   MonitorSchMain.obj
 0001:00022ae0       $L77160                    00423ae0 f   MonitorThread.obj
 0001:00022ae9       __ehhandler$??0TString@@QAE@VString@ost@@@Z 00423ae9 f   MonitorThread.obj
 0001:00022b00       $L77743                    00423b00 f   MonitorThread.obj
 0001:00022b09       $L77744                    00423b09 f   MonitorThread.obj
 0001:00022b12       $L77745                    00423b12 f   MonitorThread.obj
 0001:00022b1e       $L77746                    00423b1e f   MonitorThread.obj
 0001:00022b2a       $L77748                    00423b2a f   MonitorThread.obj
 0001:00022b36       $L77749                    00423b36 f   MonitorThread.obj
 0001:00022b42       $L77751                    00423b42 f   MonitorThread.obj
 0001:00022b4d       $L77752                    00423b4d f   MonitorThread.obj
 0001:00022b59       $L77753                    00423b59 f   MonitorThread.obj
 0001:00022b65       $L77754                    00423b65 f   MonitorThread.obj
 0001:00022b71       $L77756                    00423b71 f   MonitorThread.obj
 0001:00022b7c       $L77757                    00423b7c f   MonitorThread.obj
 0001:00022b88       $L77758                    00423b88 f   MonitorThread.obj
 0001:00022b94       $L77760                    00423b94 f   MonitorThread.obj
 0001:00022ba0       $L77761                    00423ba0 f   MonitorThread.obj
 0001:00022bac       $L77763                    00423bac f   MonitorThread.obj
 0001:00022bb8       $L77764                    00423bb8 f   MonitorThread.obj
 0001:00022bc4       $L77766                    00423bc4 f   MonitorThread.obj
 0001:00022bd0       $L77767                    00423bd0 f   MonitorThread.obj
 0001:00022bdc       $L77768                    00423bdc f   MonitorThread.obj
 0001:00022be8       $L77770                    00423be8 f   MonitorThread.obj
 0001:00022bf4       $L77771                    00423bf4 f   MonitorThread.obj
 0001:00022c00       $L77773                    00423c00 f   MonitorThread.obj
 0001:00022c0c       $L77774                    00423c0c f   MonitorThread.obj
 0001:00022c18       $L77776                    00423c18 f   MonitorThread.obj
 0001:00022c24       $L77777                    00423c24 f   MonitorThread.obj
 0001:00022c30       $L77779                    00423c30 f   MonitorThread.obj
 0001:00022c3c       $L77780                    00423c3c f   MonitorThread.obj
 0001:00022c48       __ehhandler$?RunInProcess@MonitorThread@@IAE_NHV?$basic_string@DU?$char_traits@D@std@@V?$allocator@D@2@@std@@0@Z 00423c48 f   MonitorThread.obj
 0001:00022c60       $L81389                    00423c60 f   MonitorThread.obj
 0001:00022c69       $L81409                    00423c69 f   MonitorThread.obj
 0001:00022c72       __ehhandler$?_Incsize@?$list@PAVReturnValue@@V?$allocator@PAVReturnValue@@@std@@@std@@IAEXI@Z 00423c72 f   MonitorThread.obj
 0001:00022c80       $L81509                    00423c80 f   MonitorThread.obj
 0001:00022c88       __ehhandler$??1?$hashnode@Vword@svutil@@V12@@svutil@@QAE@XZ 00423c88 f   MonitorThread.obj
 0001:00022ca0       $L82169                    00423ca0 f   MonitorThread.obj
 0001:00022ca8       __ehhandler$?CheckSingleItemState@MonitorThread@@AAEHPAVStateCondition@@H@Z 00423ca8 f   MonitorThread.obj
 0001:00022cc0       $L82541                    00423cc0 f   MonitorThread.obj
 0001:00022ccb       $L82542                    00423ccb f   MonitorThread.obj
 0001:00022cd6       $L82544                    00423cd6 f   MonitorThread.obj
 0001:00022ce2       $L82547                    00423ce2 f   MonitorThread.obj
 0001:00022cee       $L82548                    00423cee f   MonitorThread.obj
 0001:00022cfa       $L82549                    00423cfa f   MonitorThread.obj
 0001:00022d06       __ehhandler$?ProcessResultV70@MonitorThread@@AAEXXZ 00423d06 f   MonitorThread.obj
 0001:00022d10       $L84543                    00423d10 f   MonitorThread.obj
 0001:00022d18       $L84544                    00423d18 f   MonitorThread.obj
 0001:00022d20       $L84545                    00423d20 f   MonitorThread.obj
 0001:00022d29       $L84546                    00423d29 f   MonitorThread.obj
 0001:00022d31       $L84547                    00423d31 f   MonitorThread.obj
 0001:00022d3a       $L84548                    00423d3a f   MonitorThread.obj
 0001:00022d42       $L84549                    00423d42 f   MonitorThread.obj
 0001:00022d4e       $L84550                    00423d4e f   MonitorThread.obj
 0001:00022d56       $L84551                    00423d56 f   MonitorThread.obj
 0001:00022d62       __ehhandler$?ParserExpression@MonitorThread@@AAEHVTString@@AAV?$list@V?$basic_string@DU?$char_traits@D@std@@V?$allocator@D@2@@std@@V?$allocator@V?$basic_string@DU?$char_traits@D@std@@V?$allocator@D@2@@std@@@2@@std@@1@Z 00423d62 f   MonitorThread.obj
 0001:00022d70       $L85480                    00423d70 f   MonitorThread.obj
 0001:00022d78       $L85481                    00423d78 f   MonitorThread.obj
 0001:00022d84       $L85482                    00423d84 f   MonitorThread.obj
 0001:00022d8f       $L85483                    00423d8f f   MonitorThread.obj
 0001:00022d9a       $L85484                    00423d9a f   MonitorThread.obj
 0001:00022da8       $L85485                    00423da8 f   MonitorThread.obj
 0001:00022dc3       __ehhandler$??1MonitorThread@@UAE@XZ 00423dc3 f   MonitorThread.obj
 0001:00022dd0       $L85554                    00423dd0 f   MonitorThread.obj
 0001:00022dd0       $L85045                    00423dd0 f   MonitorThread.obj
 0001:00022dd8       __ehhandler$??0?$hashtable@Vword@svutil@@V12@@svutil@@QAE@XZ 00423dd8 f   MonitorThread.obj
 0001:00022dd8       __ehhandler$??1?$hashtable@Vword@svutil@@V12@@svutil@@QAE@XZ 00423dd8 f   MonitorThread.obj
 0001:00022df0       $L85868                    00423df0 f   MonitorThread.obj
 0001:00022df8       $L85869                    00423df8 f   MonitorThread.obj
 0001:00022e04       $L85870                    00423e04 f   MonitorThread.obj
 0001:00022e0f       $L85871                    00423e0f f   MonitorThread.obj
 0001:00022e1a       $L85872                    00423e1a f   MonitorThread.obj
 0001:00022e28       $L85873                    00423e28 f   MonitorThread.obj
 0001:00022e43       $L85874                    00423e43 f   MonitorThread.obj
 0001:00022e51       __ehhandler$??0MonitorThread@@QAE@XZ 00423e51 f   MonitorThread.obj
 0001:00022e60       $L86009                    00423e60 f   MonitorThread.obj
 0001:00022e68       $L86010                    00423e68 f   MonitorThread.obj
 0001:00022e70       $L86011                    00423e70 f   MonitorThread.obj
 0001:00022e78       $L86189                    00423e78 f   MonitorThread.obj
 0001:00022e81       __ehhandler$?CheckStateByType@MonitorThread@@AAEHH@Z 00423e81 f   MonitorThread.obj
 0001:00022e90       $L87306                    00423e90 f   MonitorThread.obj
 0001:00022e99       $L87307                    00423e99 f   MonitorThread.obj
 0001:00022ea2       $L87308                    00423ea2 f   MonitorThread.obj
 0001:00022eab       $L87309                    00423eab f   MonitorThread.obj
 0001:00022eb7       $L87310                    00423eb7 f   MonitorThread.obj
 0001:00022ec3       $L87311                    00423ec3 f   MonitorThread.obj
 0001:00022ece       $L87312                    00423ece f   MonitorThread.obj
 0001:00022ed9       __ehhandler$?BulidStringMap@MonitorThread@@AAE_NAAV?$hashtable@Vword@svutil@@V12@@svutil@@PBD@Z 00423ed9 f   MonitorThread.obj
 0001:00022ef0       $L87373                    00423ef0 f   MonitorThread.obj
 0001:00022efb       $L87374                    00423efb f   MonitorThread.obj
 0001:00022f03       $L87375                    00423f03 f   MonitorThread.obj
 0001:00022f11       $L87376                    00423f11 f   MonitorThread.obj
 0001:00022f1c       __ehhandler$?PaserResultV70@MonitorThread@@AAEHXZ 00423f1c f   MonitorThread.obj
 0001:00022f30       $L87617                    00423f30 f   MonitorThread.obj
 0001:00022f38       $L87618                    00423f38 f   MonitorThread.obj
 0001:00022f40       $L87619                    00423f40 f   MonitorThread.obj
 0001:00022f48       $L87620                    00423f48 f   MonitorThread.obj
 0001:00022f50       $L87621                    00423f50 f   MonitorThread.obj
 0001:00022f58       $L87622                    00423f58 f   MonitorThread.obj
 0001:00022f61       __ehhandler$?RunMonitor@MonitorThread@@IAEXXZ 00423f61 f   MonitorThread.obj
 0001:00022f70       $L87864                    00423f70 f   MonitorThread.obj
 0001:00022f78       __ehhandler$?run@MonitorThread@@UAEXXZ 00423f78 f   MonitorThread.obj
 0001:00022f90       $L28027                    00423f90 f   MSGQueue.obj
 0001:00022f9e       $L28028                    00423f9e f   MSGQueue.obj
 0001:00022fad       $L28029                    00423fad f   MSGQueue.obj
 0001:00022fbc       __ehhandler$??0MSGQueue@@QAE@XZ 00423fbc f   MSGQueue.obj
 0001:00022fd0       $L28124                    00423fd0 f   MSGQueue.obj
 0001:00022fde       $L28125                    00423fde f   MSGQueue.obj
 0001:00022fed       __ehhandler$??1MSGQueue@@QAE@XZ 00423fed f   MSGQueue.obj
 0001:00023000       $L48129                    00424000 f   ommunicationThread.obj
 0001:00023009       $L48130                    00424009 f   ommunicationThread.obj
 0001:00023015       $L48131                    00424015 f   ommunicationThread.obj
 0001:00023021       $L48133                    00424021 f   ommunicationThread.obj
 0001:0002302d       $L48134                    0042402d f   ommunicationThread.obj
 0001:00023039       $L48136                    00424039 f   ommunicationThread.obj
 0001:00023045       $L48137                    00424045 f   ommunicationThread.obj
 0001:00023051       $L48139                    00424051 f   ommunicationThread.obj
 0001:0002305a       $L48140                    0042405a f   ommunicationThread.obj
 0001:00023066       __ehhandler$?run@CommunicationThread@@UAEXXZ 00424066 f   ommunicationThread.obj
 0001:00023070       $L43907                    00424070 f   Option.obj
 0001:0002307c       $L43908                    0042407c f   Option.obj
 0001:00023088       $L43909                    00424088 f   Option.obj
 0001:00023094       $L43910                    00424094 f   Option.obj
 0001:000230a0       __ehhandler$??0Option@@QAE@XZ 004240a0 f   Option.obj
 0001:000230b0       $L48812                    004240b0 f   Option.obj
 0001:000230bc       $L48813                    004240bc f   Option.obj
 0001:000230c7       $L48814                    004240c7 f   Option.obj
 0001:000230d3       $L48815                    004240d3 f   Option.obj
 0001:000230df       $L48816                    004240df f   Option.obj
 0001:000230eb       $L48817                    004240eb f   Option.obj
 0001:000230f7       $L48818                    004240f7 f   Option.obj
 0001:00023103       $L48819                    00424103 f   Option.obj
 0001:0002310f       $L48820                    0042410f f   Option.obj
 0001:0002311b       $L48821                    0042411b f   Option.obj
 0001:00023127       __ehhandler$?LoadOption@Option@@QAE_NXZ 00424127 f   Option.obj
 0001:00023140       $L41403                    00424140 f   ProcessMonitorData.obj
 0001:0002314c       $L41404                    0042414c f   ProcessMonitorData.obj
 0001:00023158       __ehhandler$??0ProcessMonitorData@@QAE@XZ 00424158 f   ProcessMonitorData.obj
 0001:00023170       $L41420                    00424170 f   ProcessMonitorData.obj
 0001:0002317c       __ehhandler$??1ProcessMonitorData@@QAE@XZ 0042417c f   ProcessMonitorData.obj
 0001:00023190       __ehhandler$?CreateObjectByRawData@ProcessMonitorData@@QAE_NPBDH@Z 00424190 f   ProcessMonitorData.obj
 0001:000231a0       $L47793                    004241a0 f   QueueItem.obj
 0001:000231ab       __ehhandler$??1QueueItem@@UAE@XZ 004241ab f   QueueItem.obj
 0001:000231c0       $L47838                    004241c0 f   QueueItem.obj
 0001:000231c9       __ehhandler$?Push@QueueItem@@QAEXPAVMonitor@@H@Z 004241c9 f   QueueItem.obj
 0001:000231e0       $L48029                    004241e0 f   QueueItem.obj
 0001:000231e9       __ehhandler$?Pop@QueueItem@@QAEPAVMonitor@@XZ 004241e9 f   QueueItem.obj
 0001:00023200       $L50770                    00424200 f   QueuesManager.obj
 0001:00023208       __ehhandler$?Push@QueuesManager@@QAEHPAVMonitor@@H@Z 00424208 f   QueuesManager.obj
 0001:00023220       $L50873                    00424220 f   QueuesManager.obj
 0001:0002322b       __ehhandler$??0QueueItem@@QAE@PBD@Z 0042422b f   QueuesManager.obj
 0001:00023240       $L50979                    00424240 f   QueuesManager.obj
 0001:0002324b       __ehhandler$?CreateQueueBySubsequent@QueuesManager@@AAEHXZ 0042424b f   QueuesManager.obj
 0001:00023260       $L51082                    00424260 f   QueuesManager.obj
 0001:0002326e       __ehhandler$?CreateMainQueue@QueuesManager@@AAEHXZ 0042426e f   QueuesManager.obj
 0001:00023280       $L54063                    00424280 f   readSVDB.obj
 0001:00023289       __ehhandler$??1sv_pair@@QAE@XZ 00424289 f   readSVDB.obj
 0001:000232a0       $L54161                    004242a0 f   readSVDB.obj
 0001:000232a0       $L54172                    004242a0 f   readSVDB.obj
 0001:000232a9       $L54173                    004242a9 f   readSVDB.obj
 0001:000232a9       $L54162                    004242a9 f   readSVDB.obj
 0001:000232b5       __ehhandler$??0readSVDB@@QAE@XZ 004242b5 f   readSVDB.obj
 0001:000232b5       __ehhandler$??1readSVDB@@QAE@XZ 004242b5 f   readSVDB.obj
 0001:000232c0       $L54211                    004242c0 f   readSVDB.obj
 0001:000232c9       $L54212                    004242c9 f   readSVDB.obj
 0001:000232d2       $L54213                    004242d2 f   readSVDB.obj
 0001:000232db       $L54214                    004242db f   readSVDB.obj
 0001:000232e4       $L54216                    004242e4 f   readSVDB.obj
 0001:000232ed       __ehhandler$?GetSGProValue@readSVDB@@QAE_NV?$basic_string@DU?$char_traits@D@std@@V?$allocator@D@2@@std@@0AAV23@@Z 004242ed f   readSVDB.obj
 0001:00023300       $L54693                    00424300 f   readSVDB.obj
 0001:00023308       __ehhandler$??0?$hashelement@Vword@svutil@@PAVTask@@@svutil@@QAE@ABVword@1@ABQAVTask@@@Z 00424308 f   readSVDB.obj
 0001:00023320       $L55066                    00424320 f   readSVDB.obj
 0001:00023320       $L55029                    00424320 f   readSVDB.obj
 0001:00023328       __ehhandler$??O?$treenode@V?$hashelement@Vword@svutil@@PAVTask@@@svutil@@@svutil@@QAE_NV01@@Z 00424328 f   readSVDB.obj
 0001:00023328       __ehhandler$??M?$treenode@V?$hashelement@Vword@svutil@@PAVTask@@@svutil@@@svutil@@QAE_NV01@@Z 00424328 f   readSVDB.obj
 0001:00023340       $L55459                    00424340 f   readSVDB.obj
 0001:00023340       $L57088                    00424340 f   readSVDB.obj
 0001:0002334b       __ehhandler$??0?$treenode@V?$hashelement@Vword@svutil@@PAVTask@@@svutil@@@svutil@@QAE@ABV?$hashelement@Vword@svutil@@PAVTask@@@1@@Z 0042434b f   readSVDB.obj
 0001:0002334b       __ehhandler$??0?$treenode@V?$hashelement@Vword@svutil@@PAVTask@@@svutil@@@svutil@@QAE@ABV01@@Z 0042434b f   readSVDB.obj
 0001:00023360       $L58152                    00424360 f   readSVDB.obj
 0001:00023369       $L58153                    00424369 f   readSVDB.obj
 0001:00023382       __ehhandler$??$make_pair@V?$basic_string@DU?$char_traits@D@std@@V?$allocator@D@2@@std@@PAX@std@@YA?AU?$pair@V?$basic_string@DU?$char_traits@D@std@@V?$allocator@D@2@@std@@PAX@0@V?$basic_string@DU?$char_traits@D@std@@V?$allocator@D@2@@0@PAX@Z 00424382 f   readSVDB.obj
 0001:00023390       $L58224                    00424390 f   readSVDB.obj
 0001:00023390       $L68144                    00424390 f   readSVDB.obj
 0001:0002339b       __ehhandler$??$CreateNode@V?$hashelement@Vword@svutil@@PAVTask@@@svutil@@@?$sorttree@V?$hashelement@Vword@svutil@@PAVTask@@@svutil@@@svutil@@SAPAV?$treenode@V?$hashelement@Vword@svutil@@PAVTask@@@svutil@@@1@ABV?$hashelement@Vword@svutil@@PAVTask@@@1@@Z 0042439b f   readSVDB.obj
 0001:0002339b       __ehhandler$?insert@?$hashtable@Vword@svutil@@PAVTask@@@svutil@@QAEAAPAVTask@@ABVword@2@ABQAV3@@Z 0042439b f   readSVDB.obj
 0001:000233b0       $L59441                    004243b0 f   readSVDB.obj
 0001:000233c1       __ehhandler$?_Buynode@?$_Tree@V?$_Tmap_traits@V?$basic_string@DU?$char_traits@D@std@@V?$allocator@D@2@@std@@PAXU?$less@V?$basic_string@DU?$char_traits@D@std@@V?$allocator@D@2@@std@@@2@V?$allocator@U?$pair@$$CBV?$basic_string@DU?$char_traits@D@std@@V?$allocator@D@2@@std@@PAX@std@@@2@$0A@@std@@@std@@IAEPAU_Node@?$_Tree_nod@V?$_Tmap_traits@V?$basic_string@DU?$char_traits@D@std@@V?$allocator@D@2@@std@@PAXU?$less@V?$basic_string@DU?$char_traits@D@std@@V?$allocator@D@2@@std@@@2@V?$allocator@U?$pair@$$CBV?$basic_string@DU?$char_traits@D@std@@V?$allocator@D@2@@std@@PAX@std@@@2@$0A@@std@@@2@PAU342@00ABU?$pair@$$CBV?$basic_string@DU?$char_traits@D@std@@V?$allocator@D@2@@std@@PAX@2@D@Z 004243c1 f   readSVDB.obj
 0001:000233d0       $L54609                    004243d0 f   readSVDB.obj
 0001:000233d0       $L54731                    004243d0 f   readSVDB.obj
 0001:000233d0       $L59366                    004243d0 f   readSVDB.obj
 0001:000233d0       $L60520                    004243d0 f   readSVDB.obj
 0001:000233d0       $L61821                    004243d0 f   readSVDB.obj
 0001:000233d0       $L61417                    004243d0 f   readSVDB.obj
 0001:000233d0       $L60800                    004243d0 f   readSVDB.obj
 0001:000233d9       $L54735                    004243d9 f   readSVDB.obj
 0001:000233d9       $L61427                    004243d9 f   readSVDB.obj
 0001:000233d9       $L60820                    004243d9 f   readSVDB.obj
 0001:000233d9       $L54613                    004243d9 f   readSVDB.obj
 0001:000233d9       $L61831                    004243d9 f   readSVDB.obj
 0001:000233d9       $L59386                    004243d9 f   readSVDB.obj
 0001:000233d9       $L60540                    004243d9 f   readSVDB.obj
 0001:000233e2       __ehhandler$?_Xlen@?$vector@U?$pair@HH@std@@V?$allocator@U?$pair@HH@std@@@2@@std@@IBEXXZ 004243e2 f   readSVDB.obj
 0001:000233e2       __ehhandler$?_Insert@?$_Tree@V?$_Tmap_traits@HPAXU?$less@H@std@@V?$allocator@U?$pair@$$CBHPAX@std@@@2@$0A@@std@@@std@@IAE?AViterator@12@_NPAU_Node@?$_Tree_nod@V?$_Tmap_traits@HPAXU?$less@H@std@@V?$allocator@U?$pair@$$CBHPAX@std@@@2@$0A@@std@@@2@ABU?$pair@$$CBHPAX@2@@Z 004243e2 f   readSVDB.obj
 0001:000233e2       __ehhandler$?erase@?$_Tree@V?$_Tmap_traits@HPAXU?$less@H@std@@V?$allocator@U?$pair@$$CBHPAX@std@@@2@$0A@@std@@@std@@QAE?AViterator@12@V312@@Z 004243e2 f   readSVDB.obj
 0001:000233e2       __ehhandler$?_Insert@?$_Tree@V?$_Tmap_traits@V?$basic_string@DU?$char_traits@D@std@@V?$allocator@D@2@@std@@PAXU?$less@V?$basic_string@DU?$char_traits@D@std@@V?$allocator@D@2@@std@@@2@V?$allocator@U?$pair@$$CBV?$basic_string@DU?$char_traits@D@std@@V?$allocator@D@2@@std@@PAX@std@@@2@$0A@@std@@@std@@IAE?AViterator@12@_NPAU_Node@?$_Tree_nod@V?$_Tmap_traits@V?$basic_string@DU?$char_traits@D@std@@V?$allocator@D@2@@std@@PAXU?$less@V?$basic_string@DU?$char_traits@D@std@@V?$allocator@D@2@@std@@@2@V?$allocator@U?$pair@$$CBV?$basic_string@DU?$char_traits@D@std@@V?$allocator@D@2@@std@@PAX@std@@@2@$0A@@std@@@2@ABU?$pair@$$CBV?$basic_string@DU?$char_traits@D@std@@V?$allocator@D@2@@std@@PAX@2@@Z 004243e2 f   readSVDB.obj
 0001:000233e2       __ehhandler$?erase@?$_Tree@V?$_Tmap_traits@V?$basic_string@DU?$char_traits@D@std@@V?$allocator@D@2@@std@@PAXU?$less@V?$basic_string@DU?$char_traits@D@std@@V?$allocator@D@2@@std@@@2@V?$allocator@U?$pair@$$CBV?$basic_string@DU?$char_traits@D@std@@V?$allocator@D@2@@std@@PAX@std@@@2@$0A@@std@@@std@@QAE?AViterator@12@V312@@Z 004243e2 f   readSVDB.obj
 0001:000233e2       __ehhandler$?_Xlen@?$vector@UPairTime@@V?$allocator@UPairTime@@@std@@@std@@IBEXXZ 004243e2 f   readSVDB.obj
 0001:000233e2       __ehhandler$?_Incsize@?$list@PAVSubsequentItem@@V?$allocator@PAVSubsequentItem@@@std@@@std@@IAEXI@Z 004243e2 f   readSVDB.obj
 0001:000233f0       $L63308                    004243f0 f   readSVDB.obj
 0001:000233f8       __ehhandler$?insert@?$hashnode@Vword@svutil@@PAVTask@@@svutil@@QAEAAV?$hashelement@Vword@svutil@@PAVTask@@@2@ABVword@2@ABQAVTask@@@Z 004243f8 f   readSVDB.obj
 0001:00023410       __ehhandler$?_Insert_n@?$vector@U?$pair@HH@std@@V?$allocator@U?$pair@HH@std@@@2@@std@@IAEXViterator@12@IABU?$pair@HH@2@@Z 00424410 f   readSVDB.obj
 0001:00023420       $L64173                    00424420 f   readSVDB.obj
 0001:00023429       __ehhandler$?FastGetMonitorTPL@readSVDB@@AAEPAXH@Z 00424429 f   readSVDB.obj
 0001:00023440       $L64256                    00424440 f   readSVDB.obj
 0001:00023440       $L64461                    00424440 f   readSVDB.obj
 0001:00023440       $L64666                    00424440 f   readSVDB.obj
 0001:00023449       $L64667                    00424449 f   readSVDB.obj
 0001:00023449       $L64257                    00424449 f   readSVDB.obj
 0001:00023449       $L64462                    00424449 f   readSVDB.obj
 0001:00023452       $L64463                    00424452 f   readSVDB.obj
 0001:00023452       $L64668                    00424452 f   readSVDB.obj
 0001:00023452       $L64258                    00424452 f   readSVDB.obj
 0001:0002345b       $L64261                    0042445b f   readSVDB.obj
 0001:0002345b       $L64671                    0042445b f   readSVDB.obj
 0001:0002345b       $L64466                    0042445b f   readSVDB.obj
 0001:00023463       $L64672                    00424463 f   readSVDB.obj
 0001:00023463       $L64262                    00424463 f   readSVDB.obj
 0001:00023463       $L64467                    00424463 f   readSVDB.obj
 0001:0002346b       __ehhandler$?FastGetEntity@readSVDB@@AAEPAXV?$basic_string@DU?$char_traits@D@std@@V?$allocator@D@2@@std@@@Z 0042446b f   readSVDB.obj
 0001:0002346b       __ehhandler$?FastGetEntityTPL@readSVDB@@AAEPAXV?$basic_string@DU?$char_traits@D@std@@V?$allocator@D@2@@std@@@Z 0042446b f   readSVDB.obj
 0001:0002346b       __ehhandler$?FastGetMonitor@readSVDB@@AAEPAXV?$basic_string@DU?$char_traits@D@std@@V?$allocator@D@2@@std@@@Z 0042446b f   readSVDB.obj
 0001:00023480       $L64882                    00424480 f   readSVDB.obj
 0001:00023489       $L64883                    00424489 f   readSVDB.obj
 0001:00023492       $L64885                    00424492 f   readSVDB.obj
 0001:0002349e       $L64888                    0042449e f   readSVDB.obj
 0001:000234aa       $L64890                    004244aa f   readSVDB.obj
 0001:000234b6       $L64891                    004244b6 f   readSVDB.obj
 0001:000234c2       $L64896                    004244c2 f   readSVDB.obj
 0001:000234cd       __ehhandler$?GetMonitorParaValueByName@readSVDB@@QAE_NV?$basic_string@DU?$char_traits@D@std@@V?$allocator@D@2@@std@@0AAV23@@Z 004244cd f   readSVDB.obj
 0001:000234e0       $L64964                    004244e0 f   readSVDB.obj
 0001:000234e9       $L64966                    004244e9 f   readSVDB.obj
 0001:000234f2       $L64967                    004244f2 f   readSVDB.obj
 0001:000234fb       __ehhandler$?GetSMCommon@readSVDB@@QAE_NPAVMonitor@@V?$basic_string@DU?$char_traits@D@std@@V?$allocator@D@2@@std@@@Z 004244fb f   readSVDB.obj
 0001:00023510       $L65121                    00424510 f   readSVDB.obj
 0001:00023510       $L65402                    00424510 f   readSVDB.obj
 0001:00023519       $L65123                    00424519 f   readSVDB.obj
 0001:00023519       $L65403                    00424519 f   readSVDB.obj
 0001:00023522       __ehhandler$?GetConditionString@readSVDB@@QAE_NV?$basic_string@DU?$char_traits@D@std@@V?$allocator@D@2@@std@@IAAV23@@Z 00424522 f   readSVDB.obj
 0001:00023522       __ehhandler$?GetMLRunParaNames@readSVDB@@QAE_NV?$basic_string@DU?$char_traits@D@std@@V?$allocator@D@2@@std@@AAV?$list@V?$basic_string@DU?$char_traits@D@std@@V?$allocator@D@2@@std@@V?$allocator@V?$basic_string@DU?$char_traits@D@std@@V?$allocator@D@2@@std@@@2@@3@@Z 00424522 f   readSVDB.obj
 0001:00023530       $L65173                    00424530 f   readSVDB.obj
 0001:00023539       $L65175                    00424539 f   readSVDB.obj
 0001:00023542       $L65177                    00424542 f   readSVDB.obj
 0001:0002354d       __ehhandler$?GetSMStateConditionItemList@readSVDB@@QAE_NV?$basic_string@DU?$char_traits@D@std@@V?$allocator@D@2@@std@@AAV?$list@PAVStateConditionItem@@V?$allocator@PAVStateConditionItem@@@std@@@3@I@Z 0042454d f   readSVDB.obj
 0001:00023560       $L65366                    00424560 f   readSVDB.obj
 0001:00023560       $L65275                    00424560 f   readSVDB.obj
 0001:00023569       $L65276                    00424569 f   readSVDB.obj
 0001:00023569       $L65367                    00424569 f   readSVDB.obj
 0001:00023572       $L65278                    00424572 f   readSVDB.obj
 0001:00023572       $L65368                    00424572 f   readSVDB.obj
 0001:0002357b       __ehhandler$?GetMLValue@readSVDB@@QAE_NV?$basic_string@DU?$char_traits@D@std@@V?$allocator@D@2@@std@@0AAV23@@Z 0042457b f   readSVDB.obj
 0001:0002357b       __ehhandler$?GetEntityConfigValue@readSVDB@@QAE_NV?$basic_string@DU?$char_traits@D@std@@V?$allocator@D@2@@std@@0AAV23@@Z 0042457b f   readSVDB.obj
 0001:00023590       $L65580                    00424590 f   readSVDB.obj
 0001:00023599       $L65582                    00424599 f   readSVDB.obj
 0001:000235a2       $L65583                    004245a2 f   readSVDB.obj
 0001:000235ad       $L65587                    004245ad f   readSVDB.obj
 0001:000235b6       __ehhandler$?GetMLReturnDataList@readSVDB@@QAE_NAAV?$list@PAVReturnData@@V?$allocator@PAVReturnData@@@std@@@std@@H@Z 004245b6 f   readSVDB.obj
 0001:000235c0       __ehhandler$?_Insert_n@?$vector@UPairTime@@V?$allocator@UPairTime@@@std@@@std@@IAEXViterator@12@IABUPairTime@@@Z 004245c0 f   readSVDB.obj
 0001:000235d0       $L67989                    004245d0 f   readSVDB.obj
 0001:000235d9       __ehhandler$?SetSvdbAddr@readSVDB@@QAE_NV?$basic_string@DU?$char_traits@D@std@@V?$allocator@D@2@@std@@@Z 004245d9 f   readSVDB.obj
 0001:000235f0       $L68830                    004245f0 f   readSVDB.obj
 0001:000235fb       $L68831                    004245fb f   readSVDB.obj
 0001:00023604       $L68833                    00424604 f   readSVDB.obj
 0001:0002360f       $L68834                    0042460f f   readSVDB.obj
 0001:00023618       $L68835                    00424618 f   readSVDB.obj
 0001:00023621       $L68836                    00424621 f   readSVDB.obj
 0001:0002362a       $L68837                    0042462a f   readSVDB.obj
 0001:00023633       $L68838                    00424633 f   readSVDB.obj
 0001:0002363c       $L68840                    0042463c f   readSVDB.obj
 0001:00023645       $L68841                    00424645 f   readSVDB.obj
 0001:0002364e       $L68842                    0042464e f   readSVDB.obj
 0001:00023657       $L68843                    00424657 f   readSVDB.obj
 0001:00023660       $L68844                    00424660 f   readSVDB.obj
 0001:00023669       $L68846                    00424669 f   readSVDB.obj
 0001:00023672       __ehhandler$?GetSubsequentList@readSVDB@@QAEHAAV?$list@PAVSubsequentItem@@V?$allocator@PAVSubsequentItem@@@std@@@std@@@Z 00424672 f   readSVDB.obj
 0001:00023680       $L69906                    00424680 f   readSVDB.obj
 0001:0002368b       $L69907                    0042468b f   readSVDB.obj
 0001:00023697       $L69908                    00424697 f   readSVDB.obj
 0001:000236a0       $L69909                    004246a0 f   readSVDB.obj
 0001:000236a9       $L70220                    004246a9 f   readSVDB.obj
 0001:000236b2       __ehhandler$?GetMonitorIDLSTBySE@readSVDB@@QAEJAAV?$list@V?$basic_string@DU?$char_traits@D@std@@V?$allocator@D@2@@std@@V?$allocator@V?$basic_string@DU?$char_traits@D@std@@V?$allocator@D@2@@std@@@2@@std@@H@Z 004246b2 f   readSVDB.obj
 0001:000236c0       $L70404                    004246c0 f   readSVDB.obj
 0001:000236c9       $L70406                    004246c9 f   readSVDB.obj
 0001:000236d5       $L70409                    004246d5 f   readSVDB.obj
 0001:000236e0       $L70410                    004246e0 f   readSVDB.obj
 0001:000236ec       $L70411                    004246ec f   readSVDB.obj
 0001:000236f8       $L70414                    004246f8 f   readSVDB.obj
 0001:00023703       $L70415                    00424703 f   readSVDB.obj
 0001:0002370f       $L70416                    0042470f f   readSVDB.obj
 0001:0002371b       $L70417                    0042471b f   readSVDB.obj
 0001:00023726       $L70418                    00424726 f   readSVDB.obj
 0001:00023732       $L70419                    00424732 f   readSVDB.obj
 0001:0002373e       __ehhandler$?GetEntityList@readSVDB@@QAE_NV?$basic_string@DU?$char_traits@D@std@@V?$allocator@D@2@@std@@AAV?$list@V?$basic_string@DU?$char_traits@D@std@@V?$allocator@D@2@@std@@V?$allocator@V?$basic_string@DU?$char_traits@D@std@@V?$allocator@D@2@@std@@@2@@3@@Z 0042473e f   readSVDB.obj
 0001:00023750       $L71352                    00424750 f   readSVDB.obj
 0001:00023758       $L71353                    00424758 f   readSVDB.obj
 0001:00023761       $L71354                    00424761 f   readSVDB.obj
 0001:0002376a       $L71694                    0042476a f   readSVDB.obj
 0001:00023773       __ehhandler$?GetEntityIDListBySE@readSVDB@@QAE_NAAV?$list@V?$basic_string@DU?$char_traits@D@std@@V?$allocator@D@2@@std@@V?$allocator@V?$basic_string@DU?$char_traits@D@std@@V?$allocator@D@2@@std@@@2@@std@@H@Z 00424773 f   readSVDB.obj
 0001:00023780       $L71866                    00424780 f   readSVDB.obj
 0001:00023788       $L71867                    00424788 f   readSVDB.obj
 0001:00023791       $L71868                    00424791 f   readSVDB.obj
 0001:0002379a       $L72175                    0042479a f   readSVDB.obj
 0001:000237a3       __ehhandler$?GetGroupIDList@readSVDB@@QAE_NAAV?$list@V?$basic_string@DU?$char_traits@D@std@@V?$allocator@D@2@@std@@V?$allocator@V?$basic_string@DU?$char_traits@D@std@@V?$allocator@D@2@@std@@@2@@std@@@Z 004247a3 f   readSVDB.obj
 0001:000237b0       $L73436                    004247b0 f   readSVDB.obj
 0001:000237bb       $L73437                    004247bb f   readSVDB.obj
 0001:000237c7       $L73439                    004247c7 f   readSVDB.obj
 0001:000237d3       $L73440                    004247d3 f   readSVDB.obj
 0001:000237df       $L73442                    004247df f   readSVDB.obj
 0001:000237ed       $L73443                    004247ed f   readSVDB.obj
 0001:000237f8       $L73444                    004247f8 f   readSVDB.obj
 0001:00023804       $L73446                    00424804 f   readSVDB.obj
 0001:00023810       $L73447                    00424810 f   readSVDB.obj
 0001:0002381b       $L73448                    0042481b f   readSVDB.obj
 0001:00023826       $L73450                    00424826 f   readSVDB.obj
 0001:00023832       $L73452                    00424832 f   readSVDB.obj
 0001:0002383e       $L73453                    0042483e f   readSVDB.obj
 0001:0002384a       $L73454                    0042484a f   readSVDB.obj
 0001:00023856       $L73458                    00424856 f   readSVDB.obj
 0001:00023862       $L73459                    00424862 f   readSVDB.obj
 0001:0002386e       $L73460                    0042486e f   readSVDB.obj
 0001:0002387a       __ehhandler$?GetTaskMap@readSVDB@@QAE_NAAV?$hashtable@Vword@svutil@@PAVTask@@@svutil@@@Z 0042487a f   readSVDB.obj
 0001:00023890       $L41341                    00424890 f   ReturnData.obj
 0001:00023890       $L41358                    00424890 f   ReturnData.obj
 0001:0002389b       __ehhandler$??1ReturnData@@QAE@XZ 0042489b f   ReturnData.obj
 0001:0002389b       __ehhandler$??0ReturnData@@QAE@XZ 0042489b f   ReturnData.obj
 0001:000238b0       $L55106                    004248b0 f   ScheduleThread.obj
 0001:000238b8       $L55107                    004248b8 f   ScheduleThread.obj
 0001:000238c0       $L55108                    004248c0 f   ScheduleThread.obj
 0001:000238c8       $L55110                    004248c8 f   ScheduleThread.obj
 0001:000238d4       $L55115                    004248d4 f   ScheduleThread.obj
 0001:000238df       $L55119                    004248df f   ScheduleThread.obj
 0001:000238ea       $L55120                    004248ea f   ScheduleThread.obj
 0001:000238f6       $L55126                    004248f6 f   ScheduleThread.obj
 0001:00023901       $L55130                    00424901 f   ScheduleThread.obj
 0001:00023909       $L55134                    00424909 f   ScheduleThread.obj
 0001:00023911       $L55138                    00424911 f   ScheduleThread.obj
 0001:00023919       __ehhandler$?run@ScheduleThread@@UAEXXZ 00424919 f   ScheduleThread.obj
 0001:00023930       $L56000                    00424930 f   ScheduleThread.obj
 0001:00023938       $L56001                    00424938 f   ScheduleThread.obj
 0001:00023944       $L56002                    00424944 f   ScheduleThread.obj
 0001:00023952       __ehhandler$??0ThreadContrl@@QAE@PAVMonitorSchMain@@@Z 00424952 f   ScheduleThread.obj
 0001:00023960       $L56117                    00424960 f   ScheduleThread.obj
 0001:0002396c       $L56119                    0042496c f   ScheduleThread.obj
 0001:00023975       $L56124                    00424975 f   ScheduleThread.obj
 0001:00023983       __ehhandler$?Init@ScheduleThread@@QAEHXZ 00424983 f   ScheduleThread.obj
 0001:00023990       $L56353                    00424990 f   SerialData.obj
 0001:00023999       $L56354                    00424999 f   SerialData.obj
 0001:000239a2       $L56355                    004249a2 f   SerialData.obj
 0001:000239ab       $L56356                    004249ab f   SerialData.obj
 0001:000239b3       __ehhandler$?CovertStringToMap@SerialData@@AAE_NV?$basic_string@DU?$char_traits@D@std@@V?$allocator@D@2@@std@@AAV?$hashtable@Vword@svutil@@V12@@svutil@@@Z 004249b3 f   SerialData.obj
 0001:000239c0       $L56469                    004249c0 f   SerialData.obj
 0001:000239cb       $L56470                    004249cb f   SerialData.obj
 0001:000239d7       $L56472                    004249d7 f   SerialData.obj
 0001:000239e5       $L56476                    004249e5 f   SerialData.obj
 0001:000239f3       $L56477                    004249f3 f   SerialData.obj
 0001:000239fe       __ehhandler$?Serial@SerialData@@AAEHPAU_iobuf@@AAV?$list@PAVMonitor@@V?$allocator@PAVMonitor@@@std@@@std@@PAVGroups@@PAVSubsequent@@AAV?$hashtable@Vword@svutil@@PAVTask@@@svutil@@_N@Z 004249fe f   SerialData.obj
 0001:00023a10       $L44104                    00424a10 f   StateCondition.obj
 0001:00023a1b       $L44105                    00424a1b f   StateCondition.obj
 0001:00023a26       __ehhandler$??1StateCondition@@QAE@XZ 00424a26 f   StateCondition.obj
 0001:00023a30       $L44419                    00424a30 f   StateCondition.obj
 0001:00023a3b       __ehhandler$??0StateCondition@@QAE@XZ 00424a3b f   StateCondition.obj
 0001:00023a50       $L41341                    00424a50 f   StateConditionItem.obj
 0001:00023a50       $L41358                    00424a50 f   StateConditionItem.obj
 0001:00023a5b       __ehhandler$??1StateConditionItem@@QAE@XZ 00424a5b f   StateConditionItem.obj
 0001:00023a5b       __ehhandler$??0StateConditionItem@@QAE@XZ 00424a5b f   StateConditionItem.obj
 0001:00023a70       $L22541                    00424a70 f   stlini.obj
 0001:00023a81       __ehhandler$?_Buynode@?$_Tree@V?$_Tmap_traits@V?$basic_string@DU?$char_traits@D@std@@V?$allocator@D@2@@std@@V12@UStlIniCompareStringNoCase@@V?$allocator@U?$pair@$$CBV?$basic_string@DU?$char_traits@D@std@@V?$allocator@D@2@@std@@V12@@std@@@2@$0A@@std@@@std@@IAEPAU_Node@?$_Tree_nod@V?$_Tmap_traits@V?$basic_string@DU?$char_traits@D@std@@V?$allocator@D@2@@std@@V12@UStlIniCompareStringNoCase@@V?$allocator@U?$pair@$$CBV?$basic_string@DU?$char_traits@D@std@@V?$allocator@D@2@@std@@V12@@std@@@2@$0A@@std@@@2@PAU342@00ABU?$pair@$$CBV?$basic_string@DU?$char_traits@D@std@@V?$allocator@D@2@@std@@V12@@2@D@Z 00424a81 f   stlini.obj
 0001:00023a90       $L23397                    00424a90 f   stlini.obj
 0001:00023a99       $L23400                    00424a99 f   stlini.obj
 0001:00023ab3       __ehhandler$?GetIniSetting@@YA?AV?$basic_string@DU?$char_traits@D@std@@V?$allocator@D@2@@std@@AAV?$map@V?$basic_string@DU?$char_traits@D@std@@V?$allocator@D@2@@std@@V?$map@V?$basic_string@DU?$char_traits@D@std@@V?$allocator@D@2@@std@@V12@UStlIniCompareStringNoCase@@V?$allocator@U?$pair@$$CBV?$basic_string@DU?$char_traits@D@std@@V?$allocator@D@2@@std@@V12@@std@@@2@@2@UStlIniCompareStringNoCase@@V?$allocator@U?$pair@$$CBV?$basic_string@DU?$char_traits@D@std@@V?$allocator@D@2@@std@@V?$map@V?$basic_string@DU?$char_traits@D@std@@V?$allocator@D@2@@std@@V12@UStlIniCompareStringNoCase@@V?$allocator@U?$pair@$$CBV?$basic_string@DU?$char_traits@D@std@@V?$allocator@D@2@@std@@V12@@std@@@2@@2@@std@@@2@@2@PBD11@Z 00424ab3 f   stlini.obj
 0001:00023ac0       __ehhandler$?_Copy@?$_Tree@V?$_Tmap_traits@V?$basic_string@DU?$char_traits@D@std@@V?$allocator@D@2@@std@@V12@UStlIniCompareStringNoCase@@V?$allocator@U?$pair@$$CBV?$basic_string@DU?$char_traits@D@std@@V?$allocator@D@2@@std@@V12@@std@@@2@$0A@@std@@@std@@IAEPAU_Node@?$_Tree_nod@V?$_Tmap_traits@V?$basic_string@DU?$char_traits@D@std@@V?$allocator@D@2@@std@@V12@UStlIniCompareStringNoCase@@V?$allocator@U?$pair@$$CBV?$basic_string@DU?$char_traits@D@std@@V?$allocator@D@2@@std@@V12@@std@@@2@$0A@@std@@@2@PAU342@0@Z 00424ac0 f   stlini.obj
 0001:00023ad0       __ehhandler$??0?$_Tree@V?$_Tmap_traits@V?$basic_string@DU?$char_traits@D@std@@V?$allocator@D@2@@std@@V12@UStlIniCompareStringNoCase@@V?$allocator@U?$pair@$$CBV?$basic_string@DU?$char_traits@D@std@@V?$allocator@D@2@@std@@V12@@std@@@2@$0A@@std@@@std@@QAE@ABV01@@Z 00424ad0 f   stlini.obj
 0001:00023ae0       $L26252                    00424ae0 f   stlini.obj
 0001:00023ae9       __ehhandler$??1?$pair@V?$basic_string@DU?$char_traits@D@std@@V?$allocator@D@2@@std@@V?$map@V?$basic_string@DU?$char_traits@D@std@@V?$allocator@D@2@@std@@V12@UStlIniCompareStringNoCase@@V?$allocator@U?$pair@$$CBV?$basic_string@DU?$char_traits@D@std@@V?$allocator@D@2@@std@@V12@@std@@@2@@2@@std@@QAE@XZ 00424ae9 f   stlini.obj
 0001:00023b00       $L26799                    00424b00 f   stlini.obj
 0001:00023b00       $L20281                    00424b00 f   stlini.obj
 0001:00023b00       $L26779                    00424b00 f   stlini.obj
 0001:00023b00       $L20073                    00424b00 f   stlini.obj
 0001:00023b00       $L26763                    00424b00 f   stlini.obj
 0001:00023b00       $L19456                    00424b00 f   stlini.obj
 0001:00023b00       $L19388                    00424b00 f   stlini.obj
 0001:00023b09       __ehhandler$??0?$pair@$$CBV?$basic_string@DU?$char_traits@D@std@@V?$allocator@D@2@@std@@V12@@std@@QAE@ABU01@@Z 00424b09 f   stlini.obj
 0001:00023b09       __ehhandler$??$?0V?$basic_string@DU?$char_traits@D@std@@V?$allocator@D@2@@std@@V01@@?$pair@$$CBV?$basic_string@DU?$char_traits@D@std@@V?$allocator@D@2@@std@@V12@@std@@QAE@ABU?$pair@V?$basic_string@DU?$char_traits@D@std@@V?$allocator@D@2@@std@@V12@@1@@Z 00424b09 f   stlini.obj
 0001:00023b09       __ehhandler$??0?$pair@V?$basic_string@DU?$char_traits@D@std@@V?$allocator@D@2@@std@@V?$map@V?$basic_string@DU?$char_traits@D@std@@V?$allocator@D@2@@std@@V12@UStlIniCompareStringNoCase@@V?$allocator@U?$pair@$$CBV?$basic_string@DU?$char_traits@D@std@@V?$allocator@D@2@@std@@V12@@std@@@2@@2@@std@@QAE@ABV?$basic_string@DU?$char_traits@D@std@@V?$allocator@D@2@@1@ABV?$map@V?$basic_string@DU?$char_traits@D@std@@V?$allocator@D@2@@std@@V12@UStlIniCompareStringNoCase@@V?$allocator@U?$pair@$$CBV?$basic_string@DU?$char_traits@D@std@@V?$allocator@D@2@@std@@V12@@std@@@2@@1@@Z 00424b09 f   stlini.obj
 0001:00023b09       __ehhandler$??0?$pair@V?$basic_string@DU?$char_traits@D@std@@V?$allocator@D@2@@std@@V12@@std@@QAE@ABV?$basic_string@DU?$char_traits@D@std@@V?$allocator@D@2@@1@0@Z 00424b09 f   stlini.obj
 0001:00023b09       __ehhandler$??1?$pair@V?$basic_string@DU?$char_traits@D@std@@V?$allocator@D@2@@std@@V12@@std@@QAE@XZ 00424b09 f   stlini.obj
 0001:00023b09       __ehhandler$??0?$pair@$$CBV?$basic_string@DU?$char_traits@D@std@@V?$allocator@D@2@@std@@V?$map@V?$basic_string@DU?$char_traits@D@std@@V?$allocator@D@2@@std@@V12@UStlIniCompareStringNoCase@@V?$allocator@U?$pair@$$CBV?$basic_string@DU?$char_traits@D@std@@V?$allocator@D@2@@std@@V12@@std@@@2@@2@@std@@QAE@ABU01@@Z 00424b09 f   stlini.obj
 0001:00023b09       __ehhandler$??$?0V?$basic_string@DU?$char_traits@D@std@@V?$allocator@D@2@@std@@V?$map@V?$basic_string@DU?$char_traits@D@std@@V?$allocator@D@2@@std@@V12@UStlIniCompareStringNoCase@@V?$allocator@U?$pair@$$CBV?$basic_string@DU?$char_traits@D@std@@V?$allocator@D@2@@std@@V12@@std@@@2@@1@@?$pair@$$CBV?$basic_string@DU?$char_traits@D@std@@V?$allocator@D@2@@std@@V?$map@V?$basic_string@DU?$char_traits@D@std@@V?$allocator@D@2@@std@@V12@UStlIniCompareStringNoCase@@V?$allocator@U?$pair@$$CBV?$basic_string@DU?$char_traits@D@std@@V?$allocator@D@2@@std@@V12@@std@@@2@@2@@std@@QAE@ABU?$pair@V?$basic_string@DU?$char_traits@D@std@@V?$allocator@D@2@@std@@V?$map@V?$basic_string@DU?$char_traits@D@std@@V?$allocator@D@2@@std@@V12@UStlIniCompareStringNoCase@@V?$allocator@U?$pair@$$CBV?$basic_string@DU?$char_traits@D@std@@V?$allocator@D@2@@std@@V12@@std@@@2@@2@@1@@Z 00424b09 f   stlini.obj
 0001:00023b20       $L26829                    00424b20 f   stlini.obj
 0001:00023b31       __ehhandler$?_Buynode@?$_Tree@V?$_Tmap_traits@V?$basic_string@DU?$char_traits@D@std@@V?$allocator@D@2@@std@@V?$map@V?$basic_string@DU?$char_traits@D@std@@V?$allocator@D@2@@std@@V12@UStlIniCompareStringNoCase@@V?$allocator@U?$pair@$$CBV?$basic_string@DU?$char_traits@D@std@@V?$allocator@D@2@@std@@V12@@std@@@2@@2@UStlIniCompareStringNoCase@@V?$allocator@U?$pair@$$CBV?$basic_string@DU?$char_traits@D@std@@V?$allocator@D@2@@std@@V?$map@V?$basic_string@DU?$char_traits@D@std@@V?$allocator@D@2@@std@@V12@UStlIniCompareStringNoCase@@V?$allocator@U?$pair@$$CBV?$basic_string@DU?$char_traits@D@std@@V?$allocator@D@2@@std@@V12@@std@@@2@@2@@std@@@2@$0A@@std@@@std@@IAEPAU_Node@?$_Tree_nod@V?$_Tmap_traits@V?$basic_string@DU?$char_traits@D@std@@V?$allocator@D@2@@std@@V?$map@V?$basic_string@DU?$char_traits@D@std@@V?$allocator@D@2@@std@@V12@UStlIniCompareStringNoCase@@V?$allocator@U?$pair@$$CBV?$basic_string@DU?$char_traits@D@std@@V?$allocator@D@2@@std@@V12@@std@@@2@@2@UStlIniCompareStringNoCase@@V?$allocator@U?$pair@$$CBV?$basic_string@DU?$char_traits@D@std@@V?$allocator@D@2@@std@@V?$map@V?$basic_string@DU?$char_traits@D@std@@V?$allocator@D@2@@std@@V12@UStlIniCompareStringNoCase@@V?$allocator@U?$pair@$$CBV?$basic_string@DU?$char_traits@D@std@@V?$allocator@D@2@@std@@V12@@std@@@2@@2@@std@@@2@$0A@@std@@@2@PAU342@00ABU?$pair@$$CBV?$basic_string@DU?$char_traits@D@std@@V?$allocator@D@2@@std@@V?$map@V?$basic_string@DU?$char_traits@D@std@@V?$allocator@D@2@@std@@V12@UStlIniCompareStringNoCase@@V?$allocator@U?$pair@$$CBV?$basic_string@DU?$char_traits@D@std@@V?$allocator@D@2@@std@@V12@@std@@@2@@2@@2@D@Z 00424b31 f   stlini.obj
 0001:00023b40       $L22974                    00424b40 f   stlini.obj
 0001:00023b40       $L26869                    00424b40 f   stlini.obj
 0001:00023b49       $L26889                    00424b49 f   stlini.obj
 0001:00023b49       $L22994                    00424b49 f   stlini.obj
 0001:00023b52       __ehhandler$?_Insert@?$_Tree@V?$_Tmap_traits@V?$basic_string@DU?$char_traits@D@std@@V?$allocator@D@2@@std@@V?$map@V?$basic_string@DU?$char_traits@D@std@@V?$allocator@D@2@@std@@V12@UStlIniCompareStringNoCase@@V?$allocator@U?$pair@$$CBV?$basic_string@DU?$char_traits@D@std@@V?$allocator@D@2@@std@@V12@@std@@@2@@2@UStlIniCompareStringNoCase@@V?$allocator@U?$pair@$$CBV?$basic_string@DU?$char_traits@D@std@@V?$allocator@D@2@@std@@V?$map@V?$basic_string@DU?$char_traits@D@std@@V?$allocator@D@2@@std@@V12@UStlIniCompareStringNoCase@@V?$allocator@U?$pair@$$CBV?$basic_string@DU?$char_traits@D@std@@V?$allocator@D@2@@std@@V12@@std@@@2@@2@@std@@@2@$0A@@std@@@std@@IAE?AViterator@12@_NPAU_Node@?$_Tree_nod@V?$_Tmap_traits@V?$basic_string@DU?$char_traits@D@std@@V?$allocator@D@2@@std@@V?$map@V?$basic_string@DU?$char_traits@D@std@@V?$allocator@D@2@@std@@V12@UStlIniCompareStringNoCase@@V?$allocator@U?$pair@$$CBV?$basic_string@DU?$char_traits@D@std@@V?$allocator@D@2@@std@@V12@@std@@@2@@2@UStlIniCompareStringNoCase@@V?$allocator@U?$pair@$$CBV?$basic_string@DU?$char_traits@D@std@@V?$allocator@D@2@@std@@V?$map@V?$basic_string@DU?$char_traits@D@std@@V?$allocator@D@2@@std@@V12@UStlIniCompareStringNoCase@@V?$allocator@U?$pair@$$CBV?$basic_string@DU?$char_traits@D@std@@V?$allocator@D@2@@std@@V12@@std@@@2@@2@@std@@@2@$0A@@std@@@2@ABU?$pair@$$CBV?$basic_string@DU?$char_traits@D@std@@V?$allocator@D@2@@std@@V?$map@V?$basic_string@DU?$char_traits@D@std@@V?$allocator@D@2@@std@@V12@UStlIniCompareStringNoCase@@V?$allocator@U?$pair@$$CBV?$basic_string@DU?$char_traits@D@std@@V?$allocator@D@2@@std@@V12@@std@@@2@@2@@2@@Z 00424b52 f   stlini.obj
 0001:00023b52       __ehhandler$?_Insert@?$_Tree@V?$_Tmap_traits@V?$basic_string@DU?$char_traits@D@std@@V?$allocator@D@2@@std@@V12@UStlIniCompareStringNoCase@@V?$allocator@U?$pair@$$CBV?$basic_string@DU?$char_traits@D@std@@V?$allocator@D@2@@std@@V12@@std@@@2@$0A@@std@@@std@@IAE?AViterator@12@_NPAU_Node@?$_Tree_nod@V?$_Tmap_traits@V?$basic_string@DU?$char_traits@D@std@@V?$allocator@D@2@@std@@V12@UStlIniCompareStringNoCase@@V?$allocator@U?$pair@$$CBV?$basic_string@DU?$char_traits@D@std@@V?$allocator@D@2@@std@@V12@@std@@@2@$0A@@std@@@2@ABU?$pair@$$CBV?$basic_string@DU?$char_traits@D@std@@V?$allocator@D@2@@std@@V12@@2@@Z 00424b52 f   stlini.obj
 0001:00023b60       $L27820                    00424b60 f   stlini.obj
 0001:00023b6b       $L27821                    00424b6b f   stlini.obj
 0001:00023b77       $L27822                    00424b77 f   stlini.obj
 0001:00023b83       $L27823                    00424b83 f   stlini.obj
 0001:00023b8e       $L27824                    00424b8e f   stlini.obj
 0001:00023b99       $L27825                    00424b99 f   stlini.obj
 0001:00023ba5       $L27826                    00424ba5 f   stlini.obj
 0001:00023bb0       $L27827                    00424bb0 f   stlini.obj
 0001:00023bbb       $L27829                    00424bbb f   stlini.obj
 0001:00023bc4       $L27830                    00424bc4 f   stlini.obj
 0001:00023bcd       $L27831                    00424bcd f   stlini.obj
 0001:00023bd5       $L27832                    00424bd5 f   stlini.obj
 0001:00023be0       __ehhandler$?PutIniSetting@@YAXAAV?$map@V?$basic_string@DU?$char_traits@D@std@@V?$allocator@D@2@@std@@V?$map@V?$basic_string@DU?$char_traits@D@std@@V?$allocator@D@2@@std@@V12@UStlIniCompareStringNoCase@@V?$allocator@U?$pair@$$CBV?$basic_string@DU?$char_traits@D@std@@V?$allocator@D@2@@std@@V12@@std@@@2@@2@UStlIniCompareStringNoCase@@V?$allocator@U?$pair@$$CBV?$basic_string@DU?$char_traits@D@std@@V?$allocator@D@2@@std@@V?$map@V?$basic_string@DU?$char_traits@D@std@@V?$allocator@D@2@@std@@V12@UStlIniCompareStringNoCase@@V?$allocator@U?$pair@$$CBV?$basic_string@DU?$char_traits@D@std@@V?$allocator@D@2@@std@@V12@@std@@@2@@2@@std@@@2@@std@@PBD11@Z 00424be0 f   stlini.obj
 0001:00023bf0       __ehhandler$?_Copy@?$_Tree@V?$_Tmap_traits@V?$basic_string@DU?$char_traits@D@std@@V?$allocator@D@2@@std@@V?$map@V?$basic_string@DU?$char_traits@D@std@@V?$allocator@D@2@@std@@V12@UStlIniCompareStringNoCase@@V?$allocator@U?$pair@$$CBV?$basic_string@DU?$char_traits@D@std@@V?$allocator@D@2@@std@@V12@@std@@@2@@2@UStlIniCompareStringNoCase@@V?$allocator@U?$pair@$$CBV?$basic_string@DU?$char_traits@D@std@@V?$allocator@D@2@@std@@V?$map@V?$basic_string@DU?$char_traits@D@std@@V?$allocator@D@2@@std@@V12@UStlIniCompareStringNoCase@@V?$allocator@U?$pair@$$CBV?$basic_string@DU?$char_traits@D@std@@V?$allocator@D@2@@std@@V12@@std@@@2@@2@@std@@@2@$0A@@std@@@std@@IAEPAU_Node@?$_Tree_nod@V?$_Tmap_traits@V?$basic_string@DU?$char_traits@D@std@@V?$allocator@D@2@@std@@V?$map@V?$basic_string@DU?$char_traits@D@std@@V?$allocator@D@2@@std@@V12@UStlIniCompareStringNoCase@@V?$allocator@U?$pair@$$CBV?$basic_string@DU?$char_traits@D@std@@V?$allocator@D@2@@std@@V12@@std@@@2@@2@UStlIniCompareStringNoCase@@V?$allocator@U?$pair@$$CBV?$basic_string@DU?$char_traits@D@std@@V?$allocator@D@2@@std@@V?$map@V?$basic_string@DU?$char_traits@D@std@@V?$allocator@D@2@@std@@V12@UStlIniCompareStringNoCase@@V?$allocator@U?$pair@$$CBV?$basic_string@DU?$char_traits@D@std@@V?$allocator@D@2@@std@@V12@@std@@@2@@2@@std@@@2@$0A@@std@@@2@PAU342@0@Z 00424bf0 f   stlini.obj
 0001:00023c00       __ehhandler$??0?$_Tree@V?$_Tmap_traits@V?$basic_string@DU?$char_traits@D@std@@V?$allocator@D@2@@std@@V?$map@V?$basic_string@DU?$char_traits@D@std@@V?$allocator@D@2@@std@@V12@UStlIniCompareStringNoCase@@V?$allocator@U?$pair@$$CBV?$basic_string@DU?$char_traits@D@std@@V?$allocator@D@2@@std@@V12@@std@@@2@@2@UStlIniCompareStringNoCase@@V?$allocator@U?$pair@$$CBV?$basic_string@DU?$char_traits@D@std@@V?$allocator@D@2@@std@@V?$map@V?$basic_string@DU?$char_traits@D@std@@V?$allocator@D@2@@std@@V12@UStlIniCompareStringNoCase@@V?$allocator@U?$pair@$$CBV?$basic_string@DU?$char_traits@D@std@@V?$allocator@D@2@@std@@V12@@std@@@2@@2@@std@@@2@$0A@@std@@@std@@QAE@ABV01@@Z 00424c00 f   stlini.obj
 0001:00023c10       $L29620                    00424c10 f   stlini.obj
 0001:00023c1b       $L29621                    00424c1b f   stlini.obj
 0001:00023c27       $L29622                    00424c27 f   stlini.obj
 0001:00023c33       $L29623                    00424c33 f   stlini.obj
 0001:00023c52       __ehhandler$?LoadIni@@YA?AV?$map@V?$basic_string@DU?$char_traits@D@std@@V?$allocator@D@2@@std@@V?$map@V?$basic_string@DU?$char_traits@D@std@@V?$allocator@D@2@@std@@V12@UStlIniCompareStringNoCase@@V?$allocator@U?$pair@$$CBV?$basic_string@DU?$char_traits@D@std@@V?$allocator@D@2@@std@@V12@@std@@@2@@2@UStlIniCompareStringNoCase@@V?$allocator@U?$pair@$$CBV?$basic_string@DU?$char_traits@D@std@@V?$allocator@D@2@@std@@V?$map@V?$basic_string@DU?$char_traits@D@std@@V?$allocator@D@2@@std@@V12@UStlIniCompareStringNoCase@@V?$allocator@U?$pair@$$CBV?$basic_string@DU?$char_traits@D@std@@V?$allocator@D@2@@std@@V12@@std@@@2@@2@@std@@@2@@std@@PBD@Z 00424c52 f   stlini.obj
 0001:00023c60       $L49680                    00424c60 f   Subsequent.obj
 0001:00023c68       __ehhandler$?GetValueByMonitor@Subsequent@@QAEHPAVMonitor@@AAH1@Z 00424c68 f   Subsequent.obj
 0001:00023c80       $L50076                    00424c80 f   Subsequent.obj
 0001:00023c8b       __ehhandler$??1Subsequent@@UAE@XZ 00424c8b f   Subsequent.obj
 0001:00023ca0       $L50843                    00424ca0 f   Subsequent.obj
 0001:00023cab       $L50844                    00424cab f   Subsequent.obj
 0001:00023cb9       $L50845                    00424cb9 f   Subsequent.obj
 0001:00023cc4       $L50846                    00424cc4 f   Subsequent.obj
 0001:00023ccf       $L50847                    00424ccf f   Subsequent.obj
 0001:00023cda       __ehhandler$?FromTextMap@Subsequent@@QAE_NAAV?$hashtable@Vword@svutil@@V12@@svutil@@@Z 00424cda f   Subsequent.obj
 0001:00023cf0       $L51366                    00424cf0 f   Subsequent.obj
 0001:00023cfb       $L51367                    00424cfb f   Subsequent.obj
 0001:00023d06       $L51368                    00424d06 f   Subsequent.obj
 0001:00023d11       $L51369                    00424d11 f   Subsequent.obj
 0001:00023d1c       __ehhandler$?ToTextMap@Subsequent@@QAE_NAAV?$hashtable@Vword@svutil@@V12@@svutil@@@Z 00424d1c f   Subsequent.obj
 0001:00023d30       $L41379                    00424d30 f   SubsequentItem.obj
 0001:00023d30       $L41362                    00424d30 f   SubsequentItem.obj
 0001:00023d38       __ehhandler$??1SubsequentItem@@QAE@XZ 00424d38 f   SubsequentItem.obj
 0001:00023d38       __ehhandler$??0SubsequentItem@@QAE@XZ 00424d38 f   SubsequentItem.obj
 0001:00023d50       $L48063                    00424d50 f   Task.obj
 0001:00023d50       $L48027                    00424d50 f   Task.obj
 0001:00023d66       __ehhandler$??0Task@@QAE@XZ 00424d66 f   Task.obj
 0001:00023d66       __ehhandler$??1Task@@QAE@XZ 00424d66 f   Task.obj
 0001:00023d70       $L48086                    00424d70 f   Task.obj
 0001:00023d7b       $L48087                    00424d7b f   Task.obj
 0001:00023d86       $L48088                    00424d86 f   Task.obj
 0001:00023d91       $L48089                    00424d91 f   Task.obj
 0001:00023d9c       $L48090                    00424d9c f   Task.obj
 0001:00023da7       $L48091                    00424da7 f   Task.obj
 0001:00023db2       $L48092                    00424db2 f   Task.obj
 0001:00023dbd       $L48093                    00424dbd f   Task.obj
 0001:00023dc8       $L48094                    00424dc8 f   Task.obj
 0001:00023dd3       __ehhandler$?ToTextMap@Task@@QAE_NAAV?$hashtable@Vword@svutil@@V12@@svutil@@@Z 00424dd3 f   Task.obj
 0001:00023de0       $L48393                    00424de0 f   Task.obj
 0001:00023deb       $L48394                    00424deb f   Task.obj
 0001:00023df6       $L48395                    00424df6 f   Task.obj
 0001:00023e01       $L48396                    00424e01 f   Task.obj
 0001:00023e0c       $L48397                    00424e0c f   Task.obj
 0001:00023e17       $L48398                    00424e17 f   Task.obj
 0001:00023e22       $L48399                    00424e22 f   Task.obj
 0001:00023e2d       $L48400                    00424e2d f   Task.obj
 0001:00023e38       __ehhandler$?FromTextMap@Task@@QAE_NAAV?$hashtable@Vword@svutil@@V12@@svutil@@@Z 00424e38 f   Task.obj
 0001:00023e50       $L52387                    00424e50 f   ThreadContrl.obj
 0001:00023e50       $L52301                    00424e50 f   ThreadContrl.obj
 0001:00023e59       $L52388                    00424e59 f   ThreadContrl.obj
 0001:00023e59       $L52302                    00424e59 f   ThreadContrl.obj
 0001:00023e61       __ehhandler$?CheckSubsequent@ThreadContrl@@IAE_NPAVMonitor@@AA_N1@Z 00424e61 f   ThreadContrl.obj
 0001:00023e61       __ehhandler$?CheckSubsequent@ThreadContrl@@IAEHPAVMonitor@@@Z 00424e61 f   ThreadContrl.obj
 0001:00023e70       $L52519                    00424e70 f   ThreadContrl.obj
 0001:00023e78       __ehhandler$?AdjustRetByMonitor@ThreadContrl@@QAEXPAVMonitor@@H@Z 00424e78 f   ThreadContrl.obj
 0001:00023e90       $L54732                    00424e90 f   ThreadContrl.obj
 0001:00023e99       $L54752                    00424e99 f   ThreadContrl.obj
 0001:00023ea2       __ehhandler$?_Incsize@?$list@PAVThreadEx@@V?$allocator@PAVThreadEx@@@std@@@std@@IAEXI@Z 00424ea2 f   ThreadContrl.obj
 0001:00023eb0       $L55397                    00424eb0 f   ThreadContrl.obj
 0001:00023eb0       $L55497                    00424eb0 f   ThreadContrl.obj
 0001:00023eb8       $L55398                    00424eb8 f   ThreadContrl.obj
 0001:00023eb8       $L55498                    00424eb8 f   ThreadContrl.obj
 0001:00023ec4       $L55399                    00424ec4 f   ThreadContrl.obj
 0001:00023ec4       $L55499                    00424ec4 f   ThreadContrl.obj
 0001:00023ed2       __ehhandler$??0ThreadContrl@@QAE@XZ 00424ed2 f   ThreadContrl.obj
 0001:00023ed2       __ehhandler$??1ThreadContrl@@UAE@XZ 00424ed2 f   ThreadContrl.obj
 0001:00023ee0       $L55553                    00424ee0 f   ThreadContrl.obj
 0001:00023ee8       $L55554                    00424ee8 f   ThreadContrl.obj
 0001:00023ef3       __ehhandler$?AddNewThreads@ThreadContrl@@AAEHH@Z 00424ef3 f   ThreadContrl.obj
 0001:00023f00       $L55659                    00424f00 f   ThreadContrl.obj
 0001:00023f00       $L55917                    00424f00 f   ThreadContrl.obj
 0001:00023f09       __ehhandler$?AddToIdleThread@ThreadContrl@@QAEXPAVThreadEx@@@Z 00424f09 f   ThreadContrl.obj
 0001:00023f09       __ehhandler$?GetIdleThread@ThreadContrl@@AAEPAVThreadEx@@XZ 00424f09 f   ThreadContrl.obj
 0001:00023f20       $L56496                    00424f20 f   ThreadContrl.obj
 0001:00023f28       __ehhandler$?AddTask@ThreadContrl@@QAEHPAVMonitor@@@Z 00424f28 f   ThreadContrl.obj
 0001:00023f40       $L56554                    00424f40 f   ThreadContrl.obj
 0001:00023f48       $L56555                    00424f48 f   ThreadContrl.obj
 0001:00023f50       __ehhandler$?ProcessSingleTaskEx@ThreadContrl@@IAEHPAVMonitor@@@Z 00424f50 f   ThreadContrl.obj
 0001:00023f60       $L56753                    00424f60 f   ThreadContrl.obj
 0001:00023f68       $L56755                    00424f68 f   ThreadContrl.obj
 0001:00023f70       __ehhandler$?run@ThreadContrl@@UAEXXZ 00424f70 f   ThreadContrl.obj
 0001:00023f80       $L44988                    00424f80 f   Util.obj
 0001:00023f89       $L44989                    00424f89 f   Util.obj
 0001:00023f92       $L44990                    00424f92 f   Util.obj
 0001:00023f9b       $L44991                    00424f9b f   Util.obj
 0001:00023fa4       $L44992                    00424fa4 f   Util.obj
 0001:00023fad       __ehhandler$?InsertSvdb@Util@@SA_NV?$basic_string@DU?$char_traits@D@std@@V?$allocator@D@2@@std@@PBDH0@Z 00424fad f   Util.obj
 0001:00023fc0       $L45022                    00424fc0 f   Util.obj
 0001:00023fc9       $L45023                    00424fc9 f   Util.obj
 0001:00023fd2       $L45024                    00424fd2 f   Util.obj
 0001:00023fdb       $L45025                    00424fdb f   Util.obj
 0001:00023fe4       __ehhandler$?InsertSvdb@Util@@SA_NV?$basic_string@DU?$char_traits@D@std@@V?$allocator@D@2@@std@@PBDH@Z 00424fe4 f   Util.obj
 0001:00023ff0       $L50009                    00424ff0 f   Util.obj
 0001:00023ff9       __ehhandler$?GetRootPath@Util@@SA?AVTString@@XZ 00424ff9 f   Util.obj
 0001:00024010       $L50115                    00425010 f   Util.obj
 0001:00024018       $L50116                    00425018 f   Util.obj
 0001:00024024       $L50117                    00425024 f   Util.obj
 0001:0002402c       $L50118                    0042502c f   Util.obj
 0001:00024037       $L50119                    00425037 f   Util.obj
 0001:00024040       $L50120                    00425040 f   Util.obj
 0001:00024048       $L50121                    00425048 f   Util.obj
 0001:00024054       __ehhandler$?ErrorLog@Util@@SAXVTString@@@Z 00425054 f   Util.obj
 0001:00024060       $L50175                    00425060 f   Util.obj
 0001:0002406b       $L50176                    0042506b f   Util.obj
 0001:00024076       $L50177                    00425076 f   Util.obj
 0001:00024082       $L50178                    00425082 f   Util.obj
 0001:000240a1       __ehhandler$?GetSVMQAddress@Util@@SA?AVTString@@XZ 004250a1 f   Util.obj
 0001:000240b0       $L50537                    004250b0 f   Util.obj
 0001:000240b8       __ehhandler$??0Util@@QAE@XZ 004250b8 f   Util.obj
 0001:000240d0       _$E1                       004250d0 f   MonitorSchedule.obj
 0001:000240f0       _$E4                       004250f0 f   MonitorSchedule.obj
 0001:00024110       _$E7                       00425110 f   MonitorSchedule.obj
 0001:00024130       _$E10                      00425130 f   MonitorSchedule.obj
 0001:00024150       _$E13                      00425150 f   MonitorSchedule.obj
 0001:00024170       _$E16                      00425170 f   MonitorSchedule.obj
 0001:00024180       _$E1                       00425180 f   readSVDB.obj
 0001:000241a0       _$E4                       004251a0 f   readSVDB.obj
 0001:000241c0       _$E7                       004251c0 f   readSVDB.obj
 0001:000241e0       _$E10                      004251e0 f   readSVDB.obj
 0001:00024200       _$E1                       00425200 f   ScheduleThread.obj
 0001:00024220       _$E4                       00425220 f   ScheduleThread.obj
 0001:00024240       _$E7                       00425240 f   ScheduleThread.obj
 0001:00024260       _$E10                      00425260 f   ScheduleThread.obj
 0001:00024280       _$E1                       00425280 f   Util.obj
 0001:000242a0       _$E4                       004252a0 f   Util.obj
 0001:000242c0       _$E7                       004252c0 f   Util.obj
 0001:000242e0       _$E10                      004252e0 f   Util.obj
 0001:00024300       _$E2                       00425300 f   MonitorSchedule.obj
 0001:00024310       _$E5                       00425310 f   MonitorSchedule.obj
 0001:00024320       _$E8                       00425320 f   MonitorSchedule.obj
 0001:00024330       _$E11                      00425330 f   MonitorSchedule.obj
 0001:00024340       _$E14                      00425340 f   MonitorSchedule.obj
 0001:00024350       _$E17                      00425350 f   MonitorSchedule.obj
 0001:00024360       _$E2                       00425360 f   readSVDB.obj
 0001:00024370       _$E8                       00425370 f   readSVDB.obj
 0001:00024380       _$E11                      00425380 f   readSVDB.obj
 0001:00024390       _$E5                       00425390 f   readSVDB.obj
 0001:000243a0       _$E2                       004253a0 f   ScheduleThread.obj
 0001:000243b0       _$E5                       004253b0 f   ScheduleThread.obj
 0001:000243c0       _$E8                       004253c0 f   ScheduleThread.obj
 0001:000243d0       _$E11                      004253d0 f   ScheduleThread.obj
 0001:000243e0       _$E2                       004253e0 f   Util.obj
 0001:000243f0       _$E5                       004253f0 f   Util.obj
 0001:00024400       _$E8                       00425400 f   Util.obj
 0001:00024410       _$E11                      00425410 f   Util.obj
