 svdb1

 Timestamp is 4637f8a1 (Wed May 02 10:34:09 2007)

 Preferred load address is 00400000

 Start         Length     Name                   Class
 0001:00000000 0002e2b0H .text                   CODE
 0001:0002e2b0 000032f7H .text$x                 CODE
 0001:000315b0 0000001cH .text$yc                CODE
 0001:000315d0 0000000bH .text$yd                CODE
 0002:00000000 00000288H .idata$5                DATA
 0002:00000290 00001ad8H .rdata                  DATA
 0002:00001d68 00000049H .rdata$debug            DATA
 0002:00001db4 00000044H .rdata$r                DATA
 0002:00001e00 0000049cH .rdata$sxdata           DATA
 0002:0000229c 00000004H .rtc$IAA                DATA
 0002:000022a0 00000004H .rtc$IZZ                DATA
 0002:000022a4 00000004H .rtc$TAA                DATA
 0002:000022a8 00000004H .rtc$TZZ                DATA
 0002:000022ac 00004240H .xdata$x                DATA
 0002:000064ec 0000008cH .idata$2                DATA
 0002:00006578 00000014H .idata$3                DATA
 0002:0000658c 00000288H .idata$4                DATA
 0002:00006814 000011b4H .idata$6                DATA
 0002:000079c8 00000000H .edata                  DATA
 0003:00000000 00000004H .CRT$XCA                DATA
 0003:00000004 00000004H .CRT$XCAA               DATA
 0003:00000008 00000004H .CRT$XCU                DATA
 0003:0000000c 00000004H .CRT$XCZ                DATA
 0003:00000010 00000004H .CRT$XIA                DATA
 0003:00000014 00000004H .CRT$XIZ                DATA
 0003:00000020 000000e4H .data                   DATA
 0003:00000104 00000078H .bss                    DATA

  Address         Publics by Value              Rva+Base     Lib:Object

 0000:00000000       __except_list              00000000     <absolute>
 0000:00000127       ___safe_se_handler_count   00000127     <absolute>
 0000:00009876       __ldused                   00009876     <absolute>
 0000:00009876       __fltused                  00009876     <absolute>
 0001:00000000       ??3@YAXPAX0@Z              00401000 f i DB.obj
 0001:00000000       ??1TTime@chen@@QAE@XZ      00401000 f i DB.obj
 0001:00000010       ??1logic_error@std@@UAE@XZ 00401010 f i DB.obj
 0001:00000070       ?what@logic_error@std@@UBEPBDXZ 00401070 f i DB.obj
 0001:00000080       ??_Elogic_error@std@@UAEPAXI@Z 00401080 f i DB.obj
 0001:00000080       ??_Glogic_error@std@@UAEPAXI@Z 00401080 f i DB.obj
 0001:000000a0       ??_Elength_error@std@@UAEPAXI@Z 004010a0 f i DB.obj
 0001:000000a0       ??_Glength_error@std@@UAEPAXI@Z 004010a0 f i DB.obj
 0001:000000c0       ??1length_error@std@@UAE@XZ 004010c0 f i DB.obj
 0001:000000d0       ??0word@chen@@QAE@XZ       004010d0 f i DB.obj
 0001:000000f0       ??1?$hashelement@Vword@chen@@PAVGroup@@@chen@@QAE@XZ 004010f0 f i GroupPool.obj
 0001:000000f0       ??1?$hashelement@Vword@chen@@PAVEntity@@@chen@@QAE@XZ 004010f0 f i EntityPool.obj
 0001:000000f0       ??1?$hashelement@Vword@chen@@PAVResource@@@chen@@QAE@XZ 004010f0 f i ResourcePool.obj
 0001:000000f0       ??1?$hashelement@Vword@chen@@PAVGeneralPool@@@chen@@QAE@XZ 004010f0 f i SvdbMain.obj
 0001:000000f0       ??1?$hashelement@Vword@chen@@PAVSection@@@chen@@QAE@XZ 004010f0 f i GeneralPool.obj
 0001:000000f0       ??1word@chen@@UAE@XZ       004010f0 f i DB.obj
 0001:000000f0       ??1?$hashelement@Vword@chen@@PAVCommonData@@@chen@@QAE@XZ 004010f0 f i GeneralPool.obj
 0001:000000f0       ??1?$hashelement@Vword@chen@@PAVEntityTemplet@@@chen@@QAE@XZ 004010f0 f i EntityTempletPool.obj
 0001:000000f0       ??1?$hashelement@Vword@chen@@PAVMonitor@@@chen@@QAE@XZ 004010f0 f i MonitorPool.obj
 0001:000000f0       ??1?$hashelement@Vword@chen@@PAVTable@@@chen@@QAE@XZ 004010f0 f i DB.obj
 0001:000000f0       ??1?$hashelement@Vword@chen@@PAVQueue@@@chen@@QAE@XZ 004010f0 f i DB.obj
 0001:000000f0       ??1?$hashelement@Vword@chen@@PAVEntityGroup@@@chen@@QAE@XZ 004010f0 f i EntityGroupPool.obj
 0001:00000110       ??_Eword@chen@@UAEPAXI@Z   00401110 f i DB.obj
 0001:00000110       ??_Gword@chen@@UAEPAXI@Z   00401110 f i DB.obj
 0001:00000140       ?GetCurrentTimeEx@TTime@chen@@SA?AV12@XZ 00401140 f i DB.obj
 0001:00000170       ??0exception@chen@@QAE@PBD0@Z 00401170 f i DB.obj
 0001:00000230       ?GetErrorType@exception@chen@@UBEPBDXZ 00401230 f i DB.obj
 0001:00000240       ?GetDescription@exception@chen@@UBEPBDXZ 00401240 f i DB.obj
 0001:00000250       ??_Gexception@chen@@UAEPAXI@Z 00401250 f i DB.obj
 0001:00000250       ??_Eexception@chen@@UAEPAXI@Z 00401250 f i DB.obj
 0001:00000270       ??0?$hashelement@Vword@chen@@PAVTable@@@chen@@QAE@ABVword@1@@Z 00401270 f i DB.obj
 0001:00000270       ??0?$hashelement@Vword@chen@@PAVQueue@@@chen@@QAE@ABVword@1@@Z 00401270 f i DB.obj
 0001:000002d0       ??0?$hashelement@Vword@chen@@PAVTable@@@chen@@QAE@ABVword@1@ABQAVTable@@@Z 004012d0 f i DB.obj
 0001:000002d0       ??0?$hashelement@Vword@chen@@PAVQueue@@@chen@@QAE@ABVword@1@ABQAVQueue@@@Z 004012d0 f i DB.obj
 0001:00000340       ??1?$treenode@V?$hashelement@Vword@chen@@PAVTable@@@chen@@@chen@@UAE@XZ 00401340 f i DB.obj
 0001:00000360       ??1?$treenode@V?$hashelement@Vword@chen@@PAVQueue@@@chen@@@chen@@UAE@XZ 00401360 f i DB.obj
 0001:00000380       ??0logic_error@std@@QAE@ABV01@@Z 00401380 f i DB.obj
 0001:000003e0       ??_E?$treenode@V?$hashelement@Vword@chen@@PAVTable@@@chen@@@chen@@UAEPAXI@Z 004013e0 f i DB.obj
 0001:000003e0       ??_G?$treenode@V?$hashelement@Vword@chen@@PAVTable@@@chen@@@chen@@UAEPAXI@Z 004013e0 f i DB.obj
 0001:00000400       ??_E?$treenode@V?$hashelement@Vword@chen@@PAVQueue@@@chen@@@chen@@UAEPAXI@Z 00401400 f i DB.obj
 0001:00000400       ??_G?$treenode@V?$hashelement@Vword@chen@@PAVQueue@@@chen@@@chen@@UAEPAXI@Z 00401400 f i DB.obj
 0001:00000420       ??0?$hashelement@Vword@chen@@V12@@chen@@QAE@ABVword@1@@Z 00401420 f i DB.obj
 0001:000004a0       ??1?$hashelement@Vword@chen@@V12@@chen@@QAE@XZ 004014a0 f i DB.obj
 0001:000004e0       ?_Xlen@?$vector@PAV?$hashnode@Vword@chen@@PAVTable@@@chen@@V?$allocator@PAV?$hashnode@Vword@chen@@PAVTable@@@chen@@@std@@@std@@IBEXXZ 004014e0 f i DB.obj
 0001:000004e0       ?_Xlen@?$vector@PAVDataType@@V?$allocator@PAVDataType@@@std@@@std@@IBEXXZ 004014e0 f i DB.obj
 0001:000004e0       ?_Xlen@?$vector@PAV?$hashnode@Vword@chen@@PAVQueue@@@chen@@V?$allocator@PAV?$hashnode@Vword@chen@@PAVQueue@@@chen@@@std@@@std@@IBEXXZ 004014e0 f i DB.obj
 0001:00000560       ??M?$treenode@V?$hashelement@Vword@chen@@PAVTable@@@chen@@@chen@@QAE_NV01@@Z 00401560 f i DB.obj
 0001:000005d0       ??O?$treenode@V?$hashelement@Vword@chen@@PAVTable@@@chen@@@chen@@QAE_NV01@@Z 004015d0 f i DB.obj
 0001:00000640       ??0?$treenode@V?$hashelement@Vword@chen@@PAVTable@@@chen@@@chen@@QAE@ABV01@@Z 00401640 f i DB.obj
 0001:000006c0       ??M?$treenode@V?$hashelement@Vword@chen@@PAVQueue@@@chen@@@chen@@QAE_NV01@@Z 004016c0 f i DB.obj
 0001:00000730       ??O?$treenode@V?$hashelement@Vword@chen@@PAVQueue@@@chen@@@chen@@QAE_NV01@@Z 00401730 f i DB.obj
 0001:000007a0       ??0?$treenode@V?$hashelement@Vword@chen@@PAVQueue@@@chen@@@chen@@QAE@ABV01@@Z 004017a0 f i DB.obj
 0001:00000820       ?CountNodes@?$sorttree@V?$hashelement@Vword@chen@@PAVTable@@@chen@@@chen@@AAEXPAV?$treenode@V?$hashelement@Vword@chen@@PAVTable@@@chen@@@2@AAK@Z 00401820 f i DB.obj
 0001:00000850       ?CountNodes@?$sorttree@V?$hashelement@Vword@chen@@PAVQueue@@@chen@@@chen@@AAEXPAV?$treenode@V?$hashelement@Vword@chen@@PAVQueue@@@chen@@@2@AAK@Z 00401850 f i DB.obj
 0001:00000880       ??0?$treenode@V?$hashelement@Vword@chen@@PAVTable@@@chen@@@chen@@QAE@ABV?$hashelement@Vword@chen@@PAVTable@@@1@@Z 00401880 f i DB.obj
 0001:00000900       ??0?$treenode@V?$hashelement@Vword@chen@@PAVQueue@@@chen@@@chen@@QAE@ABV?$hashelement@Vword@chen@@PAVQueue@@@1@@Z 00401900 f i DB.obj
 0001:00000980       ?CreatePagePool@PagePool@@QAE_NHV?$basic_string@DU?$char_traits@D@std@@V?$allocator@D@2@@std@@HH@Z 00401980 f i DB.obj
 0001:00000ac0       ?CreateNewEx@DB@@QAE_NV?$basic_string@DU?$char_traits@D@std@@V?$allocator@D@2@@std@@0HHH@Z 00401ac0 f   DB.obj
 0001:00000cc0       ?DeleteTree@?$sorttree@V?$hashelement@Vword@chen@@PAVTable@@@chen@@@chen@@QAEXPAV?$treenode@V?$hashelement@Vword@chen@@PAVTable@@@chen@@@2@@Z 00401cc0 f i DB.obj
 0001:00000d10       ?DeleteTree@?$sorttree@V?$hashelement@Vword@chen@@PAVQueue@@@chen@@@chen@@QAEXPAV?$treenode@V?$hashelement@Vword@chen@@PAVQueue@@@chen@@@2@@Z 00401d10 f i DB.obj
 0001:00000d60       ?RomoveNode@?$sorttree@V?$hashelement@Vword@chen@@PAVQueue@@@chen@@@chen@@QAEXABV?$hashelement@Vword@chen@@PAVQueue@@@2@@Z 00401d60 f i DB.obj
 0001:00000d60       ?RomoveNode@?$sorttree@V?$hashelement@Vword@chen@@PAVTable@@@chen@@@chen@@QAEXABV?$hashelement@Vword@chen@@PAVTable@@@2@@Z 00401d60 f i DB.obj
 0001:00000f00       ??0length_error@std@@QAE@ABV01@@Z 00401f00 f i DB.obj
 0001:00000f20       ?findnode@?$sorttree@V?$hashelement@Vword@chen@@V12@@chen@@@chen@@QAEPAV?$treenode@V?$hashelement@Vword@chen@@V12@@chen@@@2@ABV?$hashelement@Vword@chen@@V12@@2@PAV32@@Z 00401f20 f i DB.obj
 0001:00000f90       ?InsertNode@?$sorttree@V?$hashelement@Vword@chen@@PAVTable@@@chen@@@chen@@QAEXPAV?$treenode@V?$hashelement@Vword@chen@@PAVTable@@@chen@@@2@0@Z 00401f90 f i DB.obj
 0001:00001020       ?findnextnode@?$sorttree@V?$hashelement@Vword@chen@@PAVTable@@@chen@@@chen@@ABEPAV?$treenode@V?$hashelement@Vword@chen@@PAVTable@@@chen@@@2@AAV?$hashelement@Vword@chen@@PAVTable@@@2@AA_NPAV32@@Z 00402020 f i DB.obj
 0001:00001090       ?InsertNode@?$sorttree@V?$hashelement@Vword@chen@@PAVQueue@@@chen@@@chen@@QAEXPAV?$treenode@V?$hashelement@Vword@chen@@PAVQueue@@@chen@@@2@0@Z 00402090 f i DB.obj
 0001:00001120       ?findnextnode@?$sorttree@V?$hashelement@Vword@chen@@PAVQueue@@@chen@@@chen@@ABEPAV?$treenode@V?$hashelement@Vword@chen@@PAVQueue@@@chen@@@2@AAV?$hashelement@Vword@chen@@PAVQueue@@@2@AA_NPAV32@@Z 00402120 f i DB.obj
 0001:00001190       ??$CreateNode@V?$hashelement@Vword@chen@@PAVTable@@@chen@@@?$sorttree@V?$hashelement@Vword@chen@@PAVTable@@@chen@@@chen@@SAPAV?$treenode@V?$hashelement@Vword@chen@@PAVTable@@@chen@@@1@ABV?$hashelement@Vword@chen@@PAVTable@@@1@@Z 00402190 f i DB.obj
 0001:000011f0       ??$CreateNode@V?$hashelement@Vword@chen@@PAVQueue@@@chen@@@?$sorttree@V?$hashelement@Vword@chen@@PAVQueue@@@chen@@@chen@@SAPAV?$treenode@V?$hashelement@Vword@chen@@PAVQueue@@@chen@@@1@ABV?$hashelement@Vword@chen@@PAVQueue@@@1@@Z 004021f0 f i DB.obj
 0001:00001250       ??_G?$sorttree@V?$hashelement@Vword@chen@@PAVTable@@@chen@@@chen@@UAEPAXI@Z 00402250 f i DB.obj
 0001:00001250       ??_E?$sorttree@V?$hashelement@Vword@chen@@PAVTable@@@chen@@@chen@@UAEPAXI@Z 00402250 f i DB.obj
 0001:000012b0       ??_G?$sorttree@V?$hashelement@Vword@chen@@PAVQueue@@@chen@@@chen@@UAEPAXI@Z 004022b0 f i DB.obj
 0001:000012b0       ??_E?$sorttree@V?$hashelement@Vword@chen@@PAVQueue@@@chen@@@chen@@UAEPAXI@Z 004022b0 f i DB.obj
 0001:00001310       ?_Buynode@?$list@V?$basic_string@DU?$char_traits@D@std@@V?$allocator@D@2@@std@@V?$allocator@V?$basic_string@DU?$char_traits@D@std@@V?$allocator@D@2@@std@@@2@@std@@IAEPAU_Node@?$_List_nod@V?$basic_string@DU?$char_traits@D@std@@V?$allocator@D@2@@std@@V?$allocator@V?$basic_string@DU?$char_traits@D@std@@V?$allocator@D@2@@std@@@2@@2@PAU342@0ABV?$basic_string@DU?$char_traits@D@std@@V?$allocator@D@2@@2@@Z 00402310 f i DB.obj
 0001:000013a0       ?_Incsize@?$list@V?$basic_string@DU?$char_traits@D@std@@V?$allocator@D@2@@std@@V?$allocator@V?$basic_string@DU?$char_traits@D@std@@V?$allocator@D@2@@std@@@2@@std@@IAEXI@Z 004023a0 f i DB.obj
 0001:00001440       ?find@?$hashnode@Vword@chen@@V12@@chen@@QAE_NABVword@2@PAPAV?$hashelement@Vword@chen@@V12@@2@@Z 00402440 f i DB.obj
 0001:00001540       ?find@?$hashnode@Vword@chen@@PAVTable@@@chen@@QAE_NABVword@2@PAPAV?$hashelement@Vword@chen@@PAVTable@@@2@@Z 00402540 f i DB.obj
 0001:00001540       ?find@?$hashnode@Vword@chen@@PAVQueue@@@chen@@QAE_NABVword@2@PAPAV?$hashelement@Vword@chen@@PAVQueue@@@2@@Z 00402540 f i DB.obj
 0001:00001610       ?InsertNodeEx@?$sorttree@V?$hashelement@Vword@chen@@PAVTable@@@chen@@@chen@@QAEAAV?$hashelement@Vword@chen@@PAVTable@@@2@ABV32@@Z 00402610 f i DB.obj
 0001:000016a0       ??1exception@chen@@UAE@XZ  004026a0 f i DB.obj
 0001:000016b0       ??0exception@chen@@QAE@ABV01@@Z 004026b0 f i DB.obj
 0001:00001700       ?InsertNodeEx@?$sorttree@V?$hashelement@Vword@chen@@PAVQueue@@@chen@@@chen@@QAEAAV?$hashelement@Vword@chen@@PAVQueue@@@2@ABV32@@Z 00402700 f i DB.obj
 0001:00001790       ?erase@?$list@PAVStringMap@@V?$allocator@PAVStringMap@@@std@@@std@@QAE?AViterator@12@V312@@Z 00402790 f i DB.obj
 0001:000017d0       ?_Incsize@?$list@PAVStringMap@@V?$allocator@PAVStringMap@@@std@@@std@@IAEXI@Z 004027d0 f i DB.obj
 0001:00001870       ??1?$list@HV?$allocator@H@std@@@std@@QAE@XZ 00402870 f i EntityTemplet.obj
 0001:00001870       ??1?$list@PAVThreadEx@@V?$allocator@PAVThreadEx@@@std@@@std@@QAE@XZ 00402870 f i ThreadContrl.obj
 0001:00001870       ??1?$list@PAVPage@@V?$allocator@PAVPage@@@std@@@std@@QAE@XZ 00402870 f i PagePool.obj
 0001:00001870       ??1?$list@PAVStringMap@@V?$allocator@PAVStringMap@@@std@@@std@@QAE@XZ 00402870 f i DB.obj
 0001:00001870       ?_Tidy@?$list@PAVStringMap@@V?$allocator@PAVStringMap@@@std@@@std@@IAEXXZ 00402870 f i DB.obj
 0001:00001890       ?find@?$hashnode@Vword@chen@@V12@@chen@@QAE_NABVword@2@PAPAV32@@Z 00402890 f i DB.obj
 0001:000018f0       ??1?$hashnode@Vword@chen@@PAVTable@@@chen@@QAE@XZ 004028f0 f i DB.obj
 0001:00001980       ?insert@?$hashnode@Vword@chen@@PAVTable@@@chen@@QAEAAV?$hashelement@Vword@chen@@PAVTable@@@2@ABVword@2@ABQAVTable@@@Z 00402980 f i DB.obj
 0001:00001a60       ?find@?$hashnode@Vword@chen@@PAVQueue@@@chen@@QAE_NABVword@2@PAPAPAVQueue@@@Z 00402a60 f i DB.obj
 0001:00001a60       ?find@?$hashnode@Vword@chen@@PAVTable@@@chen@@QAE_NABVword@2@PAPAPAVTable@@@Z 00402a60 f i DB.obj
 0001:00001ac0       ??1?$hashnode@Vword@chen@@PAVQueue@@@chen@@QAE@XZ 00402ac0 f i DB.obj
 0001:00001b50       ?insert@?$hashnode@Vword@chen@@PAVQueue@@@chen@@QAEAAV?$hashelement@Vword@chen@@PAVQueue@@@2@ABVword@2@ABQAVQueue@@@Z 00402b50 f i DB.obj
 0001:00001c30       ?_Insert_n@?$vector@PAVDataType@@V?$allocator@PAVDataType@@@std@@@std@@IAEXViterator@12@IABQAVDataType@@@Z 00402c30 f i DB.obj
 0001:00001c30       ?_Insert_n@?$vector@PAV?$hashnode@Vword@chen@@PAVQueue@@@chen@@V?$allocator@PAV?$hashnode@Vword@chen@@PAVQueue@@@chen@@@std@@@std@@IAEXViterator@12@IABQAV?$hashnode@Vword@chen@@PAVQueue@@@chen@@@Z 00402c30 f i DB.obj
 0001:00001c30       ?_Insert_n@?$vector@PAV?$hashnode@Vword@chen@@PAVTable@@@chen@@V?$allocator@PAV?$hashnode@Vword@chen@@PAVTable@@@chen@@@std@@@std@@IAEXViterator@12@IABQAV?$hashnode@Vword@chen@@PAVTable@@@chen@@@Z 00402c30 f i DB.obj
 0001:00001e20       ?Find@MonitorTempletPool@@QAE_NH@Z 00402e20 f i DB.obj
 0001:00001e50       ?find@?$hashtable@Vword@chen@@V12@@chen@@QAEPAVword@2@ABV32@@Z 00402e50 f i DB.obj
 0001:00001ec0       ?find@?$hashtable@Vword@chen@@PAVTable@@@chen@@QAEPAPAVTable@@ABVword@2@@Z 00402ec0 f i DB.obj
 0001:00001ec0       ?find@?$hashtable@Vword@chen@@PAVQueue@@@chen@@QAEPAPAVQueue@@ABVword@2@@Z 00402ec0 f i DB.obj
 0001:00001f30       ?clearnodes@?$hashtable@Vword@chen@@PAVTable@@@chen@@IAEXXZ 00402f30 f i DB.obj
 0001:00001fa0       ?clearnodes@?$hashtable@Vword@chen@@PAVQueue@@@chen@@IAEXXZ 00402fa0 f i DB.obj
 0001:00002010       ?findnext@?$hashnode@Vword@chen@@PAVTable@@@chen@@QAE_NAAV?$hashelement@Vword@chen@@PAVTable@@@2@PAPAV32@@Z 00403010 f i DB.obj
 0001:000020c0       ?erase@?$hashnode@Vword@chen@@PAVTable@@@chen@@QAE_NABVword@2@@Z 004030c0 f i DB.obj
 0001:000021d0       ?findnext@?$hashnode@Vword@chen@@PAVQueue@@@chen@@QAE_NAAV?$hashelement@Vword@chen@@PAVQueue@@@2@PAPAV32@@Z 004031d0 f i DB.obj
 0001:00002280       ?erase@?$hashnode@Vword@chen@@PAVQueue@@@chen@@QAE_NABVword@2@@Z 00403280 f i DB.obj
 0001:00002390       ??$_Insert@Vconst_iterator@?$list@PAVStringMap@@V?$allocator@PAVStringMap@@@std@@@std@@@?$list@PAVStringMap@@V?$allocator@PAVStringMap@@@std@@@std@@QAEXViterator@01@Vconst_iterator@01@1Uforward_iterator_tag@1@@Z 00403390 f i DB.obj
 0001:00002440       ?QueryRecordByCount@DB@@QAEHV?$basic_string@DU?$char_traits@D@std@@V?$allocator@D@2@@std@@IAAVbuffer@chen@@AAH@Z 00403440 f   DB.obj
 0001:000025e0       ?QueryRecordByTimeEx@DB@@QAEHV?$basic_string@DU?$char_traits@D@std@@V?$allocator@D@2@@std@@VTTime@chen@@1AAVbuffer@5@AAH@Z 004035e0 f   DB.obj
 0001:000027a0       ?QueryDyn@DB@@QAEHV?$basic_string@DU?$char_traits@D@std@@V?$allocator@D@2@@std@@PADAAI@Z 004037a0 f   DB.obj
 0001:000028b0       ?QueryDynNOStr@DB@@QAEHV?$basic_string@DU?$char_traits@D@std@@V?$allocator@D@2@@std@@PADAAI@Z 004038b0 f   DB.obj
 0001:000029c0       ?DeleteRecordsByTime@DB@@QAE_NV?$basic_string@DU?$char_traits@D@std@@V?$allocator@D@2@@std@@VTTime@chen@@@Z 004039c0 f   DB.obj
 0001:00002ad0       ?AppendQueueMessage@DB@@QAE_NV?$basic_string@DU?$char_traits@D@std@@V?$allocator@D@2@@std@@PBDI@Z 00403ad0 f   DB.obj
 0001:00002bf0       ?PeekQueueMessage@DB@@QAEHV?$basic_string@DU?$char_traits@D@std@@V?$allocator@D@2@@std@@AAVbuffer@chen@@AAI_NI@Z 00403bf0 f   DB.obj
 0001:00002d00       ?PopQueueMessage@DB@@QAEHV?$basic_string@DU?$char_traits@D@std@@V?$allocator@D@2@@std@@AAVbuffer@chen@@AAI_NI@Z 00403d00 f   DB.obj
 0001:00002e10       ?GetQueueRecordCount@DB@@QAEHV?$basic_string@DU?$char_traits@D@std@@V?$allocator@D@2@@std@@AAI@Z 00403e10 f   DB.obj
 0001:00002f20       ?ClearQueueRecords@DB@@QAEHV?$basic_string@DU?$char_traits@D@std@@V?$allocator@D@2@@std@@@Z 00403f20 f   DB.obj
 0001:00003040       ?push_back@?$vector@PAVDataType@@V?$allocator@PAVDataType@@@std@@@std@@QAEXABQAVDataType@@@Z 00404040 f i DB.obj
 0001:00003090       ??1?$hashtable@Vword@chen@@PAVTable@@@chen@@QAE@XZ 00404090 f i DB.obj
 0001:000030f0       ?erase@?$hashtable@Vword@chen@@PAVTable@@@chen@@QAE_NABVword@2@@Z 004040f0 f i DB.obj
 0001:00003190       ?findnext@?$hashtable@Vword@chen@@PAVTable@@@chen@@QAE_NAAViterator@12@@Z 00404190 f i DB.obj
 0001:00003230       ??1?$hashtable@Vword@chen@@PAVQueue@@@chen@@QAE@XZ 00404230 f i DB.obj
 0001:00003290       ?erase@?$hashtable@Vword@chen@@PAVQueue@@@chen@@QAE_NABVword@2@@Z 00404290 f i DB.obj
 0001:00003330       ?findnext@?$hashtable@Vword@chen@@PAVQueue@@@chen@@QAE_NAAViterator@12@@Z 00404330 f i DB.obj
 0001:000033d0       ?resize@?$vector@PAV?$hashnode@Vword@chen@@PAVQueue@@@chen@@V?$allocator@PAV?$hashnode@Vword@chen@@PAVQueue@@@chen@@@std@@@std@@QAEXIPAV?$hashnode@Vword@chen@@PAVQueue@@@chen@@@Z 004043d0 f i DB.obj
 0001:000033d0       ?resize@?$vector@PAV?$hashnode@Vword@chen@@PAVTable@@@chen@@V?$allocator@PAV?$hashnode@Vword@chen@@PAVTable@@@chen@@@std@@@std@@QAEXIPAV?$hashnode@Vword@chen@@PAVTable@@@chen@@@Z 004043d0 f i DB.obj
 0001:00003460       ?DeleteTable@DB@@QAE_NV?$basic_string@DU?$char_traits@D@std@@V?$allocator@D@2@@std@@@Z 00404460 f   DB.obj
 0001:000035f0       ?GetAllTableNames@DB@@QAE_NAAV?$list@V?$basic_string@DU?$char_traits@D@std@@V?$allocator@D@2@@std@@V?$allocator@V?$basic_string@DU?$char_traits@D@std@@V?$allocator@D@2@@std@@@2@@std@@@Z 004045f0 f   DB.obj
 0001:000036e0       ?GetAllQueueNames@DB@@QAE_NAAV?$list@V?$basic_string@DU?$char_traits@D@std@@V?$allocator@D@2@@std@@V?$allocator@V?$basic_string@DU?$char_traits@D@std@@V?$allocator@D@2@@std@@@2@@std@@@Z 004046e0 f   DB.obj
 0001:000037d0       ?DeleteQueue@DB@@QAEHV?$basic_string@DU?$char_traits@D@std@@V?$allocator@D@2@@std@@@Z 004047d0 f   DB.obj
 0001:00003960       ??0?$list@PAVStringMap@@V?$allocator@PAVStringMap@@@std@@@std@@QAE@ABV01@@Z 00404960 f i DB.obj
 0001:000039e0       ?insert@?$hashtable@Vword@chen@@PAVTable@@@chen@@QAEAAPAVTable@@ABVword@2@ABQAV3@@Z 004049e0 f i DB.obj
 0001:00003ad0       ??A?$hashtable@Vword@chen@@PAVTable@@@chen@@QAEAAPAVTable@@ABVword@1@@Z 00404ad0 f i DB.obj
 0001:00003b00       ??0?$hashtable@Vword@chen@@PAVQueue@@@chen@@QAE@XZ 00404b00 f i DB.obj
 0001:00003b00       ??0?$hashtable@Vword@chen@@PAVTable@@@chen@@QAE@XZ 00404b00 f i DB.obj
 0001:00003b50       ?insert@?$hashtable@Vword@chen@@PAVQueue@@@chen@@QAEAAPAVQueue@@ABVword@2@ABQAV3@@Z 00404b50 f i DB.obj
 0001:00003c40       ??A?$hashtable@Vword@chen@@PAVQueue@@@chen@@QAEAAPAVQueue@@ABVword@1@@Z 00404c40 f i DB.obj
 0001:00003c70       ??0DB@@QAE@XZ              00404c70 f   DB.obj
 0001:00003d80       ?LoadEx@DB@@QAE_NXZ        00404d80 f   DB.obj
 0001:00004190       ?CreateQueue@DB@@QAE_NV?$basic_string@DU?$char_traits@D@std@@V?$allocator@D@2@@std@@H@Z 00405190 f   DB.obj
 0001:00004440       ?InsertTableEx@DB@@QAE_NV?$basic_string@DU?$char_traits@D@std@@V?$allocator@D@2@@std@@H@Z 00405440 f   DB.obj
 0001:000049d0       ?Init@DB@@QAE_NV?$basic_string@DU?$char_traits@D@std@@V?$allocator@D@2@@std@@PAVSvdbMain@@HH@Z 004059d0 f   DB.obj
 0001:00004be0       ?AppendRecord@DB@@QAEHV?$basic_string@DU?$char_traits@D@std@@V?$allocator@D@2@@std@@PBDI@Z 00405be0 f   DB.obj
 0001:00004e40       ??1_Node@?$_List_nod@Vword@chen@@V?$allocator@Vword@chen@@@std@@@std@@QAE@XZ 00405e40 f i Entity.obj
 0001:00004e60       ?_Buynode@?$list@Vword@chen@@V?$allocator@Vword@chen@@@std@@@std@@IAEPAU_Node@?$_List_nod@Vword@chen@@V?$allocator@Vword@chen@@@std@@@2@XZ 00405e60 f i Entity.obj
 0001:00004e80       ?_Buynode@?$list@Vword@chen@@V?$allocator@Vword@chen@@@std@@@std@@IAEPAU_Node@?$_List_nod@Vword@chen@@V?$allocator@Vword@chen@@@std@@@2@PAU342@0ABVword@chen@@@Z 00405e80 f i Entity.obj
 0001:00004f10       ?_Incsize@?$list@Vword@chen@@V?$allocator@Vword@chen@@@std@@@std@@IAEXI@Z 00405f10 f i Entity.obj
 0001:00004fb0       ?GetRawDataSize@Entity@@UAEIXZ 00405fb0 f   Entity.obj
 0001:00005000       ?GetRawData@Entity@@UAEPADPADI@Z 00406000 f   Entity.obj
 0001:00005100       ?clear@?$list@Vword@chen@@V?$allocator@Vword@chen@@@std@@@std@@QAEXXZ 00406100 f i Entity.obj
 0001:00005140       ?push_back@?$list@Vword@chen@@V?$allocator@Vword@chen@@@std@@@std@@QAEXABVword@chen@@@Z 00406140 f i Entity.obj
 0001:00005180       ?CreateObjectByRawData@Entity@@UAEHPBDI@Z 00406180 f   Entity.obj
 0001:000052f0       ??1?$list@Vword@chen@@V?$allocator@Vword@chen@@@std@@@std@@QAE@XZ 004062f0 f i Entity.obj
 0001:00005310       ??0Entity@@QAE@XZ          00406310 f   Entity.obj
 0001:000053b0       ??1Entity@@QAE@XZ          004063b0 f   Entity.obj
 0001:00005430       ?GetRawDataSize@EntityGroup@@UAEIXZ 00406430 f   EntityGroup.obj
 0001:00005480       ?GetRawData@EntityGroup@@UAEPADPADI@Z 00406480 f   EntityGroup.obj
 0001:00005570       ?CreateObjectByRawData@EntityGroup@@UAEHPBDI@Z 00406570 f   EntityGroup.obj
 0001:000056d0       ??0EntityGroup@@QAE@XZ     004066d0 f   EntityGroup.obj
 0001:00005760       ??1EntityGroup@@QAE@XZ     00406760 f   EntityGroup.obj
 0001:000057e0       ??0PoolBase@@QAE@Vword@chen@@@Z 004067e0 f i EntityGroupPool.obj
 0001:00005880       ?Load@EntityGroupPool@@UAE_NXZ 00406880 f   EntityGroupPool.obj
 0001:00005980       ?Submit@EntityGroupPool@@UAE_NXZ 00406980 f   EntityGroupPool.obj
 0001:00005ab0       ??0?$hashelement@Vword@chen@@PAVEntityGroup@@@chen@@QAE@ABVword@1@@Z 00406ab0 f i EntityGroupPool.obj
 0001:00005b10       ??0?$hashelement@Vword@chen@@PAVEntityGroup@@@chen@@QAE@ABVword@1@ABQAVEntityGroup@@@Z 00406b10 f i EntityGroupPool.obj
 0001:00005b80       ??1?$treenode@V?$hashelement@Vword@chen@@PAVEntityGroup@@@chen@@@chen@@UAE@XZ 00406b80 f i EntityGroupPool.obj
 0001:00005ba0       ??_E?$treenode@V?$hashelement@Vword@chen@@PAVEntityGroup@@@chen@@@chen@@UAEPAXI@Z 00406ba0 f i EntityGroupPool.obj
 0001:00005ba0       ??_G?$treenode@V?$hashelement@Vword@chen@@PAVEntityGroup@@@chen@@@chen@@UAEPAXI@Z 00406ba0 f i EntityGroupPool.obj
 0001:00005bc0       ?_Xlen@?$vector@PAV?$hashnode@Vword@chen@@PAVEntityGroup@@@chen@@V?$allocator@PAV?$hashnode@Vword@chen@@PAVEntityGroup@@@chen@@@std@@@std@@IBEXXZ 00406bc0 f i EntityGroupPool.obj
 0001:00005c40       ?CountNodes@?$sorttree@V?$hashelement@Vword@chen@@PAVEntityGroup@@@chen@@@chen@@AAEXPAV?$treenode@V?$hashelement@Vword@chen@@PAVEntityGroup@@@chen@@@2@AAK@Z 00406c40 f i EntityGroupPool.obj
 0001:00005c70       ??M?$treenode@V?$hashelement@Vword@chen@@PAVEntityGroup@@@chen@@@chen@@QAE_NV01@@Z 00406c70 f i EntityGroupPool.obj
 0001:00005ce0       ??O?$treenode@V?$hashelement@Vword@chen@@PAVEntityGroup@@@chen@@@chen@@QAE_NV01@@Z 00406ce0 f i EntityGroupPool.obj
 0001:00005d50       ??0?$treenode@V?$hashelement@Vword@chen@@PAVEntityGroup@@@chen@@@chen@@QAE@ABV01@@Z 00406d50 f i EntityGroupPool.obj
 0001:00005dd0       ??0?$treenode@V?$hashelement@Vword@chen@@PAVEntityGroup@@@chen@@@chen@@QAE@ABV?$hashelement@Vword@chen@@PAVEntityGroup@@@1@@Z 00406dd0 f i EntityGroupPool.obj
 0001:00005e50       ?DeleteTree@?$sorttree@V?$hashelement@Vword@chen@@PAVEntityGroup@@@chen@@@chen@@QAEXPAV?$treenode@V?$hashelement@Vword@chen@@PAVEntityGroup@@@chen@@@2@@Z 00406e50 f i EntityGroupPool.obj
 0001:00005ea0       ?InsertNode@?$sorttree@V?$hashelement@Vword@chen@@PAVEntityGroup@@@chen@@@chen@@QAEXPAV?$treenode@V?$hashelement@Vword@chen@@PAVEntityGroup@@@chen@@@2@0@Z 00406ea0 f i EntityGroupPool.obj
 0001:00005f30       ?findnextnode@?$sorttree@V?$hashelement@Vword@chen@@PAVEntityGroup@@@chen@@@chen@@ABEPAV?$treenode@V?$hashelement@Vword@chen@@PAVEntityGroup@@@chen@@@2@AAV?$hashelement@Vword@chen@@PAVEntityGroup@@@2@AA_NPAV32@@Z 00406f30 f i EntityGroupPool.obj
 0001:00005fa0       ??$CreateNode@V?$hashelement@Vword@chen@@PAVEntityGroup@@@chen@@@?$sorttree@V?$hashelement@Vword@chen@@PAVEntityGroup@@@chen@@@chen@@SAPAV?$treenode@V?$hashelement@Vword@chen@@PAVEntityGroup@@@chen@@@1@ABV?$hashelement@Vword@chen@@PAVEntityGroup@@@1@@Z 00406fa0 f i EntityGroupPool.obj
 0001:00006000       ??_E?$sorttree@V?$hashelement@Vword@chen@@PAVEntityGroup@@@chen@@@chen@@UAEPAXI@Z 00407000 f i EntityGroupPool.obj
 0001:00006000       ??_G?$sorttree@V?$hashelement@Vword@chen@@PAVEntityGroup@@@chen@@@chen@@UAEPAXI@Z 00407000 f i EntityGroupPool.obj
 0001:00006060       ?find@?$hashnode@Vword@chen@@PAVEntityGroup@@@chen@@QAE_NABVword@2@PAPAV?$hashelement@Vword@chen@@PAVEntityGroup@@@2@@Z 00407060 f i EntityGroupPool.obj
 0001:00006130       ?InsertNodeEx@?$sorttree@V?$hashelement@Vword@chen@@PAVEntityGroup@@@chen@@@chen@@QAEAAV?$hashelement@Vword@chen@@PAVEntityGroup@@@2@ABV32@@Z 00407130 f i EntityGroupPool.obj
 0001:000061c0       ??1?$hashnode@Vword@chen@@PAVEntityGroup@@@chen@@QAE@XZ 004071c0 f i EntityGroupPool.obj
 0001:00006250       ?insert@?$hashnode@Vword@chen@@PAVEntityGroup@@@chen@@QAEAAV?$hashelement@Vword@chen@@PAVEntityGroup@@@2@ABVword@2@ABQAVEntityGroup@@@Z 00407250 f i EntityGroupPool.obj
 0001:00006330       ?find@?$hashnode@Vword@chen@@PAVEntityGroup@@@chen@@QAE_NABVword@2@PAPAPAVEntityGroup@@@Z 00407330 f i EntityGroupPool.obj
 0001:00006390       ?size@?$hashtable@Vword@chen@@PAVEntityGroup@@@chen@@QAEIXZ 00407390 f i EntityGroupPool.obj
 0001:00006430       ?find@?$hashtable@Vword@chen@@PAVEntityGroup@@@chen@@QAEPAPAVEntityGroup@@ABVword@2@@Z 00407430 f i EntityGroupPool.obj
 0001:000064a0       ?findnext@?$hashnode@Vword@chen@@PAVEntityGroup@@@chen@@QAE_NAAV?$hashelement@Vword@chen@@PAVEntityGroup@@@2@PAPAV32@@Z 004074a0 f i EntityGroupPool.obj
 0001:00006550       ?_Insert_n@?$vector@PAV?$hashnode@Vword@chen@@PAVEntityGroup@@@chen@@V?$allocator@PAV?$hashnode@Vword@chen@@PAVEntityGroup@@@chen@@@std@@@std@@IAEXViterator@12@IABQAV?$hashnode@Vword@chen@@PAVEntityGroup@@@chen@@@Z 00407550 f i EntityGroupPool.obj
 0001:00006740       ?findnext@?$hashtable@Vword@chen@@PAVEntityGroup@@@chen@@QAE_NAAViterator@12@@Z 00407740 f i EntityGroupPool.obj
 0001:000067e0       ?resize@?$vector@PAV?$hashnode@Vword@chen@@PAVEntityGroup@@@chen@@V?$allocator@PAV?$hashnode@Vword@chen@@PAVEntityGroup@@@chen@@@std@@@std@@QAEXIPAV?$hashnode@Vword@chen@@PAVEntityGroup@@@chen@@@Z 004077e0 f i EntityGroupPool.obj
 0001:00006870       ?GetRawDataSize@EntityGroupPool@@UAEIXZ 00407870 f   EntityGroupPool.obj
 0001:000068d0       ?GetRawData@EntityGroupPool@@UAEPADPADI@Z 004078d0 f   EntityGroupPool.obj
 0001:000069b0       ??0?$hashtable@Vword@chen@@PAVEntityGroup@@@chen@@QAE@XZ 004079b0 f i EntityGroupPool.obj
 0001:00006a00       ?insert@?$hashtable@Vword@chen@@PAVEntityGroup@@@chen@@QAEAAPAVEntityGroup@@ABVword@2@ABQAV3@@Z 00407a00 f i EntityGroupPool.obj
 0001:00006af0       ??0EntityGroupPool@@QAE@Vword@chen@@@Z 00407af0 f   EntityGroupPool.obj
 0001:00006b80       ?CreateObjectByRawData@EntityGroupPool@@UAEHPBDI@Z 00407b80 f   EntityGroupPool.obj
 0001:00006cd0       ?Push@EntityGroupPool@@QAE_NPAVEntityGroup@@@Z 00407cd0 f   EntityGroupPool.obj
 0001:00006df0       ?Push@EntityGroupPool@@QAE_NPBDI@Z 00407df0 f   EntityGroupPool.obj
 0001:00006f00       ?GetID@Entity@@QAE?AVword@chen@@XZ 00407f00 f i EntityPool.obj
 0001:00006f00       ?GetID@Group@@QAE?AVword@chen@@XZ 00407f00 f i GroupPool.obj
 0001:00006f20       ?Load@EntityPool@@UAE_NXZ  00407f20 f   EntityPool.obj
 0001:00007020       ?Submit@EntityPool@@UAE_NXZ 00408020 f   EntityPool.obj
 0001:00007150       ??0?$hashelement@Vword@chen@@PAVEntity@@@chen@@QAE@ABVword@1@@Z 00408150 f i EntityPool.obj
 0001:000071b0       ??0?$hashelement@Vword@chen@@PAVEntity@@@chen@@QAE@ABVword@1@ABQAVEntity@@@Z 004081b0 f i EntityPool.obj
 0001:00007220       ??1?$treenode@V?$hashelement@Vword@chen@@PAVEntity@@@chen@@@chen@@UAE@XZ 00408220 f i EntityPool.obj
 0001:00007240       ??_G?$treenode@V?$hashelement@Vword@chen@@PAVEntity@@@chen@@@chen@@UAEPAXI@Z 00408240 f i EntityPool.obj
 0001:00007240       ??_E?$treenode@V?$hashelement@Vword@chen@@PAVEntity@@@chen@@@chen@@UAEPAXI@Z 00408240 f i EntityPool.obj
 0001:00007260       ?_Xlen@?$vector@PAV?$hashnode@Vword@chen@@PAVEntity@@@chen@@V?$allocator@PAV?$hashnode@Vword@chen@@PAVEntity@@@chen@@@std@@@std@@IBEXXZ 00408260 f i EntityPool.obj
 0001:000072e0       ?CountNodes@?$sorttree@V?$hashelement@Vword@chen@@PAVEntity@@@chen@@@chen@@AAEXPAV?$treenode@V?$hashelement@Vword@chen@@PAVEntity@@@chen@@@2@AAK@Z 004082e0 f i EntityPool.obj
 0001:00007310       ??M?$treenode@V?$hashelement@Vword@chen@@PAVEntity@@@chen@@@chen@@QAE_NV01@@Z 00408310 f i EntityPool.obj
 0001:00007380       ??O?$treenode@V?$hashelement@Vword@chen@@PAVEntity@@@chen@@@chen@@QAE_NV01@@Z 00408380 f i EntityPool.obj
 0001:000073f0       ??0?$treenode@V?$hashelement@Vword@chen@@PAVEntity@@@chen@@@chen@@QAE@ABV01@@Z 004083f0 f i EntityPool.obj
 0001:00007470       ??0?$treenode@V?$hashelement@Vword@chen@@PAVEntity@@@chen@@@chen@@QAE@ABV?$hashelement@Vword@chen@@PAVEntity@@@1@@Z 00408470 f i EntityPool.obj
 0001:000074f0       ?DeleteTree@?$sorttree@V?$hashelement@Vword@chen@@PAVEntity@@@chen@@@chen@@QAEXPAV?$treenode@V?$hashelement@Vword@chen@@PAVEntity@@@chen@@@2@@Z 004084f0 f i EntityPool.obj
 0001:00007540       ?RomoveNode@?$sorttree@V?$hashelement@Vword@chen@@PAVEntity@@@chen@@@chen@@QAEXABV?$hashelement@Vword@chen@@PAVEntity@@@2@@Z 00408540 f i EntityPool.obj
 0001:000076e0       ?InsertNode@?$sorttree@V?$hashelement@Vword@chen@@PAVEntity@@@chen@@@chen@@QAEXPAV?$treenode@V?$hashelement@Vword@chen@@PAVEntity@@@chen@@@2@0@Z 004086e0 f i EntityPool.obj
 0001:00007770       ?findnextnode@?$sorttree@V?$hashelement@Vword@chen@@PAVEntity@@@chen@@@chen@@ABEPAV?$treenode@V?$hashelement@Vword@chen@@PAVEntity@@@chen@@@2@AAV?$hashelement@Vword@chen@@PAVEntity@@@2@AA_NPAV32@@Z 00408770 f i EntityPool.obj
 0001:000077e0       ??$CreateNode@V?$hashelement@Vword@chen@@PAVEntity@@@chen@@@?$sorttree@V?$hashelement@Vword@chen@@PAVEntity@@@chen@@@chen@@SAPAV?$treenode@V?$hashelement@Vword@chen@@PAVEntity@@@chen@@@1@ABV?$hashelement@Vword@chen@@PAVEntity@@@1@@Z 004087e0 f i EntityPool.obj
 0001:00007840       ??_G?$sorttree@V?$hashelement@Vword@chen@@PAVEntity@@@chen@@@chen@@UAEPAXI@Z 00408840 f i EntityPool.obj
 0001:00007840       ??_E?$sorttree@V?$hashelement@Vword@chen@@PAVEntity@@@chen@@@chen@@UAEPAXI@Z 00408840 f i EntityPool.obj
 0001:000078a0       ?find@?$hashnode@Vword@chen@@PAVEntity@@@chen@@QAE_NABVword@2@PAPAV?$hashelement@Vword@chen@@PAVEntity@@@2@@Z 004088a0 f i EntityPool.obj
 0001:00007970       ?InsertNodeEx@?$sorttree@V?$hashelement@Vword@chen@@PAVEntity@@@chen@@@chen@@QAEAAV?$hashelement@Vword@chen@@PAVEntity@@@2@ABV32@@Z 00408970 f i EntityPool.obj
 0001:00007a00       ??1?$hashnode@Vword@chen@@PAVEntity@@@chen@@QAE@XZ 00408a00 f i EntityPool.obj
 0001:00007a90       ?insert@?$hashnode@Vword@chen@@PAVEntity@@@chen@@QAEAAV?$hashelement@Vword@chen@@PAVEntity@@@2@ABVword@2@ABQAVEntity@@@Z 00408a90 f i EntityPool.obj
 0001:00007b70       ?find@?$hashnode@Vword@chen@@PAVEntity@@@chen@@QAE_NABVword@2@PAPAPAVEntity@@@Z 00408b70 f i EntityPool.obj
 0001:00007bd0       ?size@?$hashtable@Vword@chen@@PAVEntity@@@chen@@QAEIXZ 00408bd0 f i EntityPool.obj
 0001:00007c70       ?find@?$hashtable@Vword@chen@@PAVEntity@@@chen@@QAEPAPAVEntity@@ABVword@2@@Z 00408c70 f i EntityPool.obj
 0001:00007ce0       ?clearnodes@?$hashtable@Vword@chen@@PAVEntity@@@chen@@IAEXXZ 00408ce0 f i EntityPool.obj
 0001:00007d50       ?findnext@?$hashnode@Vword@chen@@PAVEntity@@@chen@@QAE_NAAV?$hashelement@Vword@chen@@PAVEntity@@@2@PAPAV32@@Z 00408d50 f i EntityPool.obj
 0001:00007e00       ?erase@?$hashnode@Vword@chen@@PAVEntity@@@chen@@QAE_NABVword@2@@Z 00408e00 f i EntityPool.obj
 0001:00007f10       ?_Insert_n@?$vector@PAV?$hashnode@Vword@chen@@PAVEntity@@@chen@@V?$allocator@PAV?$hashnode@Vword@chen@@PAVEntity@@@chen@@@std@@@std@@IAEXViterator@12@IABQAV?$hashnode@Vword@chen@@PAVEntity@@@chen@@@Z 00408f10 f i EntityPool.obj
 0001:00008100       ?GetEntityData@EntityPool@@QAE_NVword@chen@@PADAAI@Z 00409100 f   EntityPool.obj
 0001:000081f0       ??1?$hashtable@Vword@chen@@PAVEntity@@@chen@@QAE@XZ 004091f0 f i EntityPool.obj
 0001:00008250       ?erase@?$hashtable@Vword@chen@@PAVEntity@@@chen@@QAE_NABVword@2@@Z 00409250 f i EntityPool.obj
 0001:000082f0       ?findnext@?$hashtable@Vword@chen@@PAVEntity@@@chen@@QAE_NAAViterator@12@@Z 004092f0 f i EntityPool.obj
 0001:00008390       ?resize@?$vector@PAV?$hashnode@Vword@chen@@PAVEntity@@@chen@@V?$allocator@PAV?$hashnode@Vword@chen@@PAVEntity@@@chen@@@std@@@std@@QAEXIPAV?$hashnode@Vword@chen@@PAVEntity@@@chen@@@Z 00409390 f i EntityPool.obj
 0001:00008420       ?GetRawDataSize@EntityPool@@UAEIXZ 00409420 f   EntityPool.obj
 0001:00008480       ?GetRawData@EntityPool@@UAEPADPADI@Z 00409480 f   EntityPool.obj
 0001:00008570       ?DeleteEntity@EntityPool@@QAE_NVword@chen@@@Z 00409570 f   EntityPool.obj
 0001:00008660       ??0?$hashtable@Vword@chen@@PAVEntity@@@chen@@QAE@XZ 00409660 f i EntityPool.obj
 0001:000086b0       ?insert@?$hashtable@Vword@chen@@PAVEntity@@@chen@@QAEAAPAVEntity@@ABVword@2@ABQAV3@@Z 004096b0 f i EntityPool.obj
 0001:000087a0       ??0EntityPool@@QAE@Vword@chen@@@Z 004097a0 f   EntityPool.obj
 0001:00008870       ?CreateObjectByRawData@EntityPool@@UAEHPBDI@Z 00409870 f   EntityPool.obj
 0001:00008a20       ?push@EntityPool@@QAE_NPAVEntity@@@Z 00409a20 f   EntityPool.obj
 0001:00008b30       ?PushData@EntityPool@@QAE_NPBDI@Z 00409b30 f   EntityPool.obj
 0001:00008c00       ?_Buynode@?$list@PAVThreadEx@@V?$allocator@PAVThreadEx@@@std@@@std@@IAEPAU_Node@?$_List_nod@PAVThreadEx@@V?$allocator@PAVThreadEx@@@std@@@2@XZ 00409c00 f i ThreadContrl.obj
 0001:00008c00       ?_Buynode@?$list@HV?$allocator@H@std@@@std@@IAEPAU_Node@?$_List_nod@HV?$allocator@H@std@@@2@XZ 00409c00 f i EntityTemplet.obj
 0001:00008c00       ?_Buynode@?$list@PAVPage@@V?$allocator@PAVPage@@@std@@@std@@IAEPAU_Node@?$_List_nod@PAVPage@@V?$allocator@PAVPage@@@std@@@2@XZ 00409c00 f i PagePool.obj
 0001:00008c00       ?_Buynode@?$list@PAVStringMap@@V?$allocator@PAVStringMap@@@std@@@std@@IAEPAU_Node@?$_List_nod@PAVStringMap@@V?$allocator@PAVStringMap@@@std@@@2@XZ 00409c00 f i DB.obj
 0001:00008c20       ?_Buynode@?$list@HV?$allocator@H@std@@@std@@IAEPAU_Node@?$_List_nod@HV?$allocator@H@std@@@2@PAU342@0ABH@Z 00409c20 f i EntityTemplet.obj
 0001:00008c20       ?_Buynode@?$list@PAVStringMap@@V?$allocator@PAVStringMap@@@std@@@std@@IAEPAU_Node@?$_List_nod@PAVStringMap@@V?$allocator@PAVStringMap@@@std@@@2@PAU342@0ABQAVStringMap@@@Z 00409c20 f i DB.obj
 0001:00008c20       ?_Buynode@?$list@PAVThreadEx@@V?$allocator@PAVThreadEx@@@std@@@std@@IAEPAU_Node@?$_List_nod@PAVThreadEx@@V?$allocator@PAVThreadEx@@@std@@@2@PAU342@0ABQAVThreadEx@@@Z 00409c20 f i ThreadContrl.obj
 0001:00008c20       ?_Buynode@?$list@PAVPage@@V?$allocator@PAVPage@@@std@@@std@@IAEPAU_Node@?$_List_nod@PAVPage@@V?$allocator@PAVPage@@@std@@@2@PAU342@0ABQAVPage@@@Z 00409c20 f i PagePool.obj
 0001:00008c50       ?_Incsize@?$list@HV?$allocator@H@std@@@std@@IAEXI@Z 00409c50 f i EntityTemplet.obj
 0001:00008cf0       ?GetRawDataSize@EntityTemplet@@UAEIXZ 00409cf0 f   EntityTemplet.obj
 0001:00008d40       ?GetRawData@EntityTemplet@@UAEPADPADI@Z 00409d40 f   EntityTemplet.obj
 0001:00008e90       ?push_back@?$list@PAVStringMap@@V?$allocator@PAVStringMap@@@std@@@std@@QAEXABQAVStringMap@@@Z 00409e90 f i EntityTemplet.obj
 0001:00008ed0       ?push_back@?$list@HV?$allocator@H@std@@@std@@QAEXABH@Z 00409ed0 f i EntityTemplet.obj
 0001:00008f10       ??0EntityTemplet@@QAE@XZ   00409f10 f   EntityTemplet.obj
 0001:00008fb0       ??1EntityTemplet@@QAE@XZ   00409fb0 f   EntityTemplet.obj
 0001:000090c0       ?CreateObjectByRawData@EntityTemplet@@UAEHPBDI@Z 0040a0c0 f   EntityTemplet.obj
 0001:00009290       ?Load@EntityTempletPool@@UAE_NXZ 0040a290 f   EntityTempletPool.obj
 0001:00009390       ?Submit@EntityTempletPool@@UAE_NXZ 0040a390 f   EntityTempletPool.obj
 0001:000094c0       ??0?$hashelement@Vword@chen@@PAVEntityTemplet@@@chen@@QAE@ABVword@1@@Z 0040a4c0 f i EntityTempletPool.obj
 0001:00009520       ??0?$hashelement@Vword@chen@@PAVEntityTemplet@@@chen@@QAE@ABVword@1@ABQAVEntityTemplet@@@Z 0040a520 f i EntityTempletPool.obj
 0001:00009590       ??1?$treenode@V?$hashelement@Vword@chen@@PAVEntityTemplet@@@chen@@@chen@@UAE@XZ 0040a590 f i EntityTempletPool.obj
 0001:000095b0       ??_E?$treenode@V?$hashelement@Vword@chen@@PAVEntityTemplet@@@chen@@@chen@@UAEPAXI@Z 0040a5b0 f i EntityTempletPool.obj
 0001:000095b0       ??_G?$treenode@V?$hashelement@Vword@chen@@PAVEntityTemplet@@@chen@@@chen@@UAEPAXI@Z 0040a5b0 f i EntityTempletPool.obj
 0001:000095d0       ?_Xlen@?$vector@PAV?$hashnode@Vword@chen@@PAVEntityTemplet@@@chen@@V?$allocator@PAV?$hashnode@Vword@chen@@PAVEntityTemplet@@@chen@@@std@@@std@@IBEXXZ 0040a5d0 f i EntityTempletPool.obj
 0001:00009650       ?CountNodes@?$sorttree@V?$hashelement@Vword@chen@@PAVEntityTemplet@@@chen@@@chen@@AAEXPAV?$treenode@V?$hashelement@Vword@chen@@PAVEntityTemplet@@@chen@@@2@AAK@Z 0040a650 f i EntityTempletPool.obj
 0001:00009680       ??M?$treenode@V?$hashelement@Vword@chen@@PAVEntityTemplet@@@chen@@@chen@@QAE_NV01@@Z 0040a680 f i EntityTempletPool.obj
 0001:000096f0       ??O?$treenode@V?$hashelement@Vword@chen@@PAVEntityTemplet@@@chen@@@chen@@QAE_NV01@@Z 0040a6f0 f i EntityTempletPool.obj
 0001:00009760       ??0?$treenode@V?$hashelement@Vword@chen@@PAVEntityTemplet@@@chen@@@chen@@QAE@ABV01@@Z 0040a760 f i EntityTempletPool.obj
 0001:000097e0       ??$fill@PAPAV?$hashnode@Vword@chen@@PAVGroup@@@chen@@PAV12@@std@@YAXPAPAV?$hashnode@Vword@chen@@PAVGroup@@@chen@@0ABQAV12@@Z 0040a7e0 f i GroupPool.obj
 0001:000097e0       ??$fill@PAPAV?$hashnode@Vword@chen@@PAVEntityTemplet@@@chen@@PAV12@@std@@YAXPAPAV?$hashnode@Vword@chen@@PAVEntityTemplet@@@chen@@0ABQAV12@@Z 0040a7e0 f i EntityTempletPool.obj
 0001:000097e0       ??$fill@PAPAV?$hashnode@Vword@chen@@PAVCommonData@@@chen@@PAV12@@std@@YAXPAPAV?$hashnode@Vword@chen@@PAVCommonData@@@chen@@0ABQAV12@@Z 0040a7e0 f i GeneralPool.obj
 0001:000097e0       ??$fill@PAPAV?$hashnode@Vword@chen@@PAVSection@@@chen@@PAV12@@std@@YAXPAPAV?$hashnode@Vword@chen@@PAVSection@@@chen@@0ABQAV12@@Z 0040a7e0 f i GeneralPool.obj
 0001:000097e0       ??$fill@PAPAVMonitorTemplet@@PAV1@@std@@YAXPAPAVMonitorTemplet@@0ABQAV1@@Z 0040a7e0 f i MonitorTempletPool.obj
 0001:000097e0       ??$fill@PAPAVPage@@PAV1@@std@@YAXPAPAVPage@@0ABQAV1@@Z 0040a7e0 f i PagePool.obj
 0001:000097e0       ??$fill@PAPAUSubPool@PagePool@@PAU12@@std@@YAXPAPAUSubPool@PagePool@@0ABQAU12@@Z 0040a7e0 f i PagePool.obj
 0001:000097e0       ??$fill@PAPAV?$hashnode@Vword@chen@@PAVQueue@@@chen@@PAV12@@std@@YAXPAPAV?$hashnode@Vword@chen@@PAVQueue@@@chen@@0ABQAV12@@Z 0040a7e0 f i DB.obj
 0001:000097e0       ??$fill@PAPAV?$hashnode@Vword@chen@@V12@@chen@@PAV12@@std@@YAXPAPAV?$hashnode@Vword@chen@@V12@@chen@@0ABQAV12@@Z 0040a7e0 f i MonitorTempletPool.obj
 0001:000097e0       ??$fill@PAPAVSVSE@@PAV1@@std@@YAXPAPAVSVSE@@0ABQAV1@@Z 0040a7e0 f i SvdbMain.obj
 0001:000097e0       ??$fill@PAPAV?$hashnode@Vword@chen@@PAVEntity@@@chen@@PAV12@@std@@YAXPAPAV?$hashnode@Vword@chen@@PAVEntity@@@chen@@0ABQAV12@@Z 0040a7e0 f i EntityPool.obj
 0001:000097e0       ??$fill@PAPAVDataType@@PAV1@@std@@YAXPAPAVDataType@@0ABQAV1@@Z 0040a7e0 f i DB.obj
 0001:000097e0       ??$fill@PAPAV?$hashnode@Vword@chen@@PAVTable@@@chen@@PAV12@@std@@YAXPAPAV?$hashnode@Vword@chen@@PAVTable@@@chen@@0ABQAV12@@Z 0040a7e0 f i DB.obj
 0001:000097e0       ??$fill@PAPAV?$hashnode@Vword@chen@@PAVResource@@@chen@@PAV12@@std@@YAXPAPAV?$hashnode@Vword@chen@@PAVResource@@@chen@@0ABQAV12@@Z 0040a7e0 f i ResourcePool.obj
 0001:000097e0       ??$fill@PAPAV?$hashnode@Vword@chen@@PAVMonitor@@@chen@@PAV12@@std@@YAXPAPAV?$hashnode@Vword@chen@@PAVMonitor@@@chen@@0ABQAV12@@Z 0040a7e0 f i MonitorPool.obj
 0001:000097e0       ??$fill@PAPAV?$hashnode@Vword@chen@@PAVGeneralPool@@@chen@@PAV12@@std@@YAXPAPAV?$hashnode@Vword@chen@@PAVGeneralPool@@@chen@@0ABQAV12@@Z 0040a7e0 f i SvdbMain.obj
 0001:000097e0       ??$fill@PAPAV?$hashnode@Vword@chen@@PAVEntityGroup@@@chen@@PAV12@@std@@YAXPAPAV?$hashnode@Vword@chen@@PAVEntityGroup@@@chen@@0ABQAV12@@Z 0040a7e0 f i EntityGroupPool.obj
 0001:00009800       ??0?$treenode@V?$hashelement@Vword@chen@@PAVEntityTemplet@@@chen@@@chen@@QAE@ABV?$hashelement@Vword@chen@@PAVEntityTemplet@@@1@@Z 0040a800 f i EntityTempletPool.obj
 0001:00009880       ?DeleteTree@?$sorttree@V?$hashelement@Vword@chen@@PAVEntityTemplet@@@chen@@@chen@@QAEXPAV?$treenode@V?$hashelement@Vword@chen@@PAVEntityTemplet@@@chen@@@2@@Z 0040a880 f i EntityTempletPool.obj
 0001:000098d0       ?InsertNode@?$sorttree@V?$hashelement@Vword@chen@@PAVEntityTemplet@@@chen@@@chen@@QAEXPAV?$treenode@V?$hashelement@Vword@chen@@PAVEntityTemplet@@@chen@@@2@0@Z 0040a8d0 f i EntityTempletPool.obj
 0001:00009960       ?findnextnode@?$sorttree@V?$hashelement@Vword@chen@@PAVEntityTemplet@@@chen@@@chen@@ABEPAV?$treenode@V?$hashelement@Vword@chen@@PAVEntityTemplet@@@chen@@@2@AAV?$hashelement@Vword@chen@@PAVEntityTemplet@@@2@AA_NPAV32@@Z 0040a960 f i EntityTempletPool.obj
 0001:000099d0       ??$CreateNode@V?$hashelement@Vword@chen@@PAVEntityTemplet@@@chen@@@?$sorttree@V?$hashelement@Vword@chen@@PAVEntityTemplet@@@chen@@@chen@@SAPAV?$treenode@V?$hashelement@Vword@chen@@PAVEntityTemplet@@@chen@@@1@ABV?$hashelement@Vword@chen@@PAVEntityTemplet@@@1@@Z 0040a9d0 f i EntityTempletPool.obj
 0001:00009a30       ??_E?$sorttree@V?$hashelement@Vword@chen@@PAVEntityTemplet@@@chen@@@chen@@UAEPAXI@Z 0040aa30 f i EntityTempletPool.obj
 0001:00009a30       ??_G?$sorttree@V?$hashelement@Vword@chen@@PAVEntityTemplet@@@chen@@@chen@@UAEPAXI@Z 0040aa30 f i EntityTempletPool.obj
 0001:00009a90       ?find@?$hashnode@Vword@chen@@PAVEntityTemplet@@@chen@@QAE_NABVword@2@PAPAV?$hashelement@Vword@chen@@PAVEntityTemplet@@@2@@Z 0040aa90 f i EntityTempletPool.obj
 0001:00009b60       ?InsertNodeEx@?$sorttree@V?$hashelement@Vword@chen@@PAVEntityTemplet@@@chen@@@chen@@QAEAAV?$hashelement@Vword@chen@@PAVEntityTemplet@@@2@ABV32@@Z 0040ab60 f i EntityTempletPool.obj
 0001:00009bf0       ??1?$hashnode@Vword@chen@@PAVEntityTemplet@@@chen@@QAE@XZ 0040abf0 f i EntityTempletPool.obj
 0001:00009c80       ?insert@?$hashnode@Vword@chen@@PAVEntityTemplet@@@chen@@QAEAAV?$hashelement@Vword@chen@@PAVEntityTemplet@@@2@ABVword@2@ABQAVEntityTemplet@@@Z 0040ac80 f i EntityTempletPool.obj
 0001:00009d60       ?find@?$hashnode@Vword@chen@@PAVEntityTemplet@@@chen@@QAE_NABVword@2@PAPAPAVEntityTemplet@@@Z 0040ad60 f i EntityTempletPool.obj
 0001:00009dc0       ?size@?$hashtable@Vword@chen@@PAVEntityTemplet@@@chen@@QAEIXZ 0040adc0 f i EntityTempletPool.obj
 0001:00009e60       ?find@?$hashtable@Vword@chen@@PAVEntityTemplet@@@chen@@QAEPAPAVEntityTemplet@@ABVword@2@@Z 0040ae60 f i EntityTempletPool.obj
 0001:00009ed0       ?clearnodes@?$hashtable@Vword@chen@@PAVEntityTemplet@@@chen@@IAEXXZ 0040aed0 f i EntityTempletPool.obj
 0001:00009f40       ?findnext@?$hashnode@Vword@chen@@PAVEntityTemplet@@@chen@@QAE_NAAV?$hashelement@Vword@chen@@PAVEntityTemplet@@@2@PAPAV32@@Z 0040af40 f i EntityTempletPool.obj
 0001:00009ff0       ?_Insert_n@?$vector@PAV?$hashnode@Vword@chen@@PAVEntityTemplet@@@chen@@V?$allocator@PAV?$hashnode@Vword@chen@@PAVEntityTemplet@@@chen@@@std@@@std@@IAEXViterator@12@IABQAV?$hashnode@Vword@chen@@PAVEntityTemplet@@@chen@@@Z 0040aff0 f i EntityTempletPool.obj
 0001:0000a1e0       ??1?$hashtable@Vword@chen@@PAVEntityTemplet@@@chen@@QAE@XZ 0040b1e0 f i EntityTempletPool.obj
 0001:0000a240       ?findnext@?$hashtable@Vword@chen@@PAVEntityTemplet@@@chen@@QAE_NAAViterator@12@@Z 0040b240 f i EntityTempletPool.obj
 0001:0000a2e0       ?resize@?$vector@PAV?$hashnode@Vword@chen@@PAVEntityTemplet@@@chen@@V?$allocator@PAV?$hashnode@Vword@chen@@PAVEntityTemplet@@@chen@@@std@@@std@@QAEXIPAV?$hashnode@Vword@chen@@PAVEntityTemplet@@@chen@@@Z 0040b2e0 f i EntityTempletPool.obj
 0001:0000a370       ?GetRawDataSize@EntityTempletPool@@UAEIXZ 0040b370 f   EntityTempletPool.obj
 0001:0000a3d0       ?GetRawData@EntityTempletPool@@UAEPADPADI@Z 0040b3d0 f   EntityTempletPool.obj
 0001:0000a4b0       ??0?$hashtable@Vword@chen@@PAVEntityTemplet@@@chen@@QAE@XZ 0040b4b0 f i EntityTempletPool.obj
 0001:0000a500       ?insert@?$hashtable@Vword@chen@@PAVEntityTemplet@@@chen@@QAEAAPAVEntityTemplet@@ABVword@2@ABQAV3@@Z 0040b500 f i EntityTempletPool.obj
 0001:0000a5f0       ??0EntityTempletPool@@QAE@Vword@chen@@@Z 0040b5f0 f   EntityTempletPool.obj
 0001:0000a6b0       ?CreateObjectByRawData@EntityTempletPool@@UAEHPBDI@Z 0040b6b0 f   EntityTempletPool.obj
 0001:0000a800       ?Push@EntityTempletPool@@QAE_NPAVEntityTemplet@@@Z 0040b800 f   EntityTempletPool.obj
 0001:0000a920       ?Push@EntityTempletPool@@QAE_NPBDI@Z 0040b920 f   EntityTempletPool.obj
 0001:0000aa30       ??0CommonData@@QAE@PBXIH@Z 0040ba30 f i GeneralPool.obj
 0001:0000aab0       ?PutSection@Section@@QAEXVword@chen@@@Z 0040bab0 f i GeneralPool.obj
 0001:0000ab10       ?GetSection@Section@@QAE?AVword@chen@@XZ 0040bb10 f i GeneralPool.obj
 0001:0000ab30       ?Load@GeneralPool@@UAE_NXZ 0040bb30 f   GeneralPool.obj
 0001:0000ac50       ?Submit@GeneralPool@@UAE_NXZ 0040bc50 f   GeneralPool.obj
 0001:0000ad90       ??0?$hashelement@Vword@chen@@PAVCommonData@@@chen@@QAE@ABVword@1@@Z 0040bd90 f i GeneralPool.obj
 0001:0000ad90       ??0?$hashelement@Vword@chen@@PAVSection@@@chen@@QAE@ABVword@1@@Z 0040bd90 f i GeneralPool.obj
 0001:0000adf0       ??1?$treenode@V?$hashelement@Vword@chen@@PAVSection@@@chen@@@chen@@UAE@XZ 0040bdf0 f i GeneralPool.obj
 0001:0000ae10       ??_G?$treenode@V?$hashelement@Vword@chen@@PAVSection@@@chen@@@chen@@UAEPAXI@Z 0040be10 f i GeneralPool.obj
 0001:0000ae10       ??_E?$treenode@V?$hashelement@Vword@chen@@PAVSection@@@chen@@@chen@@UAEPAXI@Z 0040be10 f i GeneralPool.obj
 0001:0000ae30       ?_Xlen@?$vector@PAV?$hashnode@Vword@chen@@PAVSection@@@chen@@V?$allocator@PAV?$hashnode@Vword@chen@@PAVSection@@@chen@@@std@@@std@@IBEXXZ 0040be30 f i GeneralPool.obj
 0001:0000ae30       ?_Xlen@?$vector@PAV?$hashnode@Vword@chen@@PAVCommonData@@@chen@@V?$allocator@PAV?$hashnode@Vword@chen@@PAVCommonData@@@chen@@@std@@@std@@IBEXXZ 0040be30 f i GeneralPool.obj
 0001:0000aeb0       ??0?$hashelement@Vword@chen@@PAVSection@@@chen@@QAE@ABVword@1@ABQAVSection@@@Z 0040beb0 f i GeneralPool.obj
 0001:0000aeb0       ??0?$hashelement@Vword@chen@@PAVCommonData@@@chen@@QAE@ABVword@1@ABQAVCommonData@@@Z 0040beb0 f i GeneralPool.obj
 0001:0000af20       ??1?$treenode@V?$hashelement@Vword@chen@@PAVCommonData@@@chen@@@chen@@UAE@XZ 0040bf20 f i GeneralPool.obj
 0001:0000af40       ??_G?$treenode@V?$hashelement@Vword@chen@@PAVCommonData@@@chen@@@chen@@UAEPAXI@Z 0040bf40 f i GeneralPool.obj
 0001:0000af40       ??_E?$treenode@V?$hashelement@Vword@chen@@PAVCommonData@@@chen@@@chen@@UAEPAXI@Z 0040bf40 f i GeneralPool.obj
 0001:0000af60       ??M?$treenode@V?$hashelement@Vword@chen@@PAVSection@@@chen@@@chen@@QAE_NV01@@Z 0040bf60 f i GeneralPool.obj
 0001:0000afd0       ??O?$treenode@V?$hashelement@Vword@chen@@PAVSection@@@chen@@@chen@@QAE_NV01@@Z 0040bfd0 f i GeneralPool.obj
 0001:0000b040       ??0?$treenode@V?$hashelement@Vword@chen@@PAVSection@@@chen@@@chen@@QAE@ABV01@@Z 0040c040 f i GeneralPool.obj
 0001:0000b0c0       ?CountNodes@?$sorttree@V?$hashelement@Vword@chen@@PAVSection@@@chen@@@chen@@AAEXPAV?$treenode@V?$hashelement@Vword@chen@@PAVSection@@@chen@@@2@AAK@Z 0040c0c0 f i GeneralPool.obj
 0001:0000b0f0       ??M?$treenode@V?$hashelement@Vword@chen@@PAVCommonData@@@chen@@@chen@@QAE_NV01@@Z 0040c0f0 f i GeneralPool.obj
 0001:0000b160       ??O?$treenode@V?$hashelement@Vword@chen@@PAVCommonData@@@chen@@@chen@@QAE_NV01@@Z 0040c160 f i GeneralPool.obj
 0001:0000b1d0       ??0?$treenode@V?$hashelement@Vword@chen@@PAVCommonData@@@chen@@@chen@@QAE@ABV01@@Z 0040c1d0 f i GeneralPool.obj
 0001:0000b250       ??0?$treenode@V?$hashelement@Vword@chen@@PAVSection@@@chen@@@chen@@QAE@ABV?$hashelement@Vword@chen@@PAVSection@@@1@@Z 0040c250 f i GeneralPool.obj
 0001:0000b2d0       ??0?$treenode@V?$hashelement@Vword@chen@@PAVCommonData@@@chen@@@chen@@QAE@ABV?$hashelement@Vword@chen@@PAVCommonData@@@1@@Z 0040c2d0 f i GeneralPool.obj
 0001:0000b350       ?DeleteTree@?$sorttree@V?$hashelement@Vword@chen@@PAVCommonData@@@chen@@@chen@@QAEXPAV?$treenode@V?$hashelement@Vword@chen@@PAVCommonData@@@chen@@@2@@Z 0040c350 f i GeneralPool.obj
 0001:0000b3a0       ?DeleteTree@?$sorttree@V?$hashelement@Vword@chen@@PAVSection@@@chen@@@chen@@QAEXPAV?$treenode@V?$hashelement@Vword@chen@@PAVSection@@@chen@@@2@@Z 0040c3a0 f i GeneralPool.obj
 0001:0000b3f0       ?InsertNode@?$sorttree@V?$hashelement@Vword@chen@@PAVSection@@@chen@@@chen@@QAEXPAV?$treenode@V?$hashelement@Vword@chen@@PAVSection@@@chen@@@2@0@Z 0040c3f0 f i GeneralPool.obj
 0001:0000b480       ?findnextnode@?$sorttree@V?$hashelement@Vword@chen@@PAVSection@@@chen@@@chen@@ABEPAV?$treenode@V?$hashelement@Vword@chen@@PAVSection@@@chen@@@2@AAV?$hashelement@Vword@chen@@PAVSection@@@2@AA_NPAV32@@Z 0040c480 f i GeneralPool.obj
 0001:0000b4f0       ?InsertNode@?$sorttree@V?$hashelement@Vword@chen@@PAVCommonData@@@chen@@@chen@@QAEXPAV?$treenode@V?$hashelement@Vword@chen@@PAVCommonData@@@chen@@@2@0@Z 0040c4f0 f i GeneralPool.obj
 0001:0000b580       ??$CreateNode@V?$hashelement@Vword@chen@@PAVSection@@@chen@@@?$sorttree@V?$hashelement@Vword@chen@@PAVSection@@@chen@@@chen@@SAPAV?$treenode@V?$hashelement@Vword@chen@@PAVSection@@@chen@@@1@ABV?$hashelement@Vword@chen@@PAVSection@@@1@@Z 0040c580 f i GeneralPool.obj
 0001:0000b5e0       ??$CreateNode@V?$hashelement@Vword@chen@@PAVCommonData@@@chen@@@?$sorttree@V?$hashelement@Vword@chen@@PAVCommonData@@@chen@@@chen@@SAPAV?$treenode@V?$hashelement@Vword@chen@@PAVCommonData@@@chen@@@1@ABV?$hashelement@Vword@chen@@PAVCommonData@@@1@@Z 0040c5e0 f i GeneralPool.obj
 0001:0000b640       ??_E?$sorttree@V?$hashelement@Vword@chen@@PAVCommonData@@@chen@@@chen@@UAEPAXI@Z 0040c640 f i GeneralPool.obj
 0001:0000b640       ??_G?$sorttree@V?$hashelement@Vword@chen@@PAVCommonData@@@chen@@@chen@@UAEPAXI@Z 0040c640 f i GeneralPool.obj
 0001:0000b6a0       ??_G?$sorttree@V?$hashelement@Vword@chen@@PAVSection@@@chen@@@chen@@UAEPAXI@Z 0040c6a0 f i GeneralPool.obj
 0001:0000b6a0       ??_E?$sorttree@V?$hashelement@Vword@chen@@PAVSection@@@chen@@@chen@@UAEPAXI@Z 0040c6a0 f i GeneralPool.obj
 0001:0000b700       ?find@?$hashnode@Vword@chen@@PAVSection@@@chen@@QAE_NABVword@2@PAPAV?$hashelement@Vword@chen@@PAVSection@@@2@@Z 0040c700 f i GeneralPool.obj
 0001:0000b700       ?find@?$hashnode@Vword@chen@@PAVCommonData@@@chen@@QAE_NABVword@2@PAPAV?$hashelement@Vword@chen@@PAVCommonData@@@2@@Z 0040c700 f i GeneralPool.obj
 0001:0000b7d0       ?InsertNodeEx@?$sorttree@V?$hashelement@Vword@chen@@PAVSection@@@chen@@@chen@@QAEAAV?$hashelement@Vword@chen@@PAVSection@@@2@ABV32@@Z 0040c7d0 f i GeneralPool.obj
 0001:0000b860       ?InsertNodeEx@?$sorttree@V?$hashelement@Vword@chen@@PAVCommonData@@@chen@@@chen@@QAEAAV?$hashelement@Vword@chen@@PAVCommonData@@@2@ABV32@@Z 0040c860 f i GeneralPool.obj
 0001:0000b8f0       ?find@?$hashnode@Vword@chen@@PAVCommonData@@@chen@@QAE_NABVword@2@PAPAPAVCommonData@@@Z 0040c8f0 f i GeneralPool.obj
 0001:0000b8f0       ?find@?$hashnode@Vword@chen@@PAVSection@@@chen@@QAE_NABVword@2@PAPAPAVSection@@@Z 0040c8f0 f i GeneralPool.obj
 0001:0000b950       ??1?$hashnode@Vword@chen@@PAVSection@@@chen@@QAE@XZ 0040c950 f i GeneralPool.obj
 0001:0000b9e0       ?insert@?$hashnode@Vword@chen@@PAVSection@@@chen@@QAEAAV?$hashelement@Vword@chen@@PAVSection@@@2@ABVword@2@ABQAVSection@@@Z 0040c9e0 f i GeneralPool.obj
 0001:0000bac0       ?insert@?$hashnode@Vword@chen@@PAVCommonData@@@chen@@QAEAAV?$hashelement@Vword@chen@@PAVCommonData@@@2@ABVword@2@ABQAVCommonData@@@Z 0040cac0 f i GeneralPool.obj
 0001:0000bba0       ?find@?$hashtable@Vword@chen@@PAVCommonData@@@chen@@QAEPAPAVCommonData@@ABVword@2@@Z 0040cba0 f i GeneralPool.obj
 0001:0000bba0       ?find@?$hashtable@Vword@chen@@PAVSection@@@chen@@QAEPAPAVSection@@ABVword@2@@Z 0040cba0 f i GeneralPool.obj
 0001:0000bc10       ?clearnodes@?$hashtable@Vword@chen@@PAVSection@@@chen@@IAEXXZ 0040cc10 f i GeneralPool.obj
 0001:0000bc80       ?findnext@?$hashnode@Vword@chen@@PAVSection@@@chen@@QAE_NAAV?$hashelement@Vword@chen@@PAVSection@@@2@PAPAV32@@Z 0040cc80 f i GeneralPool.obj
 0001:0000bd30       ?_Insert_n@?$vector@PAV?$hashnode@Vword@chen@@PAVCommonData@@@chen@@V?$allocator@PAV?$hashnode@Vword@chen@@PAVCommonData@@@chen@@@std@@@std@@IAEXViterator@12@IABQAV?$hashnode@Vword@chen@@PAVCommonData@@@chen@@@Z 0040cd30 f i GeneralPool.obj
 0001:0000bd30       ?_Insert_n@?$vector@PAV?$hashnode@Vword@chen@@PAVSection@@@chen@@V?$allocator@PAV?$hashnode@Vword@chen@@PAVSection@@@chen@@@std@@@std@@IAEXViterator@12@IABQAV?$hashnode@Vword@chen@@PAVSection@@@chen@@@Z 0040cd30 f i GeneralPool.obj
 0001:0000bf20       ?Find@Section@@QAE_NVword@chen@@@Z 0040cf20 f i GeneralPool.obj
 0001:0000bf80       ?GetKeys@Section@@QAE_NAAV?$list@V?$basic_string@DU?$char_traits@D@std@@V?$allocator@D@2@@std@@V?$allocator@V?$basic_string@DU?$char_traits@D@std@@V?$allocator@D@2@@std@@@2@@std@@@Z 0040cf80 f i GeneralPool.obj
 0001:0000c030       ?DeleteKeyInKeyOrder@Section@@IAE_NVword@chen@@@Z 0040d030 f i GeneralPool.obj
 0001:0000c120       ?Find@GeneralPool@@QAE_NVword@chen@@@Z 0040d120 f i GeneralPool.obj
 0001:0000c180       ?GetRawDataSize@GeneralPool@@UAEIXZ 0040d180 f   GeneralPool.obj
 0001:0000c1c0       ?GetRawData@GeneralPool@@UAEPADPADI@Z 0040d1c0 f   GeneralPool.obj
 0001:0000c290       ?GetSectionsName@GeneralPool@@QAE_NAAV?$list@V?$basic_string@DU?$char_traits@D@std@@V?$allocator@D@2@@std@@V?$allocator@V?$basic_string@DU?$char_traits@D@std@@V?$allocator@D@2@@std@@@2@@std@@@Z 0040d290 f   GeneralPool.obj
 0001:0000c340       ??1?$hashtable@Vword@chen@@PAVSection@@@chen@@QAE@XZ 0040d340 f i GeneralPool.obj
 0001:0000c3a0       ?findnext@?$hashtable@Vword@chen@@PAVSection@@@chen@@QAE_NAAViterator@12@@Z 0040d3a0 f i GeneralPool.obj
 0001:0000c440       ?resize@?$vector@PAV?$hashnode@Vword@chen@@PAVSection@@@chen@@V?$allocator@PAV?$hashnode@Vword@chen@@PAVSection@@@chen@@@std@@@std@@QAEXIPAV?$hashnode@Vword@chen@@PAVSection@@@chen@@@Z 0040d440 f i GeneralPool.obj
 0001:0000c440       ?resize@?$vector@PAV?$hashnode@Vword@chen@@PAVCommonData@@@chen@@V?$allocator@PAV?$hashnode@Vword@chen@@PAVCommonData@@@chen@@@std@@@std@@QAEXIPAV?$hashnode@Vword@chen@@PAVCommonData@@@chen@@@Z 0040d440 f i GeneralPool.obj
 0001:0000c4d0       ??1GeneralPool@@QAE@XZ     0040d4d0 f   GeneralPool.obj
 0001:0000c5c0       ??0?$hashtable@Vword@chen@@PAVSection@@@chen@@QAE@XZ 0040d5c0 f i GeneralPool.obj
 0001:0000c610       ?insert@?$hashtable@Vword@chen@@PAVSection@@@chen@@QAEAAPAVSection@@ABVword@2@ABQAV3@@Z 0040d610 f i GeneralPool.obj
 0001:0000c700       ?insert@?$hashtable@Vword@chen@@PAVCommonData@@@chen@@QAEAAPAVCommonData@@ABVword@2@ABQAV3@@Z 0040d700 f i GeneralPool.obj
 0001:0000c7f0       ??0GeneralPool@@QAE@Vword@chen@@@Z 0040d7f0 f   GeneralPool.obj
 0001:0000c8e0       ?CreateObjectByRawData@GeneralPool@@UAEHPBDI@Z 0040d8e0 f   GeneralPool.obj
 0001:0000cac0       ?GetKeysName@GeneralPool@@QAE_NVword@chen@@AAV?$list@V?$basic_string@DU?$char_traits@D@std@@V?$allocator@D@2@@std@@V?$allocator@V?$basic_string@DU?$char_traits@D@std@@V?$allocator@D@2@@std@@@2@@std@@@Z 0040dac0 f   GeneralPool.obj
 0001:0000cb90       ?Push@Section@@QAE_NVword@chen@@PAVCommonData@@@Z 0040db90 f i GeneralPool.obj
 0001:0000cc90       ?Push@Section@@QAE_NVword@chen@@PBDI@Z 0040dc90 f i GeneralPool.obj
 0001:0000cd70       ?Push@Section@@QAE_NVword@chen@@0@Z 0040dd70 f i GeneralPool.obj
 0001:0000cea0       ?Push@Section@@QAE_NVword@chen@@H@Z 0040dea0 f i GeneralPool.obj
 0001:0000cfb0       ?Pop@Section@@QAE_NVword@chen@@AAH@Z 0040dfb0 f i GeneralPool.obj
 0001:0000d0e0       ?Pop@Section@@QAE_NVword@chen@@PAPAXAAI@Z 0040e0e0 f i GeneralPool.obj
 0001:0000d1e0       ?Pop@Section@@QAE_NVword@chen@@AAV23@@Z 0040e1e0 f i GeneralPool.obj
 0001:0000d300       ?GetValueTypeByKey@Section@@QAEHVword@chen@@@Z 0040e300 f i GeneralPool.obj
 0001:0000d3d0       ?WriteData@GeneralPool@@QAE_NVword@chen@@0PAXI@Z 0040e3d0 f   GeneralPool.obj
 0001:0000d630       ?GetData@GeneralPool@@QAE_NVword@chen@@0PAXAAI@Z 0040e630 f   GeneralPool.obj
 0001:0000d7a0       ?WriteString@GeneralPool@@QAE_NVword@chen@@00@Z 0040e7a0 f   GeneralPool.obj
 0001:0000da50       ?GetString@GeneralPool@@QAE?AVword@chen@@V23@00@Z 0040ea50 f   GeneralPool.obj
 0001:0000dbb0       ?WriteInt@GeneralPool@@QAE_NVword@chen@@0H@Z 0040ebb0 f   GeneralPool.obj
 0001:0000de00       ?GetInt@GeneralPool@@QAEHVword@chen@@0H@Z 0040ee00 f   GeneralPool.obj
 0001:0000df30       ?GetValueTypeBySectionAndKey@GeneralPool@@QAEHVword@chen@@0@Z 0040ef30 f   GeneralPool.obj
 0001:0000e050       ?GetRawDataSize@Group@@UAEIXZ 0040f050 f   Group.obj
 0001:0000e0d0       ?GetRawData@Group@@UAEPADPADI@Z 0040f0d0 f   Group.obj
 0001:0000e230       ?CreateObjectByRawData@Group@@UAEHPBDI@Z 0040f230 f   Group.obj
 0001:0000e430       ??0Group@@QAE@XZ           0040f430 f   Group.obj
 0001:0000e4c0       ??1Group@@QAE@XZ           0040f4c0 f   Group.obj
 0001:0000e560       ?Load@GroupPool@@UAE_NXZ   0040f560 f   GroupPool.obj
 0001:0000e660       ?Submit@GroupPool@@UAE_NXZ 0040f660 f   GroupPool.obj
 0001:0000e790       ??0?$hashelement@Vword@chen@@PAVGroup@@@chen@@QAE@ABVword@1@@Z 0040f790 f i GroupPool.obj
 0001:0000e7f0       ??0?$hashelement@Vword@chen@@PAVGroup@@@chen@@QAE@ABVword@1@ABQAVGroup@@@Z 0040f7f0 f i GroupPool.obj
 0001:0000e860       ??1?$treenode@V?$hashelement@Vword@chen@@PAVGroup@@@chen@@@chen@@UAE@XZ 0040f860 f i GroupPool.obj
 0001:0000e880       ??_E?$treenode@V?$hashelement@Vword@chen@@PAVGroup@@@chen@@@chen@@UAEPAXI@Z 0040f880 f i GroupPool.obj
 0001:0000e880       ??_G?$treenode@V?$hashelement@Vword@chen@@PAVGroup@@@chen@@@chen@@UAEPAXI@Z 0040f880 f i GroupPool.obj
 0001:0000e8a0       ?_Xlen@?$vector@PAV?$hashnode@Vword@chen@@PAVGroup@@@chen@@V?$allocator@PAV?$hashnode@Vword@chen@@PAVGroup@@@chen@@@std@@@std@@IBEXXZ 0040f8a0 f i GroupPool.obj
 0001:0000e920       ?CountNodes@?$sorttree@V?$hashelement@Vword@chen@@PAVGroup@@@chen@@@chen@@AAEXPAV?$treenode@V?$hashelement@Vword@chen@@PAVGroup@@@chen@@@2@AAK@Z 0040f920 f i GroupPool.obj
 0001:0000e950       ??M?$treenode@V?$hashelement@Vword@chen@@PAVGroup@@@chen@@@chen@@QAE_NV01@@Z 0040f950 f i GroupPool.obj
 0001:0000e9c0       ??O?$treenode@V?$hashelement@Vword@chen@@PAVGroup@@@chen@@@chen@@QAE_NV01@@Z 0040f9c0 f i GroupPool.obj
 0001:0000ea30       ??0?$treenode@V?$hashelement@Vword@chen@@PAVGroup@@@chen@@@chen@@QAE@ABV01@@Z 0040fa30 f i GroupPool.obj
 0001:0000eab0       ??0?$treenode@V?$hashelement@Vword@chen@@PAVGroup@@@chen@@@chen@@QAE@ABV?$hashelement@Vword@chen@@PAVGroup@@@1@@Z 0040fab0 f i GroupPool.obj
 0001:0000eb30       ?DeleteTree@?$sorttree@V?$hashelement@Vword@chen@@PAVGroup@@@chen@@@chen@@QAEXPAV?$treenode@V?$hashelement@Vword@chen@@PAVGroup@@@chen@@@2@@Z 0040fb30 f i GroupPool.obj
 0001:0000eb80       ?RomoveNode@?$sorttree@V?$hashelement@Vword@chen@@PAVGroup@@@chen@@@chen@@QAEXABV?$hashelement@Vword@chen@@PAVGroup@@@2@@Z 0040fb80 f i GroupPool.obj
 0001:0000ed20       ?InsertNode@?$sorttree@V?$hashelement@Vword@chen@@PAVGroup@@@chen@@@chen@@QAEXPAV?$treenode@V?$hashelement@Vword@chen@@PAVGroup@@@chen@@@2@0@Z 0040fd20 f i GroupPool.obj
 0001:0000edb0       ?findnextnode@?$sorttree@V?$hashelement@Vword@chen@@PAVGroup@@@chen@@@chen@@ABEPAV?$treenode@V?$hashelement@Vword@chen@@PAVGroup@@@chen@@@2@AAV?$hashelement@Vword@chen@@PAVGroup@@@2@AA_NPAV32@@Z 0040fdb0 f i GroupPool.obj
 0001:0000ee20       ??$CreateNode@V?$hashelement@Vword@chen@@PAVGroup@@@chen@@@?$sorttree@V?$hashelement@Vword@chen@@PAVGroup@@@chen@@@chen@@SAPAV?$treenode@V?$hashelement@Vword@chen@@PAVGroup@@@chen@@@1@ABV?$hashelement@Vword@chen@@PAVGroup@@@1@@Z 0040fe20 f i GroupPool.obj
 0001:0000ee80       ??_E?$sorttree@V?$hashelement@Vword@chen@@PAVGroup@@@chen@@@chen@@UAEPAXI@Z 0040fe80 f i GroupPool.obj
 0001:0000ee80       ??_G?$sorttree@V?$hashelement@Vword@chen@@PAVGroup@@@chen@@@chen@@UAEPAXI@Z 0040fe80 f i GroupPool.obj
 0001:0000eee0       ?find@?$hashnode@Vword@chen@@PAVGroup@@@chen@@QAE_NABVword@2@PAPAV?$hashelement@Vword@chen@@PAVGroup@@@2@@Z 0040fee0 f i GroupPool.obj
 0001:0000efb0       ?InsertNodeEx@?$sorttree@V?$hashelement@Vword@chen@@PAVGroup@@@chen@@@chen@@QAEAAV?$hashelement@Vword@chen@@PAVGroup@@@2@ABV32@@Z 0040ffb0 f i GroupPool.obj
 0001:0000f040       ??1?$hashnode@Vword@chen@@PAVGroup@@@chen@@QAE@XZ 00410040 f i GroupPool.obj
 0001:0000f0d0       ?insert@?$hashnode@Vword@chen@@PAVGroup@@@chen@@QAEAAV?$hashelement@Vword@chen@@PAVGroup@@@2@ABVword@2@ABQAVGroup@@@Z 004100d0 f i GroupPool.obj
 0001:0000f1b0       ?find@?$hashnode@Vword@chen@@PAVGroup@@@chen@@QAE_NABVword@2@PAPAPAVGroup@@@Z 004101b0 f i GroupPool.obj
 0001:0000f210       ?size@?$hashtable@Vword@chen@@PAVGroup@@@chen@@QAEIXZ 00410210 f i GroupPool.obj
 0001:0000f2b0       ?find@?$hashtable@Vword@chen@@PAVGroup@@@chen@@QAEPAPAVGroup@@ABVword@2@@Z 004102b0 f i GroupPool.obj
 0001:0000f320       ?clearnodes@?$hashtable@Vword@chen@@PAVGroup@@@chen@@IAEXXZ 00410320 f i GroupPool.obj
 0001:0000f390       ?findnext@?$hashnode@Vword@chen@@PAVGroup@@@chen@@QAE_NAAV?$hashelement@Vword@chen@@PAVGroup@@@2@PAPAV32@@Z 00410390 f i GroupPool.obj
 0001:0000f440       ?erase@?$hashnode@Vword@chen@@PAVGroup@@@chen@@QAE_NABVword@2@@Z 00410440 f i GroupPool.obj
 0001:0000f550       ?_Insert_n@?$vector@PAV?$hashnode@Vword@chen@@PAVGroup@@@chen@@V?$allocator@PAV?$hashnode@Vword@chen@@PAVGroup@@@chen@@@std@@@std@@IAEXViterator@12@IABQAV?$hashnode@Vword@chen@@PAVGroup@@@chen@@@Z 00410550 f i GroupPool.obj
 0001:0000f740       ?GetGroupData@GroupPool@@QAE_NVword@chen@@PADAAI@Z 00410740 f   GroupPool.obj
 0001:0000f830       ??1?$hashtable@Vword@chen@@PAVGroup@@@chen@@QAE@XZ 00410830 f i GroupPool.obj
 0001:0000f890       ?erase@?$hashtable@Vword@chen@@PAVGroup@@@chen@@QAE_NABVword@2@@Z 00410890 f i GroupPool.obj
 0001:0000f930       ?findnext@?$hashtable@Vword@chen@@PAVGroup@@@chen@@QAE_NAAViterator@12@@Z 00410930 f i GroupPool.obj
 0001:0000f9d0       ?resize@?$vector@PAV?$hashnode@Vword@chen@@PAVGroup@@@chen@@V?$allocator@PAV?$hashnode@Vword@chen@@PAVGroup@@@chen@@@std@@@std@@QAEXIPAV?$hashnode@Vword@chen@@PAVGroup@@@chen@@@Z 004109d0 f i GroupPool.obj
 0001:0000fa60       ?GetRawDataSize@GroupPool@@UAEIXZ 00410a60 f   GroupPool.obj
 0001:0000fac0       ?GetRawData@GroupPool@@UAEPADPADI@Z 00410ac0 f   GroupPool.obj
 0001:0000fbb0       ?DeleteGroup@GroupPool@@QAE_NVword@chen@@@Z 00410bb0 f   GroupPool.obj
 0001:0000fca0       ??0?$hashtable@Vword@chen@@PAVGroup@@@chen@@QAE@XZ 00410ca0 f i GroupPool.obj
 0001:0000fcf0       ?insert@?$hashtable@Vword@chen@@PAVGroup@@@chen@@QAEAAPAVGroup@@ABVword@2@ABQAV3@@Z 00410cf0 f i GroupPool.obj
 0001:0000fde0       ??0GroupPool@@QAE@Vword@chen@@@Z 00410de0 f   GroupPool.obj
 0001:0000feb0       ?CreateObjectByRawData@GroupPool@@UAEHPBDI@Z 00410eb0 f   GroupPool.obj
 0001:00010060       ?push@GroupPool@@QAE_NPAVGroup@@@Z 00411060 f   GroupPool.obj
 0001:00010170       ?PushData@GroupPool@@QAE_NPBDI@Z 00411170 f   GroupPool.obj
 0001:00010240       ??0Monitor@@QAE@XZ         00411240 f   Monitor.obj
 0001:000102f0       ??1Monitor@@QAE@XZ         004112f0 f   Monitor.obj
 0001:00010380       ?GetRawDataSize@Monitor@@UAEIXZ 00411380 f   Monitor.obj
 0001:000103e0       ?GetRawData@Monitor@@UAEPADPADI@Z 004113e0 f   Monitor.obj
 0001:00010540       ?CreateObjectByRawData@Monitor@@UAEHPBDI@Z 00411540 f   Monitor.obj
 0001:000106d0       ?Load@MonitorPool@@UAE_NXZ 004116d0 f   MonitorPool.obj
 0001:000107d0       ?Submit@MonitorPool@@UAE_NXZ 004117d0 f   MonitorPool.obj
 0001:00010900       ??0?$hashelement@Vword@chen@@PAVMonitor@@@chen@@QAE@ABVword@1@@Z 00411900 f i MonitorPool.obj
 0001:00010960       ??0?$hashelement@Vword@chen@@PAVMonitor@@@chen@@QAE@ABVword@1@ABQAVMonitor@@@Z 00411960 f i MonitorPool.obj
 0001:000109d0       ??1?$treenode@V?$hashelement@Vword@chen@@PAVMonitor@@@chen@@@chen@@UAE@XZ 004119d0 f i MonitorPool.obj
 0001:000109f0       ??_G?$treenode@V?$hashelement@Vword@chen@@PAVMonitor@@@chen@@@chen@@UAEPAXI@Z 004119f0 f i MonitorPool.obj
 0001:000109f0       ??_E?$treenode@V?$hashelement@Vword@chen@@PAVMonitor@@@chen@@@chen@@UAEPAXI@Z 004119f0 f i MonitorPool.obj
 0001:00010a10       ?_Xlen@?$vector@PAV?$hashnode@Vword@chen@@PAVMonitor@@@chen@@V?$allocator@PAV?$hashnode@Vword@chen@@PAVMonitor@@@chen@@@std@@@std@@IBEXXZ 00411a10 f i MonitorPool.obj
 0001:00010a90       ?CountNodes@?$sorttree@V?$hashelement@Vword@chen@@PAVMonitor@@@chen@@@chen@@AAEXPAV?$treenode@V?$hashelement@Vword@chen@@PAVMonitor@@@chen@@@2@AAK@Z 00411a90 f i MonitorPool.obj
 0001:00010ac0       ??M?$treenode@V?$hashelement@Vword@chen@@PAVMonitor@@@chen@@@chen@@QAE_NV01@@Z 00411ac0 f i MonitorPool.obj
 0001:00010b30       ??O?$treenode@V?$hashelement@Vword@chen@@PAVMonitor@@@chen@@@chen@@QAE_NV01@@Z 00411b30 f i MonitorPool.obj
 0001:00010ba0       ??0?$treenode@V?$hashelement@Vword@chen@@PAVMonitor@@@chen@@@chen@@QAE@ABV01@@Z 00411ba0 f i MonitorPool.obj
 0001:00010c20       ??0?$treenode@V?$hashelement@Vword@chen@@PAVMonitor@@@chen@@@chen@@QAE@ABV?$hashelement@Vword@chen@@PAVMonitor@@@1@@Z 00411c20 f i MonitorPool.obj
 0001:00010ca0       ?DeleteTree@?$sorttree@V?$hashelement@Vword@chen@@PAVMonitor@@@chen@@@chen@@QAEXPAV?$treenode@V?$hashelement@Vword@chen@@PAVMonitor@@@chen@@@2@@Z 00411ca0 f i MonitorPool.obj
 0001:00010cf0       ?RomoveNode@?$sorttree@V?$hashelement@Vword@chen@@PAVMonitor@@@chen@@@chen@@QAEXABV?$hashelement@Vword@chen@@PAVMonitor@@@2@@Z 00411cf0 f i MonitorPool.obj
 0001:00010e90       ?InsertNode@?$sorttree@V?$hashelement@Vword@chen@@PAVMonitor@@@chen@@@chen@@QAEXPAV?$treenode@V?$hashelement@Vword@chen@@PAVMonitor@@@chen@@@2@0@Z 00411e90 f i MonitorPool.obj
 0001:00010f20       ?findnode@?$sorttree@V?$hashelement@Vword@chen@@PAVEntity@@@chen@@@chen@@QAEPAV?$treenode@V?$hashelement@Vword@chen@@PAVEntity@@@chen@@@2@ABV?$hashelement@Vword@chen@@PAVEntity@@@2@PAV32@@Z 00411f20 f i EntityPool.obj
 0001:00010f20       ?findnode@?$sorttree@V?$hashelement@Vword@chen@@PAVMonitor@@@chen@@@chen@@QAEPAV?$treenode@V?$hashelement@Vword@chen@@PAVMonitor@@@chen@@@2@ABV?$hashelement@Vword@chen@@PAVMonitor@@@2@PAV32@@Z 00411f20 f i MonitorPool.obj
 0001:00010f20       ?findnode@?$sorttree@V?$hashelement@Vword@chen@@PAVSection@@@chen@@@chen@@QAEPAV?$treenode@V?$hashelement@Vword@chen@@PAVSection@@@chen@@@2@ABV?$hashelement@Vword@chen@@PAVSection@@@2@PAV32@@Z 00411f20 f i GeneralPool.obj
 0001:00010f20       ?findnode@?$sorttree@V?$hashelement@Vword@chen@@PAVEntityGroup@@@chen@@@chen@@QAEPAV?$treenode@V?$hashelement@Vword@chen@@PAVEntityGroup@@@chen@@@2@ABV?$hashelement@Vword@chen@@PAVEntityGroup@@@2@PAV32@@Z 00411f20 f i EntityGroupPool.obj
 0001:00010f20       ?findnode@?$sorttree@V?$hashelement@Vword@chen@@PAVQueue@@@chen@@@chen@@QAEPAV?$treenode@V?$hashelement@Vword@chen@@PAVQueue@@@chen@@@2@ABV?$hashelement@Vword@chen@@PAVQueue@@@2@PAV32@@Z 00411f20 f i DB.obj
 0001:00010f20       ?findnode@?$sorttree@V?$hashelement@Vword@chen@@PAVGeneralPool@@@chen@@@chen@@QAEPAV?$treenode@V?$hashelement@Vword@chen@@PAVGeneralPool@@@chen@@@2@ABV?$hashelement@Vword@chen@@PAVGeneralPool@@@2@PAV32@@Z 00411f20 f i WorkThread.obj
 0001:00010f20       ?findnode@?$sorttree@V?$hashelement@Vword@chen@@PAVEntityTemplet@@@chen@@@chen@@QAEPAV?$treenode@V?$hashelement@Vword@chen@@PAVEntityTemplet@@@chen@@@2@ABV?$hashelement@Vword@chen@@PAVEntityTemplet@@@2@PAV32@@Z 00411f20 f i EntityTempletPool.obj
 0001:00010f20       ?findnode@?$sorttree@V?$hashelement@Vword@chen@@PAVCommonData@@@chen@@@chen@@QAEPAV?$treenode@V?$hashelement@Vword@chen@@PAVCommonData@@@chen@@@2@ABV?$hashelement@Vword@chen@@PAVCommonData@@@2@PAV32@@Z 00411f20 f i GeneralPool.obj
 0001:00010f20       ?findnode@?$sorttree@V?$hashelement@Vword@chen@@PAVGroup@@@chen@@@chen@@QAEPAV?$treenode@V?$hashelement@Vword@chen@@PAVGroup@@@chen@@@2@ABV?$hashelement@Vword@chen@@PAVGroup@@@2@PAV32@@Z 00411f20 f i GroupPool.obj
 0001:00010f20       ?findnode@?$sorttree@V?$hashelement@Vword@chen@@PAVResource@@@chen@@@chen@@QAEPAV?$treenode@V?$hashelement@Vword@chen@@PAVResource@@@chen@@@2@ABV?$hashelement@Vword@chen@@PAVResource@@@2@PAV32@@Z 00411f20 f i ResourcePool.obj
 0001:00010f20       ?findnode@?$sorttree@V?$hashelement@Vword@chen@@PAVTable@@@chen@@@chen@@QAEPAV?$treenode@V?$hashelement@Vword@chen@@PAVTable@@@chen@@@2@ABV?$hashelement@Vword@chen@@PAVTable@@@2@PAV32@@Z 00411f20 f i DB.obj
 0001:00010f90       ?findnextnode@?$sorttree@V?$hashelement@Vword@chen@@PAVMonitor@@@chen@@@chen@@ABEPAV?$treenode@V?$hashelement@Vword@chen@@PAVMonitor@@@chen@@@2@AAV?$hashelement@Vword@chen@@PAVMonitor@@@2@AA_NPAV32@@Z 00411f90 f i MonitorPool.obj
 0001:00011000       ??$copy_backward@PAPAV?$hashnode@Vword@chen@@PAVEntity@@@chen@@PAPAV12@@std@@YAPAPAV?$hashnode@Vword@chen@@PAVEntity@@@chen@@PAPAV12@00@Z 00412000 f i EntityPool.obj
 0001:00011000       ??$copy_backward@PAPAV?$hashnode@Vword@chen@@PAVEntityGroup@@@chen@@PAPAV12@@std@@YAPAPAV?$hashnode@Vword@chen@@PAVEntityGroup@@@chen@@PAPAV12@00@Z 00412000 f i EntityGroupPool.obj
 0001:00011000       ??$copy_backward@PAPAV?$hashnode@Vword@chen@@PAVSection@@@chen@@PAPAV12@@std@@YAPAPAV?$hashnode@Vword@chen@@PAVSection@@@chen@@PAPAV12@00@Z 00412000 f i GeneralPool.obj
 0001:00011000       ??$copy_backward@PAPAVSVSE@@PAPAV1@@std@@YAPAPAVSVSE@@PAPAV1@00@Z 00412000 f i SvdbMain.obj
 0001:00011000       ??$copy_backward@PAPAV?$hashnode@Vword@chen@@PAVGroup@@@chen@@PAPAV12@@std@@YAPAPAV?$hashnode@Vword@chen@@PAVGroup@@@chen@@PAPAV12@00@Z 00412000 f i GroupPool.obj
 0001:00011000       ??$copy_backward@PAPAV?$hashnode@Vword@chen@@PAVMonitor@@@chen@@PAPAV12@@std@@YAPAPAV?$hashnode@Vword@chen@@PAVMonitor@@@chen@@PAPAV12@00@Z 00412000 f i MonitorPool.obj
 0001:00011000       ??$copy_backward@PAPAVDataType@@PAPAV1@@std@@YAPAPAVDataType@@PAPAV1@00@Z 00412000 f i DB.obj
 0001:00011000       ??$copy_backward@PAPAUSubPool@PagePool@@PAPAU12@@std@@YAPAPAUSubPool@PagePool@@PAPAU12@00@Z 00412000 f i PagePool.obj
 0001:00011000       ??$copy_backward@PAPAV?$hashnode@Vword@chen@@PAVCommonData@@@chen@@PAPAV12@@std@@YAPAPAV?$hashnode@Vword@chen@@PAVCommonData@@@chen@@PAPAV12@00@Z 00412000 f i GeneralPool.obj
 0001:00011000       ??$copy_backward@PAPAV?$hashnode@Vword@chen@@PAVGeneralPool@@@chen@@PAPAV12@@std@@YAPAPAV?$hashnode@Vword@chen@@PAVGeneralPool@@@chen@@PAPAV12@00@Z 00412000 f i SvdbMain.obj
 0001:00011000       ??$copy_backward@PAPAVPage@@PAPAV1@@std@@YAPAPAVPage@@PAPAV1@00@Z 00412000 f i PagePool.obj
 0001:00011000       ??$copy_backward@PAPAV?$hashnode@Vword@chen@@PAVQueue@@@chen@@PAPAV12@@std@@YAPAPAV?$hashnode@Vword@chen@@PAVQueue@@@chen@@PAPAV12@00@Z 00412000 f i DB.obj
 0001:00011000       ??$copy_backward@PAPAV?$hashnode@Vword@chen@@PAVEntityTemplet@@@chen@@PAPAV12@@std@@YAPAPAV?$hashnode@Vword@chen@@PAVEntityTemplet@@@chen@@PAPAV12@00@Z 00412000 f i EntityTempletPool.obj
 0001:00011000       ??$copy_backward@PAPAV?$hashnode@Vword@chen@@PAVTable@@@chen@@PAPAV12@@std@@YAPAPAV?$hashnode@Vword@chen@@PAVTable@@@chen@@PAPAV12@00@Z 00412000 f i DB.obj
 0001:00011000       ??$copy_backward@PAPAVMonitorTemplet@@PAPAV1@@std@@YAPAPAVMonitorTemplet@@PAPAV1@00@Z 00412000 f i MonitorTempletPool.obj
 0001:00011000       ??$copy_backward@PAPAV?$hashnode@Vword@chen@@PAVResource@@@chen@@PAPAV12@@std@@YAPAPAV?$hashnode@Vword@chen@@PAVResource@@@chen@@PAPAV12@00@Z 00412000 f i ResourcePool.obj
 0001:00011000       ??$copy_backward@PAPAV?$hashnode@Vword@chen@@V12@@chen@@PAPAV12@@std@@YAPAPAV?$hashnode@Vword@chen@@V12@@chen@@PAPAV12@00@Z 00412000 f i MonitorTempletPool.obj
 0001:00011030       ??$CreateNode@V?$hashelement@Vword@chen@@PAVMonitor@@@chen@@@?$sorttree@V?$hashelement@Vword@chen@@PAVMonitor@@@chen@@@chen@@SAPAV?$treenode@V?$hashelement@Vword@chen@@PAVMonitor@@@chen@@@1@ABV?$hashelement@Vword@chen@@PAVMonitor@@@1@@Z 00412030 f i MonitorPool.obj
 0001:00011090       ??_G?$sorttree@V?$hashelement@Vword@chen@@PAVMonitor@@@chen@@@chen@@UAEPAXI@Z 00412090 f i MonitorPool.obj
 0001:00011090       ??_E?$sorttree@V?$hashelement@Vword@chen@@PAVMonitor@@@chen@@@chen@@UAEPAXI@Z 00412090 f i MonitorPool.obj
 0001:000110f0       ?find@?$hashnode@Vword@chen@@PAVMonitor@@@chen@@QAE_NABVword@2@PAPAV?$hashelement@Vword@chen@@PAVMonitor@@@2@@Z 004120f0 f i MonitorPool.obj
 0001:000111c0       ?InsertNodeEx@?$sorttree@V?$hashelement@Vword@chen@@PAVMonitor@@@chen@@@chen@@QAEAAV?$hashelement@Vword@chen@@PAVMonitor@@@2@ABV32@@Z 004121c0 f i MonitorPool.obj
 0001:00011250       ??1?$hashnode@Vword@chen@@PAVMonitor@@@chen@@QAE@XZ 00412250 f i MonitorPool.obj
 0001:000112e0       ?insert@?$hashnode@Vword@chen@@PAVMonitor@@@chen@@QAEAAV?$hashelement@Vword@chen@@PAVMonitor@@@2@ABVword@2@ABQAVMonitor@@@Z 004122e0 f i MonitorPool.obj
 0001:000113c0       ?find@?$hashnode@Vword@chen@@PAVMonitor@@@chen@@QAE_NABVword@2@PAPAPAVMonitor@@@Z 004123c0 f i MonitorPool.obj
 0001:00011420       ?size@?$hashtable@Vword@chen@@PAVMonitor@@@chen@@QAEIXZ 00412420 f i MonitorPool.obj
 0001:000114c0       ?find@?$hashtable@Vword@chen@@PAVMonitor@@@chen@@QAEPAPAVMonitor@@ABVword@2@@Z 004124c0 f i MonitorPool.obj
 0001:00011530       ?clearnodes@?$hashtable@Vword@chen@@PAVMonitor@@@chen@@IAEXXZ 00412530 f i MonitorPool.obj
 0001:000115a0       ?findnext@?$hashnode@Vword@chen@@PAVMonitor@@@chen@@QAE_NAAV?$hashelement@Vword@chen@@PAVMonitor@@@2@PAPAV32@@Z 004125a0 f i MonitorPool.obj
 0001:00011650       ?erase@?$hashnode@Vword@chen@@PAVMonitor@@@chen@@QAE_NABVword@2@@Z 00412650 f i MonitorPool.obj
 0001:00011760       ?_Insert_n@?$vector@PAV?$hashnode@Vword@chen@@PAVMonitor@@@chen@@V?$allocator@PAV?$hashnode@Vword@chen@@PAVMonitor@@@chen@@@std@@@std@@IAEXViterator@12@IABQAV?$hashnode@Vword@chen@@PAVMonitor@@@chen@@@Z 00412760 f i MonitorPool.obj
 0001:00011950       ?GetMonitorData@MonitorPool@@QAE_NVword@chen@@PADAAI@Z 00412950 f   MonitorPool.obj
 0001:00011a40       ??1?$hashtable@Vword@chen@@PAVMonitor@@@chen@@QAE@XZ 00412a40 f i MonitorPool.obj
 0001:00011aa0       ?erase@?$hashtable@Vword@chen@@PAVMonitor@@@chen@@QAE_NABVword@2@@Z 00412aa0 f i MonitorPool.obj
 0001:00011b40       ?findnext@?$hashtable@Vword@chen@@PAVMonitor@@@chen@@QAE_NAAViterator@12@@Z 00412b40 f i MonitorPool.obj
 0001:00011be0       ?resize@?$vector@PAV?$hashnode@Vword@chen@@PAVMonitor@@@chen@@V?$allocator@PAV?$hashnode@Vword@chen@@PAVMonitor@@@chen@@@std@@@std@@QAEXIPAV?$hashnode@Vword@chen@@PAVMonitor@@@chen@@@Z 00412be0 f i MonitorPool.obj
 0001:00011c70       ?GetRawDataSize@MonitorPool@@UAEIXZ 00412c70 f   MonitorPool.obj
 0001:00011cd0       ?GetRawData@MonitorPool@@UAEPADPADI@Z 00412cd0 f   MonitorPool.obj
 0001:00011dc0       ?DeleteMonitor@MonitorPool@@QAE_NVword@chen@@@Z 00412dc0 f   MonitorPool.obj
 0001:00011eb0       ??0?$hashtable@Vword@chen@@PAVMonitor@@@chen@@QAE@XZ 00412eb0 f i MonitorPool.obj
 0001:00011f00       ?insert@?$hashtable@Vword@chen@@PAVMonitor@@@chen@@QAEAAPAVMonitor@@ABVword@2@ABQAV3@@Z 00412f00 f i MonitorPool.obj
 0001:00011ff0       ??0MonitorPool@@QAE@Vword@chen@@@Z 00412ff0 f   MonitorPool.obj
 0001:000120c0       ?CreateObjectByRawData@MonitorPool@@UAEHPBDI@Z 004130c0 f   MonitorPool.obj
 0001:00012270       ?push@MonitorPool@@QAE_NPAVMonitor@@@Z 00413270 f   MonitorPool.obj
 0001:00012380       ?PushData@MonitorPool@@QAE_NPBDI@Z 00413380 f   MonitorPool.obj
 0001:00012450       ?GetRawDataSize@MonitorTemplet@@UAEIXZ 00413450 f   MonitorTemplet.obj
 0001:000124f0       ?GetRawData@MonitorTemplet@@UAEPADPADI@Z 004134f0 f   MonitorTemplet.obj
 0001:000126f0       ??0MonitorTemplet@@QAE@XZ  004136f0 f   MonitorTemplet.obj
 0001:000127c0       ??1MonitorTemplet@@QAE@XZ  004137c0 f   MonitorTemplet.obj
 0001:00012970       ?CreateObjectByRawData@MonitorTemplet@@UAEHPBDI@Z 00413970 f   MonitorTemplet.obj
 0001:00012cb0       ?Load@MonitorTempletPool@@UAE_NXZ 00413cb0 f   MonitorTempletPool.obj
 0001:00012db0       ?Submit@MonitorTempletPool@@UAE_NXZ 00413db0 f   MonitorTempletPool.obj
 0001:00012ee0       ?_Xlen@?$vector@PAV?$hashnode@Vword@chen@@V12@@chen@@V?$allocator@PAV?$hashnode@Vword@chen@@V12@@chen@@@std@@@std@@IBEXXZ 00413ee0 f i MonitorTempletPool.obj
 0001:00012ee0       ?_Xlen@?$vector@PAVMonitorTemplet@@V?$allocator@PAVMonitorTemplet@@@std@@@std@@IBEXXZ 00413ee0 f i MonitorTempletPool.obj
 0001:00012f60       ??0?$hashelement@Vword@chen@@V12@@chen@@QAE@ABVword@1@0@Z 00413f60 f i MonitorTempletPool.obj
 0001:00012ff0       ??0?$treenode@V?$hashelement@Vword@chen@@V12@@chen@@@chen@@QAE@ABV?$hashelement@Vword@chen@@V12@@1@@Z 00413ff0 f i MonitorTempletPool.obj
 0001:00013090       ?DeleteTree@?$sorttree@V?$hashelement@Vword@chen@@V12@@chen@@@chen@@QAEXPAV?$treenode@V?$hashelement@Vword@chen@@V12@@chen@@@2@@Z 00414090 f i MonitorTempletPool.obj
 0001:000130e0       ??1?$treenode@V?$hashelement@Vword@chen@@V12@@chen@@@chen@@UAE@XZ 004140e0 f i MonitorTempletPool.obj
 0001:00013120       ??_G?$treenode@V?$hashelement@Vword@chen@@V12@@chen@@@chen@@UAEPAXI@Z 00414120 f i MonitorTempletPool.obj
 0001:00013120       ??_E?$treenode@V?$hashelement@Vword@chen@@V12@@chen@@@chen@@UAEPAXI@Z 00414120 f i MonitorTempletPool.obj
 0001:00013140       ??M?$treenode@V?$hashelement@Vword@chen@@V12@@chen@@@chen@@QAE_NV01@@Z 00414140 f i MonitorTempletPool.obj
 0001:000131c0       ??O?$treenode@V?$hashelement@Vword@chen@@V12@@chen@@@chen@@QAE_NV01@@Z 004141c0 f i MonitorTempletPool.obj
 0001:00013240       ??0?$treenode@V?$hashelement@Vword@chen@@V12@@chen@@@chen@@QAE@ABV01@@Z 00414240 f i MonitorTempletPool.obj
 0001:000132e0       ??$CreateNode@V?$hashelement@Vword@chen@@V12@@chen@@@?$sorttree@V?$hashelement@Vword@chen@@V12@@chen@@@chen@@SAPAV?$treenode@V?$hashelement@Vword@chen@@V12@@chen@@@1@ABV?$hashelement@Vword@chen@@V12@@1@@Z 004142e0 f i MonitorTempletPool.obj
 0001:00013340       ??_G?$sorttree@V?$hashelement@Vword@chen@@V12@@chen@@@chen@@UAEPAXI@Z 00414340 f i MonitorTempletPool.obj
 0001:00013340       ??_E?$sorttree@V?$hashelement@Vword@chen@@V12@@chen@@@chen@@UAEPAXI@Z 00414340 f i MonitorTempletPool.obj
 0001:000133a0       ?InsertNode@?$sorttree@V?$hashelement@Vword@chen@@V12@@chen@@@chen@@QAEXPAV?$treenode@V?$hashelement@Vword@chen@@V12@@chen@@@2@0@Z 004143a0 f i MonitorTempletPool.obj
 0001:00013430       ??$_Ucopy@PAPAV?$hashnode@Vword@chen@@PAVMonitor@@@chen@@@?$vector@PAV?$hashnode@Vword@chen@@PAVMonitor@@@chen@@V?$allocator@PAV?$hashnode@Vword@chen@@PAVMonitor@@@chen@@@std@@@std@@IAEPAPAV?$hashnode@Vword@chen@@PAVMonitor@@@chen@@PAPAV23@00@Z 00414430 f i MonitorPool.obj
 0001:00013430       ??$_Ucopy@PAPAV?$hashnode@Vword@chen@@PAVGroup@@@chen@@@?$vector@PAV?$hashnode@Vword@chen@@PAVGroup@@@chen@@V?$allocator@PAV?$hashnode@Vword@chen@@PAVGroup@@@chen@@@std@@@std@@IAEPAPAV?$hashnode@Vword@chen@@PAVGroup@@@chen@@PAPAV23@00@Z 00414430 f i GroupPool.obj
 0001:00013430       ??$_Ucopy@PAPAV?$hashnode@Vword@chen@@PAVQueue@@@chen@@@?$vector@PAV?$hashnode@Vword@chen@@PAVQueue@@@chen@@V?$allocator@PAV?$hashnode@Vword@chen@@PAVQueue@@@chen@@@std@@@std@@IAEPAPAV?$hashnode@Vword@chen@@PAVQueue@@@chen@@PAPAV23@00@Z 00414430 f i DB.obj
 0001:00013430       ??$_Ucopy@PAPAV?$hashnode@Vword@chen@@PAVEntityTemplet@@@chen@@@?$vector@PAV?$hashnode@Vword@chen@@PAVEntityTemplet@@@chen@@V?$allocator@PAV?$hashnode@Vword@chen@@PAVEntityTemplet@@@chen@@@std@@@std@@IAEPAPAV?$hashnode@Vword@chen@@PAVEntityTemplet@@@chen@@PAPAV23@00@Z 00414430 f i EntityTempletPool.obj
 0001:00013430       ??$_Ucopy@PAPAV?$hashnode@Vword@chen@@PAVSection@@@chen@@@?$vector@PAV?$hashnode@Vword@chen@@PAVSection@@@chen@@V?$allocator@PAV?$hashnode@Vword@chen@@PAVSection@@@chen@@@std@@@std@@IAEPAPAV?$hashnode@Vword@chen@@PAVSection@@@chen@@PAPAV23@00@Z 00414430 f i GeneralPool.obj
 0001:00013430       ??$_Ucopy@PAPAV?$hashnode@Vword@chen@@V12@@chen@@@?$vector@PAV?$hashnode@Vword@chen@@V12@@chen@@V?$allocator@PAV?$hashnode@Vword@chen@@V12@@chen@@@std@@@std@@IAEPAPAV?$hashnode@Vword@chen@@V12@@chen@@PAPAV23@00@Z 00414430 f i MonitorTempletPool.obj
 0001:00013430       ??$_Ucopy@PAPAUSubPool@PagePool@@@?$vector@PAUSubPool@PagePool@@V?$allocator@PAUSubPool@PagePool@@@std@@@std@@IAEPAPAUSubPool@PagePool@@PAPAU23@00@Z 00414430 f i PagePool.obj
 0001:00013430       ??$_Ucopy@PAPAVDataType@@@?$vector@PAVDataType@@V?$allocator@PAVDataType@@@std@@@std@@IAEPAPAVDataType@@PAPAV2@00@Z 00414430 f i DB.obj
 0001:00013430       ??$_Ucopy@PAPAV?$hashnode@Vword@chen@@PAVEntityGroup@@@chen@@@?$vector@PAV?$hashnode@Vword@chen@@PAVEntityGroup@@@chen@@V?$allocator@PAV?$hashnode@Vword@chen@@PAVEntityGroup@@@chen@@@std@@@std@@IAEPAPAV?$hashnode@Vword@chen@@PAVEntityGroup@@@chen@@PAPAV23@00@Z 00414430 f i EntityGroupPool.obj
 0001:00013430       ??$_Ucopy@PAPAV?$hashnode@Vword@chen@@PAVGeneralPool@@@chen@@@?$vector@PAV?$hashnode@Vword@chen@@PAVGeneralPool@@@chen@@V?$allocator@PAV?$hashnode@Vword@chen@@PAVGeneralPool@@@chen@@@std@@@std@@IAEPAPAV?$hashnode@Vword@chen@@PAVGeneralPool@@@chen@@PAPAV23@00@Z 00414430 f i SvdbMain.obj
 0001:00013430       ??$_Ucopy@PAPAV?$hashnode@Vword@chen@@PAVEntity@@@chen@@@?$vector@PAV?$hashnode@Vword@chen@@PAVEntity@@@chen@@V?$allocator@PAV?$hashnode@Vword@chen@@PAVEntity@@@chen@@@std@@@std@@IAEPAPAV?$hashnode@Vword@chen@@PAVEntity@@@chen@@PAPAV23@00@Z 00414430 f i EntityPool.obj
 0001:00013430       ??$_Ucopy@PAPAVSVSE@@@?$vector@PAVSVSE@@V?$allocator@PAVSVSE@@@std@@@std@@IAEPAPAVSVSE@@PAPAV2@00@Z 00414430 f i SvdbMain.obj
 0001:00013430       ??$_Ucopy@PAPAVMonitorTemplet@@@?$vector@PAVMonitorTemplet@@V?$allocator@PAVMonitorTemplet@@@std@@@std@@IAEPAPAVMonitorTemplet@@PAPAV2@00@Z 00414430 f i MonitorTempletPool.obj
 0001:00013430       ??$_Ucopy@PAPAV?$hashnode@Vword@chen@@PAVCommonData@@@chen@@@?$vector@PAV?$hashnode@Vword@chen@@PAVCommonData@@@chen@@V?$allocator@PAV?$hashnode@Vword@chen@@PAVCommonData@@@chen@@@std@@@std@@IAEPAPAV?$hashnode@Vword@chen@@PAVCommonData@@@chen@@PAPAV23@00@Z 00414430 f i GeneralPool.obj
 0001:00013430       ??$_Ucopy@PAPAV?$hashnode@Vword@chen@@PAVTable@@@chen@@@?$vector@PAV?$hashnode@Vword@chen@@PAVTable@@@chen@@V?$allocator@PAV?$hashnode@Vword@chen@@PAVTable@@@chen@@@std@@@std@@IAEPAPAV?$hashnode@Vword@chen@@PAVTable@@@chen@@PAPAV23@00@Z 00414430 f i DB.obj
 0001:00013430       ??$_Ucopy@PAPAV?$hashnode@Vword@chen@@PAVResource@@@chen@@@?$vector@PAV?$hashnode@Vword@chen@@PAVResource@@@chen@@V?$allocator@PAV?$hashnode@Vword@chen@@PAVResource@@@chen@@@std@@@std@@IAEPAPAV?$hashnode@Vword@chen@@PAVResource@@@chen@@PAPAV23@00@Z 00414430 f i ResourcePool.obj
 0001:00013430       ??$_Ucopy@PAPAVPage@@@?$vector@PAVPage@@V?$allocator@PAVPage@@@std@@@std@@IAEPAPAVPage@@PAPAV2@00@Z 00414430 f i PagePool.obj
 0001:00013460       ?InsertNodeEx@?$sorttree@V?$hashelement@Vword@chen@@V12@@chen@@@chen@@QAEAAV?$hashelement@Vword@chen@@V12@@2@ABV32@@Z 00414460 f i MonitorTempletPool.obj
 0001:000134f0       ?GetRawDataSize@MonitorTempletPool@@UAEIXZ 004144f0 f   MonitorTempletPool.obj
 0001:00013530       ?GetRawData@MonitorTempletPool@@UAEPADPADI@Z 00414530 f   MonitorTempletPool.obj
 0001:00013640       ?GetMonitorTempletData@MonitorTempletPool@@QAE_NHPADAAI@Z 00414640 f   MonitorTempletPool.obj
 0001:000136c0       ?_Insert_n@?$vector@PAV?$hashnode@Vword@chen@@V12@@chen@@V?$allocator@PAV?$hashnode@Vword@chen@@V12@@chen@@@std@@@std@@IAEXViterator@12@IABQAV?$hashnode@Vword@chen@@V12@@chen@@@Z 004146c0 f i MonitorTempletPool.obj
 0001:000136c0       ?_Insert_n@?$vector@PAVMonitorTemplet@@V?$allocator@PAVMonitorTemplet@@@std@@@std@@IAEXViterator@12@IABQAVMonitorTemplet@@@Z 004146c0 f i MonitorTempletPool.obj
 0001:000138b0       ?insert@?$hashnode@Vword@chen@@V12@@chen@@QAEAAV?$hashelement@Vword@chen@@V12@@2@ABVword@2@0@Z 004148b0 f i MonitorTempletPool.obj
 0001:000139b0       ?resize@?$vector@PAVMonitorTemplet@@V?$allocator@PAVMonitorTemplet@@@std@@@std@@QAEXIPAVMonitorTemplet@@@Z 004149b0 f i MonitorTempletPool.obj
 0001:000139b0       ?resize@?$vector@PAV?$hashnode@Vword@chen@@V12@@chen@@V?$allocator@PAV?$hashnode@Vword@chen@@V12@@chen@@@std@@@std@@QAEXIPAV?$hashnode@Vword@chen@@V12@@chen@@@Z 004149b0 f i MonitorTempletPool.obj
 0001:00013a40       ?push@MonitorTempletPool@@QAE_NPAVMonitorTemplet@@@Z 00414a40 f i MonitorTempletPool.obj
 0001:00013b50       ?PushData@MonitorTempletPool@@QAE_NPBDI@Z 00414b50 f   MonitorTempletPool.obj
 0001:00013c20       ?insert@?$hashtable@Vword@chen@@V12@@chen@@QAEAAVword@2@ABV32@0@Z 00414c20 f i MonitorTempletPool.obj
 0001:00013d10       ?CreateObjectByRawData@MonitorTempletPool@@UAEHPBDI@Z 00414d10 f   MonitorTempletPool.obj
 0001:00013e40       ??A?$hashtable@Vword@chen@@V12@@chen@@QAEAAVword@1@ABV21@@Z 00414e40 f i MonitorTempletPool.obj
 0001:00013ed0       ?GetInfo@MonitorTempletPool@@QAE_NVword@chen@@AAVStringMap@@@Z 00414ed0 f   MonitorTempletPool.obj
 0001:00014070       ??0MySocket@@QAE@XZ        00415070 f   MySocket.obj
 0001:00014090       ??1MySocket@@UAE@XZ        00415090 f   MySocket.obj
 0001:000140a0       ??_GMySocket@@UAEPAXI@Z    004150a0 f i MySocket.obj
 0001:000140a0       ??_EMySocket@@UAEPAXI@Z    004150a0 f i MySocket.obj
 0001:000140c0       ??_Gout_of_range@std@@UAEPAXI@Z 004150c0 f i Option.obj
 0001:000140c0       ??_Eout_of_range@std@@UAEPAXI@Z 004150c0 f i Option.obj
 0001:000140e0       ??1out_of_range@std@@UAE@XZ 004150e0 f i Option.obj
 0001:000140f0       ?_Max@?$_Tree@V?$_Tmap_traits@V?$basic_string@DU?$char_traits@D@std@@V?$allocator@D@2@@std@@V?$map@V?$basic_string@DU?$char_traits@D@std@@V?$allocator@D@2@@std@@V12@UStlIniCompareStringNoCase@@V?$allocator@U?$pair@$$CBV?$basic_string@DU?$char_traits@D@std@@V?$allocator@D@2@@std@@V12@@std@@@2@@2@UStlIniCompareStringNoCase@@V?$allocator@U?$pair@$$CBV?$basic_string@DU?$char_traits@D@std@@V?$allocator@D@2@@std@@V?$map@V?$basic_string@DU?$char_traits@D@std@@V?$allocator@D@2@@std@@V12@UStlIniCompareStringNoCase@@V?$allocator@U?$pair@$$CBV?$basic_string@DU?$char_traits@D@std@@V?$allocator@D@2@@std@@V12@@std@@@2@@2@@std@@@2@$0A@@std@@@std@@KAPAU_Node@?$_Tree_nod@V?$_Tmap_traits@V?$basic_string@DU?$char_traits@D@std@@V?$allocator@D@2@@std@@V?$map@V?$basic_string@DU?$char_traits@D@std@@V?$allocator@D@2@@std@@V12@UStlIniCompareStringNoCase@@V?$allocator@U?$pair@$$CBV?$basic_string@DU?$char_traits@D@std@@V?$allocator@D@2@@std@@V12@@std@@@2@@2@UStlIniCompareStringNoCase@@V?$allocator@U?$pair@$$CBV?$basic_string@DU?$char_traits@D@std@@V?$allocator@D@2@@std@@V?$map@V?$basic_string@DU?$char_traits@D@std@@V?$allocator@D@2@@std@@V12@UStlIniCompareStringNoCase@@V?$allocator@U?$pair@$$CBV?$basic_string@DU?$char_traits@D@std@@V?$allocator@D@2@@std@@V12@@std@@@2@@2@@std@@@2@$0A@@std@@@2@PAU342@@Z 004150f0 f i Option.obj
 0001:00014110       ?_Min@?$_Tree@V?$_Tmap_traits@V?$basic_string@DU?$char_traits@D@std@@V?$allocator@D@2@@std@@V?$map@V?$basic_string@DU?$char_traits@D@std@@V?$allocator@D@2@@std@@V12@UStlIniCompareStringNoCase@@V?$allocator@U?$pair@$$CBV?$basic_string@DU?$char_traits@D@std@@V?$allocator@D@2@@std@@V12@@std@@@2@@2@UStlIniCompareStringNoCase@@V?$allocator@U?$pair@$$CBV?$basic_string@DU?$char_traits@D@std@@V?$allocator@D@2@@std@@V?$map@V?$basic_string@DU?$char_traits@D@std@@V?$allocator@D@2@@std@@V12@UStlIniCompareStringNoCase@@V?$allocator@U?$pair@$$CBV?$basic_string@DU?$char_traits@D@std@@V?$allocator@D@2@@std@@V12@@std@@@2@@2@@std@@@2@$0A@@std@@@std@@KAPAU_Node@?$_Tree_nod@V?$_Tmap_traits@V?$basic_string@DU?$char_traits@D@std@@V?$allocator@D@2@@std@@V?$map@V?$basic_string@DU?$char_traits@D@std@@V?$allocator@D@2@@std@@V12@UStlIniCompareStringNoCase@@V?$allocator@U?$pair@$$CBV?$basic_string@DU?$char_traits@D@std@@V?$allocator@D@2@@std@@V12@@std@@@2@@2@UStlIniCompareStringNoCase@@V?$allocator@U?$pair@$$CBV?$basic_string@DU?$char_traits@D@std@@V?$allocator@D@2@@std@@V?$map@V?$basic_string@DU?$char_traits@D@std@@V?$allocator@D@2@@std@@V12@UStlIniCompareStringNoCase@@V?$allocator@U?$pair@$$CBV?$basic_string@DU?$char_traits@D@std@@V?$allocator@D@2@@std@@V12@@std@@@2@@2@@std@@@2@$0A@@std@@@2@PAU342@@Z 00415110 f i Option.obj
 0001:00014130       ?_Rrotate@?$_Tree@V?$_Tmap_traits@V?$basic_string@DU?$char_traits@D@std@@V?$allocator@D@2@@std@@V?$map@V?$basic_string@DU?$char_traits@D@std@@V?$allocator@D@2@@std@@V12@UStlIniCompareStringNoCase@@V?$allocator@U?$pair@$$CBV?$basic_string@DU?$char_traits@D@std@@V?$allocator@D@2@@std@@V12@@std@@@2@@2@UStlIniCompareStringNoCase@@V?$allocator@U?$pair@$$CBV?$basic_string@DU?$char_traits@D@std@@V?$allocator@D@2@@std@@V?$map@V?$basic_string@DU?$char_traits@D@std@@V?$allocator@D@2@@std@@V12@UStlIniCompareStringNoCase@@V?$allocator@U?$pair@$$CBV?$basic_string@DU?$char_traits@D@std@@V?$allocator@D@2@@std@@V12@@std@@@2@@2@@std@@@2@$0A@@std@@@std@@IAEXPAU_Node@?$_Tree_nod@V?$_Tmap_traits@V?$basic_string@DU?$char_traits@D@std@@V?$allocator@D@2@@std@@V?$map@V?$basic_string@DU?$char_traits@D@std@@V?$allocator@D@2@@std@@V12@UStlIniCompareStringNoCase@@V?$allocator@U?$pair@$$CBV?$basic_string@DU?$char_traits@D@std@@V?$allocator@D@2@@std@@V12@@std@@@2@@2@UStlIniCompareStringNoCase@@V?$allocator@U?$pair@$$CBV?$basic_string@DU?$char_traits@D@std@@V?$allocator@D@2@@std@@V?$map@V?$basic_string@DU?$char_traits@D@std@@V?$allocator@D@2@@std@@V12@UStlIniCompareStringNoCase@@V?$allocator@U?$pair@$$CBV?$basic_string@DU?$char_traits@D@std@@V?$allocator@D@2@@std@@V12@@std@@@2@@2@@std@@@2@$0A@@std@@@2@@Z 00415130 f i Option.obj
 0001:00014190       ?_Inc@const_iterator@?$_Tree@V?$_Tmap_traits@V?$basic_string@DU?$char_traits@D@std@@V?$allocator@D@2@@std@@V?$map@V?$basic_string@DU?$char_traits@D@std@@V?$allocator@D@2@@std@@V12@UStlIniCompareStringNoCase@@V?$allocator@U?$pair@$$CBV?$basic_string@DU?$char_traits@D@std@@V?$allocator@D@2@@std@@V12@@std@@@2@@2@UStlIniCompareStringNoCase@@V?$allocator@U?$pair@$$CBV?$basic_string@DU?$char_traits@D@std@@V?$allocator@D@2@@std@@V?$map@V?$basic_string@DU?$char_traits@D@std@@V?$allocator@D@2@@std@@V12@UStlIniCompareStringNoCase@@V?$allocator@U?$pair@$$CBV?$basic_string@DU?$char_traits@D@std@@V?$allocator@D@2@@std@@V12@@std@@@2@@2@@std@@@2@$0A@@std@@@std@@QAEXXZ 00415190 f i Option.obj
 0001:000141f0       ?_Max@?$_Tree@V?$_Tmap_traits@V?$basic_string@DU?$char_traits@D@std@@V?$allocator@D@2@@std@@V12@UStlIniCompareStringNoCase@@V?$allocator@U?$pair@$$CBV?$basic_string@DU?$char_traits@D@std@@V?$allocator@D@2@@std@@V12@@std@@@2@$0A@@std@@@std@@KAPAU_Node@?$_Tree_nod@V?$_Tmap_traits@V?$basic_string@DU?$char_traits@D@std@@V?$allocator@D@2@@std@@V12@UStlIniCompareStringNoCase@@V?$allocator@U?$pair@$$CBV?$basic_string@DU?$char_traits@D@std@@V?$allocator@D@2@@std@@V12@@std@@@2@$0A@@std@@@2@PAU342@@Z 004151f0 f i Option.obj
 0001:00014210       ?_Min@?$_Tree@V?$_Tmap_traits@V?$basic_string@DU?$char_traits@D@std@@V?$allocator@D@2@@std@@V12@UStlIniCompareStringNoCase@@V?$allocator@U?$pair@$$CBV?$basic_string@DU?$char_traits@D@std@@V?$allocator@D@2@@std@@V12@@std@@@2@$0A@@std@@@std@@KAPAU_Node@?$_Tree_nod@V?$_Tmap_traits@V?$basic_string@DU?$char_traits@D@std@@V?$allocator@D@2@@std@@V12@UStlIniCompareStringNoCase@@V?$allocator@U?$pair@$$CBV?$basic_string@DU?$char_traits@D@std@@V?$allocator@D@2@@std@@V12@@std@@@2@$0A@@std@@@2@PAU342@@Z 00415210 f i Option.obj
 0001:00014230       ?_Rrotate@?$_Tree@V?$_Tmap_traits@V?$basic_string@DU?$char_traits@D@std@@V?$allocator@D@2@@std@@V12@UStlIniCompareStringNoCase@@V?$allocator@U?$pair@$$CBV?$basic_string@DU?$char_traits@D@std@@V?$allocator@D@2@@std@@V12@@std@@@2@$0A@@std@@@std@@IAEXPAU_Node@?$_Tree_nod@V?$_Tmap_traits@V?$basic_string@DU?$char_traits@D@std@@V?$allocator@D@2@@std@@V12@UStlIniCompareStringNoCase@@V?$allocator@U?$pair@$$CBV?$basic_string@DU?$char_traits@D@std@@V?$allocator@D@2@@std@@V12@@std@@@2@$0A@@std@@@2@@Z 00415230 f i Option.obj
 0001:00014290       ?_Inc@const_iterator@?$_Tree@V?$_Tmap_traits@V?$basic_string@DU?$char_traits@D@std@@V?$allocator@D@2@@std@@V12@UStlIniCompareStringNoCase@@V?$allocator@U?$pair@$$CBV?$basic_string@DU?$char_traits@D@std@@V?$allocator@D@2@@std@@V12@@std@@@2@$0A@@std@@@std@@QAEXXZ 00415290 f i Option.obj
 0001:000142f0       ??1?$pair@$$CBV?$basic_string@DU?$char_traits@D@std@@V?$allocator@D@2@@std@@V12@@std@@QAE@XZ 004152f0 f i Option.obj
 0001:00014340       ?_Lrotate@?$_Tree@V?$_Tmap_traits@V?$basic_string@DU?$char_traits@D@std@@V?$allocator@D@2@@std@@V?$map@V?$basic_string@DU?$char_traits@D@std@@V?$allocator@D@2@@std@@V12@UStlIniCompareStringNoCase@@V?$allocator@U?$pair@$$CBV?$basic_string@DU?$char_traits@D@std@@V?$allocator@D@2@@std@@V12@@std@@@2@@2@UStlIniCompareStringNoCase@@V?$allocator@U?$pair@$$CBV?$basic_string@DU?$char_traits@D@std@@V?$allocator@D@2@@std@@V?$map@V?$basic_string@DU?$char_traits@D@std@@V?$allocator@D@2@@std@@V12@UStlIniCompareStringNoCase@@V?$allocator@U?$pair@$$CBV?$basic_string@DU?$char_traits@D@std@@V?$allocator@D@2@@std@@V12@@std@@@2@@2@@std@@@2@$0A@@std@@@std@@IAEXPAU_Node@?$_Tree_nod@V?$_Tmap_traits@V?$basic_string@DU?$char_traits@D@std@@V?$allocator@D@2@@std@@V?$map@V?$basic_string@DU?$char_traits@D@std@@V?$allocator@D@2@@std@@V12@UStlIniCompareStringNoCase@@V?$allocator@U?$pair@$$CBV?$basic_string@DU?$char_traits@D@std@@V?$allocator@D@2@@std@@V12@@std@@@2@@2@UStlIniCompareStringNoCase@@V?$allocator@U?$pair@$$CBV?$basic_string@DU?$char_traits@D@std@@V?$allocator@D@2@@std@@V?$map@V?$basic_string@DU?$char_traits@D@std@@V?$allocator@D@2@@std@@V12@UStlIniCompareStringNoCase@@V?$allocator@U?$pair@$$CBV?$basic_string@DU?$char_traits@D@std@@V?$allocator@D@2@@std@@V12@@std@@@2@@2@@std@@@2@$0A@@std@@@2@@Z 00415340 f i Option.obj
 0001:000143a0       ?_Lrotate@?$_Tree@V?$_Tmap_traits@V?$basic_string@DU?$char_traits@D@std@@V?$allocator@D@2@@std@@V12@UStlIniCompareStringNoCase@@V?$allocator@U?$pair@$$CBV?$basic_string@DU?$char_traits@D@std@@V?$allocator@D@2@@std@@V12@@std@@@2@$0A@@std@@@std@@IAEXPAU_Node@?$_Tree_nod@V?$_Tmap_traits@V?$basic_string@DU?$char_traits@D@std@@V?$allocator@D@2@@std@@V12@UStlIniCompareStringNoCase@@V?$allocator@U?$pair@$$CBV?$basic_string@DU?$char_traits@D@std@@V?$allocator@D@2@@std@@V12@@std@@@2@$0A@@std@@@2@@Z 004153a0 f i Option.obj
 0001:00014400       ??1_Node@?$_Tree_nod@V?$_Tmap_traits@V?$basic_string@DU?$char_traits@D@std@@V?$allocator@D@2@@std@@V12@UStlIniCompareStringNoCase@@V?$allocator@U?$pair@$$CBV?$basic_string@DU?$char_traits@D@std@@V?$allocator@D@2@@std@@V12@@std@@@2@$0A@@std@@@std@@QAE@XZ 00415400 f i Option.obj
 0001:00014410       ?erase@?$_Tree@V?$_Tmap_traits@V?$basic_string@DU?$char_traits@D@std@@V?$allocator@D@2@@std@@V12@UStlIniCompareStringNoCase@@V?$allocator@U?$pair@$$CBV?$basic_string@DU?$char_traits@D@std@@V?$allocator@D@2@@std@@V12@@std@@@2@$0A@@std@@@std@@QAE?AViterator@12@V312@@Z 00415410 f i Option.obj
 0001:00014710       ??0out_of_range@std@@QAE@ABV01@@Z 00415710 f i Option.obj
 0001:00014730       ?_Erase@?$_Tree@V?$_Tmap_traits@V?$basic_string@DU?$char_traits@D@std@@V?$allocator@D@2@@std@@V12@UStlIniCompareStringNoCase@@V?$allocator@U?$pair@$$CBV?$basic_string@DU?$char_traits@D@std@@V?$allocator@D@2@@std@@V12@@std@@@2@$0A@@std@@@std@@IAEXPAU_Node@?$_Tree_nod@V?$_Tmap_traits@V?$basic_string@DU?$char_traits@D@std@@V?$allocator@D@2@@std@@V12@UStlIniCompareStringNoCase@@V?$allocator@U?$pair@$$CBV?$basic_string@DU?$char_traits@D@std@@V?$allocator@D@2@@std@@V12@@std@@@2@$0A@@std@@@2@@Z 00415730 f i Option.obj
 0001:00014770       ?erase@?$_Tree@V?$_Tmap_traits@V?$basic_string@DU?$char_traits@D@std@@V?$allocator@D@2@@std@@V12@UStlIniCompareStringNoCase@@V?$allocator@U?$pair@$$CBV?$basic_string@DU?$char_traits@D@std@@V?$allocator@D@2@@std@@V12@@std@@@2@$0A@@std@@@std@@QAE?AViterator@12@V312@0@Z 00415770 f i Option.obj
 0001:00014830       ??1?$map@V?$basic_string@DU?$char_traits@D@std@@V?$allocator@D@2@@std@@V12@UStlIniCompareStringNoCase@@V?$allocator@U?$pair@$$CBV?$basic_string@DU?$char_traits@D@std@@V?$allocator@D@2@@std@@V12@@std@@@2@@std@@QAE@XZ 00415830 f i Option.obj
 0001:00014830       ?_Tidy@?$_Tree@V?$_Tmap_traits@V?$basic_string@DU?$char_traits@D@std@@V?$allocator@D@2@@std@@V12@UStlIniCompareStringNoCase@@V?$allocator@U?$pair@$$CBV?$basic_string@DU?$char_traits@D@std@@V?$allocator@D@2@@std@@V12@@std@@@2@$0A@@std@@@std@@IAEXXZ 00415830 f i Option.obj
 0001:00014860       ??1?$pair@$$CBV?$basic_string@DU?$char_traits@D@std@@V?$allocator@D@2@@std@@V?$map@V?$basic_string@DU?$char_traits@D@std@@V?$allocator@D@2@@std@@V12@UStlIniCompareStringNoCase@@V?$allocator@U?$pair@$$CBV?$basic_string@DU?$char_traits@D@std@@V?$allocator@D@2@@std@@V12@@std@@@2@@2@@std@@QAE@XZ 00415860 f i Option.obj
 0001:000148e0       ??1_Node@?$_Tree_nod@V?$_Tmap_traits@V?$basic_string@DU?$char_traits@D@std@@V?$allocator@D@2@@std@@V?$map@V?$basic_string@DU?$char_traits@D@std@@V?$allocator@D@2@@std@@V12@UStlIniCompareStringNoCase@@V?$allocator@U?$pair@$$CBV?$basic_string@DU?$char_traits@D@std@@V?$allocator@D@2@@std@@V12@@std@@@2@@2@UStlIniCompareStringNoCase@@V?$allocator@U?$pair@$$CBV?$basic_string@DU?$char_traits@D@std@@V?$allocator@D@2@@std@@V?$map@V?$basic_string@DU?$char_traits@D@std@@V?$allocator@D@2@@std@@V12@UStlIniCompareStringNoCase@@V?$allocator@U?$pair@$$CBV?$basic_string@DU?$char_traits@D@std@@V?$allocator@D@2@@std@@V12@@std@@@2@@2@@std@@@2@$0A@@std@@@std@@QAE@XZ 004158e0 f i Option.obj
 0001:000148f0       ?erase@?$_Tree@V?$_Tmap_traits@V?$basic_string@DU?$char_traits@D@std@@V?$allocator@D@2@@std@@V?$map@V?$basic_string@DU?$char_traits@D@std@@V?$allocator@D@2@@std@@V12@UStlIniCompareStringNoCase@@V?$allocator@U?$pair@$$CBV?$basic_string@DU?$char_traits@D@std@@V?$allocator@D@2@@std@@V12@@std@@@2@@2@UStlIniCompareStringNoCase@@V?$allocator@U?$pair@$$CBV?$basic_string@DU?$char_traits@D@std@@V?$allocator@D@2@@std@@V?$map@V?$basic_string@DU?$char_traits@D@std@@V?$allocator@D@2@@std@@V12@UStlIniCompareStringNoCase@@V?$allocator@U?$pair@$$CBV?$basic_string@DU?$char_traits@D@std@@V?$allocator@D@2@@std@@V12@@std@@@2@@2@@std@@@2@$0A@@std@@@std@@QAE?AViterator@12@V312@@Z 004158f0 f i Option.obj
 0001:00014bd0       ?_Erase@?$_Tree@V?$_Tmap_traits@V?$basic_string@DU?$char_traits@D@std@@V?$allocator@D@2@@std@@V?$map@V?$basic_string@DU?$char_traits@D@std@@V?$allocator@D@2@@std@@V12@UStlIniCompareStringNoCase@@V?$allocator@U?$pair@$$CBV?$basic_string@DU?$char_traits@D@std@@V?$allocator@D@2@@std@@V12@@std@@@2@@2@UStlIniCompareStringNoCase@@V?$allocator@U?$pair@$$CBV?$basic_string@DU?$char_traits@D@std@@V?$allocator@D@2@@std@@V?$map@V?$basic_string@DU?$char_traits@D@std@@V?$allocator@D@2@@std@@V12@UStlIniCompareStringNoCase@@V?$allocator@U?$pair@$$CBV?$basic_string@DU?$char_traits@D@std@@V?$allocator@D@2@@std@@V12@@std@@@2@@2@@std@@@2@$0A@@std@@@std@@IAEXPAU_Node@?$_Tree_nod@V?$_Tmap_traits@V?$basic_string@DU?$char_traits@D@std@@V?$allocator@D@2@@std@@V?$map@V?$basic_string@DU?$char_traits@D@std@@V?$allocator@D@2@@std@@V12@UStlIniCompareStringNoCase@@V?$allocator@U?$pair@$$CBV?$basic_string@DU?$char_traits@D@std@@V?$allocator@D@2@@std@@V12@@std@@@2@@2@UStlIniCompareStringNoCase@@V?$allocator@U?$pair@$$CBV?$basic_string@DU?$char_traits@D@std@@V?$allocator@D@2@@std@@V?$map@V?$basic_string@DU?$char_traits@D@std@@V?$allocator@D@2@@std@@V12@UStlIniCompareStringNoCase@@V?$allocator@U?$pair@$$CBV?$basic_string@DU?$char_traits@D@std@@V?$allocator@D@2@@std@@V12@@std@@@2@@2@@std@@@2@$0A@@std@@@2@@Z 00415bd0 f i Option.obj
 0001:00014c10       ?erase@?$_Tree@V?$_Tmap_traits@V?$basic_string@DU?$char_traits@D@std@@V?$allocator@D@2@@std@@V?$map@V?$basic_string@DU?$char_traits@D@std@@V?$allocator@D@2@@std@@V12@UStlIniCompareStringNoCase@@V?$allocator@U?$pair@$$CBV?$basic_string@DU?$char_traits@D@std@@V?$allocator@D@2@@std@@V12@@std@@@2@@2@UStlIniCompareStringNoCase@@V?$allocator@U?$pair@$$CBV?$basic_string@DU?$char_traits@D@std@@V?$allocator@D@2@@std@@V?$map@V?$basic_string@DU?$char_traits@D@std@@V?$allocator@D@2@@std@@V12@UStlIniCompareStringNoCase@@V?$allocator@U?$pair@$$CBV?$basic_string@DU?$char_traits@D@std@@V?$allocator@D@2@@std@@V12@@std@@@2@@2@@std@@@2@$0A@@std@@@std@@QAE?AViterator@12@V312@0@Z 00415c10 f i Option.obj
 0001:00014cd0       ??1?$map@V?$basic_string@DU?$char_traits@D@std@@V?$allocator@D@2@@std@@V?$map@V?$basic_string@DU?$char_traits@D@std@@V?$allocator@D@2@@std@@V12@UStlIniCompareStringNoCase@@V?$allocator@U?$pair@$$CBV?$basic_string@DU?$char_traits@D@std@@V?$allocator@D@2@@std@@V12@@std@@@2@@2@UStlIniCompareStringNoCase@@V?$allocator@U?$pair@$$CBV?$basic_string@DU?$char_traits@D@std@@V?$allocator@D@2@@std@@V?$map@V?$basic_string@DU?$char_traits@D@std@@V?$allocator@D@2@@std@@V12@UStlIniCompareStringNoCase@@V?$allocator@U?$pair@$$CBV?$basic_string@DU?$char_traits@D@std@@V?$allocator@D@2@@std@@V12@@std@@@2@@2@@std@@@2@@std@@QAE@XZ 00415cd0 f i Option.obj
 0001:00014cd0       ?_Tidy@?$_Tree@V?$_Tmap_traits@V?$basic_string@DU?$char_traits@D@std@@V?$allocator@D@2@@std@@V?$map@V?$basic_string@DU?$char_traits@D@std@@V?$allocator@D@2@@std@@V12@UStlIniCompareStringNoCase@@V?$allocator@U?$pair@$$CBV?$basic_string@DU?$char_traits@D@std@@V?$allocator@D@2@@std@@V12@@std@@@2@@2@UStlIniCompareStringNoCase@@V?$allocator@U?$pair@$$CBV?$basic_string@DU?$char_traits@D@std@@V?$allocator@D@2@@std@@V?$map@V?$basic_string@DU?$char_traits@D@std@@V?$allocator@D@2@@std@@V12@UStlIniCompareStringNoCase@@V?$allocator@U?$pair@$$CBV?$basic_string@DU?$char_traits@D@std@@V?$allocator@D@2@@std@@V12@@std@@@2@@2@@std@@@2@$0A@@std@@@std@@IAEXXZ 00415cd0 f i Option.obj
 0001:00014d00       ?LoadOption@Option@@QAE_NXZ 00415d00 f   Option.obj
 0001:00015710       ??0Page@@QAE@PAVPagePool@@H@Z 00416710 f   Page.obj
 0001:00015740       ?swapout@Page@@QAE_N_N@Z   00416740 f   Page.obj
 0001:00015860       ??1Page@@QAE@XZ            00416860 f   Page.obj
 0001:00015890       ?swapinex@Page@@QAE_NXZ    00416890 f   Page.obj
 0001:000159f0       ?swapoutex@Page@@QAE_N_N@Z 004169f0 f   Page.obj
 0001:00015b60       ??4PagePoolHead@PagePool@@QAEAAU01@ABU01@@Z 00416b60 f i PagePool.obj
 0001:00015bc0       ??0SubPool@PagePool@@QAE@XZ 00416bc0 f i PagePool.obj
 0001:00015c00       ?Put@PagePool@@QAE_NPAVPage@@_N1@Z 00416c00 f   PagePool.obj
 0001:00015d00       ?GetPagePoolHead@PagePool@@QAEAAUPagePoolHead@1@XZ 00416d00 f   PagePool.obj
 0001:00015d10       ?_Xlen@?$vector@PAVPage@@V?$allocator@PAVPage@@@std@@@std@@IBEXXZ 00416d10 f i PagePool.obj
 0001:00015d10       ?_Xlen@?$vector@PAUSubPool@PagePool@@V?$allocator@PAUSubPool@PagePool@@@std@@@std@@IBEXXZ 00416d10 f i PagePool.obj
 0001:00015d90       ?clear@?$list@PAVPage@@V?$allocator@PAVPage@@@std@@@std@@QAEXXZ 00416d90 f i PagePool.obj
 0001:00015d90       ?clear@?$list@PAVStringMap@@V?$allocator@PAVStringMap@@@std@@@std@@QAEXXZ 00416d90 f i DB.obj
 0001:00015d90       ?clear@?$list@HV?$allocator@H@std@@@std@@QAEXXZ 00416d90 f i EntityTemplet.obj
 0001:00015d90       ?clear@?$list@PAVThreadEx@@V?$allocator@PAVThreadEx@@@std@@@std@@QAEXXZ 00416d90 f i ThreadContrl.obj
 0001:00015dd0       ?_Incsize@?$list@PAVPage@@V?$allocator@PAVPage@@@std@@@std@@IAEXI@Z 00416dd0 f i PagePool.obj
 0001:00015e70       ?RemoveFromFreePages@PagePool@@QAE_NH@Z 00416e70 f   PagePool.obj
 0001:00015f20       ?Get@PagePool@@QAEPAVPage@@H@Z 00416f20 f   PagePool.obj
 0001:00015fe0       ?Get@PagePool@@QAEPAVPage@@H_N@Z 00416fe0 f   PagePool.obj
 0001:00016020       ?FlushFileHead@PagePool@@IAEXH@Z 00417020 f   PagePool.obj
 0001:00016150       ?push_back@?$list@PAVPage@@V?$allocator@PAVPage@@@std@@@std@@QAEXABQAVPage@@@Z 00417150 f i PagePool.obj
 0001:00016190       ?_Insert_n@?$vector@PAVPage@@V?$allocator@PAVPage@@@std@@@std@@IAEXViterator@12@IABQAVPage@@@Z 00417190 f i PagePool.obj
 0001:00016190       ?_Insert_n@?$vector@PAUSubPool@PagePool@@V?$allocator@PAUSubPool@PagePool@@@std@@@std@@IAEXViterator@12@IABQAUSubPool@PagePool@@@Z 00417190 f i PagePool.obj
 0001:00016380       ??0PagePool@@QAE@XZ        00417380 f   PagePool.obj
 0001:00016460       ??1PagePool@@QAE@XZ        00417460 f   PagePool.obj
 0001:00016600       ?GetFree@PagePool@@QAEPAVPage@@XZ 00417600 f   PagePool.obj
 0001:000166f0       ?PutFree@PagePool@@QAE_NPAVPage@@@Z 004176f0 f   PagePool.obj
 0001:000167e0       ?resize@?$vector@PAUSubPool@PagePool@@V?$allocator@PAUSubPool@PagePool@@@std@@@std@@QAEXIPAUSubPool@PagePool@@@Z 004177e0 f i PagePool.obj
 0001:000167e0       ?resize@?$vector@PAVPage@@V?$allocator@PAVPage@@@std@@@std@@QAEXIPAVPage@@@Z 004177e0 f i PagePool.obj
 0001:00016870       ?InitPoolEx@PagePool@@IAE_NXZ 00417870 f   PagePool.obj
 0001:000168c0       ?LoadPageEx@PagePool@@QAE_NPBD@Z 004178c0 f   PagePool.obj
 0001:00016dc0       ?CreatePageEx@PagePool@@QAE_NPBDHHH_N@Z 00417dc0 f   PagePool.obj
 0001:00017260       ?AddNewPagesEx@PagePool@@QAE_NH@Z 00418260 f   PagePool.obj
 0001:00017900       ?GetFreeEx@PagePool@@QAEPAVPage@@XZ 00418900 f   PagePool.obj
 0001:000179a0       ??1PoolBase@@QAE@XZ        004189a0 f   PoolBase.obj
 0001:00017a00       ??8RecordPos@@QAE_NABU0@@Z 00418a00 f i Queue.obj
 0001:00017a20       ??0QueueHead@@QAE@XZ       00418a20 f i Queue.obj
 0001:00017a50       ??0Queue@@QAE@XZ           00418a50 f   Queue.obj
 0001:00017af0       ??1Queue@@QAE@XZ           00418af0 f   Queue.obj
 0001:00017b60       ?PeekTopRecord@Queue@@AAEHPADAAI@Z 00418b60 f   Queue.obj
 0001:00017ea0       ?CreateObjByPage@Queue@@QAE_NPAVPage@@@Z 00418ea0 f   Queue.obj
 0001:00017f50       ?SetNext@Queue@@AAE_NHHHH@Z 00418f50 f   Queue.obj
 0001:00017fc0       ?Peek@Queue@@QAEHAAVbuffer@chen@@AAI_NI@Z 00418fc0 f   Queue.obj
 0001:00018170       ?FlushData@Queue@@QAE_NXZ  00419170 f   Queue.obj
 0001:00018310       ?Append@Queue@@QAE_NPBDIH@Z 00419310 f   Queue.obj
 0001:00018830       ?DeleteData@Queue@@QAE_NXZ 00419830 f   Queue.obj
 0001:000188f0       ?Clear@Queue@@QAE_NXZ      004198f0 f   Queue.obj
 0001:00018a30       ?PopTopRecord@Queue@@AAEHPADAAI@Z 00419a30 f   Queue.obj
 0001:00018f00       ?PopTop@Queue@@QAEHAAVbuffer@chen@@AAI_NI@Z 00419f00 f   Queue.obj
 0001:000190b0       ??1QueueRecord@@QAE@XZ     0041a0b0 f   QueueRecord.obj
 0001:000190d0       ?GetRawDataSize@QueueRecord@@QAEIXZ 0041a0d0 f   QueueRecord.obj
 0001:000190e0       ?GetRawData@QueueRecord@@QAEPADPADI@Z 0041a0e0 f   QueueRecord.obj
 0001:000191a0       ??0QueueRecord@@QAE@V?$basic_string@DU?$char_traits@D@std@@V?$allocator@D@2@@std@@VTTime@chen@@PBDIH@Z 0041a1a0 f   QueueRecord.obj
 0001:00019260       ??0RecordType@@QAE@XZ      0041a260 f i RecordSet.obj
 0001:000192c0       ??1RecordType@@QAE@XZ      0041a2c0 f i RecordSet.obj
 0001:00019300       ?GetRawDataSize@RecordType@@QAEIXZ 0041a300 f   RecordType.obj
 0001:00019340       ?GetRawData@RecordType@@QAE_NPADI@Z 0041a340 f   RecordType.obj
 0001:00019470       ??0Resource@@QAE@XZ        0041a470 f   Resource.obj
 0001:000194d0       ??1Resource@@QAE@XZ        0041a4d0 f   Resource.obj
 0001:00019530       ?GetRawDataSize@Resource@@UAEIXZ 0041a530 f   Resource.obj
 0001:00019550       ?GetRawData@Resource@@UAEPADPADI@Z 0041a550 f   Resource.obj
 0001:000195e0       ?CreateObjectByRawData@Resource@@UAEHPBDI@Z 0041a5e0 f   Resource.obj
 0001:000196a0       ?GetID@Monitor@@QAE?AVword@chen@@XZ 0041a6a0 f i MonitorPool.obj
 0001:000196a0       ?GetLanguageType@Resource@@QAE?AVword@chen@@XZ 0041a6a0 f i ResourcePool.obj
 0001:000196a0       ?GetID@EntityTemplet@@QAE?AVword@chen@@XZ 0041a6a0 f i EntityTempletPool.obj
 0001:000196a0       ?GetID@EntityGroup@@QAE?AVword@chen@@XZ 0041a6a0 f i EntityGroupPool.obj
 0001:000196c0       ?Load@ResourcePool@@UAE_NXZ 0041a6c0 f   ResourcePool.obj
 0001:000197c0       ?Submit@ResourcePool@@UAE_NXZ 0041a7c0 f   ResourcePool.obj
 0001:000198f0       ??0?$hashelement@Vword@chen@@PAVResource@@@chen@@QAE@ABVword@1@@Z 0041a8f0 f i ResourcePool.obj
 0001:00019950       ??0?$hashelement@Vword@chen@@PAVResource@@@chen@@QAE@ABVword@1@ABQAVResource@@@Z 0041a950 f i ResourcePool.obj
 0001:000199c0       ??1?$treenode@V?$hashelement@Vword@chen@@PAVResource@@@chen@@@chen@@UAE@XZ 0041a9c0 f i ResourcePool.obj
 0001:000199e0       ??_G?$treenode@V?$hashelement@Vword@chen@@PAVResource@@@chen@@@chen@@UAEPAXI@Z 0041a9e0 f i ResourcePool.obj
 0001:000199e0       ??_E?$treenode@V?$hashelement@Vword@chen@@PAVResource@@@chen@@@chen@@UAEPAXI@Z 0041a9e0 f i ResourcePool.obj
 0001:00019a00       ?_Xlen@?$vector@PAV?$hashnode@Vword@chen@@PAVResource@@@chen@@V?$allocator@PAV?$hashnode@Vword@chen@@PAVResource@@@chen@@@std@@@std@@IBEXXZ 0041aa00 f i ResourcePool.obj
 0001:00019a80       ?CountNodes@?$sorttree@V?$hashelement@Vword@chen@@PAVResource@@@chen@@@chen@@AAEXPAV?$treenode@V?$hashelement@Vword@chen@@PAVResource@@@chen@@@2@AAK@Z 0041aa80 f i ResourcePool.obj
 0001:00019ab0       ??M?$treenode@V?$hashelement@Vword@chen@@PAVResource@@@chen@@@chen@@QAE_NV01@@Z 0041aab0 f i ResourcePool.obj
 0001:00019b20       ??O?$treenode@V?$hashelement@Vword@chen@@PAVResource@@@chen@@@chen@@QAE_NV01@@Z 0041ab20 f i ResourcePool.obj
 0001:00019b90       ??0?$treenode@V?$hashelement@Vword@chen@@PAVResource@@@chen@@@chen@@QAE@ABV01@@Z 0041ab90 f i ResourcePool.obj
 0001:00019c10       ??0?$treenode@V?$hashelement@Vword@chen@@PAVResource@@@chen@@@chen@@QAE@ABV?$hashelement@Vword@chen@@PAVResource@@@1@@Z 0041ac10 f i ResourcePool.obj
 0001:00019c90       ?DeleteTree@?$sorttree@V?$hashelement@Vword@chen@@PAVResource@@@chen@@@chen@@QAEXPAV?$treenode@V?$hashelement@Vword@chen@@PAVResource@@@chen@@@2@@Z 0041ac90 f i ResourcePool.obj
 0001:00019ce0       ?RomoveNode@?$sorttree@V?$hashelement@Vword@chen@@PAVResource@@@chen@@@chen@@QAEXABV?$hashelement@Vword@chen@@PAVResource@@@2@@Z 0041ace0 f i ResourcePool.obj
 0001:00019e80       ?InsertNode@?$sorttree@V?$hashelement@Vword@chen@@PAVResource@@@chen@@@chen@@QAEXPAV?$treenode@V?$hashelement@Vword@chen@@PAVResource@@@chen@@@2@0@Z 0041ae80 f i ResourcePool.obj
 0001:00019f10       ?findnextnode@?$sorttree@V?$hashelement@Vword@chen@@PAVResource@@@chen@@@chen@@ABEPAV?$treenode@V?$hashelement@Vword@chen@@PAVResource@@@chen@@@2@AAV?$hashelement@Vword@chen@@PAVResource@@@2@AA_NPAV32@@Z 0041af10 f i ResourcePool.obj
 0001:00019f80       ??$CreateNode@V?$hashelement@Vword@chen@@PAVResource@@@chen@@@?$sorttree@V?$hashelement@Vword@chen@@PAVResource@@@chen@@@chen@@SAPAV?$treenode@V?$hashelement@Vword@chen@@PAVResource@@@chen@@@1@ABV?$hashelement@Vword@chen@@PAVResource@@@1@@Z 0041af80 f i ResourcePool.obj
 0001:00019fe0       ??_G?$sorttree@V?$hashelement@Vword@chen@@PAVResource@@@chen@@@chen@@UAEPAXI@Z 0041afe0 f i ResourcePool.obj
 0001:00019fe0       ??_E?$sorttree@V?$hashelement@Vword@chen@@PAVResource@@@chen@@@chen@@UAEPAXI@Z 0041afe0 f i ResourcePool.obj
 0001:0001a040       ?find@?$hashnode@Vword@chen@@PAVResource@@@chen@@QAE_NABVword@2@PAPAV?$hashelement@Vword@chen@@PAVResource@@@2@@Z 0041b040 f i ResourcePool.obj
 0001:0001a110       ?InsertNodeEx@?$sorttree@V?$hashelement@Vword@chen@@PAVResource@@@chen@@@chen@@QAEAAV?$hashelement@Vword@chen@@PAVResource@@@2@ABV32@@Z 0041b110 f i ResourcePool.obj
 0001:0001a1a0       ??1?$hashnode@Vword@chen@@PAVResource@@@chen@@QAE@XZ 0041b1a0 f i ResourcePool.obj
 0001:0001a230       ?insert@?$hashnode@Vword@chen@@PAVResource@@@chen@@QAEAAV?$hashelement@Vword@chen@@PAVResource@@@2@ABVword@2@ABQAVResource@@@Z 0041b230 f i ResourcePool.obj
 0001:0001a310       ?find@?$hashnode@Vword@chen@@PAVResource@@@chen@@QAE_NABVword@2@PAPAPAVResource@@@Z 0041b310 f i ResourcePool.obj
 0001:0001a370       ?size@?$hashtable@Vword@chen@@PAVResource@@@chen@@QAEIXZ 0041b370 f i ResourcePool.obj
 0001:0001a410       ?find@?$hashtable@Vword@chen@@PAVResource@@@chen@@QAEPAPAVResource@@ABVword@2@@Z 0041b410 f i ResourcePool.obj
 0001:0001a480       ?clearnodes@?$hashtable@Vword@chen@@PAVResource@@@chen@@IAEXXZ 0041b480 f i ResourcePool.obj
 0001:0001a4f0       ??1?$vector@PAV?$hashnode@Vword@chen@@PAVQueue@@@chen@@V?$allocator@PAV?$hashnode@Vword@chen@@PAVQueue@@@chen@@@std@@@std@@QAE@XZ 0041b4f0 f i DB.obj
 0001:0001a4f0       ??1?$vector@PAV?$hashnode@Vword@chen@@PAVEntityGroup@@@chen@@V?$allocator@PAV?$hashnode@Vword@chen@@PAVEntityGroup@@@chen@@@std@@@std@@QAE@XZ 0041b4f0 f i EntityGroupPool.obj
 0001:0001a4f0       ??1?$vector@PAV?$hashnode@Vword@chen@@PAVResource@@@chen@@V?$allocator@PAV?$hashnode@Vword@chen@@PAVResource@@@chen@@@std@@@std@@QAE@XZ 0041b4f0 f i ResourcePool.obj
 0001:0001a4f0       ??1?$vector@PAV?$hashnode@Vword@chen@@PAVSection@@@chen@@V?$allocator@PAV?$hashnode@Vword@chen@@PAVSection@@@chen@@@std@@@std@@QAE@XZ 0041b4f0 f i GeneralPool.obj
 0001:0001a4f0       ??1?$vector@PAV?$hashnode@Vword@chen@@PAVEntity@@@chen@@V?$allocator@PAV?$hashnode@Vword@chen@@PAVEntity@@@chen@@@std@@@std@@QAE@XZ 0041b4f0 f i EntityPool.obj
 0001:0001a4f0       ??1?$vector@PAUSubPool@PagePool@@V?$allocator@PAUSubPool@PagePool@@@std@@@std@@QAE@XZ 0041b4f0 f i PagePool.obj
 0001:0001a4f0       ??1?$vector@PAV?$hashnode@Vword@chen@@PAVEntityTemplet@@@chen@@V?$allocator@PAV?$hashnode@Vword@chen@@PAVEntityTemplet@@@chen@@@std@@@std@@QAE@XZ 0041b4f0 f i EntityTempletPool.obj
 0001:0001a4f0       ??1?$vector@PAV?$hashnode@Vword@chen@@PAVTable@@@chen@@V?$allocator@PAV?$hashnode@Vword@chen@@PAVTable@@@chen@@@std@@@std@@QAE@XZ 0041b4f0 f i DB.obj
 0001:0001a4f0       ??1?$vector@PAV?$hashnode@Vword@chen@@PAVGroup@@@chen@@V?$allocator@PAV?$hashnode@Vword@chen@@PAVGroup@@@chen@@@std@@@std@@QAE@XZ 0041b4f0 f i GroupPool.obj
 0001:0001a4f0       ??1?$vector@PAVMonitorTemplet@@V?$allocator@PAVMonitorTemplet@@@std@@@std@@QAE@XZ 0041b4f0 f i MonitorTempletPool.obj
 0001:0001a4f0       ??1?$vector@PAVDataType@@V?$allocator@PAVDataType@@@std@@@std@@QAE@XZ 0041b4f0 f i RecordSet.obj
 0001:0001a4f0       ??1?$vector@PAV?$hashnode@Vword@chen@@PAVGeneralPool@@@chen@@V?$allocator@PAV?$hashnode@Vword@chen@@PAVGeneralPool@@@chen@@@std@@@std@@QAE@XZ 0041b4f0 f i SvdbMain.obj
 0001:0001a4f0       ??1?$vector@PAV?$hashnode@Vword@chen@@PAVMonitor@@@chen@@V?$allocator@PAV?$hashnode@Vword@chen@@PAVMonitor@@@chen@@@std@@@std@@QAE@XZ 0041b4f0 f i MonitorPool.obj
 0001:0001a4f0       ??1?$vector@PAVSVSE@@V?$allocator@PAVSVSE@@@std@@@std@@QAE@XZ 0041b4f0 f i SvdbMain.obj
 0001:0001a4f0       ??1?$vector@PAV?$hashnode@Vword@chen@@V12@@chen@@V?$allocator@PAV?$hashnode@Vword@chen@@V12@@chen@@@std@@@std@@QAE@XZ 0041b4f0 f i StringMap.obj
 0001:0001a4f0       ??1?$vector@PAV?$hashnode@Vword@chen@@PAVCommonData@@@chen@@V?$allocator@PAV?$hashnode@Vword@chen@@PAVCommonData@@@chen@@@std@@@std@@QAE@XZ 0041b4f0 f i Section.obj
 0001:0001a4f0       ??1?$vector@PAVPage@@V?$allocator@PAVPage@@@std@@@std@@QAE@XZ 0041b4f0 f i PagePool.obj
 0001:0001a520       ?findnext@?$hashnode@Vword@chen@@PAVResource@@@chen@@QAE_NAAV?$hashelement@Vword@chen@@PAVResource@@@2@PAPAV32@@Z 0041b520 f i ResourcePool.obj
 0001:0001a5d0       ?erase@?$hashnode@Vword@chen@@PAVResource@@@chen@@QAE_NABVword@2@@Z 0041b5d0 f i ResourcePool.obj
 0001:0001a6e0       ?_Insert_n@?$vector@PAV?$hashnode@Vword@chen@@PAVResource@@@chen@@V?$allocator@PAV?$hashnode@Vword@chen@@PAVResource@@@chen@@@std@@@std@@IAEXViterator@12@IABQAV?$hashnode@Vword@chen@@PAVResource@@@chen@@@Z 0041b6e0 f i ResourcePool.obj
 0001:0001a8d0       ??1?$hashtable@Vword@chen@@PAVResource@@@chen@@QAE@XZ 0041b8d0 f i ResourcePool.obj
 0001:0001a930       ?erase@?$hashtable@Vword@chen@@PAVResource@@@chen@@QAE_NABVword@2@@Z 0041b930 f i ResourcePool.obj
 0001:0001a9d0       ?findnext@?$hashtable@Vword@chen@@PAVResource@@@chen@@QAE_NAAViterator@12@@Z 0041b9d0 f i ResourcePool.obj
 0001:0001aa70       ?resize@?$vector@PAV?$hashnode@Vword@chen@@PAVResource@@@chen@@V?$allocator@PAV?$hashnode@Vword@chen@@PAVResource@@@chen@@@std@@@std@@QAEXIPAV?$hashnode@Vword@chen@@PAVResource@@@chen@@@Z 0041ba70 f i ResourcePool.obj
 0001:0001ab00       ?GetRawDataSize@ResourcePool@@UAEIXZ 0041bb00 f   ResourcePool.obj
 0001:0001ab60       ?GetRawData@ResourcePool@@UAEPADPADI@Z 0041bb60 f   ResourcePool.obj
 0001:0001ac50       ?DeleteResource@ResourcePool@@QAE_NVword@chen@@@Z 0041bc50 f   ResourcePool.obj
 0001:0001ad40       ??0?$hashtable@Vword@chen@@PAVResource@@@chen@@QAE@XZ 0041bd40 f i ResourcePool.obj
 0001:0001ad90       ?insert@?$hashtable@Vword@chen@@PAVResource@@@chen@@QAEAAPAVResource@@ABVword@2@ABQAV3@@Z 0041bd90 f i ResourcePool.obj
 0001:0001ae80       ?CreateObjectByRawData@ResourcePool@@UAEHPBDI@Z 0041be80 f   ResourcePool.obj
 0001:0001b030       ?push@ResourcePool@@QAE_NPAVResource@@@Z 0041c030 f   ResourcePool.obj
 0001:0001b140       ?PushData@ResourcePool@@QAE_NPBDI@Z 0041c140 f   ResourcePool.obj
 0001:0001b210       ?PutData@CommonData@@QAE_NPBXIH@Z 0041c210 f i Section.obj
 0001:0001b2b0       ?GetRawDataSize@CommonData@@UAEIXZ 0041c2b0 f   Section.obj
 0001:0001b2c0       ?GetRawData@CommonData@@UAEPADPADI@Z 0041c2c0 f   Section.obj
 0001:0001b320       ?CreateObjectByRawData@CommonData@@UAEHPBDI@Z 0041c320 f   Section.obj
 0001:0001b3e0       ?CountNodes@?$sorttree@V?$hashelement@Vword@chen@@PAVCommonData@@@chen@@@chen@@AAEXPAV?$treenode@V?$hashelement@Vword@chen@@PAVCommonData@@@chen@@@2@AAK@Z 0041c3e0 f i Section.obj
 0001:0001b410       ?findnextnode@?$sorttree@V?$hashelement@Vword@chen@@PAVCommonData@@@chen@@@chen@@ABEPAV?$treenode@V?$hashelement@Vword@chen@@PAVCommonData@@@chen@@@2@AAV?$hashelement@Vword@chen@@PAVCommonData@@@2@AA_NPAV32@@Z 0041c410 f i Section.obj
 0001:0001b480       ??1?$hashnode@Vword@chen@@PAVCommonData@@@chen@@QAE@XZ 0041c480 f i Section.obj
 0001:0001b510       ?clearnodes@?$hashtable@Vword@chen@@PAVCommonData@@@chen@@IAEXXZ 0041c510 f i Section.obj
 0001:0001b580       ?findnext@?$hashnode@Vword@chen@@PAVCommonData@@@chen@@QAE_NAAV?$hashelement@Vword@chen@@PAVCommonData@@@2@PAPAV32@@Z 0041c580 f i Section.obj
 0001:0001b630       ?GetRawDataSize@Section@@UAEIXZ 0041c630 f   Section.obj
 0001:0001b6a0       ?GetRawData@Section@@UAEPADPADI@Z 0041c6a0 f   Section.obj
 0001:0001b7b0       ??1?$hashtable@Vword@chen@@PAVCommonData@@@chen@@QAE@XZ 0041c7b0 f i Section.obj
 0001:0001b810       ?findnext@?$hashtable@Vword@chen@@PAVCommonData@@@chen@@QAE_NAAViterator@12@@Z 0041c810 f i Section.obj
 0001:0001b8b0       ??1Section@@QAE@XZ         0041c8b0 f   Section.obj
 0001:0001b9b0       ??0?$hashtable@Vword@chen@@PAVCommonData@@@chen@@QAE@XZ 0041c9b0 f i Section.obj
 0001:0001ba00       ??0Section@@QAE@XZ         0041ca00 f   Section.obj
 0001:0001baa0       ?CreateObjectByRawData@Section@@UAEHPBDI@Z 0041caa0 f   Section.obj
 0001:0001bcb0       ?SVS_ServiceCtrlHandler@@YGXK@Z 0041ccb0 f   Services.obj
 0001:0001bd50       ?InstallService@@YA_NXZ    0041cd50 f   Services.obj
 0001:0001bf90       ?UnInstall@@YA_NXZ         0041cf90 f   Services.obj
 0001:0001c0d0       ?RunProcess@@YA_NPAU_PROCESS_INFORMATION@@V?$basic_string@DU?$char_traits@D@std@@V?$allocator@D@2@@std@@@Z 0041d0d0 f   Services.obj
 0001:0001c2a0       ?WatchDBProcess@@YGKPAX@Z  0041d2a0 f   Services.obj
 0001:0001c3b0       ?Init@@YA_NXZ              0041d3b0 f   Services.obj
 0001:0001c410       ?SVS_ServiceStart@@YGXKPAPAD@Z 0041d410 f   Services.obj
 0001:0001c560       ?RunSvdbServices@@YAXXZ    0041d560 f   Services.obj
 0001:0001c590       ??0SocketWatchThread@@QAE@XZ 0041d590 f   SocketWatchThread.obj
 0001:0001c5b0       ?Init@SocketWatchThread@@QAE_NXZ 0041d5b0 f   SocketWatchThread.obj
 0001:0001c640       ?run@SocketWatchThread@@UAEXXZ 0041d640 f   SocketWatchThread.obj
 0001:0001c740       ??1SocketWatchThread@@UAE@XZ 0041d740 f   SocketWatchThread.obj
 0001:0001c7b0       ??_ESocketWatchThread@@UAEPAXI@Z 0041d7b0 f i SocketWatchThread.obj
 0001:0001c7b0       ??_GSocketWatchThread@@UAEPAXI@Z 0041d7b0 f i SocketWatchThread.obj
 0001:0001c7d0       ??RStlIniCompareStringNoCase@@QBE_NABV?$basic_string@DU?$char_traits@D@std@@V?$allocator@D@2@@std@@0@Z 0041d7d0 f i stlini.obj
 0001:0001c820       ??1?$pair@V?$basic_string@DU?$char_traits@D@std@@V?$allocator@D@2@@std@@V12@@std@@QAE@XZ 0041d820 f i stlini.obj
 0001:0001c870       ??0?$pair@V?$basic_string@DU?$char_traits@D@std@@V?$allocator@D@2@@std@@V12@@std@@QAE@ABV?$basic_string@DU?$char_traits@D@std@@V?$allocator@D@2@@1@0@Z 0041d870 f i stlini.obj
 0001:0001c8d0       ?_Dec@const_iterator@?$_Tree@V?$_Tmap_traits@V?$basic_string@DU?$char_traits@D@std@@V?$allocator@D@2@@std@@V?$map@V?$basic_string@DU?$char_traits@D@std@@V?$allocator@D@2@@std@@V12@UStlIniCompareStringNoCase@@V?$allocator@U?$pair@$$CBV?$basic_string@DU?$char_traits@D@std@@V?$allocator@D@2@@std@@V12@@std@@@2@@2@UStlIniCompareStringNoCase@@V?$allocator@U?$pair@$$CBV?$basic_string@DU?$char_traits@D@std@@V?$allocator@D@2@@std@@V?$map@V?$basic_string@DU?$char_traits@D@std@@V?$allocator@D@2@@std@@V12@UStlIniCompareStringNoCase@@V?$allocator@U?$pair@$$CBV?$basic_string@DU?$char_traits@D@std@@V?$allocator@D@2@@std@@V12@@std@@@2@@2@@std@@@2@$0A@@std@@@std@@QAEXXZ 0041d8d0 f i stlini.obj
 0001:0001c930       ?_Dec@const_iterator@?$_Tree@V?$_Tmap_traits@V?$basic_string@DU?$char_traits@D@std@@V?$allocator@D@2@@std@@V12@UStlIniCompareStringNoCase@@V?$allocator@U?$pair@$$CBV?$basic_string@DU?$char_traits@D@std@@V?$allocator@D@2@@std@@V12@@std@@@2@$0A@@std@@@std@@QAEXXZ 0041d930 f i stlini.obj
 0001:0001c990       ??0?$pair@$$CBV?$basic_string@DU?$char_traits@D@std@@V?$allocator@D@2@@std@@V12@@std@@QAE@ABU01@@Z 0041d990 f i stlini.obj
 0001:0001c990       ??$?0V?$basic_string@DU?$char_traits@D@std@@V?$allocator@D@2@@std@@V01@@?$pair@$$CBV?$basic_string@DU?$char_traits@D@std@@V?$allocator@D@2@@std@@V12@@std@@QAE@ABU?$pair@V?$basic_string@DU?$char_traits@D@std@@V?$allocator@D@2@@std@@V12@@1@@Z 0041d990 f i stlini.obj
 0001:0001c9f0       ?_Lbound@?$_Tree@V?$_Tmap_traits@V?$basic_string@DU?$char_traits@D@std@@V?$allocator@D@2@@std@@V?$map@V?$basic_string@DU?$char_traits@D@std@@V?$allocator@D@2@@std@@V12@UStlIniCompareStringNoCase@@V?$allocator@U?$pair@$$CBV?$basic_string@DU?$char_traits@D@std@@V?$allocator@D@2@@std@@V12@@std@@@2@@2@UStlIniCompareStringNoCase@@V?$allocator@U?$pair@$$CBV?$basic_string@DU?$char_traits@D@std@@V?$allocator@D@2@@std@@V?$map@V?$basic_string@DU?$char_traits@D@std@@V?$allocator@D@2@@std@@V12@UStlIniCompareStringNoCase@@V?$allocator@U?$pair@$$CBV?$basic_string@DU?$char_traits@D@std@@V?$allocator@D@2@@std@@V12@@std@@@2@@2@@std@@@2@$0A@@std@@@std@@IBEPAU_Node@?$_Tree_nod@V?$_Tmap_traits@V?$basic_string@DU?$char_traits@D@std@@V?$allocator@D@2@@std@@V?$map@V?$basic_string@DU?$char_traits@D@std@@V?$allocator@D@2@@std@@V12@UStlIniCompareStringNoCase@@V?$allocator@U?$pair@$$CBV?$basic_string@DU?$char_traits@D@std@@V?$allocator@D@2@@std@@V12@@std@@@2@@2@UStlIniCompareStringNoCase@@V?$allocator@U?$pair@$$CBV?$basic_string@DU?$char_traits@D@std@@V?$allocator@D@2@@std@@V?$map@V?$basic_string@DU?$char_traits@D@std@@V?$allocator@D@2@@std@@V12@UStlIniCompareStringNoCase@@V?$allocator@U?$pair@$$CBV?$basic_string@DU?$char_traits@D@std@@V?$allocator@D@2@@std@@V12@@std@@@2@@2@@std@@@2@$0A@@std@@@2@ABV?$basic_string@DU?$char_traits@D@std@@V?$allocator@D@2@@2@@Z 0041d9f0 f i stlini.obj
 0001:0001ca60       ?_Lbound@?$_Tree@V?$_Tmap_traits@V?$basic_string@DU?$char_traits@D@std@@V?$allocator@D@2@@std@@V12@UStlIniCompareStringNoCase@@V?$allocator@U?$pair@$$CBV?$basic_string@DU?$char_traits@D@std@@V?$allocator@D@2@@std@@V12@@std@@@2@$0A@@std@@@std@@IBEPAU_Node@?$_Tree_nod@V?$_Tmap_traits@V?$basic_string@DU?$char_traits@D@std@@V?$allocator@D@2@@std@@V12@UStlIniCompareStringNoCase@@V?$allocator@U?$pair@$$CBV?$basic_string@DU?$char_traits@D@std@@V?$allocator@D@2@@std@@V12@@std@@@2@$0A@@std@@@2@ABV?$basic_string@DU?$char_traits@D@std@@V?$allocator@D@2@@2@@Z 0041da60 f i stlini.obj
 0001:0001cad0       ?_Buynode@?$_Tree@V?$_Tmap_traits@V?$basic_string@DU?$char_traits@D@std@@V?$allocator@D@2@@std@@V?$map@V?$basic_string@DU?$char_traits@D@std@@V?$allocator@D@2@@std@@V12@UStlIniCompareStringNoCase@@V?$allocator@U?$pair@$$CBV?$basic_string@DU?$char_traits@D@std@@V?$allocator@D@2@@std@@V12@@std@@@2@@2@UStlIniCompareStringNoCase@@V?$allocator@U?$pair@$$CBV?$basic_string@DU?$char_traits@D@std@@V?$allocator@D@2@@std@@V?$map@V?$basic_string@DU?$char_traits@D@std@@V?$allocator@D@2@@std@@V12@UStlIniCompareStringNoCase@@V?$allocator@U?$pair@$$CBV?$basic_string@DU?$char_traits@D@std@@V?$allocator@D@2@@std@@V12@@std@@@2@@2@@std@@@2@$0A@@std@@@std@@IAEPAU_Node@?$_Tree_nod@V?$_Tmap_traits@V?$basic_string@DU?$char_traits@D@std@@V?$allocator@D@2@@std@@V?$map@V?$basic_string@DU?$char_traits@D@std@@V?$allocator@D@2@@std@@V12@UStlIniCompareStringNoCase@@V?$allocator@U?$pair@$$CBV?$basic_string@DU?$char_traits@D@std@@V?$allocator@D@2@@std@@V12@@std@@@2@@2@UStlIniCompareStringNoCase@@V?$allocator@U?$pair@$$CBV?$basic_string@DU?$char_traits@D@std@@V?$allocator@D@2@@std@@V?$map@V?$basic_string@DU?$char_traits@D@std@@V?$allocator@D@2@@std@@V12@UStlIniCompareStringNoCase@@V?$allocator@U?$pair@$$CBV?$basic_string@DU?$char_traits@D@std@@V?$allocator@D@2@@std@@V12@@std@@@2@@2@@std@@@2@$0A@@std@@@2@XZ 0041dad0 f i stlini.obj
 0001:0001cb10       ?_Buynode@?$_Tree@V?$_Tmap_traits@V?$basic_string@DU?$char_traits@D@std@@V?$allocator@D@2@@std@@V12@UStlIniCompareStringNoCase@@V?$allocator@U?$pair@$$CBV?$basic_string@DU?$char_traits@D@std@@V?$allocator@D@2@@std@@V12@@std@@@2@$0A@@std@@@std@@IAEPAU_Node@?$_Tree_nod@V?$_Tmap_traits@V?$basic_string@DU?$char_traits@D@std@@V?$allocator@D@2@@std@@V12@UStlIniCompareStringNoCase@@V?$allocator@U?$pair@$$CBV?$basic_string@DU?$char_traits@D@std@@V?$allocator@D@2@@std@@V12@@std@@@2@$0A@@std@@@2@PAU342@00ABU?$pair@$$CBV?$basic_string@DU?$char_traits@D@std@@V?$allocator@D@2@@std@@V12@@2@D@Z 0041db10 f i stlini.obj
 0001:0001cbb0       ?_Buynode@?$_Tree@V?$_Tmap_traits@V?$basic_string@DU?$char_traits@D@std@@V?$allocator@D@2@@std@@V12@UStlIniCompareStringNoCase@@V?$allocator@U?$pair@$$CBV?$basic_string@DU?$char_traits@D@std@@V?$allocator@D@2@@std@@V12@@std@@@2@$0A@@std@@@std@@IAEPAU_Node@?$_Tree_nod@V?$_Tmap_traits@V?$basic_string@DU?$char_traits@D@std@@V?$allocator@D@2@@std@@V12@UStlIniCompareStringNoCase@@V?$allocator@U?$pair@$$CBV?$basic_string@DU?$char_traits@D@std@@V?$allocator@D@2@@std@@V12@@std@@@2@$0A@@std@@@2@XZ 0041dbb0 f i stlini.obj
 0001:0001cbf0       ?find@?$_Tree@V?$_Tmap_traits@V?$basic_string@DU?$char_traits@D@std@@V?$allocator@D@2@@std@@V12@UStlIniCompareStringNoCase@@V?$allocator@U?$pair@$$CBV?$basic_string@DU?$char_traits@D@std@@V?$allocator@D@2@@std@@V12@@std@@@2@$0A@@std@@@std@@QAE?AViterator@12@ABV?$basic_string@DU?$char_traits@D@std@@V?$allocator@D@2@@2@@Z 0041dbf0 f i stlini.obj
 0001:0001cc50       ?_Insert@?$_Tree@V?$_Tmap_traits@V?$basic_string@DU?$char_traits@D@std@@V?$allocator@D@2@@std@@V12@UStlIniCompareStringNoCase@@V?$allocator@U?$pair@$$CBV?$basic_string@DU?$char_traits@D@std@@V?$allocator@D@2@@std@@V12@@std@@@2@$0A@@std@@@std@@IAE?AViterator@12@_NPAU_Node@?$_Tree_nod@V?$_Tmap_traits@V?$basic_string@DU?$char_traits@D@std@@V?$allocator@D@2@@std@@V12@UStlIniCompareStringNoCase@@V?$allocator@U?$pair@$$CBV?$basic_string@DU?$char_traits@D@std@@V?$allocator@D@2@@std@@V12@@std@@@2@$0A@@std@@@2@ABU?$pair@$$CBV?$basic_string@DU?$char_traits@D@std@@V?$allocator@D@2@@std@@V12@@2@@Z 0041dc50 f i stlini.obj
 0001:0001ce10       ?GetIniSetting@@YA?AV?$basic_string@DU?$char_traits@D@std@@V?$allocator@D@2@@std@@AAV?$map@V?$basic_string@DU?$char_traits@D@std@@V?$allocator@D@2@@std@@V?$map@V?$basic_string@DU?$char_traits@D@std@@V?$allocator@D@2@@std@@V12@UStlIniCompareStringNoCase@@V?$allocator@U?$pair@$$CBV?$basic_string@DU?$char_traits@D@std@@V?$allocator@D@2@@std@@V12@@std@@@2@@2@UStlIniCompareStringNoCase@@V?$allocator@U?$pair@$$CBV?$basic_string@DU?$char_traits@D@std@@V?$allocator@D@2@@std@@V?$map@V?$basic_string@DU?$char_traits@D@std@@V?$allocator@D@2@@std@@V12@UStlIniCompareStringNoCase@@V?$allocator@U?$pair@$$CBV?$basic_string@DU?$char_traits@D@std@@V?$allocator@D@2@@std@@V12@@std@@@2@@2@@std@@@2@@2@PBD11@Z 0041de10 f   stlini.obj
 0001:0001cf40       ?insert@?$_Tree@V?$_Tmap_traits@V?$basic_string@DU?$char_traits@D@std@@V?$allocator@D@2@@std@@V12@UStlIniCompareStringNoCase@@V?$allocator@U?$pair@$$CBV?$basic_string@DU?$char_traits@D@std@@V?$allocator@D@2@@std@@V12@@std@@@2@$0A@@std@@@std@@QAE?AU?$pair@Viterator@?$_Tree@V?$_Tmap_traits@V?$basic_string@DU?$char_traits@D@std@@V?$allocator@D@2@@std@@V12@UStlIniCompareStringNoCase@@V?$allocator@U?$pair@$$CBV?$basic_string@DU?$char_traits@D@std@@V?$allocator@D@2@@std@@V12@@std@@@2@$0A@@std@@@std@@_N@2@ABU?$pair@$$CBV?$basic_string@DU?$char_traits@D@std@@V?$allocator@D@2@@std@@V12@@2@@Z 0041df40 f i stlini.obj
 0001:0001d030       ?_Copy@?$_Tree@V?$_Tmap_traits@V?$basic_string@DU?$char_traits@D@std@@V?$allocator@D@2@@std@@V12@UStlIniCompareStringNoCase@@V?$allocator@U?$pair@$$CBV?$basic_string@DU?$char_traits@D@std@@V?$allocator@D@2@@std@@V12@@std@@@2@$0A@@std@@@std@@IAEPAU_Node@?$_Tree_nod@V?$_Tmap_traits@V?$basic_string@DU?$char_traits@D@std@@V?$allocator@D@2@@std@@V12@UStlIniCompareStringNoCase@@V?$allocator@U?$pair@$$CBV?$basic_string@DU?$char_traits@D@std@@V?$allocator@D@2@@std@@V12@@std@@@2@$0A@@std@@@2@PAU342@0@Z 0041e030 f i stlini.obj
 0001:0001d0e0       ?_Copy@?$_Tree@V?$_Tmap_traits@V?$basic_string@DU?$char_traits@D@std@@V?$allocator@D@2@@std@@V12@UStlIniCompareStringNoCase@@V?$allocator@U?$pair@$$CBV?$basic_string@DU?$char_traits@D@std@@V?$allocator@D@2@@std@@V12@@std@@@2@$0A@@std@@@std@@IAEXABV12@@Z 0041e0e0 f i stlini.obj
 0001:0001d170       ??0?$_Tree@V?$_Tmap_traits@V?$basic_string@DU?$char_traits@D@std@@V?$allocator@D@2@@std@@V12@UStlIniCompareStringNoCase@@V?$allocator@U?$pair@$$CBV?$basic_string@DU?$char_traits@D@std@@V?$allocator@D@2@@std@@V12@@std@@@2@$0A@@std@@@std@@QAE@ABV01@@Z 0041e170 f i stlini.obj
 0001:0001d200       ??1?$pair@V?$basic_string@DU?$char_traits@D@std@@V?$allocator@D@2@@std@@V?$map@V?$basic_string@DU?$char_traits@D@std@@V?$allocator@D@2@@std@@V12@UStlIniCompareStringNoCase@@V?$allocator@U?$pair@$$CBV?$basic_string@DU?$char_traits@D@std@@V?$allocator@D@2@@std@@V12@@std@@@2@@2@@std@@QAE@XZ 0041e200 f i stlini.obj
 0001:0001d280       ??0?$pair@$$CBV?$basic_string@DU?$char_traits@D@std@@V?$allocator@D@2@@std@@V?$map@V?$basic_string@DU?$char_traits@D@std@@V?$allocator@D@2@@std@@V12@UStlIniCompareStringNoCase@@V?$allocator@U?$pair@$$CBV?$basic_string@DU?$char_traits@D@std@@V?$allocator@D@2@@std@@V12@@std@@@2@@2@@std@@QAE@ABU01@@Z 0041e280 f i stlini.obj
 0001:0001d280       ??$?0V?$basic_string@DU?$char_traits@D@std@@V?$allocator@D@2@@std@@V?$map@V?$basic_string@DU?$char_traits@D@std@@V?$allocator@D@2@@std@@V12@UStlIniCompareStringNoCase@@V?$allocator@U?$pair@$$CBV?$basic_string@DU?$char_traits@D@std@@V?$allocator@D@2@@std@@V12@@std@@@2@@1@@?$pair@$$CBV?$basic_string@DU?$char_traits@D@std@@V?$allocator@D@2@@std@@V?$map@V?$basic_string@DU?$char_traits@D@std@@V?$allocator@D@2@@std@@V12@UStlIniCompareStringNoCase@@V?$allocator@U?$pair@$$CBV?$basic_string@DU?$char_traits@D@std@@V?$allocator@D@2@@std@@V12@@std@@@2@@2@@std@@QAE@ABU?$pair@V?$basic_string@DU?$char_traits@D@std@@V?$allocator@D@2@@std@@V?$map@V?$basic_string@DU?$char_traits@D@std@@V?$allocator@D@2@@std@@V12@UStlIniCompareStringNoCase@@V?$allocator@U?$pair@$$CBV?$basic_string@DU?$char_traits@D@std@@V?$allocator@D@2@@std@@V12@@std@@@2@@2@@1@@Z 0041e280 f i stlini.obj
 0001:0001d2e0       ??0?$pair@V?$basic_string@DU?$char_traits@D@std@@V?$allocator@D@2@@std@@V?$map@V?$basic_string@DU?$char_traits@D@std@@V?$allocator@D@2@@std@@V12@UStlIniCompareStringNoCase@@V?$allocator@U?$pair@$$CBV?$basic_string@DU?$char_traits@D@std@@V?$allocator@D@2@@std@@V12@@std@@@2@@2@@std@@QAE@ABV?$basic_string@DU?$char_traits@D@std@@V?$allocator@D@2@@1@ABV?$map@V?$basic_string@DU?$char_traits@D@std@@V?$allocator@D@2@@std@@V12@UStlIniCompareStringNoCase@@V?$allocator@U?$pair@$$CBV?$basic_string@DU?$char_traits@D@std@@V?$allocator@D@2@@std@@V12@@std@@@2@@1@@Z 0041e2e0 f i stlini.obj
 0001:0001d340       ?_Buynode@?$_Tree@V?$_Tmap_traits@V?$basic_string@DU?$char_traits@D@std@@V?$allocator@D@2@@std@@V?$map@V?$basic_string@DU?$char_traits@D@std@@V?$allocator@D@2@@std@@V12@UStlIniCompareStringNoCase@@V?$allocator@U?$pair@$$CBV?$basic_string@DU?$char_traits@D@std@@V?$allocator@D@2@@std@@V12@@std@@@2@@2@UStlIniCompareStringNoCase@@V?$allocator@U?$pair@$$CBV?$basic_string@DU?$char_traits@D@std@@V?$allocator@D@2@@std@@V?$map@V?$basic_string@DU?$char_traits@D@std@@V?$allocator@D@2@@std@@V12@UStlIniCompareStringNoCase@@V?$allocator@U?$pair@$$CBV?$basic_string@DU?$char_traits@D@std@@V?$allocator@D@2@@std@@V12@@std@@@2@@2@@std@@@2@$0A@@std@@@std@@IAEPAU_Node@?$_Tree_nod@V?$_Tmap_traits@V?$basic_string@DU?$char_traits@D@std@@V?$allocator@D@2@@std@@V?$map@V?$basic_string@DU?$char_traits@D@std@@V?$allocator@D@2@@std@@V12@UStlIniCompareStringNoCase@@V?$allocator@U?$pair@$$CBV?$basic_string@DU?$char_traits@D@std@@V?$allocator@D@2@@std@@V12@@std@@@2@@2@UStlIniCompareStringNoCase@@V?$allocator@U?$pair@$$CBV?$basic_string@DU?$char_traits@D@std@@V?$allocator@D@2@@std@@V?$map@V?$basic_string@DU?$char_traits@D@std@@V?$allocator@D@2@@std@@V12@UStlIniCompareStringNoCase@@V?$allocator@U?$pair@$$CBV?$basic_string@DU?$char_traits@D@std@@V?$allocator@D@2@@std@@V12@@std@@@2@@2@@std@@@2@$0A@@std@@@2@PAU342@00ABU?$pair@$$CBV?$basic_string@DU?$char_traits@D@std@@V?$allocator@D@2@@std@@V?$map@V?$basic_string@DU?$char_traits@D@std@@V?$allocator@D@2@@std@@V12@UStlIniCompareStringNoCase@@V?$allocator@U?$pair@$$CBV?$basic_string@DU?$char_traits@D@std@@V?$allocator@D@2@@std@@V12@@std@@@2@@2@@2@D@Z 0041e340 f i stlini.obj
 0001:0001d3e0       ?_Insert@?$_Tree@V?$_Tmap_traits@V?$basic_string@DU?$char_traits@D@std@@V?$allocator@D@2@@std@@V?$map@V?$basic_string@DU?$char_traits@D@std@@V?$allocator@D@2@@std@@V12@UStlIniCompareStringNoCase@@V?$allocator@U?$pair@$$CBV?$basic_string@DU?$char_traits@D@std@@V?$allocator@D@2@@std@@V12@@std@@@2@@2@UStlIniCompareStringNoCase@@V?$allocator@U?$pair@$$CBV?$basic_string@DU?$char_traits@D@std@@V?$allocator@D@2@@std@@V?$map@V?$basic_string@DU?$char_traits@D@std@@V?$allocator@D@2@@std@@V12@UStlIniCompareStringNoCase@@V?$allocator@U?$pair@$$CBV?$basic_string@DU?$char_traits@D@std@@V?$allocator@D@2@@std@@V12@@std@@@2@@2@@std@@@2@$0A@@std@@@std@@IAE?AViterator@12@_NPAU_Node@?$_Tree_nod@V?$_Tmap_traits@V?$basic_string@DU?$char_traits@D@std@@V?$allocator@D@2@@std@@V?$map@V?$basic_string@DU?$char_traits@D@std@@V?$allocator@D@2@@std@@V12@UStlIniCompareStringNoCase@@V?$allocator@U?$pair@$$CBV?$basic_string@DU?$char_traits@D@std@@V?$allocator@D@2@@std@@V12@@std@@@2@@2@UStlIniCompareStringNoCase@@V?$allocator@U?$pair@$$CBV?$basic_string@DU?$char_traits@D@std@@V?$allocator@D@2@@std@@V?$map@V?$basic_string@DU?$char_traits@D@std@@V?$allocator@D@2@@std@@V12@UStlIniCompareStringNoCase@@V?$allocator@U?$pair@$$CBV?$basic_string@DU?$char_traits@D@std@@V?$allocator@D@2@@std@@V12@@std@@@2@@2@@std@@@2@$0A@@std@@@2@ABU?$pair@$$CBV?$basic_string@DU?$char_traits@D@std@@V?$allocator@D@2@@std@@V?$map@V?$basic_string@DU?$char_traits@D@std@@V?$allocator@D@2@@std@@V12@UStlIniCompareStringNoCase@@V?$allocator@U?$pair@$$CBV?$basic_string@DU?$char_traits@D@std@@V?$allocator@D@2@@std@@V12@@std@@@2@@2@@2@@Z 0041e3e0 f i stlini.obj
 0001:0001d5a0       ?insert@?$_Tree@V?$_Tmap_traits@V?$basic_string@DU?$char_traits@D@std@@V?$allocator@D@2@@std@@V?$map@V?$basic_string@DU?$char_traits@D@std@@V?$allocator@D@2@@std@@V12@UStlIniCompareStringNoCase@@V?$allocator@U?$pair@$$CBV?$basic_string@DU?$char_traits@D@std@@V?$allocator@D@2@@std@@V12@@std@@@2@@2@UStlIniCompareStringNoCase@@V?$allocator@U?$pair@$$CBV?$basic_string@DU?$char_traits@D@std@@V?$allocator@D@2@@std@@V?$map@V?$basic_string@DU?$char_traits@D@std@@V?$allocator@D@2@@std@@V12@UStlIniCompareStringNoCase@@V?$allocator@U?$pair@$$CBV?$basic_string@DU?$char_traits@D@std@@V?$allocator@D@2@@std@@V12@@std@@@2@@2@@std@@@2@$0A@@std@@@std@@QAE?AU?$pair@Viterator@?$_Tree@V?$_Tmap_traits@V?$basic_string@DU?$char_traits@D@std@@V?$allocator@D@2@@std@@V?$map@V?$basic_string@DU?$char_traits@D@std@@V?$allocator@D@2@@std@@V12@UStlIniCompareStringNoCase@@V?$allocator@U?$pair@$$CBV?$basic_string@DU?$char_traits@D@std@@V?$allocator@D@2@@std@@V12@@std@@@2@@2@UStlIniCompareStringNoCase@@V?$allocator@U?$pair@$$CBV?$basic_string@DU?$char_traits@D@std@@V?$allocator@D@2@@std@@V?$map@V?$basic_string@DU?$char_traits@D@std@@V?$allocator@D@2@@std@@V12@UStlIniCompareStringNoCase@@V?$allocator@U?$pair@$$CBV?$basic_string@DU?$char_traits@D@std@@V?$allocator@D@2@@std@@V12@@std@@@2@@2@@std@@@2@$0A@@std@@@std@@_N@2@ABU?$pair@$$CBV?$basic_string@DU?$char_traits@D@std@@V?$allocator@D@2@@std@@V?$map@V?$basic_string@DU?$char_traits@D@std@@V?$allocator@D@2@@std@@V12@UStlIniCompareStringNoCase@@V?$allocator@U?$pair@$$CBV?$basic_string@DU?$char_traits@D@std@@V?$allocator@D@2@@std@@V12@@std@@@2@@2@@2@@Z 0041e5a0 f i stlini.obj
 0001:0001d690       ?PutIniSetting@@YAXAAV?$map@V?$basic_string@DU?$char_traits@D@std@@V?$allocator@D@2@@std@@V?$map@V?$basic_string@DU?$char_traits@D@std@@V?$allocator@D@2@@std@@V12@UStlIniCompareStringNoCase@@V?$allocator@U?$pair@$$CBV?$basic_string@DU?$char_traits@D@std@@V?$allocator@D@2@@std@@V12@@std@@@2@@2@UStlIniCompareStringNoCase@@V?$allocator@U?$pair@$$CBV?$basic_string@DU?$char_traits@D@std@@V?$allocator@D@2@@std@@V?$map@V?$basic_string@DU?$char_traits@D@std@@V?$allocator@D@2@@std@@V12@UStlIniCompareStringNoCase@@V?$allocator@U?$pair@$$CBV?$basic_string@DU?$char_traits@D@std@@V?$allocator@D@2@@std@@V12@@std@@@2@@2@@std@@@2@@std@@PBD11@Z 0041e690 f   stlini.obj
 0001:0001da00       ?_Copy@?$_Tree@V?$_Tmap_traits@V?$basic_string@DU?$char_traits@D@std@@V?$allocator@D@2@@std@@V?$map@V?$basic_string@DU?$char_traits@D@std@@V?$allocator@D@2@@std@@V12@UStlIniCompareStringNoCase@@V?$allocator@U?$pair@$$CBV?$basic_string@DU?$char_traits@D@std@@V?$allocator@D@2@@std@@V12@@std@@@2@@2@UStlIniCompareStringNoCase@@V?$allocator@U?$pair@$$CBV?$basic_string@DU?$char_traits@D@std@@V?$allocator@D@2@@std@@V?$map@V?$basic_string@DU?$char_traits@D@std@@V?$allocator@D@2@@std@@V12@UStlIniCompareStringNoCase@@V?$allocator@U?$pair@$$CBV?$basic_string@DU?$char_traits@D@std@@V?$allocator@D@2@@std@@V12@@std@@@2@@2@@std@@@2@$0A@@std@@@std@@IAEPAU_Node@?$_Tree_nod@V?$_Tmap_traits@V?$basic_string@DU?$char_traits@D@std@@V?$allocator@D@2@@std@@V?$map@V?$basic_string@DU?$char_traits@D@std@@V?$allocator@D@2@@std@@V12@UStlIniCompareStringNoCase@@V?$allocator@U?$pair@$$CBV?$basic_string@DU?$char_traits@D@std@@V?$allocator@D@2@@std@@V12@@std@@@2@@2@UStlIniCompareStringNoCase@@V?$allocator@U?$pair@$$CBV?$basic_string@DU?$char_traits@D@std@@V?$allocator@D@2@@std@@V?$map@V?$basic_string@DU?$char_traits@D@std@@V?$allocator@D@2@@std@@V12@UStlIniCompareStringNoCase@@V?$allocator@U?$pair@$$CBV?$basic_string@DU?$char_traits@D@std@@V?$allocator@D@2@@std@@V12@@std@@@2@@2@@std@@@2@$0A@@std@@@2@PAU342@0@Z 0041ea00 f i stlini.obj
 0001:0001dab0       ?_Copy@?$_Tree@V?$_Tmap_traits@V?$basic_string@DU?$char_traits@D@std@@V?$allocator@D@2@@std@@V?$map@V?$basic_string@DU?$char_traits@D@std@@V?$allocator@D@2@@std@@V12@UStlIniCompareStringNoCase@@V?$allocator@U?$pair@$$CBV?$basic_string@DU?$char_traits@D@std@@V?$allocator@D@2@@std@@V12@@std@@@2@@2@UStlIniCompareStringNoCase@@V?$allocator@U?$pair@$$CBV?$basic_string@DU?$char_traits@D@std@@V?$allocator@D@2@@std@@V?$map@V?$basic_string@DU?$char_traits@D@std@@V?$allocator@D@2@@std@@V12@UStlIniCompareStringNoCase@@V?$allocator@U?$pair@$$CBV?$basic_string@DU?$char_traits@D@std@@V?$allocator@D@2@@std@@V12@@std@@@2@@2@@std@@@2@$0A@@std@@@std@@IAEXABV12@@Z 0041eab0 f i stlini.obj
 0001:0001db40       ??0?$_Tree@V?$_Tmap_traits@V?$basic_string@DU?$char_traits@D@std@@V?$allocator@D@2@@std@@V?$map@V?$basic_string@DU?$char_traits@D@std@@V?$allocator@D@2@@std@@V12@UStlIniCompareStringNoCase@@V?$allocator@U?$pair@$$CBV?$basic_string@DU?$char_traits@D@std@@V?$allocator@D@2@@std@@V12@@std@@@2@@2@UStlIniCompareStringNoCase@@V?$allocator@U?$pair@$$CBV?$basic_string@DU?$char_traits@D@std@@V?$allocator@D@2@@std@@V?$map@V?$basic_string@DU?$char_traits@D@std@@V?$allocator@D@2@@std@@V12@UStlIniCompareStringNoCase@@V?$allocator@U?$pair@$$CBV?$basic_string@DU?$char_traits@D@std@@V?$allocator@D@2@@std@@V12@@std@@@2@@2@@std@@@2@$0A@@std@@@std@@QAE@ABV01@@Z 0041eb40 f i stlini.obj
 0001:0001dbd0       ?LoadIni@@YA?AV?$map@V?$basic_string@DU?$char_traits@D@std@@V?$allocator@D@2@@std@@V?$map@V?$basic_string@DU?$char_traits@D@std@@V?$allocator@D@2@@std@@V12@UStlIniCompareStringNoCase@@V?$allocator@U?$pair@$$CBV?$basic_string@DU?$char_traits@D@std@@V?$allocator@D@2@@std@@V12@@std@@@2@@2@UStlIniCompareStringNoCase@@V?$allocator@U?$pair@$$CBV?$basic_string@DU?$char_traits@D@std@@V?$allocator@D@2@@std@@V?$map@V?$basic_string@DU?$char_traits@D@std@@V?$allocator@D@2@@std@@V12@UStlIniCompareStringNoCase@@V?$allocator@U?$pair@$$CBV?$basic_string@DU?$char_traits@D@std@@V?$allocator@D@2@@std@@V12@@std@@@2@@2@@std@@@2@@std@@PBD@Z 0041ebd0 f   stlini.obj
 0001:0001de70       ?CountNodes@?$sorttree@V?$hashelement@Vword@chen@@V12@@chen@@@chen@@AAEXPAV?$treenode@V?$hashelement@Vword@chen@@V12@@chen@@@2@AAK@Z 0041ee70 f i StringMap.obj
 0001:0001dea0       ?findnextnode@?$sorttree@V?$hashelement@Vword@chen@@V12@@chen@@@chen@@ABEPAV?$treenode@V?$hashelement@Vword@chen@@V12@@chen@@@2@AAV?$hashelement@Vword@chen@@V12@@2@AA_NPAV32@@Z 0041eea0 f i StringMap.obj
 0001:0001df10       ??1?$hashnode@Vword@chen@@V12@@chen@@QAE@XZ 0041ef10 f i StringMap.obj
 0001:0001dfc0       ?size@?$hashtable@Vword@chen@@V12@@chen@@QAEIXZ 0041efc0 f i StringMap.obj
 0001:0001e060       ?findnext@?$hashnode@Vword@chen@@V12@@chen@@QAE_NAAV?$hashelement@Vword@chen@@V12@@2@PAPAV32@@Z 0041f060 f i StringMap.obj
 0001:0001e110       ?findnext@?$hashtable@Vword@chen@@V12@@chen@@QAE_NAAViterator@12@@Z 0041f110 f i StringMap.obj
 0001:0001e1b0       ?clearnodes@?$hashtable@Vword@chen@@V12@@chen@@IAEXXZ 0041f1b0 f i StringMap.obj
 0001:0001e220       ?GetRawDataSize@StringMap@@UAEIXZ 0041f220 f   StringMap.obj
 0001:0001e2a0       ?GetRawData@StringMap@@UAEPADPADI@Z 0041f2a0 f   StringMap.obj
 0001:0001e3b0       ??0?$hashtable@Vword@chen@@V12@@chen@@QAE@H@Z 0041f3b0 f i StringMap.obj
 0001:0001e410       ??1?$hashtable@Vword@chen@@V12@@chen@@QAE@XZ 0041f410 f i StringMap.obj
 0001:0001e470       ??0StringMap@@QAE@XZ       0041f470 f   StringMap.obj
 0001:0001e4d0       ??1StringMap@@QAE@XZ       0041f4d0 f   StringMap.obj
 0001:0001e4e0       ?CreateObjectByRawData@StringMap@@UAEHPBDI@Z 0041f4e0 f   StringMap.obj
 0001:0001e660       ?GetTotalMinutes@TTimeSpan@chen@@QBEJXZ 0041f660 f i svdb.obj
 0001:0001e680       ?Format@TTime@chen@@QBE?AV?$basic_string@DU?$char_traits@D@std@@V?$allocator@D@2@@std@@XZ 0041f680 f i svdb.obj
 0001:0001e710       ?PutID@Entity@@QAEXVword@chen@@@Z 0041f710 f i svdb.obj
 0001:0001e710       ?PutID@Group@@QAEXVword@chen@@@Z 0041f710 f i svdb.obj
 0001:0001e770       ?PutID@Monitor@@QAEXVword@chen@@@Z 0041f770 f i svdb.obj
 0001:0001e7d0       ?GetNextSubID@SVSE@@QAE?AVword@chen@@XZ 0041f7d0 f i svdb.obj
 0001:0001e860       ?PutLabel@SVSE@@QAEXVword@chen@@@Z 0041f860 f i svdb.obj
 0001:0001e8c0       ?Run@@YA_NXZ               0041f8c0 f   svdb.obj
 0001:0001e940       ?hasrun@@YA_NXZ            0041f940 f   svdb.obj
 0001:0001e990       _main                      0041f990 f   svdb.obj
 0001:0001eb10       ??1_Node@?$_List_nod@V?$basic_string@DU?$char_traits@D@std@@V?$allocator@D@2@@std@@V?$allocator@V?$basic_string@DU?$char_traits@D@std@@V?$allocator@D@2@@std@@@2@@std@@QAE@XZ 0041fb10 f i svdb.obj
 0001:0001eb20       ?RomoveNode@?$sorttree@V?$hashelement@Vword@chen@@PAVSection@@@chen@@@chen@@QAEXABV?$hashelement@Vword@chen@@PAVSection@@@2@@Z 0041fb20 f i svdb.obj
 0001:0001eb20       ?RomoveNode@?$sorttree@V?$hashelement@Vword@chen@@PAVCommonData@@@chen@@@chen@@QAEXABV?$hashelement@Vword@chen@@PAVCommonData@@@2@@Z 0041fb20 f i svdb.obj
 0001:0001ecc0       ?_Buynode@?$list@V?$basic_string@DU?$char_traits@D@std@@V?$allocator@D@2@@std@@V?$allocator@V?$basic_string@DU?$char_traits@D@std@@V?$allocator@D@2@@std@@@2@@std@@IAEPAU_Node@?$_List_nod@V?$basic_string@DU?$char_traits@D@std@@V?$allocator@D@2@@std@@V?$allocator@V?$basic_string@DU?$char_traits@D@std@@V?$allocator@D@2@@std@@@2@@2@XZ 0041fcc0 f i svdb.obj
 0001:0001ece0       ?DeleteMonitorTemplet@MonitorTempletPool@@QAE_NH@Z 0041fce0 f i svdb.obj
 0001:0001ed40       ??0?$list@V?$basic_string@DU?$char_traits@D@std@@V?$allocator@D@2@@std@@V?$allocator@V?$basic_string@DU?$char_traits@D@std@@V?$allocator@D@2@@std@@@2@@std@@QAE@XZ 0041fd40 f i svdb.obj
 0001:0001ed60       ?clear@?$list@V?$basic_string@DU?$char_traits@D@std@@V?$allocator@D@2@@std@@V?$allocator@V?$basic_string@DU?$char_traits@D@std@@V?$allocator@D@2@@std@@@2@@std@@QAEXXZ 0041fd60 f i svdb.obj
 0001:0001eda0       ?erase@?$hashnode@Vword@chen@@PAVCommonData@@@chen@@QAE_NABVword@2@@Z 0041fda0 f i svdb.obj
 0001:0001eeb0       ?erase@?$hashnode@Vword@chen@@PAVSection@@@chen@@QAE_NABVword@2@@Z 0041feb0 f i svdb.obj
 0001:0001efc0       ?GetEntity@EntityPool@@QAEPAVEntity@@Vword@chen@@@Z 0041ffc0 f i svdb.obj
 0001:0001f060       ?Find@EntityPool@@QAE_NVword@chen@@@Z 00420060 f i svdb.obj
 0001:0001f0c0       ?DeleteSectionInSectionOrder@GeneralPool@@IAE_NVword@chen@@@Z 004200c0 f i svdb.obj
 0001:0001f1b0       ?erase@?$hashtable@Vword@chen@@PAVCommonData@@@chen@@QAE_NABVword@2@@Z 004201b0 f i svdb.obj
 0001:0001f250       ??1?$list@V?$basic_string@DU?$char_traits@D@std@@V?$allocator@D@2@@std@@V?$allocator@V?$basic_string@DU?$char_traits@D@std@@V?$allocator@D@2@@std@@@2@@std@@QAE@XZ 00420250 f i svdb.obj
 0001:0001f270       ?erase@?$hashtable@Vword@chen@@PAVSection@@@chen@@QAE_NABVword@2@@Z 00420270 f i svdb.obj
 0001:0001f310       ?ReplaceSectionInKeyOrder@Section@@IAE_NVword@chen@@0@Z 00420310 f i svdb.obj
 0001:0001f430       ?ReplaceSectionInSectionOrder@GeneralPool@@IAE_NVword@chen@@0@Z 00420430 f i svdb.obj
 0001:0001f550       ??0MonitorTempletPool@@QAE@Vword@chen@@@Z 00420550 f i svdb.obj
 0001:0001f620       ?EditKeyName@Section@@QAE_NVword@chen@@0@Z 00420620 f i svdb.obj
 0001:0001f790       ?EditSectionName@GeneralPool@@QAE_NVword@chen@@0@Z 00420790 f i svdb.obj
 0001:0001f940       ?EditKeyName@GeneralPool@@QAE_NVword@chen@@00@Z 00420940 f i svdb.obj
 0001:0001faa0       ??0Option@@QAE@XZ          00420aa0 f i SvdbMain.obj
 0001:0001fc30       ?Start@ThreadEx@@QAEHXZ    00420c30 f i SvdbMain.obj
 0001:0001fc50       ?Start@SvdbMain@@QAE_NXZ   00420c50 f   SvdbMain.obj
 0001:0001fc60       ?_Xlen@?$vector@PAV?$hashnode@Vword@chen@@PAVGeneralPool@@@chen@@V?$allocator@PAV?$hashnode@Vword@chen@@PAVGeneralPool@@@chen@@@std@@@std@@IBEXXZ 00420c60 f i SvdbMain.obj
 0001:0001fc60       ?_Xlen@?$vector@PAVSVSE@@V?$allocator@PAVSVSE@@@std@@@std@@IBEXXZ 00420c60 f i SvdbMain.obj
 0001:0001fce0       ?CountNodes@?$sorttree@V?$hashelement@Vword@chen@@PAVGeneralPool@@@chen@@@chen@@AAEXPAV?$treenode@V?$hashelement@Vword@chen@@PAVGeneralPool@@@chen@@@2@AAK@Z 00420ce0 f i SvdbMain.obj
 0001:0001fd10       ?DeleteTree@?$sorttree@V?$hashelement@Vword@chen@@PAVGeneralPool@@@chen@@@chen@@QAEXPAV?$treenode@V?$hashelement@Vword@chen@@PAVGeneralPool@@@chen@@@2@@Z 00420d10 f i SvdbMain.obj
 0001:0001fd60       ?findnextnode@?$sorttree@V?$hashelement@Vword@chen@@PAVGeneralPool@@@chen@@@chen@@ABEPAV?$treenode@V?$hashelement@Vword@chen@@PAVGeneralPool@@@chen@@@2@AAV?$hashelement@Vword@chen@@PAVGeneralPool@@@2@AA_NPAV32@@Z 00420d60 f i SvdbMain.obj
 0001:0001fdd0       ??_G?$sorttree@V?$hashelement@Vword@chen@@PAVGeneralPool@@@chen@@@chen@@UAEPAXI@Z 00420dd0 f i SvdbMain.obj
 0001:0001fdd0       ??_E?$sorttree@V?$hashelement@Vword@chen@@PAVGeneralPool@@@chen@@@chen@@UAEPAXI@Z 00420dd0 f i SvdbMain.obj
 0001:0001fe30       ??1?$hashnode@Vword@chen@@PAVGeneralPool@@@chen@@QAE@XZ 00420e30 f i SvdbMain.obj
 0001:0001fec0       ?_Ufill@?$vector@PAVSVSE@@V?$allocator@PAVSVSE@@@std@@@std@@IAEPAPAVSVSE@@PAPAV3@IABQAV3@@Z 00420ec0 f i SvdbMain.obj
 0001:0001fec0       ?_Ufill@?$vector@PAVDataType@@V?$allocator@PAVDataType@@@std@@@std@@IAEPAPAVDataType@@PAPAV3@IABQAV3@@Z 00420ec0 f i DB.obj
 0001:0001fec0       ?_Ufill@?$vector@PAV?$hashnode@Vword@chen@@V12@@chen@@V?$allocator@PAV?$hashnode@Vword@chen@@V12@@chen@@@std@@@std@@IAEPAPAV?$hashnode@Vword@chen@@V12@@chen@@PAPAV34@IABQAV34@@Z 00420ec0 f i MonitorTempletPool.obj
 0001:0001fec0       ?_Ufill@?$vector@PAV?$hashnode@Vword@chen@@PAVEntityTemplet@@@chen@@V?$allocator@PAV?$hashnode@Vword@chen@@PAVEntityTemplet@@@chen@@@std@@@std@@IAEPAPAV?$hashnode@Vword@chen@@PAVEntityTemplet@@@chen@@PAPAV34@IABQAV34@@Z 00420ec0 f i EntityTempletPool.obj
 0001:0001fec0       ?_Ufill@?$vector@PAV?$hashnode@Vword@chen@@PAVMonitor@@@chen@@V?$allocator@PAV?$hashnode@Vword@chen@@PAVMonitor@@@chen@@@std@@@std@@IAEPAPAV?$hashnode@Vword@chen@@PAVMonitor@@@chen@@PAPAV34@IABQAV34@@Z 00420ec0 f i MonitorPool.obj
 0001:0001fec0       ?_Ufill@?$vector@PAV?$hashnode@Vword@chen@@PAVQueue@@@chen@@V?$allocator@PAV?$hashnode@Vword@chen@@PAVQueue@@@chen@@@std@@@std@@IAEPAPAV?$hashnode@Vword@chen@@PAVQueue@@@chen@@PAPAV34@IABQAV34@@Z 00420ec0 f i DB.obj
 0001:0001fec0       ?_Ufill@?$vector@PAUSubPool@PagePool@@V?$allocator@PAUSubPool@PagePool@@@std@@@std@@IAEPAPAUSubPool@PagePool@@PAPAU34@IABQAU34@@Z 00420ec0 f i PagePool.obj
 0001:0001fec0       ?_Ufill@?$vector@PAV?$hashnode@Vword@chen@@PAVResource@@@chen@@V?$allocator@PAV?$hashnode@Vword@chen@@PAVResource@@@chen@@@std@@@std@@IAEPAPAV?$hashnode@Vword@chen@@PAVResource@@@chen@@PAPAV34@IABQAV34@@Z 00420ec0 f i ResourcePool.obj
 0001:0001fec0       ?_Ufill@?$vector@PAVPage@@V?$allocator@PAVPage@@@std@@@std@@IAEPAPAVPage@@PAPAV3@IABQAV3@@Z 00420ec0 f i PagePool.obj
 0001:0001fec0       ?_Ufill@?$vector@PAV?$hashnode@Vword@chen@@PAVCommonData@@@chen@@V?$allocator@PAV?$hashnode@Vword@chen@@PAVCommonData@@@chen@@@std@@@std@@IAEPAPAV?$hashnode@Vword@chen@@PAVCommonData@@@chen@@PAPAV34@IABQAV34@@Z 00420ec0 f i GeneralPool.obj
 0001:0001fec0       ?_Ufill@?$vector@PAVMonitorTemplet@@V?$allocator@PAVMonitorTemplet@@@std@@@std@@IAEPAPAVMonitorTemplet@@PAPAV3@IABQAV3@@Z 00420ec0 f i MonitorTempletPool.obj
 0001:0001fec0       ?_Ufill@?$vector@PAV?$hashnode@Vword@chen@@PAVEntityGroup@@@chen@@V?$allocator@PAV?$hashnode@Vword@chen@@PAVEntityGroup@@@chen@@@std@@@std@@IAEPAPAV?$hashnode@Vword@chen@@PAVEntityGroup@@@chen@@PAPAV34@IABQAV34@@Z 00420ec0 f i EntityGroupPool.obj
 0001:0001fec0       ?_Ufill@?$vector@PAV?$hashnode@Vword@chen@@PAVGeneralPool@@@chen@@V?$allocator@PAV?$hashnode@Vword@chen@@PAVGeneralPool@@@chen@@@std@@@std@@IAEPAPAV?$hashnode@Vword@chen@@PAVGeneralPool@@@chen@@PAPAV34@IABQAV34@@Z 00420ec0 f i SvdbMain.obj
 0001:0001fec0       ?_Ufill@?$vector@PAV?$hashnode@Vword@chen@@PAVGroup@@@chen@@V?$allocator@PAV?$hashnode@Vword@chen@@PAVGroup@@@chen@@@std@@@std@@IAEPAPAV?$hashnode@Vword@chen@@PAVGroup@@@chen@@PAPAV34@IABQAV34@@Z 00420ec0 f i GroupPool.obj
 0001:0001fec0       ?_Ufill@?$vector@PAV?$hashnode@Vword@chen@@PAVTable@@@chen@@V?$allocator@PAV?$hashnode@Vword@chen@@PAVTable@@@chen@@@std@@@std@@IAEPAPAV?$hashnode@Vword@chen@@PAVTable@@@chen@@PAPAV34@IABQAV34@@Z 00420ec0 f i DB.obj
 0001:0001fec0       ?_Ufill@?$vector@PAV?$hashnode@Vword@chen@@PAVSection@@@chen@@V?$allocator@PAV?$hashnode@Vword@chen@@PAVSection@@@chen@@@std@@@std@@IAEPAPAV?$hashnode@Vword@chen@@PAVSection@@@chen@@PAPAV34@IABQAV34@@Z 00420ec0 f i GeneralPool.obj
 0001:0001fec0       ?_Ufill@?$vector@PAV?$hashnode@Vword@chen@@PAVEntity@@@chen@@V?$allocator@PAV?$hashnode@Vword@chen@@PAVEntity@@@chen@@@std@@@std@@IAEPAPAV?$hashnode@Vword@chen@@PAVEntity@@@chen@@PAPAV34@IABQAV34@@Z 00420ec0 f i EntityPool.obj
 0001:0001fef0       ?InitSVSEPool@SVSEPool@@QAE_NXZ 00420ef0 f i SvdbMain.obj
 0001:0001ffb0       ?clearnodes@?$hashtable@Vword@chen@@PAVGeneralPool@@@chen@@IAEXXZ 00420fb0 f i SvdbMain.obj
 0001:00020020       ?findnext@?$hashnode@Vword@chen@@PAVGeneralPool@@@chen@@QAE_NAAV?$hashelement@Vword@chen@@PAVGeneralPool@@@2@PAPAV32@@Z 00421020 f i SvdbMain.obj
 0001:000200d0       ?_Insert_n@?$vector@PAV?$hashnode@Vword@chen@@PAVGeneralPool@@@chen@@V?$allocator@PAV?$hashnode@Vword@chen@@PAVGeneralPool@@@chen@@@std@@@std@@IAEXViterator@12@IABQAV?$hashnode@Vword@chen@@PAVGeneralPool@@@chen@@@Z 004210d0 f i SvdbMain.obj
 0001:000200d0       ?_Insert_n@?$vector@PAVSVSE@@V?$allocator@PAVSVSE@@@std@@@std@@IAEXViterator@12@IABQAVSVSE@@@Z 004210d0 f i SvdbMain.obj
 0001:000202c0       ??1?$hashtable@Vword@chen@@PAVGeneralPool@@@chen@@QAE@XZ 004212c0 f i SvdbMain.obj
 0001:00020320       ?findnext@?$hashtable@Vword@chen@@PAVGeneralPool@@@chen@@QAE_NAAViterator@12@@Z 00421320 f i SvdbMain.obj
 0001:000203c0       ?resize@?$vector@PAV?$hashnode@Vword@chen@@PAVGeneralPool@@@chen@@V?$allocator@PAV?$hashnode@Vword@chen@@PAVGeneralPool@@@chen@@@std@@@std@@QAEXIPAV?$hashnode@Vword@chen@@PAVGeneralPool@@@chen@@@Z 004213c0 f i SvdbMain.obj
 0001:000203c0       ?resize@?$vector@PAVSVSE@@V?$allocator@PAVSVSE@@@std@@@std@@QAEXIPAVSVSE@@@Z 004213c0 f i SvdbMain.obj
 0001:00020450       ??0?$hashtable@Vword@chen@@PAVGeneralPool@@@chen@@QAE@XZ 00421450 f i SvdbMain.obj
 0001:000204a0       ??0SVSEPool@@QAE@Vword@chen@@@Z 004214a0 f i SvdbMain.obj
 0001:00020570       ??0ResourcePool@@QAE@Vword@chen@@@Z 00421570 f i SvdbMain.obj
 0001:00020630       ??0SvdbMain@@QAE@XZ        00421630 f   SvdbMain.obj
 0001:000206c0       ?Init@SvdbMain@@QAE_NXZ    004216c0 f   SvdbMain.obj
 0001:00020de0       ?GetRawDataSize@SVSE@@UAEIXZ 00421de0 f   SVSE.obj
 0001:00020e50       ?GetRawData@SVSE@@UAEPADPADI@Z 00421e50 f   SVSE.obj
 0001:00020f80       ?CreateObjectByRawData@SVSE@@UAEHPBDI@Z 00421f80 f   SVSE.obj
 0001:000211a0       ??0SVSE@@QAE@XZ            004221a0 f   SVSE.obj
 0001:00021230       ??1SVSE@@QAE@XZ            00422230 f   SVSE.obj
 0001:00021290       ?Load@SVSEPool@@UAE_NXZ    00422290 f   SVSEPool.obj
 0001:00021390       ?Submit@SVSEPool@@UAE_NXZ  00422390 f   SVSEPool.obj
 0001:000214c0       ?Find@SVSEPool@@QAE_NI@Z   004224c0 f i SVSEPool.obj
 0001:000214f0       ?GetRawDataSize@SVSEPool@@UAEIXZ 004224f0 f   SVSEPool.obj
 0001:00021530       ?GetRawData@SVSEPool@@UAEPADPADI@Z 00422530 f   SVSEPool.obj
 0001:00021650       ?GetSVSEData@SVSEPool@@QAE_NIPADAAI@Z 00422650 f   SVSEPool.obj
 0001:000216d0       ?CreateObjectByRawData@SVSEPool@@UAEHPBDI@Z 004226d0 f   SVSEPool.obj
 0001:00021810       ?GetPreRecordPage@Table@@IAEPAVPage@@PAV2@@Z 00422810 f   Table.obj
 0001:00021890       ?GetNextPage@Table@@IAEPAVPage@@PAV2@@Z 00422890 f   Table.obj
 0001:000218c0       ?GetSingleRecord@Table@@IAEHPAVPage@@HPADH@Z 004228c0 f   Table.obj
 0001:00021a40       ?FreePage@Table@@IAE_NPAVPage@@@Z 00422a40 f   Table.obj
 0001:00021aa0       ?GetFreePage@Table@@IAEPAVPage@@XZ 00422aa0 f   Table.obj
 0001:00021ad0       ?BuildRecordType@Table@@QAE_NPADAAI@Z 00422ad0 f   Table.obj
 0001:00021b40       ??GTTime@chen@@QBE?AVTTimeSpan@1@V01@@Z 00422b40 f i Table.obj
 0001:00021b60       ?GetRawDataSize@Table@@IAEHXZ 00422b60 f   Table.obj
 0001:00021bc0       ?QueryRecordByCount@Table@@QAEHIAAVbuffer@chen@@HAAH@Z 00422bc0 f   Table.obj
 0001:00021e10       ?QueryRecordByTime@Table@@QAEHVTTime@chen@@0AAVbuffer@3@HAAH@Z 00422e10 f   Table.obj
 0001:00022080       ?QueryDyn@Table@@QAEHPADAAI@Z 00423080 f   Table.obj
 0001:00022170       ?GetAlertInfoData@Table@@QAE_NPADAAI@Z 00423170 f   Table.obj
 0001:000221a0       ?QueryDynNOStr@Table@@QAEHPADAAI@Z 004231a0 f   Table.obj
 0001:00022250       ?FlushData@Table@@QAE_NXZ  00423250 f   Table.obj
 0001:00022500       ?AppendRecord@Table@@QAEHPBDI@Z 00423500 f   Table.obj
 0001:000229e0       ?DeleteData@Table@@QAE_NXZ 004239e0 f   Table.obj
 0001:00022a20       ?FreePage@Table@@IAE_NPAVPage@@VTTime@chen@@@Z 00423a20 f   Table.obj
 0001:00022b60       ??0Table@@QAE@XZ           00423b60 f   Table.obj
 0001:00022c30       ??1Table@@QAE@XZ           00423c30 f   Table.obj
 0001:00022d10       ?DeleteData@Table@@QAE_NVTTime@chen@@@Z 00423d10 f   Table.obj
 0001:00022d50       ?CreateObjByPage@Table@@QAE_NPAVPage@@@Z 00423d50 f   Table.obj
 0001:00022fc0       ?SetNoDelay@MySocket@@QAE_N_N@Z 00423fc0 f i ThreadContrl.obj
 0001:00023020       ?_Incsize@?$list@PAVThreadEx@@V?$allocator@PAVThreadEx@@@std@@@std@@IAEXI@Z 00424020 f i ThreadContrl.obj
 0001:000230c0       ??0ThreadContrl@@QAE@XZ    004240c0 f   ThreadContrl.obj
 0001:00023130       ??1ThreadContrl@@QAE@XZ    00424130 f   ThreadContrl.obj
 0001:00023190       ?CreateNewThreads@ThreadContrl@@IAEHH@Z 00424190 f   ThreadContrl.obj
 0001:000232a0       ?AddToIdleThread@ThreadContrl@@QAEXPAVThreadEx@@@Z 004242a0 f   ThreadContrl.obj
 0001:00023330       ?GetIdleThread@ThreadContrl@@IAEPAVThreadEx@@XZ 00424330 f   ThreadContrl.obj
 0001:00023420       ?AddTask@ThreadContrl@@QAE_NPAX@Z 00424420 f   ThreadContrl.obj
 0001:00023480       ?AddSocketTask@ThreadContrl@@QAE_NI@Z 00424480 f   ThreadContrl.obj
 0001:000234e0       ?Init@ThreadContrl@@QAE_NPAVSvdbMain@@@Z 004244e0 f   ThreadContrl.obj
 0001:00023500       ??0ThreadEx@@QAE@XZ        00424500 f   ThreadEx.obj
 0001:00023530       ??1ThreadEx@@UAE@XZ        00424530 f   ThreadEx.obj
 0001:00023560       ??_GThreadEx@@UAEPAXI@Z    00424560 f i ThreadEx.obj
 0001:00023560       ??_EThreadEx@@UAEPAXI@Z    00424560 f i ThreadEx.obj
 0001:00023580       ?GetParentID@@YA?AVword@chen@@V12@@Z 00424580 f   util.obj
 0001:000236a0       ?IsTopID@@YA_NVword@chen@@@Z 004246a0 f   util.obj
 0001:00023740       ?GetTopID@@YA?AVword@chen@@V12@@Z 00424740 f   util.obj
 0001:00023860       ?MakeIDByIndex@@YA?AVword@chen@@V12@H@Z 00424860 f   util.obj
 0001:00023970       ?GetRootPath@@YA?AV?$basic_string@DU?$char_traits@D@std@@V?$allocator@D@2@@std@@XZ 00424970 f   util.obj
 0001:00023ba0       ?ConvertType@@YAHV?$basic_string@DU?$char_traits@D@std@@V?$allocator@D@2@@std@@@Z 00424ba0 f   util.obj
 0001:00023ca0       ?AddToErrorLog@@YAXV?$basic_string@DU?$char_traits@D@std@@V?$allocator@D@2@@std@@@Z 00424ca0 f   util.obj
 0001:00023e00       ?GetStrListRawDataSize@@YAIAAV?$list@V?$basic_string@DU?$char_traits@D@std@@V?$allocator@D@2@@std@@V?$allocator@V?$basic_string@DU?$char_traits@D@std@@V?$allocator@D@2@@std@@@2@@std@@@Z 00424e00 f   util.obj
 0001:00023e40       ?GetStrListRawData@@YAPADAAV?$list@V?$basic_string@DU?$char_traits@D@std@@V?$allocator@D@2@@std@@V?$allocator@V?$basic_string@DU?$char_traits@D@std@@V?$allocator@D@2@@std@@@2@@std@@PADI@Z 00424e40 f   util.obj
 0001:00023ef0       ??0WatchThread@@QAE@XZ     00424ef0 f   WatchThread.obj
 0001:00023f10       ?run@WatchThread@@UAEXXZ   00424f10 f   WatchThread.obj
 0001:00024090       ?Init@WatchThread@@QAE_NXZ 00425090 f   WatchThread.obj
 0001:00024120       ??1WatchThread@@UAE@XZ     00425120 f   WatchThread.obj
 0001:00024190       ??_GWatchThread@@UAEPAXI@Z 00425190 f i WatchThread.obj
 0001:00024190       ??_EWatchThread@@UAEPAXI@Z 00425190 f i WatchThread.obj
 0001:000241b0       ?zerobuf@buffer@chen@@QAEXXZ 004251b0 f i WorkThread.obj
 0001:000241d0       ?GetLabel@SVSE@@QAE?AVword@chen@@XZ 004251d0 f i WorkThread.obj
 0001:000241f0       ?GetNextSEID@SVSEPool@@QAEIXZ 004251f0 f i WorkThread.obj
 0001:00024220       ?GetNextMonitorID@Entity@@QAE?AVword@chen@@XZ 00425220 f i WorkThread.obj
 0001:00024220       ?GetNextSubID@Group@@QAE?AVword@chen@@XZ 00425220 f i WorkThread.obj
 0001:00024260       ??GTTime@chen@@QBE?AV01@VTTimeSpan@1@@Z 00425260 f i WorkThread.obj
 0001:00024280       ?WriteData@MySocket@@QAEIPBXIK@Z 00425280 f i WorkThread.obj
 0001:00024320       ?ReadData@MySocket@@QAEIPAXIDK@Z 00425320 f i WorkThread.obj
 0001:000243a0       ??0WorkThread@@QAE@PAVThreadContrl@@@Z 004253a0 f   WorkThread.obj
 0001:00024450       ??1WorkThread@@UAE@XZ      00425450 f   WorkThread.obj
 0001:000244d0       ?SocketSendBuf@WorkThread@@AAE_NXZ 004254d0 f   WorkThread.obj
 0001:00024520       ?SendBuf@WorkThread@@AAE_NXZ 00425520 f   WorkThread.obj
 0001:000245c0       ?ReadBuf@WorkThread@@AAE_NH@Z 004255c0 f   WorkThread.obj
 0001:00024680       ?CheckIOEnd@WorkThread@@AAE_NXZ 00425680 f   WorkThread.obj
 0001:00024700       ?NotiyDBRecord@WorkThread@@AAE_NV?$basic_string@DU?$char_traits@D@std@@V?$allocator@D@2@@std@@AAVbuffer@chen@@I@Z 00425700 f   WorkThread.obj
 0001:000248f0       ?NotifyChange@WorkThread@@AAE_NV?$basic_string@DU?$char_traits@D@std@@V?$allocator@D@2@@std@@00@Z 004258f0 f   WorkThread.obj
 0001:00024d50       ?NotifyIniChangeToQueue@WorkThread@@AAE_NV?$basic_string@DU?$char_traits@D@std@@V?$allocator@D@2@@std@@000@Z 00425d50 f   WorkThread.obj
 0001:00025190       ??0?$hashelement@Vword@chen@@PAVGeneralPool@@@chen@@QAE@ABVword@1@@Z 00426190 f i WorkThread.obj
 0001:000251f0       ??1?$treenode@V?$hashelement@Vword@chen@@PAVGeneralPool@@@chen@@@chen@@UAE@XZ 004261f0 f i WorkThread.obj
 0001:00025210       ??_E?$treenode@V?$hashelement@Vword@chen@@PAVGeneralPool@@@chen@@@chen@@UAEPAXI@Z 00426210 f i WorkThread.obj
 0001:00025210       ??_G?$treenode@V?$hashelement@Vword@chen@@PAVGeneralPool@@@chen@@@chen@@UAEPAXI@Z 00426210 f i WorkThread.obj
 0001:00025230       ??0?$hashelement@Vword@chen@@PAVGeneralPool@@@chen@@QAE@ABVword@1@ABQAVGeneralPool@@@Z 00426230 f i WorkThread.obj
 0001:000252a0       ??M?$treenode@V?$hashelement@Vword@chen@@PAVGeneralPool@@@chen@@@chen@@QAE_NV01@@Z 004262a0 f i WorkThread.obj
 0001:00025310       ??O?$treenode@V?$hashelement@Vword@chen@@PAVGeneralPool@@@chen@@@chen@@QAE_NV01@@Z 00426310 f i WorkThread.obj
 0001:00025380       ??0?$treenode@V?$hashelement@Vword@chen@@PAVGeneralPool@@@chen@@@chen@@QAE@ABV01@@Z 00426380 f i WorkThread.obj
 0001:00025400       ??0?$treenode@V?$hashelement@Vword@chen@@PAVGeneralPool@@@chen@@@chen@@QAE@ABV?$hashelement@Vword@chen@@PAVGeneralPool@@@1@@Z 00426400 f i WorkThread.obj
 0001:00025480       ??_EWorkThread@@UAEPAXI@Z  00426480 f i WorkThread.obj
 0001:00025480       ??_GWorkThread@@UAEPAXI@Z  00426480 f i WorkThread.obj
 0001:000254a0       ?RomoveNode@?$sorttree@V?$hashelement@Vword@chen@@PAVEntityGroup@@@chen@@@chen@@QAEXABV?$hashelement@Vword@chen@@PAVEntityGroup@@@2@@Z 004264a0 f i WorkThread.obj
 0001:000254a0       ?RomoveNode@?$sorttree@V?$hashelement@Vword@chen@@PAVEntityTemplet@@@chen@@@chen@@QAEXABV?$hashelement@Vword@chen@@PAVEntityTemplet@@@2@@Z 004264a0 f i WorkThread.obj
 0001:000254a0       ?RomoveNode@?$sorttree@V?$hashelement@Vword@chen@@PAVGeneralPool@@@chen@@@chen@@QAEXABV?$hashelement@Vword@chen@@PAVGeneralPool@@@2@@Z 004264a0 f i WorkThread.obj
 0001:00025640       ?InsertNode@?$sorttree@V?$hashelement@Vword@chen@@PAVGeneralPool@@@chen@@@chen@@QAEXPAV?$treenode@V?$hashelement@Vword@chen@@PAVGeneralPool@@@chen@@@2@0@Z 00426640 f i WorkThread.obj
 0001:000256d0       ??$CreateNode@V?$hashelement@Vword@chen@@PAVGeneralPool@@@chen@@@?$sorttree@V?$hashelement@Vword@chen@@PAVGeneralPool@@@chen@@@chen@@SAPAV?$treenode@V?$hashelement@Vword@chen@@PAVGeneralPool@@@chen@@@1@ABV?$hashelement@Vword@chen@@PAVGeneralPool@@@1@@Z 004266d0 f i WorkThread.obj
 0001:00025730       ?find@?$hashnode@Vword@chen@@PAVGeneralPool@@@chen@@QAE_NABVword@2@PAPAV?$hashelement@Vword@chen@@PAVGeneralPool@@@2@@Z 00426730 f i WorkThread.obj
 0001:00025800       ?InsertNodeEx@?$sorttree@V?$hashelement@Vword@chen@@PAVGeneralPool@@@chen@@@chen@@QAEAAV?$hashelement@Vword@chen@@PAVGeneralPool@@@2@ABV32@@Z 00426800 f i WorkThread.obj
 0001:00025890       ?find@?$hashnode@Vword@chen@@PAVGeneralPool@@@chen@@QAE_NABVword@2@PAPAPAVGeneralPool@@@Z 00426890 f i WorkThread.obj
 0001:000258f0       ?insert@?$hashnode@Vword@chen@@PAVGeneralPool@@@chen@@QAEAAV?$hashelement@Vword@chen@@PAVGeneralPool@@@2@ABVword@2@ABQAVGeneralPool@@@Z 004268f0 f i WorkThread.obj
 0001:000259d0       ?GetNextSubID@SVSEPool@@QAE?AVword@chen@@I@Z 004269d0 f i WorkThread.obj
 0001:00025a70       ?DeleteSVSED@SVSEPool@@QAE_NI@Z 00426a70 f i WorkThread.obj
 0001:00025ad0       ?size@?$hashtable@Vword@chen@@PAVGeneralPool@@@chen@@QAEIXZ 00426ad0 f i WorkThread.obj
 0001:00025b70       ?find@?$hashtable@Vword@chen@@PAVGeneralPool@@@chen@@QAEPAPAVGeneralPool@@ABVword@2@@Z 00426b70 f i WorkThread.obj
 0001:00025be0       ?erase@?$hashnode@Vword@chen@@PAVEntityGroup@@@chen@@QAE_NABVword@2@@Z 00426be0 f i WorkThread.obj
 0001:00025cf0       ?erase@?$hashnode@Vword@chen@@PAVEntityTemplet@@@chen@@QAE_NABVword@2@@Z 00426cf0 f i WorkThread.obj
 0001:00025e00       ?erase@?$hashnode@Vword@chen@@PAVGeneralPool@@@chen@@QAE_NABVword@2@@Z 00426e00 f i WorkThread.obj
 0001:00025f10       ?DeleteSubGroupID@SVSE@@QAE_NVword@chen@@@Z 00426f10 f i WorkThread.obj
 0001:00026000       ?DeleteSubEntityID@SVSE@@QAE_NVword@chen@@@Z 00427000 f i WorkThread.obj
 0001:000260f0       ?PutSubGroup@SVSEPool@@QAE_NIVword@chen@@@Z 004270f0 f i WorkThread.obj
 0001:00026200       ?PutSubEntity@SVSEPool@@QAE_NIVword@chen@@@Z 00427200 f i WorkThread.obj
 0001:00026310       ?DeleteSubEntityID@SVSEPool@@QAE_NVword@chen@@@Z 00427310 f i WorkThread.obj
 0001:000264a0       ?DeleteSubGroupID@SVSEPool@@QAE_NVword@chen@@@Z 004274a0 f i WorkThread.obj
 0001:00026630       ?GetResourceData@ResourcePool@@QAE_NVword@chen@@PADAAI@Z 00427630 f i WorkThread.obj
 0001:00026720       ?DeleteSubEntityID@Group@@QAE_NVword@chen@@@Z 00427720 f i WorkThread.obj
 0001:00026810       ?DeleteSubGroupID@Group@@QAE_NVword@chen@@@Z 00427810 f i WorkThread.obj
 0001:00026810       ?DeleteSubMonitorID@Entity@@QAE_NVword@chen@@@Z 00427810 f i WorkThread.obj
 0001:00026900       ?GetGroup@GroupPool@@QAEPAVGroup@@Vword@chen@@@Z 00427900 f i WorkThread.obj
 0001:000269a0       ?GetNextSubID@GroupPool@@QAE?AVword@chen@@V23@@Z 004279a0 f i WorkThread.obj
 0001:00026a70       ?PutSubGroup@GroupPool@@QAE_NVword@chen@@0@Z 00427a70 f i WorkThread.obj
 0001:00026bb0       ?PutSubEntity@GroupPool@@QAE_NVword@chen@@0@Z 00427bb0 f i WorkThread.obj
 0001:00026cf0       ?Find@GroupPool@@QAE_NVword@chen@@@Z 00427cf0 f i WorkThread.obj
 0001:00026d50       ?DeleteSubEntityID@GroupPool@@QAE_NVword@chen@@@Z 00427d50 f i WorkThread.obj
 0001:00026e90       ?DeleteSubGroupID@GroupPool@@QAE_NVword@chen@@@Z 00427e90 f i WorkThread.obj
 0001:00026fd0       ?GetNextSubID@EntityPool@@QAE?AVword@chen@@V23@@Z 00427fd0 f i WorkThread.obj
 0001:000270a0       ?PutSubMonitor@EntityPool@@QAE_NVword@chen@@0@Z 004280a0 f i WorkThread.obj
 0001:000271e0       ?DeleteSubMonitorID@EntityPool@@QAE_NVword@chen@@@Z 004281e0 f i WorkThread.obj
 0001:00027320       ?GetEntityGroup@EntityGroupPool@@QAE_NVword@chen@@PADAAI@Z 00428320 f i WorkThread.obj
 0001:00027410       ?GetEntityTemplet@EntityTempletPool@@QAE_NVword@chen@@PADAAI@Z 00428410 f i WorkThread.obj
 0001:00027500       ?erase@?$hashtable@Vword@chen@@PAVEntityGroup@@@chen@@QAE_NABVword@2@@Z 00428500 f i WorkThread.obj
 0001:000275a0       ?erase@?$hashtable@Vword@chen@@PAVEntityTemplet@@@chen@@QAE_NABVword@2@@Z 004285a0 f i WorkThread.obj
 0001:00027640       ?erase@?$hashtable@Vword@chen@@PAVGeneralPool@@@chen@@QAE_NABVword@2@@Z 00428640 f i WorkThread.obj
 0001:000276e0       ?push@SVSEPool@@QAE_NPAVSVSE@@@Z 004286e0 f i WorkThread.obj
 0001:000277f0       ?PushData@SVSEPool@@QAE_NPBDI@Z 004287f0 f i WorkThread.obj
 0001:000278c0       ?Delete@Section@@QAE_NVword@chen@@@Z 004288c0 f i WorkThread.obj
 0001:000279b0       ?DeleteKey@GeneralPool@@QAE_NVword@chen@@0@Z 004289b0 f i WorkThread.obj
 0001:00027ad0       ?DeleteSection@GeneralPool@@QAE_NVword@chen@@@Z 00428ad0 f i WorkThread.obj
 0001:00027be0       ?DeleteEntityGroup@EntityGroupPool@@QAE_NVword@chen@@@Z 00428be0 f i WorkThread.obj
 0001:00027cd0       ?DeleteEntityTemplet@EntityTempletPool@@QAE_NVword@chen@@@Z 00428cd0 f i WorkThread.obj
 0001:00027dc0       ?insert@?$hashtable@Vword@chen@@PAVGeneralPool@@@chen@@QAEAAPAVGeneralPool@@ABVword@2@ABQAV3@@Z 00428dc0 f i WorkThread.obj
 0001:00027eb0       ?ProcessMonitorTemplet@WorkThread@@IAEXXZ 00428eb0 f   WorkThread.obj
 0001:00028190       ?ProcessDBQuery@WorkThread@@IAEXXZ 00429190 f   WorkThread.obj
 0001:000287c0       ?ProcessQueueQuery@WorkThread@@IAEXXZ 004297c0 f   WorkThread.obj
 0001:00028cf0       ??A?$hashtable@Vword@chen@@PAVGeneralPool@@@chen@@QAEAAPAVGeneralPool@@ABVword@1@@Z 00429cf0 f i WorkThread.obj
 0001:00028d20       ?GetInfo@MonitorPool@@QAE_NVword@chen@@AAVStringMap@@@Z 00429d20 f i WorkThread.obj
 0001:00028e60       ?GetInfoBySE@MonitorPool@@QAE_NHVword@chen@@AAVStringMap@@@Z 00429e60 f i WorkThread.obj
 0001:00029030       ?GetInfo@SVSEPool@@QAE_NVword@chen@@AAVStringMap@@@Z 0042a030 f i WorkThread.obj
 0001:00029190       ?GetInfo@ResourcePool@@QAE_NVword@chen@@AAVStringMap@@@Z 0042a190 f i WorkThread.obj
 0001:00029270       ?GetInfo@GroupPool@@QAE_NVword@chen@@AAVStringMap@@@Z 0042a270 f i WorkThread.obj
 0001:000293b0       ?GetInfo@EntityPool@@QAE_NVword@chen@@AAVStringMap@@@Z 0042a3b0 f i WorkThread.obj
 0001:000294f0       ?GetSection@GeneralPool@@QAE_NVword@chen@@PADAAI@Z 0042a4f0 f i WorkThread.obj
 0001:00029600       ?Push@GeneralPool@@QAE_NPAVSection@@@Z 0042a600 f i WorkThread.obj
 0001:000297c0       ?Push@GeneralPool@@QAE_NPBDIAAV?$basic_string@DU?$char_traits@D@std@@V?$allocator@D@2@@std@@@Z 0042a7c0 f i WorkThread.obj
 0001:00029900       ?GetInfo@EntityGroupPool@@QAE_NVword@chen@@AAVStringMap@@@Z 0042a900 f i WorkThread.obj
 0001:00029a40       ?GetInfo@EntityTempletPool@@QAE_NVword@chen@@AAVStringMap@@@Z 0042aa40 f i WorkThread.obj
 0001:00029b80       ?ProcessMonitor@WorkThread@@IAEXXZ 0042ab80 f   WorkThread.obj
 0001:0002a220       ?ProcessGroup@WorkThread@@IAEXXZ 0042b220 f   WorkThread.obj
 0001:0002a950       ?ProcessEntity@WorkThread@@IAEXXZ 0042b950 f   WorkThread.obj
 0001:0002b0d0       ?ProcessResource@WorkThread@@IAEXXZ 0042c0d0 f   WorkThread.obj
 0001:0002b460       ?ProcessSVSE@WorkThread@@IAEXXZ 0042c460 f   WorkThread.obj
 0001:0002b850       ?ProcessTask@WorkThread@@IAEXXZ 0042c850 f   WorkThread.obj
 0001:0002be50       ?ProcessIniFile@WorkThread@@IAEXXZ 0042ce50 f   WorkThread.obj
 0001:0002cf20       ?ProcessEntityGroup@WorkThread@@IAEXXZ 0042df20 f   WorkThread.obj
 0001:0002d200       ?ProcessEntityTemplet@WorkThread@@IAEXXZ 0042e200 f   WorkThread.obj
 0001:0002d4e0       ?ParseQuery@WorkThread@@IAEXXZ 0042e4e0 f   WorkThread.obj
 0001:0002d580       ?RunByPipe@WorkThread@@IAEXXZ 0042e580 f   WorkThread.obj
 0001:0002d6c0       ?RunBySocket@WorkThread@@IAEXXZ 0042e6c0 f   WorkThread.obj
 0001:0002d7c0       ?run@WorkThread@@UAEXXZ    0042e7c0 f   WorkThread.obj
 0001:0002d8d0       ??0word@chen@@QAE@PBD@Z    0042e8d0 f   libutil:strkey.obj
 0001:0002d910       ??0word@chen@@QAE@ABV01@@Z 0042e910 f   libutil:strkey.obj
 0001:0002d950       ??0word@chen@@QAE@ABV?$basic_string@DU?$char_traits@D@std@@V?$allocator@D@2@@std@@@Z 0042e950 f   libutil:strkey.obj
 0001:0002d9a0       ??4word@chen@@QAEAAV01@PBD@Z 0042e9a0 f   libutil:strkey.obj
 0001:0002d9f0       ??4word@chen@@QAEAAV01@ABV01@@Z 0042e9f0 f   libutil:strkey.obj
 0001:0002da40       ??8word@chen@@QBE_NABV01@@Z 0042ea40 f   libutil:strkey.obj
 0001:0002dab0       ??Mword@chen@@QBE_NABV01@@Z 0042eab0 f   libutil:strkey.obj
 0001:0002db30       ??Oword@chen@@QBE_NABV01@@Z 0042eb30 f   libutil:strkey.obj
 0001:0002dbb0       ??0buffer@chen@@QAE@XZ     0042ebb0 f   libutil:buffer.obj
 0001:0002dbc0       ??1buffer@chen@@QAE@XZ     0042ebc0 f   libutil:buffer.obj
 0001:0002dbd0       ?checksize@buffer@chen@@QAE_NI@Z 0042ebd0 f   libutil:buffer.obj
 0001:0002dc30       ?clearbuffer@buffer@chen@@QAEXXZ 0042ec30 f   libutil:buffer.obj
 0001:0002dc60       ?resetsize@buffer@chen@@QAE_NI@Z 0042ec60 f   libutil:buffer.obj
 0001:0002dcdc       ?isPending@Socket@ost@@UAE_NW4Pending@12@K@Z 0042ecdc f   ccgnu2:ccgnu2.dll
 0001:0002dce2       ?writeData@Socket@ost@@MAEHPBXIK@Z 0042ece2 f   ccgnu2:ccgnu2.dll
 0001:0002dce8       ?readData@Socket@ost@@MAEHPAXIDK@Z 0042ece8 f   ccgnu2:ccgnu2.dll
 0001:0002dcee       ?notify@Thread@ost@@MAEXPAV12@@Z 0042ecee f   ccgnu2:ccgnu2.dll
 0001:0002dcf4       ?getExtended@Thread@ost@@MAEPAXXZ 0042ecf4 f   ccgnu2:ccgnu2.dll
 0001:0002dcfa       ?initial@Thread@ost@@MAEXXZ 0042ecfa f   ccgnu2:ccgnu2.dll
 0001:0002dd00       ?final@Thread@ost@@MAEXXZ  0042ed00 f   ccgnu2:ccgnu2.dll
 0001:0002dd06       ??2@YAPAXI@Z               0042ed06 f   msvcprt:newop_s.obj
 0001:0002dd2b       ??_U@YAPAXI@Z              0042ed2b f   msvcprt:newaop_s.obj
 0001:0002dd30       ___CxxFrameHandler         0042ed30 f   MSVCRT:MSVCR71.dll
 0001:0002dd40       ??3@YAXPAX@Z               0042ed40 f   MSVCRT:MSVCR71.dll
 0001:0002dd46       ??0exception@@QAE@ABV0@@Z  0042ed46 f   MSVCRT:MSVCR71.dll
 0001:0002dd4c       ??_Etype_info@@UAEPAXI@Z   0042ed4c f i MSVCRT:ti_inst.obj
 0001:0002dd98       __CxxThrowException@8      0042ed98 f   MSVCRT:MSVCR71.dll
 0001:0002ddcf       @__security_check_cookie@4 0042edcf f   MSVCRT:secchk.obj
 0001:0002ddde       __purecall                 0042edde f   MSVCRT:MSVCR71.dll
 0001:0002dde4       ??_V@YAXPAX@Z              0042ede4 f   MSVCRT:MSVCR71.dll
 0001:0002ddea       ?__ArrayUnwind@@YGXPAXIHP6EX0@Z@Z 0042edea f   MSVCRT:ehvecdtr.obj
 0001:0002de48       ??_M@YGXPAXIHP6EX0@Z@Z     0042ee48 f   MSVCRT:ehvecdtr.obj
 0001:0002dea8       ??_L@YGXPAXIHP6EX0@Z1@Z    0042eea8 f   MSVCRT:ehvecctr.obj
 0001:0002df10       __alloca_probe             0042ef10     MSVCRT:chkstk.obj
 0001:0002df10       __chkstk                   0042ef10 f   MSVCRT:chkstk.obj
 0001:0002df4d       __onexit                   0042ef4d f   MSVCRT:atonexit.obj
 0001:0002df73       _atexit                    0042ef73 f   MSVCRT:atonexit.obj
 0001:0002df85       _mainCRTStartup            0042ef85 f   MSVCRT:crtexe.obj
 0001:0002e11e       _malloc                    0042f11e f   MSVCRT:MSVCR71.dll
 0001:0002e124       __callnewh                 0042f124 f   MSVCRT:MSVCR71.dll
 0001:0002e12a       ??1type_info@@UAE@XZ       0042f12a f   MSVCRT:MSVCR71.dll
 0001:0002e130       ___security_init_cookie    0042f130 f   MSVCRT:seccinit.obj
 0001:0002e196       ___security_error_handler  0042f196 f   MSVCRT:MSVCR71.dll
 0001:0002e19c       __SEH_prolog               0042f19c f   MSVCRT:sehprolg.obj
 0001:0002e1d7       __SEH_epilog               0042f1d7 f   MSVCRT:sehprolg.obj
 0001:0002e1e8       __except_handler3          0042f1e8 f   MSVCRT:MSVCR71.dll
 0001:0002e1ee       ?terminate@@YAXXZ          0042f1ee f   MSVCRT:MSVCR71.dll
 0001:0002e1f4       ___dllonexit               0042f1f4 f   MSVCRT:MSVCR71.dll
 0001:0002e1fa       __XcptFilter               0042f1fa f   MSVCRT:MSVCR71.dll
 0001:0002e200       __amsg_exit                0042f200 f   MSVCRT:MSVCR71.dll
 0001:0002e206       __RTC_Initialize           0042f206 f   MSVCRT:initsect.obj
 0001:0002e24a       __RTC_Terminate            0042f24a f   MSVCRT:initsect.obj
 0001:0002e28e       __initterm                 0042f28e f   MSVCRT:MSVCR71.dll
 0001:0002e294       __setdefaultprecision      0042f294 f   MSVCRT:fp8.obj
 0001:0002e2a6       __matherr                  0042f2a6 f   MSVCRT:merr.obj
 0001:0002e2a6       __setargv                  0042f2a6 f   MSVCRT:dllargv.obj
 0001:0002e2aa       __controlfp                0042f2aa f   MSVCRT:MSVCR71.dll
 0002:00000000       __imp__CreateServiceA@52   00433000     advapi32:ADVAPI32.dll
 0002:00000004       __imp__OpenSCManagerA@12   00433004     advapi32:ADVAPI32.dll
 0002:00000008       __imp__DeleteService@4     00433008     advapi32:ADVAPI32.dll
 0002:0000000c       __imp__OpenServiceA@12     0043300c     advapi32:ADVAPI32.dll
 0002:00000010       __imp__RegOpenKeyExA@20    00433010     advapi32:ADVAPI32.dll
 0002:00000014       __imp__RegEnumValueA@32    00433014     advapi32:ADVAPI32.dll
 0002:00000018       __imp__RegCloseKey@4       00433018     advapi32:ADVAPI32.dll
 0002:0000001c       __imp__StartServiceCtrlDispatcherA@4 0043301c     advapi32:ADVAPI32.dll
 0002:00000020       __imp__RegisterServiceCtrlHandlerA@8 00433020     advapi32:ADVAPI32.dll
 0002:00000024       __imp__SetServiceStatus@8  00433024     advapi32:ADVAPI32.dll
 0002:00000028       \177ADVAPI32_NULL_THUNK_DATA 00433028     advapi32:ADVAPI32.dll
 0002:0000002c       __imp__QueryPerformanceCounter@4 0043302c     kernel32:KERNEL32.dll
 0002:00000030       __imp__GetCurrentThreadId@0 00433030     kernel32:KERNEL32.dll
 0002:00000034       __imp__GetModuleHandleA@4  00433034     kernel32:KERNEL32.dll
 0002:00000038       __imp__ExitProcess@4       00433038     kernel32:KERNEL32.dll
 0002:0000003c       __imp__PeekNamedPipe@24    0043303c     kernel32:KERNEL32.dll
 0002:00000040       __imp__CreateNamedPipeA@32 00433040     kernel32:KERNEL32.dll
 0002:00000044       __imp__ConnectNamedPipe@8  00433044     kernel32:KERNEL32.dll
 0002:00000048       __imp__DisconnectNamedPipe@4 00433048     kernel32:KERNEL32.dll
 0002:0000004c       __imp__CreateEventA@16     0043304c     kernel32:KERNEL32.dll
 0002:00000050       __imp__SetLastError@4      00433050     kernel32:KERNEL32.dll
 0002:00000054       __imp__GetTickCount@0      00433054     kernel32:KERNEL32.dll
 0002:00000058       __imp__GetCurrentProcess@0 00433058     kernel32:KERNEL32.dll
 0002:0000005c       __imp__GetPriorityClass@4  0043305c     kernel32:KERNEL32.dll
 0002:00000060       __imp__SetPriorityClass@8  00433060     kernel32:KERNEL32.dll
 0002:00000064       __imp__GetCurrentThread@0  00433064     kernel32:KERNEL32.dll
 0002:00000068       __imp__SetThreadPriority@8 00433068     kernel32:KERNEL32.dll
 0002:0000006c       __imp__WaitForSingleObject@8 0043306c     kernel32:KERNEL32.dll
 0002:00000070       __imp__CreateThread@24     00433070     kernel32:KERNEL32.dll
 0002:00000074       __imp__GetCurrentProcessId@0 00433074     kernel32:KERNEL32.dll
 0002:00000078       __imp__CreateProcessA@40   00433078     kernel32:KERNEL32.dll
 0002:0000007c       __imp__Sleep@4             0043307c     kernel32:KERNEL32.dll
 0002:00000080       __imp__SetEndOfFile@4      00433080     kernel32:KERNEL32.dll
 0002:00000084       __imp__CreateFileA@28      00433084     kernel32:KERNEL32.dll
 0002:00000088       __imp__FlushFileBuffers@4  00433088     kernel32:KERNEL32.dll
 0002:0000008c       __imp__CloseHandle@4       0043308c     kernel32:KERNEL32.dll
 0002:00000090       __imp__WriteFile@20        00433090     kernel32:KERNEL32.dll
 0002:00000094       __imp__SetFilePointer@16   00433094     kernel32:KERNEL32.dll
 0002:00000098       __imp__ReadFile@20         00433098     kernel32:KERNEL32.dll
 0002:0000009c       __imp__GetLastError@0      0043309c     kernel32:KERNEL32.dll
 0002:000000a0       __imp__GetSystemTimeAsFileTime@4 004330a0     kernel32:KERNEL32.dll
 0002:000000a4       \177KERNEL32_NULL_THUNK_DATA 004330a4     kernel32:KERNEL32.dll
 0002:000000a8       __imp_?erase@?$basic_string@DU?$char_traits@D@std@@V?$allocator@D@2@@std@@QAEAAV12@II@Z 004330a8     msvcprt:MSVCP71.dll
 0002:000000ac       __imp_?npos@?$basic_string@DU?$char_traits@D@std@@V?$allocator@D@2@@std@@2IB 004330ac     msvcprt:MSVCP71.dll
 0002:000000b0       __imp_??4?$basic_string@DU?$char_traits@D@std@@V?$allocator@D@2@@std@@QAEAAV01@PBD@Z 004330b0     msvcprt:MSVCP71.dll
 0002:000000b4       __imp_??0?$basic_string@DU?$char_traits@D@std@@V?$allocator@D@2@@std@@QAE@XZ 004330b4     msvcprt:MSVCP71.dll
 0002:000000b8       __imp_??6?$basic_ostream@DU?$char_traits@D@std@@@std@@QAEAAV01@P6AAAV01@AAV01@@Z@Z 004330b8     msvcprt:MSVCP71.dll
 0002:000000bc       __imp_?endl@std@@YAAAV?$basic_ostream@DU?$char_traits@D@std@@@1@AAV21@@Z 004330bc     msvcprt:MSVCP71.dll
 0002:000000c0       __imp_??$?6U?$char_traits@D@std@@@std@@YAAAV?$basic_ostream@DU?$char_traits@D@std@@@0@AAV10@PBD@Z 004330c0     msvcprt:MSVCP71.dll
 0002:000000c4       __imp_??_D?$basic_fstream@DU?$char_traits@D@std@@@std@@QAEXXZ 004330c4     msvcprt:MSVCP71.dll
 0002:000000c8       __imp_??0?$basic_fstream@DU?$char_traits@D@std@@@std@@QAE@PBDHH@Z 004330c8     msvcprt:MSVCP71.dll
 0002:000000cc       __imp_?getline@?$basic_istream@DU?$char_traits@D@std@@@std@@QAEAAV12@PADH@Z 004330cc     msvcprt:MSVCP71.dll
 0002:000000d0       __imp_?find@?$basic_string@DU?$char_traits@D@std@@V?$allocator@D@2@@std@@QBEIPBDII@Z 004330d0     msvcprt:MSVCP71.dll
 0002:000000d4       __imp_?cout@std@@3V?$basic_ostream@DU?$char_traits@D@std@@@1@A 004330d4     msvcprt:MSVCP71.dll
 0002:000000d8       __imp_?substr@?$basic_string@DU?$char_traits@D@std@@V?$allocator@D@2@@std@@QBE?AV12@II@Z 004330d8     msvcprt:MSVCP71.dll
 0002:000000dc       __imp_?rfind@?$basic_string@DU?$char_traits@D@std@@V?$allocator@D@2@@std@@QBEIPBDII@Z 004330dc     msvcprt:MSVCP71.dll
 0002:000000e0       __imp_?compare@?$basic_string@DU?$char_traits@D@std@@V?$allocator@D@2@@std@@QBEHIIPBDI@Z 004330e0     msvcprt:MSVCP71.dll
 0002:000000e4       __imp_?clear@?$basic_string@DU?$char_traits@D@std@@V?$allocator@D@2@@std@@QAEXXZ 004330e4     msvcprt:MSVCP71.dll
 0002:000000e8       __imp_?_Nomemory@std@@YAXXZ 004330e8     msvcprt:MSVCP71.dll
 0002:000000ec       __imp_??0?$basic_string@DU?$char_traits@D@std@@V?$allocator@D@2@@std@@QAE@ABV01@@Z 004330ec     msvcprt:MSVCP71.dll
 0002:000000f0       __imp_??1?$basic_string@DU?$char_traits@D@std@@V?$allocator@D@2@@std@@QAE@XZ 004330f0     msvcprt:MSVCP71.dll
 0002:000000f4       __imp_??4?$basic_string@DU?$char_traits@D@std@@V?$allocator@D@2@@std@@QAEAAV01@ABV01@@Z 004330f4     msvcprt:MSVCP71.dll
 0002:000000f8       __imp_??0?$basic_string@DU?$char_traits@D@std@@V?$allocator@D@2@@std@@QAE@PBD@Z 004330f8     msvcprt:MSVCP71.dll
 0002:000000fc       __imp_??Y?$basic_string@DU?$char_traits@D@std@@V?$allocator@D@2@@std@@QAEAAV01@ABV01@@Z 004330fc     msvcprt:MSVCP71.dll
 0002:00000100       __imp_??Y?$basic_string@DU?$char_traits@D@std@@V?$allocator@D@2@@std@@QAEAAV01@PBD@Z 00433100     msvcprt:MSVCP71.dll
 0002:00000104       \177MSVCP71_NULL_THUNK_DATA 00433104     msvcprt:MSVCP71.dll
 0002:00000108       __imp____CxxFrameHandler   00433108     MSVCRT:MSVCR71.dll
 0002:0000010c       __imp_??0exception@@QAE@XZ 0043310c     MSVCRT:MSVCR71.dll
 0002:00000110       __imp_??1exception@@UAE@XZ 00433110     MSVCRT:MSVCR71.dll
 0002:00000114       __imp___strdup             00433114     MSVCRT:MSVCR71.dll
 0002:00000114       __imp__strdup              00433114     MSVCRT:MSVCR71.dll
 0002:00000118       __imp__free                00433118     MSVCRT:MSVCR71.dll
 0002:0000011c       __imp___controlfp          0043311c     MSVCRT:MSVCR71.dll
 0002:00000120       __imp____set_app_type      00433120     MSVCRT:MSVCR71.dll
 0002:00000124       __imp____p__fmode          00433124     MSVCRT:MSVCR71.dll
 0002:00000128       __imp____p__commode        00433128     MSVCRT:MSVCR71.dll
 0002:0000012c       __imp___adjust_fdiv        0043312c     MSVCRT:MSVCR71.dll
 0002:00000130       __imp____setusermatherr    00433130     MSVCRT:MSVCR71.dll
 0002:00000134       __imp___initterm           00433134     MSVCRT:MSVCR71.dll
 0002:00000138       __imp____getmainargs       00433138     MSVCRT:MSVCR71.dll
 0002:0000013c       __imp___amsg_exit          0043313c     MSVCRT:MSVCR71.dll
 0002:00000140       __imp____p___initenv       00433140     MSVCRT:MSVCR71.dll
 0002:00000144       __imp__exit                00433144     MSVCRT:MSVCR71.dll
 0002:00000148       __imp___cexit              00433148     MSVCRT:MSVCR71.dll
 0002:0000014c       __imp___XcptFilter         0043314c     MSVCRT:MSVCR71.dll
 0002:00000150       __imp___exit               00433150     MSVCRT:MSVCR71.dll
 0002:00000154       __imp___c_exit             00433154     MSVCRT:MSVCR71.dll
 0002:00000158       __imp___onexit             00433158     MSVCRT:MSVCR71.dll
 0002:0000015c       __imp____dllonexit         0043315c     MSVCRT:MSVCR71.dll
 0002:00000160       __imp_?terminate@@YAXXZ    00433160     MSVCRT:MSVCR71.dll
 0002:00000164       __imp___except_handler3    00433164     MSVCRT:MSVCR71.dll
 0002:00000168       __imp____security_error_handler 00433168     MSVCRT:MSVCR71.dll
 0002:0000016c       __imp_??1type_info@@UAE@XZ 0043316c     MSVCRT:MSVCR71.dll
 0002:00000170       __imp___callnewh           00433170     MSVCRT:MSVCR71.dll
 0002:00000174       __imp__malloc              00433174     MSVCRT:MSVCR71.dll
 0002:00000178       __imp__fopen               00433178     MSVCRT:MSVCR71.dll
 0002:0000017c       __imp__fputs               0043317c     MSVCRT:MSVCR71.dll
 0002:00000180       __imp__fclose              00433180     MSVCRT:MSVCR71.dll
 0002:00000184       __imp__stricmp             00433184     MSVCRT:MSVCR71.dll
 0002:00000184       __imp___stricmp            00433184     MSVCRT:MSVCR71.dll
 0002:00000188       __imp__localtime           00433188     MSVCRT:MSVCR71.dll
 0002:0000018c       __imp__strchr              0043318c     MSVCRT:MSVCR71.dll
 0002:00000190       __imp__strrchr             00433190     MSVCRT:MSVCR71.dll
 0002:00000194       __imp__atoi                00433194     MSVCRT:MSVCR71.dll
 0002:00000198       __imp_??_V@YAXPAX@Z        00433198     MSVCRT:MSVCR71.dll
 0002:0000019c       __imp___purecall           0043319c     MSVCRT:MSVCR71.dll
 0002:000001a0       __imp__sprintf             004331a0     MSVCRT:MSVCR71.dll
 0002:000001a4       __imp__printf              004331a4     MSVCRT:MSVCR71.dll
 0002:000001a8       __imp__puts                004331a8     MSVCRT:MSVCR71.dll
 0002:000001ac       __imp__memmove             004331ac     MSVCRT:MSVCR71.dll
 0002:000001b0       __imp___CxxThrowException@8 004331b0     MSVCRT:MSVCR71.dll
 0002:000001b4       __imp_??0exception@@QAE@ABV0@@Z 004331b4     MSVCRT:MSVCR71.dll
 0002:000001b8       __imp__time                004331b8     MSVCRT:MSVCR71.dll
 0002:000001bc       __imp_??3@YAXPAX@Z         004331bc     MSVCRT:MSVCR71.dll
 0002:000001c0       \177MSVCR71_NULL_THUNK_DATA 004331c0     MSVCRT:MSVCR71.dll
 0002:000001c4       __imp__TranslateMessage@4  004331c4     user32:USER32.dll
 0002:000001c8       __imp__GetMessageA@16      004331c8     user32:USER32.dll
 0002:000001cc       __imp__DispatchMessageA@4  004331cc     user32:USER32.dll
 0002:000001d0       __imp__PostThreadMessageA@16 004331d0     user32:USER32.dll
 0002:000001d4       \177USER32_NULL_THUNK_DATA 004331d4     user32:USER32.dll
 0002:000001d8       __imp__WSAGetLastError@0   004331d8     ws2_32:WS2_32.dll
 0002:000001dc       __imp__htonl@4             004331dc     ws2_32:WS2_32.dll
 0002:000001e0       __imp__accept@12           004331e0     ws2_32:WS2_32.dll
 0002:000001e4       __imp__shutdown@8          004331e4     ws2_32:WS2_32.dll
 0002:000001e8       \177WS2_32_NULL_THUNK_DATA 004331e8     ws2_32:WS2_32.dll
 0002:000001ec       __imp_??0ThreadFile@ost@@QAE@PBD@Z 004331ec     ccgnu2:ccgnu2.dll
 0002:000001f0       __imp_??0MappedFile@ost@@QAE@PBDW4Access@File@1@I@Z 004331f0     ccgnu2:ccgnu2.dll
 0002:000001f4       __imp_?isPending@Socket@ost@@UAE_NW4Pending@12@K@Z 004331f4     ccgnu2:ccgnu2.dll
 0002:000001f8       __imp_?writeData@Socket@ost@@MAEHPBXIK@Z 004331f8     ccgnu2:ccgnu2.dll
 0002:000001fc       __imp_?readData@Socket@ost@@MAEHPAXIDK@Z 004331fc     ccgnu2:ccgnu2.dll
 0002:00000200       __imp_??0Socket@ost@@IAE@XZ 00433200     ccgnu2:ccgnu2.dll
 0002:00000204       __imp_??1Socket@ost@@UAE@XZ 00433204     ccgnu2:ccgnu2.dll
 0002:00000208       __imp_??1IPV4Address@ost@@UAE@XZ 00433208     ccgnu2:ccgnu2.dll
 0002:0000020c       __imp_??0TCPSocket@ost@@QAE@ABVIPV4Address@1@GII@Z 0043320c     ccgnu2:ccgnu2.dll
 0002:00000210       __imp_??1TCPSocket@ost@@UAE@XZ 00433210     ccgnu2:ccgnu2.dll
 0002:00000214       __imp_?getCapacity@RandomFile@ost@@QAEJXZ 00433214     ccgnu2:ccgnu2.dll
 0002:00000218       __imp_??1Event@ost@@UAE@XZ 00433218     ccgnu2:ccgnu2.dll
 0002:0000021c       __imp_?wait@Event@ost@@QAE_NK@Z 0043321c     ccgnu2:ccgnu2.dll
 0002:00000220       __imp_?wait@Event@ost@@QAE_NXZ 00433220     ccgnu2:ccgnu2.dll
 0002:00000224       __imp_?reset@Event@ost@@QAEXXZ 00433224     ccgnu2:ccgnu2.dll
 0002:00000228       __imp_?signal@Event@ost@@QAEXXZ 00433228     ccgnu2:ccgnu2.dll
 0002:0000022c       __imp_?notify@Thread@ost@@MAEXPAV12@@Z 0043322c     ccgnu2:ccgnu2.dll
 0002:00000230       __imp_?getExtended@Thread@ost@@MAEPAXXZ 00433230     ccgnu2:ccgnu2.dll
 0002:00000234       __imp_?initial@Thread@ost@@MAEXXZ 00433234     ccgnu2:ccgnu2.dll
 0002:00000238       __imp_?final@Thread@ost@@MAEXXZ 00433238     ccgnu2:ccgnu2.dll
 0002:0000023c       __imp_??4IPV4Address@ost@@QAEAAV01@K@Z 0043323c     ccgnu2:ccgnu2.dll
 0002:00000240       __imp_??0IPV4Address@ost@@QAE@PBVIPV4Validator@1@@Z 00433240     ccgnu2:ccgnu2.dll
 0002:00000244       __imp_?start@Thread@ost@@QAEHPAVSemaphore@2@@Z 00433244     ccgnu2:ccgnu2.dll
 0002:00000248       __imp_?setNoDelay@Socket@ost@@IAE?AW4Error@12@_N@Z 00433248     ccgnu2:ccgnu2.dll
 0002:0000024c       __imp_??0Thread@ost@@QAE@HI@Z 0043324c     ccgnu2:ccgnu2.dll
 0002:00000250       __imp_??1Thread@ost@@UAE@XZ 00433250     ccgnu2:ccgnu2.dll
 0002:00000254       __imp_?sleep@Thread@ost@@SAXK@Z 00433254     ccgnu2:ccgnu2.dll
 0002:00000258       __imp_?endSocket@Socket@ost@@IAEXXZ 00433258     ccgnu2:ccgnu2.dll
 0002:0000025c       __imp_??1ThreadFile@ost@@UAE@XZ 0043325c     ccgnu2:ccgnu2.dll
 0002:00000260       __imp_??0MappedFile@ost@@QAE@PBDKIW4Access@File@1@@Z 00433260     ccgnu2:ccgnu2.dll
 0002:00000264       __imp_?fetch@MappedFile@ost@@QAEPAXJI@Z 00433264     ccgnu2:ccgnu2.dll
 0002:00000268       __imp_??0Event@ost@@QAE@XZ 00433268     ccgnu2:ccgnu2.dll
 0002:0000026c       __imp_??1MappedFile@ost@@UAE@XZ 0043326c     ccgnu2:ccgnu2.dll
 0002:00000270       __imp_??0Mutex@ost@@QAE@PBD@Z 00433270     ccgnu2:ccgnu2.dll
 0002:00000274       __imp_??1Mutex@ost@@UAE@XZ 00433274     ccgnu2:ccgnu2.dll
 0002:00000278       __imp_?enterMutex@Mutex@ost@@QAEXXZ 00433278     ccgnu2:ccgnu2.dll
 0002:0000027c       __imp_?leaveMutex@Mutex@ost@@QAEXXZ 0043327c     ccgnu2:ccgnu2.dll
 0002:00000280       __imp_??1MutexLock@ost@@QAE@XZ 00433280     ccgnu2:ccgnu2.dll
 0002:00000284       \177ccgnu2_NULL_THUNK_DATA 00433284     ccgnu2:ccgnu2.dll
 0002:000002ac       ??_7logic_error@std@@6B@   004332ac     DB.obj
 0002:000002b4       ??_7length_error@std@@6B@  004332b4     DB.obj
 0002:000002bc       ??_7word@chen@@6B@         004332bc     DB.obj
 0002:000002c0       ??_C@_00CNPNBAHC@?$AA@     004332c0     DB.obj
 0002:000002c4       ??_C@_0M@IGBDGEOL@MSException?$AA@ 004332c4     DB.obj
 0002:000002d0       ??_C@_09FBNMMHMJ@Exception?$AA@ 004332d0     DB.obj
 0002:000002dc       ??_7exception@chen@@6B@    004332dc     DB.obj
 0002:000002e8       ??_C@_0BD@OLBABOEK@vector?$DMT?$DO?5too?5long?$AA@ 004332e8     DB.obj
 0002:000002fc       ??_7?$sorttree@V?$hashelement@Vword@chen@@PAVTable@@@chen@@@chen@@6B@ 004332fc     DB.obj
 0002:00000300       ??_7?$sorttree@V?$hashelement@Vword@chen@@PAVQueue@@@chen@@@chen@@6B@ 00433300     DB.obj
 0002:00000304       ??_7?$treenode@V?$hashelement@Vword@chen@@PAVTable@@@chen@@@chen@@6B@ 00433304     DB.obj
 0002:00000308       ??_7?$treenode@V?$hashelement@Vword@chen@@PAVQueue@@@chen@@@chen@@6B@ 00433308     DB.obj
 0002:0000030c       ??_C@_0BI@CBGLFFBI@Create?5page?5pool?5failed?$AA@ 0043330c     DB.obj
 0002:00000324       ??_C@_0BI@LLOOPKPI@Create?5head?5pool?5failed?$AA@ 00433324     DB.obj
 0002:0000033c       ??_C@_0M@LDHJKBJE@No?5the?5node?$AA@ 0043333c     DB.obj
 0002:00000348       ??_C@_0L@KMPFIPOJ@empty?5tree?$AA@ 00433348     DB.obj
 0002:00000354       ??_C@_0BB@MOGOBHAF@list?$DMT?$DO?5too?5long?$AA@ 00433354     DB.obj
 0002:00000368       ??_C@_0BD@JEAHJBKA@Create?5node?5failed?$AA@ 00433368     DB.obj
 0002:0000037c       ??_C@_0P@IILEFCAI@Table?5no?5exist?$AA@ 0043337c     DB.obj
 0002:0000038c       ??_C@_0P@CIOPIOMB@Queue?5no?5exist?$AA@ 0043338c     DB.obj
 0002:0000039c       ??_C@_0L@DMNNKCKE@pt?5is?5NULL?$AA@ 0043339c     DB.obj
 0002:000003a8       ??_C@_0BC@GNAPJOAC@flash?5data?5failed?$AA@ 004333a8     DB.obj
 0002:000003bc       ??_C@_0BA@BJPPBIJB@Get?5page?5failed?$AA@ 004333bc     DB.obj
 0002:000003cc       ??_C@_0BK@PJKPGJHJ@Get?5data?5free?5page?5failed?$AA@ 004333cc     DB.obj
 0002:000003e8       ??_C@_0BE@FMAPLJBD@Add?5new?5page?5failed?$AA@ 004333e8     DB.obj
 0002:000003fc       ??_C@_0BA@JFGFILLF@Table?5has?5exist?$AA@ 004333fc     DB.obj
 0002:0000040c       ??_C@_0CF@PCABMGMJ@Create?5queue?5?9?9?5Get?5free?5page?5fa@ 0043340c     DB.obj
 0002:00000434       ??_C@_0BA@HHHNKKHN@Queue?5has?5exist?$AA@ 00433434     DB.obj
 0002:00000444       ??_C@_0DF@EPIAEGGE@InsertTableEx?5Get?5page?5failed?5pa@ 00433444     DB.obj
 0002:0000047c       ??_C@_07JMHMLHHN@sv_type?$AA@ 0043347c     DB.obj
 0002:00000484       ??_C@_07CMPMEKAE@sv_unit?$AA@ 00433484     DB.obj
 0002:0000048c       ??_C@_07DHHPHHAN@sv_name?$AA@ 0043348c     DB.obj
 0002:00000494       ??_C@_02DKCKIIND@?$CFs?$AA@ 00433494     DB.obj
 0002:00000498       ??_C@_08KCGFJGDM@sv_label?$AA@ 00433498     DB.obj
 0002:000004a4       ??_C@_0M@JMKLJOJG@DB?5name?3?$CFs?6?$AA@ 004334a4     DB.obj
 0002:000004b0       ??_C@_0BA@PDCADKPP@?$CFs?1data?1?$CFs_data?$AA@ 004334b0     DB.obj
 0002:000004c0       ??_C@_0M@LGHBMNLG@DB?5path?3?$CFs?6?$AA@ 004334c0     DB.obj
 0002:000004cc       ??_C@_0BA@NOCINFHH@?$CFs?1data?1?$CFs_head?$AA@ 004334cc     DB.obj
 0002:000004dc       ??_7SerialBase@@6B@        004334dc     Entity.obj
 0002:000004e8       ??_7Entity@@6B@            004334e8     Entity.obj
 0002:000004f4       ??_7EntityGroup@@6B@       004334f4     EntityGroup.obj
 0002:00000500       ??_7PoolBase@@6B@          00433500     EntityGroupPool.obj
 0002:00000508       ??_C@_0BP@KMPLMEHG@Load?5EntityGroupPool?5Exception?$AA@ 00433508     EntityGroupPool.obj
 0002:00000528       ??_C@_0CB@KFODAPNE@Submit?5EntityGroupPool?5Exception@ 00433528     EntityGroupPool.obj
 0002:0000054c       ??_7?$sorttree@V?$hashelement@Vword@chen@@PAVEntityGroup@@@chen@@@chen@@6B@ 0043354c     EntityGroupPool.obj
 0002:00000550       ??_7?$treenode@V?$hashelement@Vword@chen@@PAVEntityGroup@@@chen@@@chen@@6B@ 00433550     EntityGroupPool.obj
 0002:00000554       ??_7EntityGroupPool@@6BSerialBase@@@ 00433554     EntityGroupPool.obj
 0002:00000560       ??_7EntityGroupPool@@6BPoolBase@@@ 00433560     EntityGroupPool.obj
 0002:00000568       ??_C@_0BK@JLCABHIC@Load?5EntityPool?5Exception?$AA@ 00433568     EntityPool.obj
 0002:00000584       ??_C@_0BM@CJIKLFBD@Submit?5EntityPool?5Exception?$AA@ 00433584     EntityPool.obj
 0002:000005a0       ??_7?$sorttree@V?$hashelement@Vword@chen@@PAVEntity@@@chen@@@chen@@6B@ 004335a0     EntityPool.obj
 0002:000005a4       ??_7?$treenode@V?$hashelement@Vword@chen@@PAVEntity@@@chen@@@chen@@6B@ 004335a4     EntityPool.obj
 0002:000005a8       ??_7EntityPool@@6BSerialBase@@@ 004335a8     EntityPool.obj
 0002:000005b4       ??_7EntityPool@@6BPoolBase@@@ 004335b4     EntityPool.obj
 0002:000005bc       ??_7EntityTemplet@@6B@     004335bc     EntityTemplet.obj
 0002:000005c8       ??_C@_0CB@ODJCCFNE@Load?5EntityTempletPool?5Exception@ 004335c8     EntityTempletPool.obj
 0002:000005ec       ??_C@_0CD@HDBFOJJP@Submit?5EntityTempletPool?5Excepti@ 004335ec     EntityTempletPool.obj
 0002:00000610       ??_7?$sorttree@V?$hashelement@Vword@chen@@PAVEntityTemplet@@@chen@@@chen@@6B@ 00433610     EntityTempletPool.obj
 0002:00000614       ??_7?$treenode@V?$hashelement@Vword@chen@@PAVEntityTemplet@@@chen@@@chen@@6B@ 00433614     EntityTempletPool.obj
 0002:00000618       ??_7EntityTempletPool@@6BSerialBase@@@ 00433618     EntityTempletPool.obj
 0002:00000624       ??_7EntityTempletPool@@6BPoolBase@@@ 00433624     EntityTempletPool.obj
 0002:0000062c       ??_7CommonData@@6B@        0043362c     GeneralPool.obj
 0002:00000638       ??_C@_0DC@EDALMJNK@Load?5GeneralPool?5Exception?0Error@ 00433638     GeneralPool.obj
 0002:0000066c       ??_C@_0DF@CMDGHLP@Submit?5GeneralPool?5Exception?0Err@ 0043366c     GeneralPool.obj
 0002:000006a4       ??_7?$sorttree@V?$hashelement@Vword@chen@@PAVSection@@@chen@@@chen@@6B@ 004336a4     GeneralPool.obj
 0002:000006a8       ??_7?$treenode@V?$hashelement@Vword@chen@@PAVSection@@@chen@@@chen@@6B@ 004336a8     GeneralPool.obj
 0002:000006ac       ??_7?$sorttree@V?$hashelement@Vword@chen@@PAVCommonData@@@chen@@@chen@@6B@ 004336ac     GeneralPool.obj
 0002:000006b0       ??_7?$treenode@V?$hashelement@Vword@chen@@PAVCommonData@@@chen@@@chen@@6B@ 004336b0     GeneralPool.obj
 0002:000006b4       ??_7GeneralPool@@6BSerialBase@@@ 004336b4     GeneralPool.obj
 0002:000006c0       ??_7GeneralPool@@6BPoolBase@@@ 004336c0     GeneralPool.obj
 0002:000006c8       ??_7Group@@6B@             004336c8     Group.obj
 0002:000006d4       ??_C@_0BJ@EJGADGGH@Load?5GroupPool?5Exception?$AA@ 004336d4     GroupPool.obj
 0002:000006f0       ??_C@_0BL@FOMJIPNO@Submit?5GroupPool?5Exception?$AA@ 004336f0     GroupPool.obj
 0002:0000070c       ??_7?$sorttree@V?$hashelement@Vword@chen@@PAVGroup@@@chen@@@chen@@6B@ 0043370c     GroupPool.obj
 0002:00000710       ??_7?$treenode@V?$hashelement@Vword@chen@@PAVGroup@@@chen@@@chen@@6B@ 00433710     GroupPool.obj
 0002:00000714       ??_7GroupPool@@6BSerialBase@@@ 00433714     GroupPool.obj
 0002:00000720       ??_7GroupPool@@6BPoolBase@@@ 00433720     GroupPool.obj
 0002:00000728       ??_7Monitor@@6B@           00433728     Monitor.obj
 0002:00000734       ??_C@_0BL@BPLFNPFB@Load?5MonitorPool?5Exception?$AA@ 00433734     MonitorPool.obj
 0002:00000750       ??_C@_0BN@JIAPNGCB@Submit?5MonitorPool?5Exception?$AA@ 00433750     MonitorPool.obj
 0002:00000770       ??_7?$sorttree@V?$hashelement@Vword@chen@@PAVMonitor@@@chen@@@chen@@6B@ 00433770     MonitorPool.obj
 0002:00000774       ??_7?$treenode@V?$hashelement@Vword@chen@@PAVMonitor@@@chen@@@chen@@6B@ 00433774     MonitorPool.obj
 0002:00000778       ??_7MonitorPool@@6BSerialBase@@@ 00433778     MonitorPool.obj
 0002:00000784       ??_7MonitorPool@@6BPoolBase@@@ 00433784     MonitorPool.obj
 0002:0000078c       ??_7MonitorTemplet@@6B@    0043378c     MonitorTemplet.obj
 0002:00000798       ??_C@_0CC@PPNPCJNJ@Load?5MonitorTempletPool?5Exceptio@ 00433798     MonitorTempletPool.obj
 0002:000007bc       ??_C@_0CE@BOEBDGAN@Submit?5MonitorTempletPool?5Except@ 004337bc     MonitorTempletPool.obj
 0002:000007e0       ??_7?$sorttree@V?$hashelement@Vword@chen@@V12@@chen@@@chen@@6B@ 004337e0     MonitorTempletPool.obj
 0002:000007e4       ??_7?$treenode@V?$hashelement@Vword@chen@@V12@@chen@@@chen@@6B@ 004337e4     MonitorTempletPool.obj
 0002:000007e8       ??_7MonitorTempletPool@@6BSerialBase@@@ 004337e8     MonitorTempletPool.obj
 0002:000007f4       ??_7MonitorTempletPool@@6BPoolBase@@@ 004337f4     MonitorTempletPool.obj
 0002:000007fc       ??_C@_02DPKJAMEF@?$CFd?$AA@ 004337fc     MonitorTempletPool.obj
 0002:00000800       ??_7MySocket@@6B@          00433800     MySocket.obj
 0002:00000810       ??_7out_of_range@std@@6B@  00433810     Option.obj
 0002:00000818       ??_C@_0BM@PAPJHAGI@invalid?5map?1set?$DMT?$DO?5iterator?$AA@ 00433818     Option.obj
 0002:00000834       ??_C@_0L@CIOMKPMB@ListenPort?$AA@ 00433834     Option.obj
 0002:00000840       ??_C@_08JGLKGJJ@WaitMode?$AA@ 00433840     Option.obj
 0002:0000084c       ??_C@_08BJLMJJHG@PageSize?$AA@ 0043384c     Option.obj
 0002:00000858       ??_C@_0P@FOOOJMAL@SingleFileSize?$AA@ 00433858     Option.obj
 0002:00000868       ??_C@_0BG@BFEDNGEB@TrackIniFileNames?3?$CFs?6?$AA@ 00433868     Option.obj
 0002:00000880       ??_C@_0BC@EPGLDBLH@TrackIniFileNames?$AA@ 00433880     Option.obj
 0002:00000894       ??_C@_0BL@GFCLALKE@ResidentMemoryIniFiles?3?$CFs?6?$AA@ 00433894     Option.obj
 0002:000008b0       ??_C@_0BH@PCCCHKN@ResidentMemoryIniFiles?$AA@ 004338b0     Option.obj
 0002:000008c8       ??_C@_0BB@JEKGNCBM@DataKeepDays?3?$CFs?6?$AA@ 004338c8     Option.obj
 0002:000008dc       ??_C@_0N@CJCNGGJL@DataKeepDays?$AA@ 004338dc     Option.obj
 0002:000008ec       ??_C@_0BG@FAOEKOGN@TrackIniQueueName?3?$CFs?6?$AA@ 004338ec     Option.obj
 0002:00000904       ??_C@_0BC@MONLILFB@TrackIniQueueName?$AA@ 00433904     Option.obj
 0002:00000918       ??_C@_0BD@KBOFBHMF@IniMaxIdleTime?3?$CFs?6?$AA@ 00433918     Option.obj
 0002:0000092c       ??_C@_0P@GBAKBFOJ@IniMaxIdleTime?$AA@ 0043392c     Option.obj
 0002:0000093c       ??_C@_0BH@KMLCLBJC@EnableTrackIniFile?3?$CFs?6?$AA@ 0043393c     Option.obj
 0002:00000954       ??_C@_0BD@JDAABHGF@EnableTrackIniFile?$AA@ 00433954     Option.obj
 0002:00000968       ??_C@_0BI@MJNOGPJH@EnableTrackDBRecord?3?$CFs?6?$AA@ 00433968     Option.obj
 0002:00000980       ??_C@_0BE@JHMCPKH@EnableTrackDBRecord?$AA@ 00433980     Option.obj
 0002:00000994       ??_C@_0BK@LPNINJDK@EnableTrackConfigFile?3?$CFs?6?$AA@ 00433994     Option.obj
 0002:000009b0       ??_C@_0BG@CICKABND@EnableTrackConfigFile?$AA@ 004339b0     Option.obj
 0002:000009c8       ??_C@_0BA@PDMNCHOF@EnableAlert?3?$CFs?6?$AA@ 004339c8     Option.obj
 0002:000009d8       ??_C@_0M@LECKBAOM@EnableAlert?$AA@ 004339d8     Option.obj
 0002:000009e4       ??_C@_0BE@FHNLMPOA@DefaultLanguage?3?$CFs?6?$AA@ 004339e4     Option.obj
 0002:000009f8       ??_C@_0BA@CLGIAAPA@DefaultLanguage?$AA@ 004339f8     Option.obj
 0002:00000a08       ??_C@_0BL@EKIABCOH@TrackDBRecordQueueName?3?$CFs?6?$AA@ 00433a08     Option.obj
 0002:00000a24       ??_C@_0BH@KIOIIOBK@TrackDBRecordQueueName?$AA@ 00433a24     Option.obj
 0002:00000a3c       ??_C@_0BJ@HCFEGHAB@TrackConfigQueueName?3?$CFs?6?$AA@ 00433a3c     Option.obj
 0002:00000a58       ??_C@_0BF@PLFPNLND@TrackConfigQueueName?$AA@ 00433a58     Option.obj
 0002:00000a70       ??_C@_0BD@GKHLLMLI@AlertQueueName?3?$CFs?6?$AA@ 00433a70     Option.obj
 0002:00000a84       ??_C@_0P@MGAOAAFH@AlertQueueName?$AA@ 00433a84     Option.obj
 0002:00000a94       ??_C@_0P@MLEAJDPH@MaxIniFile?3?$CFs?6?$AA@ 00433a94     Option.obj
 0002:00000aa4       ??_C@_04NBOOAHGE@svdb?$AA@ 00433aa4     Option.obj
 0002:00000aac       ??_C@_0L@PGIABMFC@MaxIniFile?$AA@ 00433aac     Option.obj
 0002:00000ab8       ??_C@_0BH@MOOBNNLI@?$CFs?1data?1svdbconfig?4ini?$AA@ 00433ab8     Option.obj
 0002:00000ad0       ??_C@_0BF@GPFFHDCM@Get?5root?5path?5failed?$AA@ 00433ad0     Option.obj
 0002:00000ae8       ??_C@_0CD@PPPNHJMK@swapin?5failed?5read?5file?5failed?3?$CF@ 00433ae8     Page.obj
 0002:00000b0c       ??_C@_0DD@FHFMBNLD@swapin?5failed?5move?5file?5pointor?5@ 00433b0c     Page.obj
 0002:00000b40       ??_C@_0BP@DCOPMMJ@swap?$CIwrite?$CJ?5failed?5errorid?3?$CFd?6?$AA@ 00433b40     Page.obj
 0002:00000b60       ??_C@_0CE@KPCFLGFG@swap?5out?5?9?9?5Set?5file?5pointer?5fai@ 00433b60     Page.obj
 0002:00000b84       ??_C@_0BC@KMBJJADP@put?5phead?5is?5NULL?$AA@ 00433b84     PagePool.obj
 0002:00000b98       ??_C@_0CA@DIPFAGPG@Write?5head?5failed?5errorid?94?3?$CFd?6?$AA@ 00433b98     PagePool.obj
 0002:00000bb8       ??_C@_0CA@CFPADGEO@Write?5head?5failed?5errorid?93?3?$CFd?6?$AA@ 00433bb8     PagePool.obj
 0002:00000bd8       ??_C@_0L@ECPLPJOG@?N?D?$LM?$PO?$LI?q?$LD?v?$LE?m?$AA@ 00433bd8     PagePool.obj
 0002:00000be4       ??_C@_0BH@ELCHLJKL@Load?5page?5info?5failed?6?$AA@ 00433be4     PagePool.obj
 0002:00000bfc       ??_C@_0BN@HAPPPBPP@Read?5file?5failed?5errorid?3?$CFd?6?$AA@ 00433bfc     PagePool.obj
 0002:00000c1c       ??_C@_0DC@LFANKHNB@Load?5page?5?9?9?5move?5file?5pointer?5f@ 00433c1c     PagePool.obj
 0002:00000c50       ??_C@_0N@NBNHFGBP@?N?D?$LM?$PO?$LA?f?$LB?$LO?$LE?m?N?s?$AA@ 00433c50     PagePool.obj
 0002:00000c60       ??_C@_0BN@HPDKCPPK@Read?5head?5failed?5errorid?3?$CFd?6?$AA@ 00433c60     PagePool.obj
 0002:00000c80       ??_C@_0BO@BLNIJPPB@Open?5file?5failed?5error?5id?3?$CFd?6?$AA@ 00433c80     PagePool.obj
 0002:00000ca0       ??_C@_0O@KNILHMCF@Version?5error?$AA@ 00433ca0     PagePool.obj
 0002:00000cb0       ??_C@_0L@LHCLNBCF@?$CFs_?$CF02d?4db?$AA@ 00433cb0     PagePool.obj
 0002:00000cbc       ??_C@_0L@PJKKDELD@open?5error?$AA@ 00433cbc     PagePool.obj
 0002:00000cc8       ??_C@_0N@EGCBPKPL@filepath?3?$CFs?6?$AA@ 00433cc8     PagePool.obj
 0002:00000cd8       ??_C@_08NLHBCOGP@?$CFs_00?4db?$AA@ 00433cd8     PagePool.obj
 0002:00000ce4       ??_C@_0N@MJJAPABB@Size?5too?5big?$AA@ 00433ce4     PagePool.obj
 0002:00000cf4       ??_C@_0BO@MNJMBEAO@Write?5file?5failed?5errorid?3?$CFd?6?$AA@ 00433cf4     PagePool.obj
 0002:00000d14       ??_C@_0BO@MCFJMKAL@Write?5head?5failed?5errorid?3?$CFd?6?$AA@ 00433d14     PagePool.obj
 0002:00000d34       ??_C@_0BP@KJLHHGDD@Set?5file?5size?5failed?0error?3?$CFd?6?$AA@ 00433d34     PagePool.obj
 0002:00000d54       ??_C@_0BH@KCGFCLIO@Create?5file?5failed?3?$CFd?6?$AA@ 00433d54     PagePool.obj
 0002:00000d6c       ??_C@_0BM@JOMHOFFK@Seek?5file?5failed3?5errid?3?$CFd?6?$AA@ 00433d6c     PagePool.obj
 0002:00000d88       ??_C@_0CE@OCEIGACK@Create?5file?5sapce?5failed?5newpos?3@ 00433d88     PagePool.obj
 0002:00000dac       ??_C@_0BM@FGCKJDF@Seek?5file?5failed2?5errid?3?$CFd?6?$AA@ 00433dac     PagePool.obj
 0002:00000dc8       ??_C@_0BL@BILLBNNI@Seek?5file?5failed?5errid?3?$CFd?6?$AA@ 00433dc8     PagePool.obj
 0002:00000de4       ??_C@_0CA@OOKMOFOL@Write?5head?5failed?5errorid?92?3?$CFd?6?$AA@ 00433de4     PagePool.obj
 0002:00000e04       ??_C@_0CA@GIDIJHEF@Write?5head?5failed?5errorid?91?3?$CFd?6?$AA@ 00433e04     PagePool.obj
 0002:00000e24       ??_C@_0BA@FEEBCAFJ@Pop?5record?5over?$AA@ 00433e24     Queue.obj
 0002:00000e34       ??_C@_0M@LNPIJIOJ@wait?5failed?$AA@ 00433e34     Queue.obj
 0002:00000e40       ??_C@_0BD@OCLINANG@data?5size?5is?5small?$AA@ 00433e40     Queue.obj
 0002:00000e54       ??_C@_0BC@HHCCLJFN@ppagehead?5is?5NULL?$AA@ 00433e54     Queue.obj
 0002:00000e68       ??_C@_0P@EDMFPBKK@m_data?5is?5NULL?$AA@ 00433e68     Queue.obj
 0002:00000e78       ??_C@_0BH@KHFIKPFL@pt?5is?5NULL?5pos?5is?5?3?$CFd?6?$AA@ 00433e78     Queue.obj
 0002:00000e90       ??_C@_0BE@CBGNPIIG@Get?5new?5page?5failed?$AA@ 00433e90     Queue.obj
 0002:00000ea4       ??_C@_0BG@CFJKMELE@Add?5new?5page?5failed?91?$AA@ 00433ea4     Queue.obj
 0002:00000ebc       ??_C@_0DO@KANIJLDP@Append?5queue?5record?5get?5page?5fai@ 00433ebc     Queue.obj
 0002:00000efc       ??_7Resource@@6B@          00433efc     Resource.obj
 0002:00000f08       ??_C@_0BM@CHHAHNFH@Load?5ResourcePool?5Exception?$AA@ 00433f08     ResourcePool.obj
 0002:00000f24       ??_C@_0BO@HHPCLGGC@Submit?5ResourcePool?5Exception?$AA@ 00433f24     ResourcePool.obj
 0002:00000f44       ??_7?$sorttree@V?$hashelement@Vword@chen@@PAVResource@@@chen@@@chen@@6B@ 00433f44     ResourcePool.obj
 0002:00000f48       ??_7?$treenode@V?$hashelement@Vword@chen@@PAVResource@@@chen@@@chen@@6B@ 00433f48     ResourcePool.obj
 0002:00000f4c       ??_7ResourcePool@@6BSerialBase@@@ 00433f4c     ResourcePool.obj
 0002:00000f58       ??_7ResourcePool@@6BPoolBase@@@ 00433f58     ResourcePool.obj
 0002:00000f60       ??_7Section@@6B@           00433f60     Section.obj
 0002:00000f6c       ??_C@_0O@NGFIOOGP@SiteView_SVDB?$AA@ 00433f6c     Services.obj
 0002:00000f7c       ??_C@_0BJ@LIODEOJL@Install?5service?5sucessed?$AA@ 00433f7c     Services.obj
 0002:00000f98       ??_C@_0FG@FALDHOKJ@?7?5The?5user?5account?5name?5specifie@ 00433f98     Services.obj
 0002:00000ff0       ??_C@_0CP@EIDCNIGC@?7?5A?5circular?5service?5dependency?5@ 00433ff0     Services.obj
 0002:00001020       ??_C@_0DI@EIFNDBMF@?7The?5specified?5service?5already?5e@ 00434020     Services.obj
 0002:00001058       ??_C@_09CJGKBNOG@?7?5Unknown?$AA@ 00434058     Services.obj
 0002:00001064       ??_C@_0CI@KOLHIBAL@?7?5The?5specified?5service?5name?5is?5@ 00434064     Services.obj
 0002:0000108c       ??_C@_0CM@LIKANGGN@?7?5A?5parameter?5that?5was?5specified@ 0043408c     Services.obj
 0002:000010b8       ??_C@_0EL@BJGPPJPF@?7?5The?5handle?5to?5the?5specified?5se@ 004340b8     Services.obj
 0002:00001108       ??_C@_0HP@IGNGNCO@?7?5The?5display?5name?5already?5exist@ 00434108     Services.obj
 0002:00001188       ??_C@_0GP@DEBKMBAD@?7?5The?5handle?5to?5the?5specified?5se@ 00434188     Services.obj
 0002:000011f8       ??_C@_0BH@IPIEFDFA@Install?5service?5failed?$AA@ 004341f8     Services.obj
 0002:00001210       ??_C@_0BI@HJHGNMFF@Open?5?8SCManager?8?5failed?$AA@ 00434210     Services.obj
 0002:00001228       ??_C@_0P@OFJNENCF@ServicesActive?$AA@ 00434228     Services.obj
 0002:00001238       ??_C@_0O@MCMENPBL@?$CC?$CFs?$CC?5?9service?$AA@ 00434238     Services.obj
 0002:00001248       ??_C@_0BJ@GHKHAAKK@Remove?5serivce?5successed?$AA@ 00434248     Services.obj
 0002:00001264       ??_C@_0DJ@CMENEHPP@?7?5The?5specified?5handle?5was?5not?5o@ 00434264     Services.obj
 0002:000012a0       ??_C@_0DN@NPHPKBAD@?7?5The?5specified?5service?5has?5alre@ 004342a0     Services.obj
 0002:000012e0       ??_C@_0BA@LAEICKAA@?7?5Unknown?5error?$AA@ 004342e0     Services.obj
 0002:000012f0       ??_C@_0CH@GJAENONI@?7?5The?5specified?5service?5does?5not@ 004342f0     Services.obj
 0002:00001318       ??_C@_0CD@BPBMIDOF@?7?5Unknown?5error?5with?5?8OpenServic@ 00434318     Services.obj
 0002:0000133c       ??_C@_0CJ@JELBHPME@?7?5The?5specified?5service?5control?5@ 0043433c     Services.obj
 0002:00001368       ??_C@_0CC@IBGKIECO@?7?5The?5specified?5handle?5is?5invali@ 00434368     Services.obj
 0002:0000138c       ??_C@_0BJ@GHBLMJBG@?7?5Open?5?8SCManger?8?5failed?$AA@ 0043438c     Services.obj
 0002:000013a8       ??_C@_0BG@GDMJEBJD@Remove?5service?5failed?$AA@ 004343a8     Services.obj
 0002:000013c0       ??_C@_0CD@DCOEPBHK@Run?5process?3?$CFs?5failed?0error?5id?3?$CF@ 004343c0     Services.obj
 0002:000013e4       ??_C@_09OJMDMBJI@error?3?$CFd?6?$AA@ 004343e4     Services.obj
 0002:000013f0       ??_C@_0L@NBGCBGAM@?2fcgi?9bin?2?$AA@ 004343f0     Services.obj
 0002:000013fc       ??_C@_0M@KLDGBPOH@SVDB_SERVER?$AA@ 004343fc     Services.obj
 0002:00001408       ??_C@_0M@GAKAPIKJ@SVDB_Server?$AA@ 00434408     Services.obj
 0002:00001414       ??_7SocketWatchThread@@6B@ 00434414     SocketWatchThread.obj
 0002:0000142c       ??_C@_0CE@KAIBFGPG@Socket?5listen?5failed?5in?5watchthr@ 0043442c     SocketWatchThread.obj
 0002:00001450       ??_C@_0BE@JONHPENG@map?1set?$DMT?$DO?5too?5long?$AA@ 00434450     stlini.obj
 0002:00001464       ??_7StringMap@@6B@         00434464     StringMap.obj
 0002:00001470       ??_C@_0BM@DAFDJKHJ@?$CFd?9?$CF02d?9?$CF02d?5?$CF02d?3?$CF02d?3?$CF02d?$AA@ 00434470     svdb.obj
 0002:0000148c       ??_C@_0BD@ODOPAIDB@Instance?5has?5exist?$AA@ 0043448c     svdb.obj
 0002:000014a0       ??_C@_0CB@EJFMFJPK@Create?5event?5of?5instance?5?5failed@ 004344a0     svdb.obj
 0002:000014c4       ??_C@_0CC@ILBPHEM@Global?2SiteView?9database?9instanc@ 004344c4     svdb.obj
 0002:000014e8       ??_C@_0BC@BPIDNDJB@Start?5svdb?5failed?$AA@ 004344e8     svdb.obj
 0002:000014fc       ??_C@_0BC@DBAKKFEN@Invalid?5parameter?$AA@ 004344fc     svdb.obj
 0002:00001510       ??_C@_0L@MDGHKLOI@?9uninstall?$AA@ 00434510     svdb.obj
 0002:0000151c       ??_C@_08PEJOLNGE@?9install?$AA@ 0043451c     svdb.obj
 0002:00001528       ??_C@_08LFFEJACD@?9service?$AA@ 00434528     svdb.obj
 0002:00001534       ??_C@_0BA@GDICKIJB@svdb?5main?5start?$AA@ 00434534     svdb.obj
 0002:00001544       ??_C@_09IPAEKDAI@localhost?$AA@ 00434544     svdb.obj
 0002:00001550       ??_C@_07KJILKOHE@find?5ok?$AA@ 00434550     svdb.obj
 0002:00001558       ??_C@_05KKPNNHNB@Float?$AA@ 00434558     svdb.obj
 0002:00001560       ??_C@_07DHNMFMCI@chinese?$AA@ 00434560     svdb.obj
 0002:00001568       ??_C@_06ENNEIMBA@String?$AA@ 00434568     svdb.obj
 0002:00001570       ??_C@_0BJ@DMGBMBLH@SiteView70?9DBRecordTrack?$AA@ 00434570     SvdbMain.obj
 0002:0000158c       ??_C@_0M@BKPAPJDK@?0oscmd?4ini?0?$AA@ 0043458c     SvdbMain.obj
 0002:00001598       ??_C@_0BI@DHKBAIFL@SiteView70?9IniFileTrack?$AA@ 00434598     SvdbMain.obj
 0002:000015b0       ??_C@_0BK@DOKDOKML@?0alert?4ini?0smsconfig?4ini?0?$AA@ 004345b0     SvdbMain.obj
 0002:000015cc       ??_C@_0BH@OCJGEBAB@SiteView70?9ConfigTrack?$AA@ 004345cc     SvdbMain.obj
 0002:000015e4       ??_C@_0BB@IPJEIMHB@SiteView70?9Alert?$AA@ 004345e4     SvdbMain.obj
 0002:000015f8       ??_C@_0BB@EFNDBCLP@d?3?2v70?2data?2main?$AA@ 004345f8     SvdbMain.obj
 0002:0000160c       ??_7?$sorttree@V?$hashelement@Vword@chen@@PAVGeneralPool@@@chen@@@chen@@6B@ 0043460c     SvdbMain.obj
 0002:00001610       ??_7SVSEPool@@6BSerialBase@@@ 00434610     SvdbMain.obj
 0002:0000161c       ??_7SVSEPool@@6BPoolBase@@@ 0043461c     SvdbMain.obj
 0002:00001624       ??_C@_0BB@GLHACAEF@D?3?2v70?2data?2main?$AA@ 00434624     SvdbMain.obj
 0002:00001638       ??_C@_0BA@BJOHDNFE@Socket?5mode?5VAR?$AA@ 00434638     SvdbMain.obj
 0002:00001648       ??_C@_0CA@DMFJCAEL@Init?5socket?5watch?5thread?5failed?$AA@ 00434648     SvdbMain.obj
 0002:00001668       ??_C@_0O@PKAKPLIL@Wait?5mode?5FIX?$AA@ 00434668     SvdbMain.obj
 0002:00001678       ??_C@_0O@FOOPBFCG@Wait?5mode?5VAR?$AA@ 00434678     SvdbMain.obj
 0002:00001688       ??_C@_0BJ@JJEBOEII@Init?5watch?5thread?5failed?$AA@ 00434688     SvdbMain.obj
 0002:000016a4       ??_C@_0BA@MGCBNFIO@Start?5db?5failed?$AA@ 004346a4     SvdbMain.obj
 0002:000016b4       ??_C@_0M@CLFJDPGB@SiteViewLog?$AA@ 004346b4     SvdbMain.obj
 0002:000016c0       ??_C@_0BP@MCLDAAIM@SingleFileSize?3?$CFd?0PageSize?3?$CFd?6?$AA@ 004346c0     SvdbMain.obj
 0002:000016e0       ??_C@_0BO@KKEPFDJM@?$CFs?1data?1?$CFs?1EntityTemplet?4data?$AA@ 004346e0     SvdbMain.obj
 0002:00001700       ??_C@_0BM@HJNHMAFM@?$CFs?1data?1?$CFs?1EntityGroup?4data?$AA@ 00434700     SvdbMain.obj
 0002:0000171c       ??_C@_0BF@JHNKBCIM@?$CFs?1data?1?$CFs?1Task?4data?$AA@ 0043471c     SvdbMain.obj
 0002:00001734       ??_C@_0BF@FJKCIEHJ@?$CFs?1data?1?$CFs?1SVSE?4data?$AA@ 00434734     SvdbMain.obj
 0002:0000174c       ??_C@_0BH@NPPPPACO@?$CFs?1data?1?$CFs?1Entity?4data?$AA@ 0043474c     SvdbMain.obj
 0002:00001764       ??_C@_0BG@CINELHAE@?$CFs?1data?1?$CFs?1Group?4data?$AA@ 00434764     SvdbMain.obj
 0002:0000177c       ??_C@_0BJ@GKJLCDG@?$CFs?1data?1?$CFs?1Resource?4data?$AA@ 0043477c     SvdbMain.obj
 0002:00001798       ??_C@_0BI@GILIHALH@?$CFs?1data?1?$CFs?1Monitor?4data?$AA@ 00434798     SvdbMain.obj
 0002:000017b0       ??_C@_0BP@KENJIGNB@?$CFs?1data?1?$CFs?1MonitorTemplet?4data?$AA@ 004347b0     SvdbMain.obj
 0002:000017d0       ??_7SVSE@@6B@              004347d0     SVSE.obj
 0002:000017dc       ??_C@_0BI@DPMJCJPJ@Load?5SVSEPool?5Exception?$AA@ 004347dc     SVSEPool.obj
 0002:000017f4       ??_C@_0BK@CBMONDGH@Submit?5SVSEPool?5Exception?$AA@ 004347f4     SVSEPool.obj
 0002:00001810       ??_C@_05ELOBGPJG@ddddd?$AA@ 00434810     Table.obj
 0002:00001818       ??_C@_0DB@GDOIJOO@Append?5table?5record?5Get?5page?5fai@ 00434818     Table.obj
 0002:0000184c       ??_C@_06NCOECCNP@Get?5ok?$AA@ 0043484c     ThreadContrl.obj
 0002:00001854       ??_C@_0BH@KKLMOJHA@Get?5idle?5thread?5failed?$AA@ 00434854     ThreadContrl.obj
 0002:0000186c       ??_7ThreadEx@@6B@          0043486c     ThreadEx.obj
 0002:00001884       ??_C@_05NINEKCGD@?$CFs?4?$CFd?$AA@ 00434884     util.obj
 0002:0000188c       ??_C@_01KICIPPFI@?2?$AA@   0043488c     util.obj
 0002:00001890       ??_C@_0M@KEDFDEMF@root_path_7?$AA@ 00434890     util.obj
 0002:0000189c       ??_C@_0BO@MLDEADLE@SOFTWARE?2SiteView?2SiteViewECC?$AA@ 0043489c     util.obj
 0002:000018bc       ??_C@_03DBLNGNIM@Int?$AA@  004348bc     util.obj
 0002:000018c0       ??_C@_02DPNLHKJD@a?$CL?$AA@ 004348c0     util.obj
 0002:000018c4       ??_C@_0BE@EJGCCEAD@?$CFs?1data?1svdblog?4log?$AA@ 004348c4     util.obj
 0002:000018d8       ??_C@_02PCIJFNDE@?$AN?6?$AA@ 004348d8     util.obj
 0002:000018dc       ??_C@_01GPOEFGEJ@?7?$AA@   004348dc     util.obj
 0002:000018e0       ??_7WatchThread@@6B@       004348e0     WatchThread.obj
 0002:000018f8       ??_C@_0CC@KEJCKLFM@Create?5pipe?5failed?5in?5watchthrea@ 004348f8     WatchThread.obj
 0002:0000191c       ??_C@_0CH@MMOEODFK@ConnectNamedPipe?5failed?5in?5watch@ 0043491c     WatchThread.obj
 0002:00001944       ??_C@_0BO@LMFNNNMP@Overrun?5max?5number?5of?5connect?$AA@ 00434944     WatchThread.obj
 0002:00001964       ??_C@_0L@JEPCEPEJ@Connect?5ok?$AA@ 00434964     WatchThread.obj
 0002:00001970       ??_C@_0L@BCGOMAJO@connect?5ok?$AA@ 00434970     WatchThread.obj
 0002:0000197c       ??_C@_09KGLGAPFC@Create?5ok?$AA@ 0043497c     WatchThread.obj
 0002:00001988       ??_C@_0CE@OECMJOFC@?2?2?4?2pipe?2DragonFlow_Sitview7?40_S@ 00434988     WatchThread.obj
 0002:000019ac       ??_C@_0BA@KHBACOLG@In?5watch?5thread?$AA@ 004349ac     WatchThread.obj
 0002:000019bc       ??_C@_0BI@MBFMIBHG@system?5error?5number?3?$CFd?6?$AA@ 004349bc     WorkThread.obj
 0002:000019d4       ??_C@_0BB@CEJPOIGN@error?5number?3?$CFd?6?$AA@ 004349d4     WorkThread.obj
 0002:000019e8       ??_C@_0BB@OBHHIPKL@exception?5happen?$AA@ 004349e8     WorkThread.obj
 0002:000019fc       ??_7WorkThread@@6B@        004349fc     WorkThread.obj
 0002:00001a14       ??_C@_03HHEBJBCJ@_?$CFs?$AA@ 00434a14     WorkThread.obj
 0002:00001a18       ??_C@_03HCMCBFLP@_?$CFd?$AA@ 00434a18     WorkThread.obj
 0002:00001a1c       ??_C@_04KKJBFIJG@TASK?$AA@ 00434a1c     WorkThread.obj
 0002:00001a24       ??_C@_05CCMOGDN@?$CFs?3?$CFs?$AA@ 00434a24     WorkThread.obj
 0002:00001a2c       ??_C@_09CICJCEJF@Notity?5ok?$AA@ 00434a2c     WorkThread.obj
 0002:00001a38       ??_C@_0N@MAFEICNB@InIFileTrack?$AA@ 00434a38     WorkThread.obj
 0002:00001a48       ??_C@_0BF@BENLFIKK@INITRACK?3?$CFs?3?$CFs?3?$CFs?3?$CFs?$AA@ 00434a48     WorkThread.obj
 0002:00001a60       ??_C@_0BL@GIBNBDF@trackfiles?3?$CFs?0filename?3?$CFs?6?$AA@ 00434a60     WorkThread.obj
 0002:00001a7c       ??_C@_04MFIGCIEM@?0?$CFs?0?$AA@ 00434a7c     WorkThread.obj
 0002:00001a84       ??_7?$treenode@V?$hashelement@Vword@chen@@PAVGeneralPool@@@chen@@@chen@@6B@ 00434a84     WorkThread.obj
 0002:00001a88       ??_C@_0M@EADLIJBM@send?5failed?$AA@ 00434a88     WorkThread.obj
 0002:00001a94       ??_C@_07FKHAPLEP@send?5ok?$AA@ 00434a94     WorkThread.obj
 0002:00001a9c       ??_C@_0BG@CNJFCMPN@Query?5monitortemplet?5?$AA@ 00434a9c     WorkThread.obj
 0002:00001ab4       ??_C@_09GOFKNGOF@Update?5ok?$AA@ 00434ab4     WorkThread.obj
 0002:00001ac0       ??_C@_0BG@IFFOMMHE@Update?5monitortemplet?$AA@ 00434ac0     WorkThread.obj
 0002:00001ad8       ??_C@_0O@JBKLKHBI@Peer?5has?5exit?$AA@ 00434ad8     WorkThread.obj
 0002:00001ae8       ??_C@_0M@JDAIJPOC@in?5blockpop?$AA@ 00434ae8     WorkThread.obj
 0002:00001af4       ??_C@_0O@LJKKNEOF@in?5popmessage?$AA@ 00434af4     WorkThread.obj
 0002:00001b04       ??_C@_0N@LNMOLIFI@in?5blockpeek?$AA@ 00434b04     WorkThread.obj
 0002:00001b14       ??_C@_0P@HDEFLFHC@in?5peekmessage?$AA@ 00434b14     WorkThread.obj
 0002:00001b24       ??_C@_06EBDFEDAJ@ADDNEW?$AA@ 00434b24     WorkThread.obj
 0002:00001b2c       ??_C@_0O@FDHCMDHG@Add?5new?5ok?5ok?$AA@ 00434b2c     WorkThread.obj
 0002:00001b3c       ??_C@_06HHJABCJL@UPDATE?$AA@ 00434b3c     WorkThread.obj
 0002:00001b44       ??_C@_07ENJDMOMA@MONITOR?$AA@ 00434b44     WorkThread.obj
 0002:00001b4c       ??_C@_06FKDAMKFP@DELETE?$AA@ 00434b4c     WorkThread.obj
 0002:00001b54       ??_C@_05NAIABEH@GROUP?$AA@ 00434b54     WorkThread.obj
 0002:00001b5c       ??_C@_06BILGHJLN@dddddd?$AA@ 00434b5c     WorkThread.obj
 0002:00001b64       ??_C@_09OJOLAMIC@create?5ok?$AA@ 00434b64     WorkThread.obj
 0002:00001b70       ??_C@_04IAIMBIKO@pepe?$AA@ 00434b70     WorkThread.obj
 0002:00001b78       ??_C@_04PJJDKIBB@kkkk?$AA@ 00434b78     WorkThread.obj
 0002:00001b80       ??_C@_06GKLBAPIO@ENTITY?$AA@ 00434b80     WorkThread.obj
 0002:00001b88       ??_C@_0L@MOHLLPLM@len?5is?3?$CFd?6?$AA@ 00434b88     WorkThread.obj
 0002:00001b94       ??_C@_07DLHCIBDH@default?$AA@ 00434b94     WorkThread.obj
 0002:00001b9c       ??_C@_0BA@DMJIPECJ@Query?5resource?5?$AA@ 00434b9c     WorkThread.obj
 0002:00001bac       ??_C@_0BA@GIPNCEDK@Update?5resource?$AA@ 00434bac     WorkThread.obj
 0002:00001bbc       ??_C@_0M@HHJCFKCF@svse?5id?3?$CFd?6?$AA@ 00434bbc     WorkThread.obj
 0002:00001bc8       ??_C@_04KPGEHEGE@dddd?$AA@ 00434bc8     WorkThread.obj
 0002:00001bd0       ??_C@_04BMCEDOKO@EDIT?$AA@ 00434bd0     WorkThread.obj
 0002:00001bd8       ??_C@_0BB@DADGKBNB@$newsection3721$?$AA@ 00434bd8     WorkThread.obj
 0002:00001bec       ??_C@_06HKBJAOFD@in?5new?$AA@ 00434bec     WorkThread.obj
 0002:00001bf4       ??_C@_0BD@CFJGGBHM@?$CFs?1data?1IniFile?1?$CFs?$AA@ 00434bf4     WorkThread.obj
 0002:00001c08       ??_C@_0CD@GELFNKLA@thread?5exit?5with?5event?5wait?5fail@ 00434c08     WorkThread.obj
 0002:00001c2c       ??_C@_0CB@KGGBOGMJ@Flush?5buffer?5failed?5error?5id?3?$CFd?6@ 00434c2c     WorkThread.obj
 0002:00001c50       ??_C@_0N@CMDDNOPE@Pipe?5is?5NULL?$AA@ 00434c50     WorkThread.obj
 0002:00001c60       ??_C@_0N@BMMPHEDN@Event?5singed?$AA@ 00434c60     WorkThread.obj
 0002:00001c70       ??_C@_0P@BNHBOBHM@In?5work?5thread?$AA@ 00434c70     WorkThread.obj
 0002:00001c80       ??_C@_0P@PAHMLDCE@Socket?5is?5NULL?$AA@ 00434c80     WorkThread.obj
 0002:00001c90       ??_C@_0BC@LMPMHJKL@In?5?5socket?5thread?$AA@ 00434c90     WorkThread.obj
 0002:00001ca8       ??_7type_info@@6B@         00434ca8     MSVCRT:ti_inst.obj
 0002:00001d20       __load_config_used         00434d20     MSVCRT:loadcfg.obj
 0002:00001db4       ??_R1A@?0A@A@type_info@@8  00434db4     MSVCRT:ti_inst.obj
 0002:00001dcc       ??_R2type_info@@8          00434dcc     MSVCRT:ti_inst.obj
 0002:00001dd4       ??_R3type_info@@8          00434dd4     MSVCRT:ti_inst.obj
 0002:00001de4       ??_R4type_info@@6B@        00434de4     MSVCRT:ti_inst.obj
 0002:00001e00       ___safe_se_handler_table   00434e00     <linker-defined>
 0002:0000229c       ___rtc_iaa                 0043529c     MSVCRT:initsect.obj
 0002:000022a0       ___rtc_izz                 004352a0     MSVCRT:initsect.obj
 0002:000022a4       ___rtc_taa                 004352a4     MSVCRT:initsect.obj
 0002:000022a8       ___rtc_tzz                 004352a8     MSVCRT:initsect.obj
 0002:000022ac       __CT??_R0?AVexception@@@8??0exception@@QAE@ABV0@@Z12 004352ac     DB.obj
 0002:000022c8       __CT??_R0?AVlogic_error@std@@@8??0logic_error@std@@QAE@ABV01@@Z40 004352c8     DB.obj
 0002:000022e4       __CT??_R0?AVlength_error@std@@@8??0length_error@std@@QAE@ABV01@@Z40 004352e4     DB.obj
 0002:00002300       __CTA3?AVlength_error@std@@ 00435300     DB.obj
 0002:00002310       __TI3?AVlength_error@std@@ 00435310     DB.obj
 0002:00002550       __CT??_R0?AVexception@chen@@@8??0exception@chen@@QAE@ABV01@@Z280 00435550     DB.obj
 0002:0000256c       __CTA1?AVexception@chen@@  0043556c     DB.obj
 0002:00002574       __TI1?AVexception@chen@@   00435574     DB.obj
 0002:00004514       __CT??_R0?AVout_of_range@std@@@8??0out_of_range@std@@QAE@ABV01@@Z40 00437514     Option.obj
 0002:00004530       __CTA3?AVout_of_range@std@@ 00437530     Option.obj
 0002:00004540       __TI3?AVout_of_range@std@@ 00437540     Option.obj
 0002:000064ec       __IMPORT_DESCRIPTOR_ccgnu2 004394ec     ccgnu2:ccgnu2.dll
 0002:00006500       __IMPORT_DESCRIPTOR_WS2_32 00439500     ws2_32:WS2_32.dll
 0002:00006514       __IMPORT_DESCRIPTOR_KERNEL32 00439514     kernel32:KERNEL32.dll
 0002:00006528       __IMPORT_DESCRIPTOR_USER32 00439528     user32:USER32.dll
 0002:0000653c       __IMPORT_DESCRIPTOR_ADVAPI32 0043953c     advapi32:ADVAPI32.dll
 0002:00006550       __IMPORT_DESCRIPTOR_MSVCP71 00439550     msvcprt:MSVCP71.dll
 0002:00006564       __IMPORT_DESCRIPTOR_MSVCR71 00439564     MSVCRT:MSVCR71.dll
 0002:00006578       __NULL_IMPORT_DESCRIPTOR   00439578     ccgnu2:ccgnu2.dll
 0003:00000000       ___xc_a                    0043b000     MSVCRT:cinitexe.obj
 0003:0000000c       ___xc_z                    0043b00c     MSVCRT:cinitexe.obj
 0003:00000010       ___xi_a                    0043b010     MSVCRT:cinitexe.obj
 0003:00000014       ___xi_z                    0043b014     MSVCRT:cinitexe.obj
 0003:00000020       ??_R0?AVexception@@@8      0043b020     DB.obj
 0003:00000038       ??_R0?AVlogic_error@std@@@8 0043b038     DB.obj
 0003:00000058       ??_R0?AVlength_error@std@@@8 0043b058     DB.obj
 0003:00000078       ??_R0?AVexception@chen@@@8 0043b078     DB.obj
 0003:00000098       ??_R0?AVout_of_range@std@@@8 0043b098     Option.obj
 0003:000000b8       ?g_SubProcessState@@3_NA   0043b0b8     Services.obj
 0003:000000bc       ?g_ServiceName@@3PBDB      0043b0bc     Services.obj
 0003:000000c0       ?g_ServiceDName@@3PBDB     0043b0c0     Services.obj
 0003:000000c4       ??_R0PAVSocket@ost@@@8     0043b0c4     WorkThread.obj
 0003:000000e0       ??_R0?AVtype_info@@@8      0043b0e0     MSVCRT:ti_inst.obj
 0003:000000f8       ___security_cookie         0043b0f8     MSVCRT:seccook.obj
 0003:00000100       ___defaultmatherr          0043b100     MSVCRT:merr.obj
 0003:00000104       ?g_dbpi@@3U_PROCESS_INFORMATION@@A 0043b104     Services.obj
 0003:00000114       ?SVS_ServiceStatusHandle@@3PAUSERVICE_STATUS_HANDLE__@@A 0043b114     Services.obj
 0003:00000118       ?SVS_ServiceStatus@@3U_SERVICE_STATUS@@A 0043b118     Services.obj
 0003:00000134       ?g_Disabled@@3_NA          0043b134     Services.obj
 0003:00000138       ?psm@@3PAVSvdbMain@@A      0043b138     svdb.obj
 0003:0000013c       ?g_account@@3PADA          0043b13c     svdb.obj
 0003:00000140       ?g_password@@3PADA         0043b140     svdb.obj
 0003:00000144       ?g_dbPName@@3V?$basic_string@DU?$char_traits@D@std@@V?$allocator@D@2@@std@@A 0043b144     svdb.obj
 0003:00000160       __dowildcard               0043b160     MSVCRT:wildcard.obj
 0003:00000164       __newmode                  0043b164     MSVCRT:_newmode.obj
 0003:00000168       __commode                  0043b168     MSVCRT:xncommod.obj
 0003:0000016c       __fmode                    0043b16c     MSVCRT:xtxtmode.obj
 0003:00000170       __adjust_fdiv              0043b170     <common>
 0003:00000174       ___onexitend               0043b174     <common>
 0003:00000178       ___onexitbegin             0043b178     <common>

 entry point at        0001:0002df85

 Static symbols

 0001:0000137f       $L68007                    0040237f f i DB.obj
 0001:000023f5       $L71259                    004033f5 f i DB.obj
 0001:000039c9       $L73494                    004049c9 f i DB.obj
 0001:00004dec       $L75310                    00405dec f   DB.obj
 0001:00004eee       $L20444                    00405eee f i Entity.obj
 0001:000052c6       $L21067                    004062c6 f   Entity.obj
 0001:000056a9       $L21049                    004066a9 f   EntityGroup.obj
 0001:0000596b       $L43669                    0040696b f   EntityGroupPool.obj
 0001:00005a94       $L43701                    00406a94 f   EntityGroupPool.obj
 0001:00006c97       $L48142                    00407c97 f   EntityGroupPool.obj
 0001:0000700b       $L43799                    0040800b f   EntityPool.obj
 0001:00007134       $L43831                    00408134 f   EntityPool.obj
 0001:00008a17       $L48721                    00409a17 f   EntityPool.obj
 0001:0000926e       $L23041                    0040a26e f   EntityTemplet.obj
 0001:0000937b       $L44248                    0040a37b f   EntityTempletPool.obj
 0001:000094a4       $L44280                    0040a4a4 f   EntityTempletPool.obj
 0001:0000a7c7       $L48735                    0040b7c7 f   EntityTempletPool.obj
 0001:0000ac21       $L46380                    0040bc21 f   GeneralPool.obj
 0001:0000ad6a       $L46416                    0040bd6a f   GeneralPool.obj
 0001:0000ca97       $L54195                    0040da97 f   GeneralPool.obj
 0001:0000e406       $L21338                    0040f406 f   Group.obj
 0001:0000e64b       $L43863                    0040f64b f   GroupPool.obj
 0001:0000e774       $L43895                    0040f774 f   GroupPool.obj
 0001:00010057       $L48785                    00411057 f   GroupPool.obj
 0001:000106b1       $L17717                    004116b1 f   Monitor.obj
 0001:000107bb       $L43136                    004117bb f   MonitorPool.obj
 0001:000108e4       $L43168                    004118e4 f   MonitorPool.obj
 0001:0001226a       $L48058                    0041326a f   MonitorPool.obj
 0001:00012c92       $L22420                    00413c92 f   MonitorTemplet.obj
 0001:00012d9b       $L42914                    00413d9b f   MonitorTempletPool.obj
 0001:00012ec4       $L42946                    00413ec4 f   MonitorTempletPool.obj
 0001:00013e1c       $L48268                    00414e1c f   MonitorTempletPool.obj
 0001:00019677       $L17626                    0041a677 f   Resource.obj
 0001:000197ab       $L42960                    0041a7ab f   ResourcePool.obj
 0001:000198d4       $L42992                    0041a8d4 f   ResourcePool.obj
 0001:0001b027       $L47822                    0041c027 f   ResourcePool.obj
 0001:0001b3bb       $L20894                    0041c3bb f   Section.obj
 0001:0001bc9f       $L26159                    0041cc9f f   Section.obj
 0001:0001c710       $L59128                    0041d710 f   SocketWatchThread.obj
 0001:0001cb8e       $L22540                    0041db8e f i stlini.obj
 0001:0001d0c8       $L25075                    0041e0c8 f i stlini.obj
 0001:0001d1e1       $L25990                    0041e1e1 f i stlini.obj
 0001:0001d3be       $L26828                    0041e3be f i stlini.obj
 0001:0001da98       $L28477                    0041ea98 f i stlini.obj
 0001:0001dbb1       $L29093                    0041ebb1 f i stlini.obj
 0001:0001e651       $L22321                    0041f651 f   StringMap.obj
 0001:00021176       $L21216                    00422176 f   SVSE.obj
 0001:0002137b       $L42999                    0042237b f   SVSEPool.obj
 0001:000214a4       $L43031                    004224a4 f   SVSEPool.obj
 0001:000217ed       $L46507                    004227ed f   SVSEPool.obj
 0001:00023005       $L59443                    00424005 f i ThreadContrl.obj
 0001:000242cd       $L65092                    004252cd f i WorkThread.obj
 0001:00024374       $L65108                    00425374 f i WorkThread.obj
 0001:0002dd9e       _report_failure            0042ed9e f   MSVCRT:secchk.obj
 0001:0002e2b0       $L64290                    0042f2b0 f   DB.obj
 0001:0002e2b0       $L68654                    0042f2b0 f   DB.obj
 0001:0002e2b0       $L64254                    0042f2b0 f   DB.obj
 0001:0002e2b0       $L68041                    0042f2b0 f   DB.obj
 0001:0002e2b0       $L63979                    0042f2b0 f   DB.obj
 0001:0002e2b9       $L68061                    0042f2b9 f   DB.obj
 0001:0002e2b9       $L64294                    0042f2b9 f   DB.obj
 0001:0002e2b9       $L68674                    0042f2b9 f   DB.obj
 0001:0002e2b9       $L64258                    0042f2b9 f   DB.obj
 0001:0002e2b9       $L63983                    0042f2b9 f   DB.obj
 0001:0002e2c2       __ehhandler$?_Incsize@?$list@PAVStringMap@@V?$allocator@PAVStringMap@@@std@@@std@@IAEXI@Z 0042f2c2 f   DB.obj
 0001:0002e2c2       __ehhandler$?_Xlen@?$vector@PAV?$hashnode@Vword@chen@@PAVQueue@@@chen@@V?$allocator@PAV?$hashnode@Vword@chen@@PAVQueue@@@chen@@@std@@@std@@IBEXXZ 0042f2c2 f   DB.obj
 0001:0002e2c2       __ehhandler$?_Xlen@?$vector@PAVDataType@@V?$allocator@PAVDataType@@@std@@@std@@IBEXXZ 0042f2c2 f   DB.obj
 0001:0002e2c2       __ehhandler$?_Xlen@?$vector@PAV?$hashnode@Vword@chen@@PAVTable@@@chen@@V?$allocator@PAV?$hashnode@Vword@chen@@PAVTable@@@chen@@@std@@@std@@IBEXXZ 0042f2c2 f   DB.obj
 0001:0002e2c2       __ehhandler$?_Incsize@?$list@V?$basic_string@DU?$char_traits@D@std@@V?$allocator@D@2@@std@@V?$allocator@V?$basic_string@DU?$char_traits@D@std@@V?$allocator@D@2@@std@@@2@@std@@IAEXI@Z 0042f2c2 f   DB.obj
 0001:0002e2d0       $L64188                    0042f2d0 f   DB.obj
 0001:0002e2d0       $L63530                    0042f2d0 f   DB.obj
 0001:0002e2d9       __ehhandler$??0logic_error@std@@QAE@ABV01@@Z 0042f2d9 f   DB.obj
 0001:0002e2d9       __ehhandler$??1logic_error@std@@UAE@XZ 0042f2d9 f   DB.obj
 0001:0002e2f0       $L64207                    0042f2f0 f   DB.obj
 0001:0002e2f8       $L64208                    0042f2f8 f   DB.obj
 0001:0002e303       __ehhandler$??0?$hashelement@Vword@chen@@V12@@chen@@QAE@ABVword@1@@Z 0042f303 f   DB.obj
 0001:0002e310       $L64461                    0042f310 f   DB.obj
 0001:0002e310       $L64498                    0042f310 f   DB.obj
 0001:0002e318       __ehhandler$??O?$treenode@V?$hashelement@Vword@chen@@PAVTable@@@chen@@@chen@@QAE_NV01@@Z 0042f318 f   DB.obj
 0001:0002e318       __ehhandler$??M?$treenode@V?$hashelement@Vword@chen@@PAVTable@@@chen@@@chen@@QAE_NV01@@Z 0042f318 f   DB.obj
 0001:0002e330       $L64596                    0042f330 f   DB.obj
 0001:0002e330       $L64559                    0042f330 f   DB.obj
 0001:0002e338       __ehhandler$??O?$treenode@V?$hashelement@Vword@chen@@PAVQueue@@@chen@@@chen@@QAE_NV01@@Z 0042f338 f   DB.obj
 0001:0002e338       __ehhandler$??M?$treenode@V?$hashelement@Vword@chen@@PAVQueue@@@chen@@@chen@@QAE_NV01@@Z 0042f338 f   DB.obj
 0001:0002e350       $L64632                    0042f350 f   DB.obj
 0001:0002e350       $L64534                    0042f350 f   DB.obj
 0001:0002e350       $L64968                    0042f350 f   DB.obj
 0001:0002e350       $L64945                    0042f350 f   DB.obj
 0001:0002e35b       __ehhandler$??0?$treenode@V?$hashelement@Vword@chen@@PAVQueue@@@chen@@@chen@@QAE@ABV?$hashelement@Vword@chen@@PAVQueue@@@1@@Z 0042f35b f   DB.obj
 0001:0002e35b       __ehhandler$??0?$treenode@V?$hashelement@Vword@chen@@PAVQueue@@@chen@@@chen@@QAE@ABV01@@Z 0042f35b f   DB.obj
 0001:0002e35b       __ehhandler$??0?$treenode@V?$hashelement@Vword@chen@@PAVTable@@@chen@@@chen@@QAE@ABV01@@Z 0042f35b f   DB.obj
 0001:0002e35b       __ehhandler$??0?$treenode@V?$hashelement@Vword@chen@@PAVTable@@@chen@@@chen@@QAE@ABV?$hashelement@Vword@chen@@PAVTable@@@1@@Z 0042f35b f   DB.obj
 0001:0002e370       $L65129                    0042f370 f   DB.obj
 0001:0002e379       __ehhandler$?CreatePagePool@PagePool@@QAE_NHV?$basic_string@DU?$char_traits@D@std@@V?$allocator@D@2@@std@@HH@Z 0042f379 f   DB.obj
 0001:0002e390       $L65184                    0042f390 f   DB.obj
 0001:0002e399       $L65185                    0042f399 f   DB.obj
 0001:0002e3a2       $L65186                    0042f3a2 f   DB.obj
 0001:0002e3ad       $L65188                    0042f3ad f   DB.obj
 0001:0002e3b8       __ehhandler$?CreateNewEx@DB@@QAE_NV?$basic_string@DU?$char_traits@D@std@@V?$allocator@D@2@@std@@0HHH@Z 0042f3b8 f   DB.obj
 0001:0002e3d0       $L70846                    0042f3d0 f   DB.obj
 0001:0002e3d0       $L69168                    0042f3d0 f   DB.obj
 0001:0002e3d0       $L68282                    0042f3d0 f   DB.obj
 0001:0002e3d0       $L65816                    0042f3d0 f   DB.obj
 0001:0002e3d0       $L69292                    0042f3d0 f   DB.obj
 0001:0002e3d0       $L68358                    0042f3d0 f   DB.obj
 0001:0002e3d0       $L65662                    0042f3d0 f   DB.obj
 0001:0002e3d0       $L70720                    0042f3d0 f   DB.obj
 0001:0002e3d8       __ehhandler$?RomoveNode@?$sorttree@V?$hashelement@Vword@chen@@PAVQueue@@@chen@@@chen@@QAEXABV?$hashelement@Vword@chen@@PAVQueue@@@2@@Z 0042f3d8 f   DB.obj
 0001:0002e3d8       __ehhandler$?erase@?$hashnode@Vword@chen@@PAVTable@@@chen@@QAE_NABVword@2@@Z 0042f3d8 f   DB.obj
 0001:0002e3d8       __ehhandler$?erase@?$hashnode@Vword@chen@@PAVQueue@@@chen@@QAE_NABVword@2@@Z 0042f3d8 f   DB.obj
 0001:0002e3d8       __ehhandler$?insert@?$hashnode@Vword@chen@@PAVTable@@@chen@@QAEAAV?$hashelement@Vword@chen@@PAVTable@@@2@ABVword@2@ABQAVTable@@@Z 0042f3d8 f   DB.obj
 0001:0002e3d8       __ehhandler$?find@?$hashnode@Vword@chen@@PAVTable@@@chen@@QAE_NABVword@2@PAPAV?$hashelement@Vword@chen@@PAVTable@@@2@@Z 0042f3d8 f   DB.obj
 0001:0002e3d8       __ehhandler$?RomoveNode@?$sorttree@V?$hashelement@Vword@chen@@PAVTable@@@chen@@@chen@@QAEXABV?$hashelement@Vword@chen@@PAVTable@@@2@@Z 0042f3d8 f   DB.obj
 0001:0002e3d8       __ehhandler$?find@?$hashnode@Vword@chen@@PAVQueue@@@chen@@QAE_NABVword@2@PAPAV?$hashelement@Vword@chen@@PAVQueue@@@2@@Z 0042f3d8 f   DB.obj
 0001:0002e3d8       __ehhandler$?insert@?$hashnode@Vword@chen@@PAVQueue@@@chen@@QAEAAV?$hashelement@Vword@chen@@PAVQueue@@@2@ABVword@2@ABQAVQueue@@@Z 0042f3d8 f   DB.obj
 0001:0002e3f0       $L67449                    0042f3f0 f   DB.obj
 0001:0002e3f0       $L67435                    0042f3f0 f   DB.obj
 0001:0002e3f0       $L73727                    0042f3f0 f   DB.obj
 0001:0002e3f0       $L74043                    0042f3f0 f   DB.obj
 0001:0002e3fb       __ehhandler$?insert@?$hashtable@Vword@chen@@PAVTable@@@chen@@QAEAAPAVTable@@ABVword@2@ABQAV3@@Z 0042f3fb f   DB.obj
 0001:0002e3fb       __ehhandler$?insert@?$hashtable@Vword@chen@@PAVQueue@@@chen@@QAEAAPAVQueue@@ABVword@2@ABQAV3@@Z 0042f3fb f   DB.obj
 0001:0002e3fb       __ehhandler$??$CreateNode@V?$hashelement@Vword@chen@@PAVTable@@@chen@@@?$sorttree@V?$hashelement@Vword@chen@@PAVTable@@@chen@@@chen@@SAPAV?$treenode@V?$hashelement@Vword@chen@@PAVTable@@@chen@@@1@ABV?$hashelement@Vword@chen@@PAVTable@@@1@@Z 0042f3fb f   DB.obj
 0001:0002e3fb       __ehhandler$??$CreateNode@V?$hashelement@Vword@chen@@PAVQueue@@@chen@@@?$sorttree@V?$hashelement@Vword@chen@@PAVQueue@@@chen@@@chen@@SAPAV?$treenode@V?$hashelement@Vword@chen@@PAVQueue@@@chen@@@1@ABV?$hashelement@Vword@chen@@PAVQueue@@@1@@Z 0042f3fb f   DB.obj
 0001:0002e410       $L68008                    0042f410 f   DB.obj
 0001:0002e421       __ehhandler$?_Buynode@?$list@V?$basic_string@DU?$char_traits@D@std@@V?$allocator@D@2@@std@@V?$allocator@V?$basic_string@DU?$char_traits@D@std@@V?$allocator@D@2@@std@@@2@@std@@IAEPAU_Node@?$_List_nod@V?$basic_string@DU?$char_traits@D@std@@V?$allocator@D@2@@std@@V?$allocator@V?$basic_string@DU?$char_traits@D@std@@V?$allocator@D@2@@std@@@2@@2@PAU342@0ABV?$basic_string@DU?$char_traits@D@std@@V?$allocator@D@2@@2@@Z 0042f421 f   DB.obj
 0001:0002e430       $L68204                    0042f430 f   DB.obj
 0001:0002e438       __ehhandler$?find@?$hashnode@Vword@chen@@V12@@chen@@QAE_NABVword@2@PAPAV?$hashelement@Vword@chen@@V12@@2@@Z 0042f438 f   DB.obj
 0001:0002e450       $L69097                    0042f450 f   DB.obj
 0001:0002e450       $L64024                    0042f450 f   DB.obj
 0001:0002e450       $L64055                    0042f450 f   DB.obj
 0001:0002e450       $L64068                    0042f450 f   DB.obj
 0001:0002e450       $L64011                    0042f450 f   DB.obj
 0001:0002e450       $L69221                    0042f450 f   DB.obj
 0001:0002e458       __ehhandler$??1?$hashnode@Vword@chen@@PAVTable@@@chen@@QAE@XZ 0042f458 f   DB.obj
 0001:0002e458       __ehhandler$??0?$hashelement@Vword@chen@@PAVTable@@@chen@@QAE@ABVword@1@ABQAVTable@@@Z 0042f458 f   DB.obj
 0001:0002e458       __ehhandler$??0?$hashelement@Vword@chen@@PAVQueue@@@chen@@QAE@ABVword@1@ABQAVQueue@@@Z 0042f458 f   DB.obj
 0001:0002e458       __ehhandler$??0?$hashelement@Vword@chen@@PAVTable@@@chen@@QAE@ABVword@1@@Z 0042f458 f   DB.obj
 0001:0002e458       __ehhandler$??0?$hashelement@Vword@chen@@PAVQueue@@@chen@@QAE@ABVword@1@@Z 0042f458 f   DB.obj
 0001:0002e458       __ehhandler$??1?$hashnode@Vword@chen@@PAVQueue@@@chen@@QAE@XZ 0042f458 f   DB.obj
 0001:0002e470       __ehhandler$??$_Insert@Vconst_iterator@?$list@PAVStringMap@@V?$allocator@PAVStringMap@@@std@@@std@@@?$list@PAVStringMap@@V?$allocator@PAVStringMap@@@std@@@std@@QAEXViterator@01@Vconst_iterator@01@1Uforward_iterator_tag@1@@Z 0042f470 f   DB.obj
 0001:0002e480       $L71782                    0042f480 f   DB.obj
 0001:0002e480       $L71732                    0042f480 f   DB.obj
 0001:0002e480       $L71620                    0042f480 f   DB.obj
 0001:0002e480       $L71467                    0042f480 f   DB.obj
 0001:0002e480       $L71514                    0042f480 f   DB.obj
 0001:0002e480       $L71586                    0042f480 f   DB.obj
 0001:0002e480       $L71655                    0042f480 f   DB.obj
 0001:0002e480       $L71757                    0042f480 f   DB.obj
 0001:0002e489       $L71621                    0042f489 f   DB.obj
 0001:0002e489       $L71515                    0042f489 f   DB.obj
 0001:0002e489       $L71468                    0042f489 f   DB.obj
 0001:0002e489       $L71783                    0042f489 f   DB.obj
 0001:0002e489       $L71656                    0042f489 f   DB.obj
 0001:0002e489       $L71587                    0042f489 f   DB.obj
 0001:0002e489       $L71758                    0042f489 f   DB.obj
 0001:0002e489       $L71733                    0042f489 f   DB.obj
 0001:0002e492       $L71622                    0042f492 f   DB.obj
 0001:0002e492       $L71516                    0042f492 f   DB.obj
 0001:0002e492       $L71759                    0042f492 f   DB.obj
 0001:0002e492       $L71657                    0042f492 f   DB.obj
 0001:0002e492       $L71588                    0042f492 f   DB.obj
 0001:0002e492       $L71469                    0042f492 f   DB.obj
 0001:0002e492       $L71784                    0042f492 f   DB.obj
 0001:0002e492       $L71734                    0042f492 f   DB.obj
 0001:0002e49a       __ehhandler$?QueryRecordByTimeEx@DB@@QAEHV?$basic_string@DU?$char_traits@D@std@@V?$allocator@D@2@@std@@VTTime@chen@@1AAVbuffer@5@AAH@Z 0042f49a f   DB.obj
 0001:0002e49a       __ehhandler$?QueryDyn@DB@@QAEHV?$basic_string@DU?$char_traits@D@std@@V?$allocator@D@2@@std@@PADAAI@Z 0042f49a f   DB.obj
 0001:0002e49a       __ehhandler$?QueryRecordByCount@DB@@QAEHV?$basic_string@DU?$char_traits@D@std@@V?$allocator@D@2@@std@@IAAVbuffer@chen@@AAH@Z 0042f49a f   DB.obj
 0001:0002e49a       __ehhandler$?QueryDynNOStr@DB@@QAEHV?$basic_string@DU?$char_traits@D@std@@V?$allocator@D@2@@std@@PADAAI@Z 0042f49a f   DB.obj
 0001:0002e49a       __ehhandler$?DeleteRecordsByTime@DB@@QAE_NV?$basic_string@DU?$char_traits@D@std@@V?$allocator@D@2@@std@@VTTime@chen@@@Z 0042f49a f   DB.obj
 0001:0002e49a       __ehhandler$?PeekQueueMessage@DB@@QAEHV?$basic_string@DU?$char_traits@D@std@@V?$allocator@D@2@@std@@AAVbuffer@chen@@AAI_NI@Z 0042f49a f   DB.obj
 0001:0002e49a       __ehhandler$?GetQueueRecordCount@DB@@QAEHV?$basic_string@DU?$char_traits@D@std@@V?$allocator@D@2@@std@@AAI@Z 0042f49a f   DB.obj
 0001:0002e49a       __ehhandler$?PopQueueMessage@DB@@QAEHV?$basic_string@DU?$char_traits@D@std@@V?$allocator@D@2@@std@@AAVbuffer@chen@@AAI_NI@Z 0042f49a f   DB.obj
 0001:0002e4b0       $L71819                    0042f4b0 f   DB.obj
 0001:0002e4b0       $L71699                    0042f4b0 f   DB.obj
 0001:0002e4b9       $L71700                    0042f4b9 f   DB.obj
 0001:0002e4b9       $L71820                    0042f4b9 f   DB.obj
 0001:0002e4c2       $L71821                    0042f4c2 f   DB.obj
 0001:0002e4c2       $L71701                    0042f4c2 f   DB.obj
 0001:0002e4ca       $L71822                    0042f4ca f   DB.obj
 0001:0002e4ca       $L71702                    0042f4ca f   DB.obj
 0001:0002e4d3       __ehhandler$?ClearQueueRecords@DB@@QAEHV?$basic_string@DU?$char_traits@D@std@@V?$allocator@D@2@@std@@@Z 0042f4d3 f   DB.obj
 0001:0002e4d3       __ehhandler$?AppendQueueMessage@DB@@QAE_NV?$basic_string@DU?$char_traits@D@std@@V?$allocator@D@2@@std@@PBDI@Z 0042f4d3 f   DB.obj
 0001:0002e4e0       $L72035                    0042f4e0 f   DB.obj
 0001:0002e4e0       $L73629                    0042f4e0 f   DB.obj
 0001:0002e4e0       $L72454                    0042f4e0 f   DB.obj
 0001:0002e4e0       $L73945                    0042f4e0 f   DB.obj
 0001:0002e4e8       __ehhandler$??0?$hashtable@Vword@chen@@PAVQueue@@@chen@@QAE@XZ 0042f4e8 f   DB.obj
 0001:0002e4e8       __ehhandler$??1?$hashtable@Vword@chen@@PAVTable@@@chen@@QAE@XZ 0042f4e8 f   DB.obj
 0001:0002e4e8       __ehhandler$??0?$hashtable@Vword@chen@@PAVTable@@@chen@@QAE@XZ 0042f4e8 f   DB.obj
 0001:0002e4e8       __ehhandler$??1?$hashtable@Vword@chen@@PAVQueue@@@chen@@QAE@XZ 0042f4e8 f   DB.obj
 0001:0002e500       $L73180                    0042f500 f   DB.obj
 0001:0002e509       $L73181                    0042f509 f   DB.obj
 0001:0002e512       $L73182                    0042f512 f   DB.obj
 0001:0002e51a       $L73184                    0042f51a f   DB.obj
 0001:0002e522       __ehhandler$?DeleteTable@DB@@QAE_NV?$basic_string@DU?$char_traits@D@std@@V?$allocator@D@2@@std@@@Z 0042f522 f   DB.obj
 0001:0002e530       $L73223                    0042f530 f   DB.obj
 0001:0002e530       $L73336                    0042f530 f   DB.obj
 0001:0002e539       $L73224                    0042f539 f   DB.obj
 0001:0002e539       $L73337                    0042f539 f   DB.obj
 0001:0002e542       __ehhandler$?GetAllTableNames@DB@@QAE_NAAV?$list@V?$basic_string@DU?$char_traits@D@std@@V?$allocator@D@2@@std@@V?$allocator@V?$basic_string@DU?$char_traits@D@std@@V?$allocator@D@2@@std@@@2@@std@@@Z 0042f542 f   DB.obj
 0001:0002e542       __ehhandler$?GetAllQueueNames@DB@@QAE_NAAV?$list@V?$basic_string@DU?$char_traits@D@std@@V?$allocator@D@2@@std@@V?$allocator@V?$basic_string@DU?$char_traits@D@std@@V?$allocator@D@2@@std@@@2@@std@@@Z 0042f542 f   DB.obj
 0001:0002e550       $L73451                    0042f550 f   DB.obj
 0001:0002e559       $L73452                    0042f559 f   DB.obj
 0001:0002e562       $L73453                    0042f562 f   DB.obj
 0001:0002e56a       $L73454                    0042f56a f   DB.obj
 0001:0002e573       $L73455                    0042f573 f   DB.obj
 0001:0002e57b       __ehhandler$?DeleteQueue@DB@@QAEHV?$basic_string@DU?$char_traits@D@std@@V?$allocator@D@2@@std@@@Z 0042f57b f   DB.obj
 0001:0002e590       __ehhandler$??0?$list@PAVStringMap@@V?$allocator@PAVStringMap@@@std@@@std@@QAE@ABV01@@Z 0042f590 f   DB.obj
 0001:0002e5a0       $L74261                    0042f5a0 f   DB.obj
 0001:0002e5a9       $L74262                    0042f5a9 f   DB.obj
 0001:0002e5b5       $L74263                    0042f5b5 f   DB.obj
 0001:0002e5c0       $L74264                    0042f5c0 f   DB.obj
 0001:0002e5cb       $L74265                    0042f5cb f   DB.obj
 0001:0002e5d7       $L74266                    0042f5d7 f   DB.obj
 0001:0002e5e6       __ehhandler$??0DB@@QAE@XZ  0042f5e6 f   DB.obj
 0001:0002e5f0       $L74460                    0042f5f0 f   DB.obj
 0001:0002e5fb       $L74461                    0042f5fb f   DB.obj
 0001:0002e606       $L74462                    0042f606 f   DB.obj
 0001:0002e611       $L74463                    0042f611 f   DB.obj
 0001:0002e619       $L74464                    0042f619 f   DB.obj
 0001:0002e624       $L74465                    0042f624 f   DB.obj
 0001:0002e62c       __ehhandler$?LoadEx@DB@@QAE_NXZ 0042f62c f   DB.obj
 0001:0002e640       $L74669                    0042f640 f   DB.obj
 0001:0002e649       $L74670                    0042f649 f   DB.obj
 0001:0002e652       $L74671                    0042f652 f   DB.obj
 0001:0002e65a       $L74672                    0042f65a f   DB.obj
 0001:0002e665       $L74673                    0042f665 f   DB.obj
 0001:0002e66d       __ehhandler$?CreateQueue@DB@@QAE_NV?$basic_string@DU?$char_traits@D@std@@V?$allocator@D@2@@std@@H@Z 0042f66d f   DB.obj
 0001:0002e680       $L74791                    0042f680 f   DB.obj
 0001:0002e689       $L74792                    0042f689 f   DB.obj
 0001:0002e692       $L74793                    0042f692 f   DB.obj
 0001:0002e69a       $L74794                    0042f69a f   DB.obj
 0001:0002e6a5       $L74795                    0042f6a5 f   DB.obj
 0001:0002e6ad       $L74797                    0042f6ad f   DB.obj
 0001:0002e6b5       $L74798                    0042f6b5 f   DB.obj
 0001:0002e6bd       $L74799                    0042f6bd f   DB.obj
 0001:0002e6c5       $L74800                    0042f6c5 f   DB.obj
 0001:0002e6cd       $L74802                    0042f6cd f   DB.obj
 0001:0002e6d6       $L74803                    0042f6d6 f   DB.obj
 0001:0002e6de       __ehhandler$?InsertTableEx@DB@@QAE_NV?$basic_string@DU?$char_traits@D@std@@V?$allocator@D@2@@std@@H@Z 0042f6de f   DB.obj
 0001:0002e6f0       $L75224                    0042f6f0 f   DB.obj
 0001:0002e6f9       $L75225                    0042f6f9 f   DB.obj
 0001:0002e705       __ehhandler$?Init@DB@@QAE_NV?$basic_string@DU?$char_traits@D@std@@V?$allocator@D@2@@std@@PAVSvdbMain@@HH@Z 0042f705 f   DB.obj
 0001:0002e710       $L75311                    0042f710 f   DB.obj
 0001:0002e719       $L75312                    0042f719 f   DB.obj
 0001:0002e722       $L75313                    0042f722 f   DB.obj
 0001:0002e72a       $L75314                    0042f72a f   DB.obj
 0001:0002e733       $L75315                    0042f733 f   DB.obj
 0001:0002e73b       $L75316                    0042f73b f   DB.obj
 0001:0002e743       $L75318                    0042f743 f   DB.obj
 0001:0002e74b       __ehhandler$?AppendRecord@DB@@QAEHV?$basic_string@DU?$char_traits@D@std@@V?$allocator@D@2@@std@@PBDI@Z 0042f74b f   DB.obj
 0001:0002e760       $L20445                    0042f760 f   Entity.obj
 0001:0002e771       __ehhandler$?_Buynode@?$list@Vword@chen@@V?$allocator@Vword@chen@@@std@@@std@@IAEPAU_Node@?$_List_nod@Vword@chen@@V?$allocator@Vword@chen@@@std@@@2@PAU342@0ABVword@chen@@@Z 0042f771 f   Entity.obj
 0001:0002e780       $L20478                    0042f780 f   Entity.obj
 0001:0002e789       $L20498                    0042f789 f   Entity.obj
 0001:0002e792       __ehhandler$?_Incsize@?$list@Vword@chen@@V?$allocator@Vword@chen@@@std@@@std@@IAEXI@Z 0042f792 f   Entity.obj
 0001:0002e7a0       $L21068                    0042f7a0 f   Entity.obj
 0001:0002e7a8       __ehhandler$?CreateObjectByRawData@Entity@@UAEHPBDI@Z 0042f7a8 f   Entity.obj
 0001:0002e7c0       $L21111                    0042f7c0 f   Entity.obj
 0001:0002e7cb       $L21112                    0042f7cb f   Entity.obj
 0001:0002e7d6       $L21113                    0042f7d6 f   Entity.obj
 0001:0002e7e1       __ehhandler$??0Entity@@QAE@XZ 0042f7e1 f   Entity.obj
 0001:0002e7f0       $L21215                    0042f7f0 f   Entity.obj
 0001:0002e7fb       __ehhandler$??1Entity@@QAE@XZ 0042f7fb f   Entity.obj
 0001:0002e810       $L21050                    0042f810 f   EntityGroup.obj
 0001:0002e818       __ehhandler$?CreateObjectByRawData@EntityGroup@@UAEHPBDI@Z 0042f818 f   EntityGroup.obj
 0001:0002e830       $L21097                    0042f830 f   EntityGroup.obj
 0001:0002e83b       $L21098                    0042f83b f   EntityGroup.obj
 0001:0002e846       $L21099                    0042f846 f   EntityGroup.obj
 0001:0002e851       __ehhandler$??0EntityGroup@@QAE@XZ 0042f851 f   EntityGroup.obj
 0001:0002e860       $L21201                    0042f860 f   EntityGroup.obj
 0001:0002e86b       __ehhandler$??1EntityGroup@@QAE@XZ 0042f86b f   EntityGroup.obj
 0001:0002e880       $L43609                    0042f880 f   EntityGroupPool.obj
 0001:0002e888       $L43610                    0042f888 f   EntityGroupPool.obj
 0001:0002e893       $L43611                    0042f893 f   EntityGroupPool.obj
 0001:0002e89f       __ehhandler$??0PoolBase@@QAE@Vword@chen@@@Z 0042f89f f   EntityGroupPool.obj
 0001:0002e8b0       $L43670                    0042f8b0 f   EntityGroupPool.obj
 0001:0002e8bc       $L43671                    0042f8bc f   EntityGroupPool.obj
 0001:0002e8c8       __ehhandler$?Load@EntityGroupPool@@UAE_NXZ 0042f8c8 f   EntityGroupPool.obj
 0001:0002e8e0       $L43702                    0042f8e0 f   EntityGroupPool.obj
 0001:0002e8ec       $L43703                    0042f8ec f   EntityGroupPool.obj
 0001:0002e8f8       __ehhandler$?Submit@EntityGroupPool@@UAE_NXZ 0042f8f8 f   EntityGroupPool.obj
 0001:0002e910       $L43867                    0042f910 f   EntityGroupPool.obj
 0001:0002e910       $L46387                    0042f910 f   EntityGroupPool.obj
 0001:0002e910       $L43880                    0042f910 f   EntityGroupPool.obj
 0001:0002e918       __ehhandler$??0?$hashelement@Vword@chen@@PAVEntityGroup@@@chen@@QAE@ABVword@1@ABQAVEntityGroup@@@Z 0042f918 f   EntityGroupPool.obj
 0001:0002e918       __ehhandler$??0?$hashelement@Vword@chen@@PAVEntityGroup@@@chen@@QAE@ABVword@1@@Z 0042f918 f   EntityGroupPool.obj
 0001:0002e918       __ehhandler$??1?$hashnode@Vword@chen@@PAVEntityGroup@@@chen@@QAE@XZ 0042f918 f   EntityGroupPool.obj
 0001:0002e930       $L43976                    0042f930 f   EntityGroupPool.obj
 0001:0002e939       $L43980                    0042f939 f   EntityGroupPool.obj
 0001:0002e942       __ehhandler$?_Xlen@?$vector@PAV?$hashnode@Vword@chen@@PAVEntityGroup@@@chen@@V?$allocator@PAV?$hashnode@Vword@chen@@PAVEntityGroup@@@chen@@@std@@@std@@IBEXXZ 0042f942 f   EntityGroupPool.obj
 0001:0002e950       $L44125                    0042f950 f   EntityGroupPool.obj
 0001:0002e950       $L44088                    0042f950 f   EntityGroupPool.obj
 0001:0002e958       __ehhandler$??O?$treenode@V?$hashelement@Vword@chen@@PAVEntityGroup@@@chen@@@chen@@QAE_NV01@@Z 0042f958 f   EntityGroupPool.obj
 0001:0002e958       __ehhandler$??M?$treenode@V?$hashelement@Vword@chen@@PAVEntityGroup@@@chen@@@chen@@QAE_NV01@@Z 0042f958 f   EntityGroupPool.obj
 0001:0002e970       $L44383                    0042f970 f   EntityGroupPool.obj
 0001:0002e970       $L44161                    0042f970 f   EntityGroupPool.obj
 0001:0002e97b       __ehhandler$??0?$treenode@V?$hashelement@Vword@chen@@PAVEntityGroup@@@chen@@@chen@@QAE@ABV01@@Z 0042f97b f   EntityGroupPool.obj
 0001:0002e97b       __ehhandler$??0?$treenode@V?$hashelement@Vword@chen@@PAVEntityGroup@@@chen@@@chen@@QAE@ABV?$hashelement@Vword@chen@@PAVEntityGroup@@@1@@Z 0042f97b f   EntityGroupPool.obj
 0001:0002e990       $L46458                    0042f990 f   EntityGroupPool.obj
 0001:0002e990       $L46143                    0042f990 f   EntityGroupPool.obj
 0001:0002e998       __ehhandler$?insert@?$hashnode@Vword@chen@@PAVEntityGroup@@@chen@@QAEAAV?$hashelement@Vword@chen@@PAVEntityGroup@@@2@ABVword@2@ABQAVEntityGroup@@@Z 0042f998 f   EntityGroupPool.obj
 0001:0002e998       __ehhandler$?find@?$hashnode@Vword@chen@@PAVEntityGroup@@@chen@@QAE_NABVword@2@PAPAV?$hashelement@Vword@chen@@PAVEntityGroup@@@2@@Z 0042f998 f   EntityGroupPool.obj
 0001:0002e9b0       $L47784                    0042f9b0 f   EntityGroupPool.obj
 0001:0002e9b8       __ehhandler$??0?$hashtable@Vword@chen@@PAVEntityGroup@@@chen@@QAE@XZ 0042f9b8 f   EntityGroupPool.obj
 0001:0002e9d0       $L47882                    0042f9d0 f   EntityGroupPool.obj
 0001:0002e9d0       $L45957                    0042f9d0 f   EntityGroupPool.obj
 0001:0002e9db       __ehhandler$?insert@?$hashtable@Vword@chen@@PAVEntityGroup@@@chen@@QAEAAPAVEntityGroup@@ABVword@2@ABQAV3@@Z 0042f9db f   EntityGroupPool.obj
 0001:0002e9db       __ehhandler$??$CreateNode@V?$hashelement@Vword@chen@@PAVEntityGroup@@@chen@@@?$sorttree@V?$hashelement@Vword@chen@@PAVEntityGroup@@@chen@@@chen@@SAPAV?$treenode@V?$hashelement@Vword@chen@@PAVEntityGroup@@@chen@@@1@ABV?$hashelement@Vword@chen@@PAVEntityGroup@@@1@@Z 0042f9db f   EntityGroupPool.obj
 0001:0002e9f0       $L48113                    0042f9f0 f   EntityGroupPool.obj
 0001:0002e9f8       $L48115                    0042f9f8 f   EntityGroupPool.obj
 0001:0002ea00       __ehhandler$??0EntityGroupPool@@QAE@Vword@chen@@@Z 0042fa00 f   EntityGroupPool.obj
 0001:0002ea10       $L48143                    0042fa10 f   EntityGroupPool.obj
 0001:0002ea1b       $L48144                    0042fa1b f   EntityGroupPool.obj
 0001:0002ea23       __ehhandler$?CreateObjectByRawData@EntityGroupPool@@UAEHPBDI@Z 0042fa23 f   EntityGroupPool.obj
 0001:0002ea30       $L48169                    0042fa30 f   EntityGroupPool.obj
 0001:0002ea39       $L48170                    0042fa39 f   EntityGroupPool.obj
 0001:0002ea41       $L48171                    0042fa41 f   EntityGroupPool.obj
 0001:0002ea49       __ehhandler$?Push@EntityGroupPool@@QAE_NPAVEntityGroup@@@Z 0042fa49 f   EntityGroupPool.obj
 0001:0002ea60       $L48217                    0042fa60 f   EntityGroupPool.obj
 0001:0002ea69       $L48218                    0042fa69 f   EntityGroupPool.obj
 0001:0002ea74       __ehhandler$?Push@EntityGroupPool@@QAE_NPBDI@Z 0042fa74 f   EntityGroupPool.obj
 0001:0002ea80       $L43800                    0042fa80 f   EntityPool.obj
 0001:0002ea8c       $L43801                    0042fa8c f   EntityPool.obj
 0001:0002ea98       __ehhandler$?Load@EntityPool@@UAE_NXZ 0042fa98 f   EntityPool.obj
 0001:0002eab0       $L43832                    0042fab0 f   EntityPool.obj
 0001:0002eabc       $L43833                    0042fabc f   EntityPool.obj
 0001:0002eac8       __ehhandler$?Submit@EntityPool@@UAE_NXZ 0042fac8 f   EntityPool.obj
 0001:0002eae0       $L43997                    0042fae0 f   EntityPool.obj
 0001:0002eae0       $L46657                    0042fae0 f   EntityPool.obj
 0001:0002eae0       $L44010                    0042fae0 f   EntityPool.obj
 0001:0002eae8       __ehhandler$??0?$hashelement@Vword@chen@@PAVEntity@@@chen@@QAE@ABVword@1@@Z 0042fae8 f   EntityPool.obj
 0001:0002eae8       __ehhandler$??1?$hashnode@Vword@chen@@PAVEntity@@@chen@@QAE@XZ 0042fae8 f   EntityPool.obj
 0001:0002eae8       __ehhandler$??0?$hashelement@Vword@chen@@PAVEntity@@@chen@@QAE@ABVword@1@ABQAVEntity@@@Z 0042fae8 f   EntityPool.obj
 0001:0002eb00       $L44106                    0042fb00 f   EntityPool.obj
 0001:0002eb09       $L44110                    0042fb09 f   EntityPool.obj
 0001:0002eb12       __ehhandler$?_Xlen@?$vector@PAV?$hashnode@Vword@chen@@PAVEntity@@@chen@@V?$allocator@PAV?$hashnode@Vword@chen@@PAVEntity@@@chen@@@std@@@std@@IBEXXZ 0042fb12 f   EntityPool.obj
 0001:0002eb20       $L44255                    0042fb20 f   EntityPool.obj
 0001:0002eb20       $L44218                    0042fb20 f   EntityPool.obj
 0001:0002eb28       __ehhandler$??M?$treenode@V?$hashelement@Vword@chen@@PAVEntity@@@chen@@@chen@@QAE_NV01@@Z 0042fb28 f   EntityPool.obj
 0001:0002eb28       __ehhandler$??O?$treenode@V?$hashelement@Vword@chen@@PAVEntity@@@chen@@@chen@@QAE_NV01@@Z 0042fb28 f   EntityPool.obj
 0001:0002eb40       $L44291                    0042fb40 f   EntityPool.obj
 0001:0002eb40       $L44513                    0042fb40 f   EntityPool.obj
 0001:0002eb4b       __ehhandler$??0?$treenode@V?$hashelement@Vword@chen@@PAVEntity@@@chen@@@chen@@QAE@ABV?$hashelement@Vword@chen@@PAVEntity@@@1@@Z 0042fb4b f   EntityPool.obj
 0001:0002eb4b       __ehhandler$??0?$treenode@V?$hashelement@Vword@chen@@PAVEntity@@@chen@@@chen@@QAE@ABV01@@Z 0042fb4b f   EntityPool.obj
 0001:0002eb60       $L44887                    0042fb60 f   EntityPool.obj
 0001:0002eb60       $L46413                    0042fb60 f   EntityPool.obj
 0001:0002eb60       $L46728                    0042fb60 f   EntityPool.obj
 0001:0002eb60       $L47382                    0042fb60 f   EntityPool.obj
 0001:0002eb68       __ehhandler$?insert@?$hashnode@Vword@chen@@PAVEntity@@@chen@@QAEAAV?$hashelement@Vword@chen@@PAVEntity@@@2@ABVword@2@ABQAVEntity@@@Z 0042fb68 f   EntityPool.obj
 0001:0002eb68       __ehhandler$?find@?$hashnode@Vword@chen@@PAVEntity@@@chen@@QAE_NABVword@2@PAPAV?$hashelement@Vword@chen@@PAVEntity@@@2@@Z 0042fb68 f   EntityPool.obj
 0001:0002eb68       __ehhandler$?RomoveNode@?$sorttree@V?$hashelement@Vword@chen@@PAVEntity@@@chen@@@chen@@QAEXABV?$hashelement@Vword@chen@@PAVEntity@@@2@@Z 0042fb68 f   EntityPool.obj
 0001:0002eb68       __ehhandler$?erase@?$hashnode@Vword@chen@@PAVEntity@@@chen@@QAE_NABVword@2@@Z 0042fb68 f   EntityPool.obj
 0001:0002eb80       $L47628                    0042fb80 f   EntityPool.obj
 0001:0002eb88       __ehhandler$?GetEntityData@EntityPool@@QAE_NVword@chen@@PADAAI@Z 0042fb88 f   EntityPool.obj
 0001:0002eba0       $L48345                    0042fba0 f   EntityPool.obj
 0001:0002eba0       $L47655                    0042fba0 f   EntityPool.obj
 0001:0002eba8       __ehhandler$??1?$hashtable@Vword@chen@@PAVEntity@@@chen@@QAE@XZ 0042fba8 f   EntityPool.obj
 0001:0002eba8       __ehhandler$??0?$hashtable@Vword@chen@@PAVEntity@@@chen@@QAE@XZ 0042fba8 f   EntityPool.obj
 0001:0002ebc0       $L48304                    0042fbc0 f   EntityPool.obj
 0001:0002ebc8       $L48305                    0042fbc8 f   EntityPool.obj
 0001:0002ebd1       __ehhandler$?DeleteEntity@EntityPool@@QAE_NVword@chen@@@Z 0042fbd1 f   EntityPool.obj
 0001:0002ebe0       $L48443                    0042fbe0 f   EntityPool.obj
 0001:0002ebe0       $L46227                    0042fbe0 f   EntityPool.obj
 0001:0002ebeb       __ehhandler$??$CreateNode@V?$hashelement@Vword@chen@@PAVEntity@@@chen@@@?$sorttree@V?$hashelement@Vword@chen@@PAVEntity@@@chen@@@chen@@SAPAV?$treenode@V?$hashelement@Vword@chen@@PAVEntity@@@chen@@@1@ABV?$hashelement@Vword@chen@@PAVEntity@@@1@@Z 0042fbeb f   EntityPool.obj
 0001:0002ebeb       __ehhandler$?insert@?$hashtable@Vword@chen@@PAVEntity@@@chen@@QAEAAPAVEntity@@ABVword@2@ABQAV3@@Z 0042fbeb f   EntityPool.obj
 0001:0002ec00       $L48684                    0042fc00 f   EntityPool.obj
 0001:0002ec08       $L48686                    0042fc08 f   EntityPool.obj
 0001:0002ec10       $L48687                    0042fc10 f   EntityPool.obj
 0001:0002ec1b       __ehhandler$??0EntityPool@@QAE@Vword@chen@@@Z 0042fc1b f   EntityPool.obj
 0001:0002ec30       $L48722                    0042fc30 f   EntityPool.obj
 0001:0002ec38       $L48723                    0042fc38 f   EntityPool.obj
 0001:0002ec43       $L48724                    0042fc43 f   EntityPool.obj
 0001:0002ec4b       __ehhandler$?CreateObjectByRawData@EntityPool@@UAEHPBDI@Z 0042fc4b f   EntityPool.obj
 0001:0002ec60       $L48771                    0042fc60 f   EntityPool.obj
 0001:0002ec69       $L48772                    0042fc69 f   EntityPool.obj
 0001:0002ec71       __ehhandler$?push@EntityPool@@QAE_NPAVEntity@@@Z 0042fc71 f   EntityPool.obj
 0001:0002ec80       $L48816                    0042fc80 f   EntityPool.obj
 0001:0002ec89       $L48817                    0042fc89 f   EntityPool.obj
 0001:0002ec94       __ehhandler$?PushData@EntityPool@@QAE_NPBDI@Z 0042fc94 f   EntityPool.obj
 0001:0002eca0       $L21679                    0042fca0 f   EntityTemplet.obj
 0001:0002eca9       $L21699                    0042fca9 f   EntityTemplet.obj
 0001:0002ecb2       __ehhandler$?_Incsize@?$list@HV?$allocator@H@std@@@std@@IAEXI@Z 0042fcb2 f   EntityTemplet.obj
 0001:0002ecc0       $L22499                    0042fcc0 f   EntityTemplet.obj
 0001:0002eccb       $L22500                    0042fccb f   EntityTemplet.obj
 0001:0002ecd6       $L22501                    0042fcd6 f   EntityTemplet.obj
 0001:0002ece1       __ehhandler$??0EntityTemplet@@QAE@XZ 0042fce1 f   EntityTemplet.obj
 0001:0002ecf0       $L22696                    0042fcf0 f   EntityTemplet.obj
 0001:0002ecfb       $L22697                    0042fcfb f   EntityTemplet.obj
 0001:0002ed06       $L22698                    0042fd06 f   EntityTemplet.obj
 0001:0002ed11       $L22699                    0042fd11 f   EntityTemplet.obj
 0001:0002ed1c       __ehhandler$??1EntityTemplet@@QAE@XZ 0042fd1c f   EntityTemplet.obj
 0001:0002ed30       $L23042                    0042fd30 f   EntityTemplet.obj
 0001:0002ed3b       __ehhandler$?CreateObjectByRawData@EntityTemplet@@UAEHPBDI@Z 0042fd3b f   EntityTemplet.obj
 0001:0002ed50       $L44249                    0042fd50 f   EntityTempletPool.obj
 0001:0002ed5c       $L44250                    0042fd5c f   EntityTempletPool.obj
 0001:0002ed68       __ehhandler$?Load@EntityTempletPool@@UAE_NXZ 0042fd68 f   EntityTempletPool.obj
 0001:0002ed80       $L44281                    0042fd80 f   EntityTempletPool.obj
 0001:0002ed8c       $L44282                    0042fd8c f   EntityTempletPool.obj
 0001:0002ed98       __ehhandler$?Submit@EntityTempletPool@@UAE_NXZ 0042fd98 f   EntityTempletPool.obj
 0001:0002edb0       $L44446                    0042fdb0 f   EntityTempletPool.obj
 0001:0002edb0       $L46966                    0042fdb0 f   EntityTempletPool.obj
 0001:0002edb0       $L44459                    0042fdb0 f   EntityTempletPool.obj
 0001:0002edb8       __ehhandler$??1?$hashnode@Vword@chen@@PAVEntityTemplet@@@chen@@QAE@XZ 0042fdb8 f   EntityTempletPool.obj
 0001:0002edb8       __ehhandler$??0?$hashelement@Vword@chen@@PAVEntityTemplet@@@chen@@QAE@ABVword@1@ABQAVEntityTemplet@@@Z 0042fdb8 f   EntityTempletPool.obj
 0001:0002edb8       __ehhandler$??0?$hashelement@Vword@chen@@PAVEntityTemplet@@@chen@@QAE@ABVword@1@@Z 0042fdb8 f   EntityTempletPool.obj
 0001:0002edd0       $L44555                    0042fdd0 f   EntityTempletPool.obj
 0001:0002edd9       $L44559                    0042fdd9 f   EntityTempletPool.obj
 0001:0002ede2       __ehhandler$?_Xlen@?$vector@PAV?$hashnode@Vword@chen@@PAVEntityTemplet@@@chen@@V?$allocator@PAV?$hashnode@Vword@chen@@PAVEntityTemplet@@@chen@@@std@@@std@@IBEXXZ 0042fde2 f   EntityTempletPool.obj
 0001:0002edf0       $L44704                    0042fdf0 f   EntityTempletPool.obj
 0001:0002edf0       $L44667                    0042fdf0 f   EntityTempletPool.obj
 0001:0002edf8       __ehhandler$??O?$treenode@V?$hashelement@Vword@chen@@PAVEntityTemplet@@@chen@@@chen@@QAE_NV01@@Z 0042fdf8 f   EntityTempletPool.obj
 0001:0002edf8       __ehhandler$??M?$treenode@V?$hashelement@Vword@chen@@PAVEntityTemplet@@@chen@@@chen@@QAE_NV01@@Z 0042fdf8 f   EntityTempletPool.obj
 0001:0002ee10       $L44740                    0042fe10 f   EntityTempletPool.obj
 0001:0002ee10       $L44962                    0042fe10 f   EntityTempletPool.obj
 0001:0002ee1b       __ehhandler$??0?$treenode@V?$hashelement@Vword@chen@@PAVEntityTemplet@@@chen@@@chen@@QAE@ABV?$hashelement@Vword@chen@@PAVEntityTemplet@@@1@@Z 0042fe1b f   EntityTempletPool.obj
 0001:0002ee1b       __ehhandler$??0?$treenode@V?$hashelement@Vword@chen@@PAVEntityTemplet@@@chen@@@chen@@QAE@ABV01@@Z 0042fe1b f   EntityTempletPool.obj
 0001:0002ee30       $L48461                    0042fe30 f   EntityTempletPool.obj
 0001:0002ee30       $L46536                    0042fe30 f   EntityTempletPool.obj
 0001:0002ee3b       __ehhandler$?insert@?$hashtable@Vword@chen@@PAVEntityTemplet@@@chen@@QAEAAPAVEntityTemplet@@ABVword@2@ABQAV3@@Z 0042fe3b f   EntityTempletPool.obj
 0001:0002ee3b       __ehhandler$??$CreateNode@V?$hashelement@Vword@chen@@PAVEntityTemplet@@@chen@@@?$sorttree@V?$hashelement@Vword@chen@@PAVEntityTemplet@@@chen@@@chen@@SAPAV?$treenode@V?$hashelement@Vword@chen@@PAVEntityTemplet@@@chen@@@1@ABV?$hashelement@Vword@chen@@PAVEntityTemplet@@@1@@Z 0042fe3b f   EntityTempletPool.obj
 0001:0002ee50       $L46722                    0042fe50 f   EntityTempletPool.obj
 0001:0002ee50       $L47037                    0042fe50 f   EntityTempletPool.obj
 0001:0002ee58       __ehhandler$?insert@?$hashnode@Vword@chen@@PAVEntityTemplet@@@chen@@QAEAAV?$hashelement@Vword@chen@@PAVEntityTemplet@@@2@ABVword@2@ABQAVEntityTemplet@@@Z 0042fe58 f   EntityTempletPool.obj
 0001:0002ee58       __ehhandler$?find@?$hashnode@Vword@chen@@PAVEntityTemplet@@@chen@@QAE_NABVword@2@PAPAV?$hashelement@Vword@chen@@PAVEntityTemplet@@@2@@Z 0042fe58 f   EntityTempletPool.obj
 0001:0002ee70       $L47858                    0042fe70 f   EntityTempletPool.obj
 0001:0002ee70       $L48363                    0042fe70 f   EntityTempletPool.obj
 0001:0002ee78       __ehhandler$??0?$hashtable@Vword@chen@@PAVEntityTemplet@@@chen@@QAE@XZ 0042fe78 f   EntityTempletPool.obj
 0001:0002ee78       __ehhandler$??1?$hashtable@Vword@chen@@PAVEntityTemplet@@@chen@@QAE@XZ 0042fe78 f   EntityTempletPool.obj
 0001:0002ee90       $L48701                    0042fe90 f   EntityTempletPool.obj
 0001:0002ee98       $L48703                    0042fe98 f   EntityTempletPool.obj
 0001:0002eea0       $L48704                    0042fea0 f   EntityTempletPool.obj
 0001:0002eeab       __ehhandler$??0EntityTempletPool@@QAE@Vword@chen@@@Z 0042feab f   EntityTempletPool.obj
 0001:0002eec0       $L48736                    0042fec0 f   EntityTempletPool.obj
 0001:0002eecb       $L48737                    0042fecb f   EntityTempletPool.obj
 0001:0002eed3       __ehhandler$?CreateObjectByRawData@EntityTempletPool@@UAEHPBDI@Z 0042fed3 f   EntityTempletPool.obj
 0001:0002eee0       $L48762                    0042fee0 f   EntityTempletPool.obj
 0001:0002eee9       $L48763                    0042fee9 f   EntityTempletPool.obj
 0001:0002eef1       $L48764                    0042fef1 f   EntityTempletPool.obj
 0001:0002eef9       __ehhandler$?Push@EntityTempletPool@@QAE_NPAVEntityTemplet@@@Z 0042fef9 f   EntityTempletPool.obj
 0001:0002ef10       $L48810                    0042ff10 f   EntityTempletPool.obj
 0001:0002ef19       $L48811                    0042ff19 f   EntityTempletPool.obj
 0001:0002ef24       __ehhandler$?Push@EntityTempletPool@@QAE_NPBDI@Z 0042ff24 f   EntityTempletPool.obj
 0001:0002ef30       $L46336                    0042ff30 f   GeneralPool.obj
 0001:0002ef30       $L54733                    0042ff30 f   GeneralPool.obj
 0001:0002ef30       $L52357                    0042ff30 f   GeneralPool.obj
 0001:0002ef30       $L54699                    0042ff30 f   GeneralPool.obj
 0001:0002ef30       $L52101                    0042ff30 f   GeneralPool.obj
 0001:0002ef30       $L54647                    0042ff30 f   GeneralPool.obj
 0001:0002ef30       $L51892                    0042ff30 f   GeneralPool.obj
 0001:0002ef30       $L54577                    0042ff30 f   GeneralPool.obj
 0001:0002ef30       $L54341                    0042ff30 f   GeneralPool.obj
 0001:0002ef30       $L54304                    0042ff30 f   GeneralPool.obj
 0001:0002ef38       __ehhandler$?Pop@Section@@QAE_NVword@chen@@AAH@Z 0042ff38 f   GeneralPool.obj
 0001:0002ef38       __ehhandler$?Find@Section@@QAE_NVword@chen@@@Z 0042ff38 f   GeneralPool.obj
 0001:0002ef38       __ehhandler$?Pop@Section@@QAE_NVword@chen@@PAPAXAAI@Z 0042ff38 f   GeneralPool.obj
 0001:0002ef38       __ehhandler$?DeleteKeyInKeyOrder@Section@@IAE_NVword@chen@@@Z 0042ff38 f   GeneralPool.obj
 0001:0002ef38       __ehhandler$?Pop@Section@@QAE_NVword@chen@@AAV23@@Z 0042ff38 f   GeneralPool.obj
 0001:0002ef38       __ehhandler$?PutSection@Section@@QAEXVword@chen@@@Z 0042ff38 f   GeneralPool.obj
 0001:0002ef38       __ehhandler$?GetValueTypeByKey@Section@@QAEHVword@chen@@@Z 0042ff38 f   GeneralPool.obj
 0001:0002ef38       __ehhandler$?GetKeysName@GeneralPool@@QAE_NVword@chen@@AAV?$list@V?$basic_string@DU?$char_traits@D@std@@V?$allocator@D@2@@std@@V?$allocator@V?$basic_string@DU?$char_traits@D@std@@V?$allocator@D@2@@std@@@2@@std@@@Z 0042ff38 f   GeneralPool.obj
 0001:0002ef38       __ehhandler$?Push@Section@@QAE_NVword@chen@@PAVCommonData@@@Z 0042ff38 f   GeneralPool.obj
 0001:0002ef38       __ehhandler$?Find@GeneralPool@@QAE_NVword@chen@@@Z 0042ff38 f   GeneralPool.obj
 0001:0002ef50       $L46381                    0042ff50 f   GeneralPool.obj
 0001:0002ef5c       $L46382                    0042ff5c f   GeneralPool.obj
 0001:0002ef68       __ehhandler$?Load@GeneralPool@@UAE_NXZ 0042ff68 f   GeneralPool.obj
 0001:0002ef80       $L46417                    0042ff80 f   GeneralPool.obj
 0001:0002ef8c       $L46418                    0042ff8c f   GeneralPool.obj
 0001:0002ef98       __ehhandler$?Submit@GeneralPool@@UAE_NXZ 0042ff98 f   GeneralPool.obj
 0001:0002efb0       $L50547                    0042ffb0 f   GeneralPool.obj
 0001:0002efb0       $L46846                    0042ffb0 f   GeneralPool.obj
 0001:0002efb0       $L46711                    0042ffb0 f   GeneralPool.obj
 0001:0002efb0       $L46635                    0042ffb0 f   GeneralPool.obj
 0001:0002efb0       $L46648                    0042ffb0 f   GeneralPool.obj
 0001:0002efb8       __ehhandler$??0?$hashelement@Vword@chen@@PAVSection@@@chen@@QAE@ABVword@1@ABQAVSection@@@Z 0042ffb8 f   GeneralPool.obj
 0001:0002efb8       __ehhandler$??1?$hashnode@Vword@chen@@PAVSection@@@chen@@QAE@XZ 0042ffb8 f   GeneralPool.obj
 0001:0002efb8       __ehhandler$??0?$hashelement@Vword@chen@@PAVCommonData@@@chen@@QAE@ABVword@1@@Z 0042ffb8 f   GeneralPool.obj
 0001:0002efb8       __ehhandler$??0?$hashelement@Vword@chen@@PAVCommonData@@@chen@@QAE@ABVword@1@ABQAVCommonData@@@Z 0042ffb8 f   GeneralPool.obj
 0001:0002efb8       __ehhandler$??0?$hashelement@Vword@chen@@PAVSection@@@chen@@QAE@ABVword@1@@Z 0042ffb8 f   GeneralPool.obj
 0001:0002efd0       $L46960                    0042ffd0 f   GeneralPool.obj
 0001:0002efd0       $L46785                    0042ffd0 f   GeneralPool.obj
 0001:0002efd9       $L46964                    0042ffd9 f   GeneralPool.obj
 0001:0002efd9       $L46789                    0042ffd9 f   GeneralPool.obj
 0001:0002efe2       __ehhandler$?_Xlen@?$vector@PAV?$hashnode@Vword@chen@@PAVSection@@@chen@@V?$allocator@PAV?$hashnode@Vword@chen@@PAVSection@@@chen@@@std@@@std@@IBEXXZ 0042ffe2 f   GeneralPool.obj
 0001:0002efe2       __ehhandler$?_Xlen@?$vector@PAV?$hashnode@Vword@chen@@PAVCommonData@@@chen@@V?$allocator@PAV?$hashnode@Vword@chen@@PAVCommonData@@@chen@@@std@@@std@@IBEXXZ 0042ffe2 f   GeneralPool.obj
 0001:0002eff0       $L47014                    0042fff0 f   GeneralPool.obj
 0001:0002eff0       $L47051                    0042fff0 f   GeneralPool.obj
 0001:0002eff8       __ehhandler$??O?$treenode@V?$hashelement@Vword@chen@@PAVSection@@@chen@@@chen@@QAE_NV01@@Z 0042fff8 f   GeneralPool.obj
 0001:0002eff8       __ehhandler$??M?$treenode@V?$hashelement@Vword@chen@@PAVSection@@@chen@@@chen@@QAE_NV01@@Z 0042fff8 f   GeneralPool.obj
 0001:0002f010       $L47480                    00430010 f   GeneralPool.obj
 0001:0002f010       $L47217                    00430010 f   GeneralPool.obj
 0001:0002f010       $L47503                    00430010 f   GeneralPool.obj
 0001:0002f010       $L47087                    00430010 f   GeneralPool.obj
 0001:0002f01b       __ehhandler$??0?$treenode@V?$hashelement@Vword@chen@@PAVCommonData@@@chen@@@chen@@QAE@ABV?$hashelement@Vword@chen@@PAVCommonData@@@1@@Z 0043001b f   GeneralPool.obj
 0001:0002f01b       __ehhandler$??0?$treenode@V?$hashelement@Vword@chen@@PAVSection@@@chen@@@chen@@QAE@ABV?$hashelement@Vword@chen@@PAVSection@@@1@@Z 0043001b f   GeneralPool.obj
 0001:0002f01b       __ehhandler$??0?$treenode@V?$hashelement@Vword@chen@@PAVCommonData@@@chen@@@chen@@QAE@ABV01@@Z 0043001b f   GeneralPool.obj
 0001:0002f01b       __ehhandler$??0?$treenode@V?$hashelement@Vword@chen@@PAVSection@@@chen@@@chen@@QAE@ABV01@@Z 0043001b f   GeneralPool.obj
 0001:0002f030       $L47181                    00430030 f   GeneralPool.obj
 0001:0002f030       $L47144                    00430030 f   GeneralPool.obj
 0001:0002f038       __ehhandler$??M?$treenode@V?$hashelement@Vword@chen@@PAVCommonData@@@chen@@@chen@@QAE_NV01@@Z 00430038 f   GeneralPool.obj
 0001:0002f038       __ehhandler$??O?$treenode@V?$hashelement@Vword@chen@@PAVCommonData@@@chen@@@chen@@QAE_NV01@@Z 00430038 f   GeneralPool.obj
 0001:0002f050       $L53742                    00430050 f   GeneralPool.obj
 0001:0002f050       $L49382                    00430050 f   GeneralPool.obj
 0001:0002f050       $L49333                    00430050 f   GeneralPool.obj
 0001:0002f050       $L53520                    00430050 f   GeneralPool.obj
 0001:0002f05b       __ehhandler$?insert@?$hashtable@Vword@chen@@PAVSection@@@chen@@QAEAAPAVSection@@ABVword@2@ABQAV3@@Z 0043005b f   GeneralPool.obj
 0001:0002f05b       __ehhandler$??$CreateNode@V?$hashelement@Vword@chen@@PAVSection@@@chen@@@?$sorttree@V?$hashelement@Vword@chen@@PAVSection@@@chen@@@chen@@SAPAV?$treenode@V?$hashelement@Vword@chen@@PAVSection@@@chen@@@1@ABV?$hashelement@Vword@chen@@PAVSection@@@1@@Z 0043005b f   GeneralPool.obj
 0001:0002f05b       __ehhandler$??$CreateNode@V?$hashelement@Vword@chen@@PAVCommonData@@@chen@@@?$sorttree@V?$hashelement@Vword@chen@@PAVCommonData@@@chen@@@chen@@SAPAV?$treenode@V?$hashelement@Vword@chen@@PAVCommonData@@@chen@@@1@ABV?$hashelement@Vword@chen@@PAVCommonData@@@1@@Z 0043005b f   GeneralPool.obj
 0001:0002f05b       __ehhandler$?insert@?$hashtable@Vword@chen@@PAVCommonData@@@chen@@QAEAAPAVCommonData@@ABVword@2@ABQAV3@@Z 0043005b f   GeneralPool.obj
 0001:0002f070       $L50745                    00430070 f   GeneralPool.obj
 0001:0002f070       $L50078                    00430070 f   GeneralPool.obj
 0001:0002f070       $L50618                    00430070 f   GeneralPool.obj
 0001:0002f070       $L50026                    00430070 f   GeneralPool.obj
 0001:0002f078       __ehhandler$?find@?$hashnode@Vword@chen@@PAVSection@@@chen@@QAE_NABVword@2@PAPAV?$hashelement@Vword@chen@@PAVSection@@@2@@Z 00430078 f   GeneralPool.obj
 0001:0002f078       __ehhandler$?insert@?$hashnode@Vword@chen@@PAVSection@@@chen@@QAEAAV?$hashelement@Vword@chen@@PAVSection@@@2@ABVword@2@ABQAVSection@@@Z 00430078 f   GeneralPool.obj
 0001:0002f078       __ehhandler$?find@?$hashnode@Vword@chen@@PAVCommonData@@@chen@@QAE_NABVword@2@PAPAV?$hashelement@Vword@chen@@PAVCommonData@@@2@@Z 00430078 f   GeneralPool.obj
 0001:0002f078       __ehhandler$?insert@?$hashnode@Vword@chen@@PAVCommonData@@@chen@@QAEAAV?$hashelement@Vword@chen@@PAVCommonData@@@2@ABVword@2@ABQAVCommonData@@@Z 00430078 f   GeneralPool.obj
 0001:0002f090       $L51911                    00430090 f   GeneralPool.obj
 0001:0002f090       $L52589                    00430090 f   GeneralPool.obj
 0001:0002f099       __ehhandler$?GetKeys@Section@@QAE_NAAV?$list@V?$basic_string@DU?$char_traits@D@std@@V?$allocator@D@2@@std@@V?$allocator@V?$basic_string@DU?$char_traits@D@std@@V?$allocator@D@2@@std@@@2@@std@@@Z 00430099 f   GeneralPool.obj
 0001:0002f099       __ehhandler$?GetSectionsName@GeneralPool@@QAE_NAAV?$list@V?$basic_string@DU?$char_traits@D@std@@V?$allocator@D@2@@std@@V?$allocator@V?$basic_string@DU?$char_traits@D@std@@V?$allocator@D@2@@std@@@2@@std@@@Z 00430099 f   GeneralPool.obj
 0001:0002f0b0       $L53422                    004300b0 f   GeneralPool.obj
 0001:0002f0b0       $L52796                    004300b0 f   GeneralPool.obj
 0001:0002f0b8       __ehhandler$??1?$hashtable@Vword@chen@@PAVSection@@@chen@@QAE@XZ 004300b8 f   GeneralPool.obj
 0001:0002f0b8       __ehhandler$??0?$hashtable@Vword@chen@@PAVSection@@@chen@@QAE@XZ 004300b8 f   GeneralPool.obj
 0001:0002f0d0       $L53354                    004300d0 f   GeneralPool.obj
 0001:0002f0d8       $L53355                    004300d8 f   GeneralPool.obj
 0001:0002f0e4       $L53356                    004300e4 f   GeneralPool.obj
 0001:0002f0ef       $L53357                    004300ef f   GeneralPool.obj
 0001:0002f0fa       __ehhandler$??1GeneralPool@@QAE@XZ 004300fa f   GeneralPool.obj
 0001:0002f110       $L54068                    00430110 f   GeneralPool.obj
 0001:0002f118       $L54070                    00430118 f   GeneralPool.obj
 0001:0002f120       $L54071                    00430120 f   GeneralPool.obj
 0001:0002f12c       $L54072                    0043012c f   GeneralPool.obj
 0001:0002f137       $L54073                    00430137 f   GeneralPool.obj
 0001:0002f142       __ehhandler$??0GeneralPool@@QAE@Vword@chen@@@Z 00430142 f   GeneralPool.obj
 0001:0002f150       $L54196                    00430150 f   GeneralPool.obj
 0001:0002f15b       $L54197                    0043015b f   GeneralPool.obj
 0001:0002f163       $L54198                    00430163 f   GeneralPool.obj
 0001:0002f16b       __ehhandler$?CreateObjectByRawData@GeneralPool@@UAEHPBDI@Z 0043016b f   GeneralPool.obj
 0001:0002f180       $L54489                    00430180 f   GeneralPool.obj
 0001:0002f188       $L54490                    00430188 f   GeneralPool.obj
 0001:0002f190       $L54491                    00430190 f   GeneralPool.obj
 0001:0002f199       $L54492                    00430199 f   GeneralPool.obj
 0001:0002f1a4       __ehhandler$?Push@Section@@QAE_NVword@chen@@0@Z 004301a4 f   GeneralPool.obj
 0001:0002f1b0       $L54538                    004301b0 f   GeneralPool.obj
 0001:0002f1b0       $L54461                    004301b0 f   GeneralPool.obj
 0001:0002f1b8       $L54539                    004301b8 f   GeneralPool.obj
 0001:0002f1b8       $L54462                    004301b8 f   GeneralPool.obj
 0001:0002f1c3       __ehhandler$?Push@Section@@QAE_NVword@chen@@PBDI@Z 004301c3 f   GeneralPool.obj
 0001:0002f1c3       __ehhandler$?Push@Section@@QAE_NVword@chen@@H@Z 004301c3 f   GeneralPool.obj
 0001:0002f1d0       $L54777                    004301d0 f   GeneralPool.obj
 0001:0002f1d8       $L54778                    004301d8 f   GeneralPool.obj
 0001:0002f1e0       $L54779                    004301e0 f   GeneralPool.obj
 0001:0002f1e9       $L54781                    004301e9 f   GeneralPool.obj
 0001:0002f1f4       $L54784                    004301f4 f   GeneralPool.obj
 0001:0002f1fc       __ehhandler$?WriteData@GeneralPool@@QAE_NVword@chen@@0PAXI@Z 004301fc f   GeneralPool.obj
 0001:0002f210       $L54957                    00430210 f   GeneralPool.obj
 0001:0002f218       $L54958                    00430218 f   GeneralPool.obj
 0001:0002f220       $L54959                    00430220 f   GeneralPool.obj
 0001:0002f228       $L54960                    00430228 f   GeneralPool.obj
 0001:0002f231       $L54962                    00430231 f   GeneralPool.obj
 0001:0002f23c       $L54964                    0043023c f   GeneralPool.obj
 0001:0002f244       $L54966                    00430244 f   GeneralPool.obj
 0001:0002f24c       $L54967                    0043024c f   GeneralPool.obj
 0001:0002f254       __ehhandler$?WriteString@GeneralPool@@QAE_NVword@chen@@00@Z 00430254 f   GeneralPool.obj
 0001:0002f260       $L55068                    00430260 f   GeneralPool.obj
 0001:0002f268       $L55069                    00430268 f   GeneralPool.obj
 0001:0002f270       $L55070                    00430270 f   GeneralPool.obj
 0001:0002f278       $L55075                    00430278 f   GeneralPool.obj
 0001:0002f280       $L55076                    00430280 f   GeneralPool.obj
 0001:0002f288       __ehhandler$?GetString@GeneralPool@@QAE?AVword@chen@@V23@00@Z 00430288 f   GeneralPool.obj
 0001:0002f2a0       $L55164                    004302a0 f   GeneralPool.obj
 0001:0002f2a8       $L55165                    004302a8 f   GeneralPool.obj
 0001:0002f2b0       $L55166                    004302b0 f   GeneralPool.obj
 0001:0002f2b9       $L55168                    004302b9 f   GeneralPool.obj
 0001:0002f2c4       $L55171                    004302c4 f   GeneralPool.obj
 0001:0002f2cc       __ehhandler$?WriteInt@GeneralPool@@QAE_NVword@chen@@0H@Z 004302cc f   GeneralPool.obj
 0001:0002f2e0       $L54872                    004302e0 f   GeneralPool.obj
 0001:0002f2e0       $L55257                    004302e0 f   GeneralPool.obj
 0001:0002f2e0       $L55310                    004302e0 f   GeneralPool.obj
 0001:0002f2e8       $L54873                    004302e8 f   GeneralPool.obj
 0001:0002f2e8       $L55311                    004302e8 f   GeneralPool.obj
 0001:0002f2e8       $L55258                    004302e8 f   GeneralPool.obj
 0001:0002f2f0       $L55260                    004302f0 f   GeneralPool.obj
 0001:0002f2f0       $L55313                    004302f0 f   GeneralPool.obj
 0001:0002f2f0       $L54875                    004302f0 f   GeneralPool.obj
 0001:0002f2f8       __ehhandler$?GetInt@GeneralPool@@QAEHVword@chen@@0H@Z 004302f8 f   GeneralPool.obj
 0001:0002f2f8       __ehhandler$?GetData@GeneralPool@@QAE_NVword@chen@@0PAXAAI@Z 004302f8 f   GeneralPool.obj
 0001:0002f2f8       __ehhandler$?GetValueTypeBySectionAndKey@GeneralPool@@QAEHVword@chen@@0@Z 004302f8 f   GeneralPool.obj
 0001:0002f310       $L21339                    00430310 f   Group.obj
 0001:0002f318       $L21340                    00430318 f   Group.obj
 0001:0002f320       __ehhandler$?CreateObjectByRawData@Group@@UAEHPBDI@Z 00430320 f   Group.obj
 0001:0002f330       $L21389                    00430330 f   Group.obj
 0001:0002f33b       $L21390                    0043033b f   Group.obj
 0001:0002f346       $L21391                    00430346 f   Group.obj
 0001:0002f351       __ehhandler$??0Group@@QAE@XZ 00430351 f   Group.obj
 0001:0002f360       $L21579                    00430360 f   Group.obj
 0001:0002f36b       __ehhandler$??1Group@@QAE@XZ 0043036b f   Group.obj
 0001:0002f380       $L43864                    00430380 f   GroupPool.obj
 0001:0002f38c       $L43865                    0043038c f   GroupPool.obj
 0001:0002f398       __ehhandler$?Load@GroupPool@@UAE_NXZ 00430398 f   GroupPool.obj
 0001:0002f3b0       $L43896                    004303b0 f   GroupPool.obj
 0001:0002f3bc       $L43897                    004303bc f   GroupPool.obj
 0001:0002f3c8       __ehhandler$?Submit@GroupPool@@UAE_NXZ 004303c8 f   GroupPool.obj
 0001:0002f3e0       $L44170                    004303e0 f   GroupPool.obj
 0001:0002f3e9       $L44174                    004303e9 f   GroupPool.obj
 0001:0002f3f2       __ehhandler$?_Xlen@?$vector@PAV?$hashnode@Vword@chen@@PAVGroup@@@chen@@V?$allocator@PAV?$hashnode@Vword@chen@@PAVGroup@@@chen@@@std@@@std@@IBEXXZ 004303f2 f   GroupPool.obj
 0001:0002f400       $L44282                    00430400 f   GroupPool.obj
 0001:0002f400       $L44319                    00430400 f   GroupPool.obj
 0001:0002f408       __ehhandler$??M?$treenode@V?$hashelement@Vword@chen@@PAVGroup@@@chen@@@chen@@QAE_NV01@@Z 00430408 f   GroupPool.obj
 0001:0002f408       __ehhandler$??O?$treenode@V?$hashelement@Vword@chen@@PAVGroup@@@chen@@@chen@@QAE_NV01@@Z 00430408 f   GroupPool.obj
 0001:0002f420       $L44577                    00430420 f   GroupPool.obj
 0001:0002f420       $L44355                    00430420 f   GroupPool.obj
 0001:0002f42b       __ehhandler$??0?$treenode@V?$hashelement@Vword@chen@@PAVGroup@@@chen@@@chen@@QAE@ABV01@@Z 0043042b f   GroupPool.obj
 0001:0002f42b       __ehhandler$??0?$treenode@V?$hashelement@Vword@chen@@PAVGroup@@@chen@@@chen@@QAE@ABV?$hashelement@Vword@chen@@PAVGroup@@@1@@Z 0043042b f   GroupPool.obj
 0001:0002f440       $L44061                    00430440 f   GroupPool.obj
 0001:0002f440       $L44074                    00430440 f   GroupPool.obj
 0001:0002f440       $L46721                    00430440 f   GroupPool.obj
 0001:0002f448       __ehhandler$??0?$hashelement@Vword@chen@@PAVGroup@@@chen@@QAE@ABVword@1@@Z 00430448 f   GroupPool.obj
 0001:0002f448       __ehhandler$??0?$hashelement@Vword@chen@@PAVGroup@@@chen@@QAE@ABVword@1@ABQAVGroup@@@Z 00430448 f   GroupPool.obj
 0001:0002f448       __ehhandler$??1?$hashnode@Vword@chen@@PAVGroup@@@chen@@QAE@XZ 00430448 f   GroupPool.obj
 0001:0002f460       $L44951                    00430460 f   GroupPool.obj
 0001:0002f460       $L46792                    00430460 f   GroupPool.obj
 0001:0002f460       $L47446                    00430460 f   GroupPool.obj
 0001:0002f460       $L46477                    00430460 f   GroupPool.obj
 0001:0002f468       __ehhandler$?erase@?$hashnode@Vword@chen@@PAVGroup@@@chen@@QAE_NABVword@2@@Z 00430468 f   GroupPool.obj
 0001:0002f468       __ehhandler$?insert@?$hashnode@Vword@chen@@PAVGroup@@@chen@@QAEAAV?$hashelement@Vword@chen@@PAVGroup@@@2@ABVword@2@ABQAVGroup@@@Z 00430468 f   GroupPool.obj
 0001:0002f468       __ehhandler$?RomoveNode@?$sorttree@V?$hashelement@Vword@chen@@PAVGroup@@@chen@@@chen@@QAEXABV?$hashelement@Vword@chen@@PAVGroup@@@2@@Z 00430468 f   GroupPool.obj
 0001:0002f468       __ehhandler$?find@?$hashnode@Vword@chen@@PAVGroup@@@chen@@QAE_NABVword@2@PAPAV?$hashelement@Vword@chen@@PAVGroup@@@2@@Z 00430468 f   GroupPool.obj
 0001:0002f480       $L47692                    00430480 f   GroupPool.obj
 0001:0002f488       __ehhandler$?GetGroupData@GroupPool@@QAE_NVword@chen@@PADAAI@Z 00430488 f   GroupPool.obj
 0001:0002f4a0       $L48368                    004304a0 f   GroupPool.obj
 0001:0002f4a8       $L48369                    004304a8 f   GroupPool.obj
 0001:0002f4b1       __ehhandler$?DeleteGroup@GroupPool@@QAE_NVword@chen@@@Z 004304b1 f   GroupPool.obj
 0001:0002f4c0       $L48409                    004304c0 f   GroupPool.obj
 0001:0002f4c0       $L47719                    004304c0 f   GroupPool.obj
 0001:0002f4c8       __ehhandler$??1?$hashtable@Vword@chen@@PAVGroup@@@chen@@QAE@XZ 004304c8 f   GroupPool.obj
 0001:0002f4c8       __ehhandler$??0?$hashtable@Vword@chen@@PAVGroup@@@chen@@QAE@XZ 004304c8 f   GroupPool.obj
 0001:0002f4e0       $L48507                    004304e0 f   GroupPool.obj
 0001:0002f4e0       $L46291                    004304e0 f   GroupPool.obj
 0001:0002f4eb       __ehhandler$?insert@?$hashtable@Vword@chen@@PAVGroup@@@chen@@QAEAAPAVGroup@@ABVword@2@ABQAV3@@Z 004304eb f   GroupPool.obj
 0001:0002f4eb       __ehhandler$??$CreateNode@V?$hashelement@Vword@chen@@PAVGroup@@@chen@@@?$sorttree@V?$hashelement@Vword@chen@@PAVGroup@@@chen@@@chen@@SAPAV?$treenode@V?$hashelement@Vword@chen@@PAVGroup@@@chen@@@1@ABV?$hashelement@Vword@chen@@PAVGroup@@@1@@Z 004304eb f   GroupPool.obj
 0001:0002f500       $L48748                    00430500 f   GroupPool.obj
 0001:0002f508       $L48750                    00430508 f   GroupPool.obj
 0001:0002f510       $L48751                    00430510 f   GroupPool.obj
 0001:0002f51b       __ehhandler$??0GroupPool@@QAE@Vword@chen@@@Z 0043051b f   GroupPool.obj
 0001:0002f530       $L48786                    00430530 f   GroupPool.obj
 0001:0002f538       $L48787                    00430538 f   GroupPool.obj
 0001:0002f543       $L48788                    00430543 f   GroupPool.obj
 0001:0002f54b       __ehhandler$?CreateObjectByRawData@GroupPool@@UAEHPBDI@Z 0043054b f   GroupPool.obj
 0001:0002f560       $L48835                    00430560 f   GroupPool.obj
 0001:0002f569       $L48836                    00430569 f   GroupPool.obj
 0001:0002f571       __ehhandler$?push@GroupPool@@QAE_NPAVGroup@@@Z 00430571 f   GroupPool.obj
 0001:0002f580       $L48880                    00430580 f   GroupPool.obj
 0001:0002f589       $L48881                    00430589 f   GroupPool.obj
 0001:0002f594       __ehhandler$?PushData@GroupPool@@QAE_NPBDI@Z 00430594 f   GroupPool.obj
 0001:0002f5a0       $L17641                    004305a0 f   Monitor.obj
 0001:0002f5ab       $L17642                    004305ab f   Monitor.obj
 0001:0002f5b6       $L17643                    004305b6 f   Monitor.obj
 0001:0002f5c1       $L17644                    004305c1 f   Monitor.obj
 0001:0002f5cc       $L17645                    004305cc f   Monitor.obj
 0001:0002f5e2       __ehhandler$??0Monitor@@QAE@XZ 004305e2 f   Monitor.obj
 0001:0002f5f0       $L17666                    004305f0 f   Monitor.obj
 0001:0002f5fb       $L17667                    004305fb f   Monitor.obj
 0001:0002f606       $L17668                    00430606 f   Monitor.obj
 0001:0002f611       $L17669                    00430611 f   Monitor.obj
 0001:0002f61c       __ehhandler$??1Monitor@@QAE@XZ 0043061c f   Monitor.obj
 0001:0002f630       __ehhandler$?CreateObjectByRawData@Monitor@@UAEHPBDI@Z 00430630 f   Monitor.obj
 0001:0002f640       $L43137                    00430640 f   MonitorPool.obj
 0001:0002f64c       $L43138                    0043064c f   MonitorPool.obj
 0001:0002f658       __ehhandler$?Load@MonitorPool@@UAE_NXZ 00430658 f   MonitorPool.obj
 0001:0002f670       $L43169                    00430670 f   MonitorPool.obj
 0001:0002f67c       $L43170                    0043067c f   MonitorPool.obj
 0001:0002f688       __ehhandler$?Submit@MonitorPool@@UAE_NXZ 00430688 f   MonitorPool.obj
 0001:0002f6a0       $L45994                    004306a0 f   MonitorPool.obj
 0001:0002f6a0       $L43347                    004306a0 f   MonitorPool.obj
 0001:0002f6a0       $L43334                    004306a0 f   MonitorPool.obj
 0001:0002f6a8       __ehhandler$??0?$hashelement@Vword@chen@@PAVMonitor@@@chen@@QAE@ABVword@1@ABQAVMonitor@@@Z 004306a8 f   MonitorPool.obj
 0001:0002f6a8       __ehhandler$??0?$hashelement@Vword@chen@@PAVMonitor@@@chen@@QAE@ABVword@1@@Z 004306a8 f   MonitorPool.obj
 0001:0002f6a8       __ehhandler$??1?$hashnode@Vword@chen@@PAVMonitor@@@chen@@QAE@XZ 004306a8 f   MonitorPool.obj
 0001:0002f6c0       $L43443                    004306c0 f   MonitorPool.obj
 0001:0002f6c9       $L43447                    004306c9 f   MonitorPool.obj
 0001:0002f6d2       __ehhandler$?_Xlen@?$vector@PAV?$hashnode@Vword@chen@@PAVMonitor@@@chen@@V?$allocator@PAV?$hashnode@Vword@chen@@PAVMonitor@@@chen@@@std@@@std@@IBEXXZ 004306d2 f   MonitorPool.obj
 0001:0002f6e0       $L43592                    004306e0 f   MonitorPool.obj
 0001:0002f6e0       $L43555                    004306e0 f   MonitorPool.obj
 0001:0002f6e8       __ehhandler$??O?$treenode@V?$hashelement@Vword@chen@@PAVMonitor@@@chen@@@chen@@QAE_NV01@@Z 004306e8 f   MonitorPool.obj
 0001:0002f6e8       __ehhandler$??M?$treenode@V?$hashelement@Vword@chen@@PAVMonitor@@@chen@@@chen@@QAE_NV01@@Z 004306e8 f   MonitorPool.obj
 0001:0002f700       $L43850                    00430700 f   MonitorPool.obj
 0001:0002f700       $L43628                    00430700 f   MonitorPool.obj
 0001:0002f70b       __ehhandler$??0?$treenode@V?$hashelement@Vword@chen@@PAVMonitor@@@chen@@@chen@@QAE@ABV?$hashelement@Vword@chen@@PAVMonitor@@@1@@Z 0043070b f   MonitorPool.obj
 0001:0002f70b       __ehhandler$??0?$treenode@V?$hashelement@Vword@chen@@PAVMonitor@@@chen@@@chen@@QAE@ABV01@@Z 0043070b f   MonitorPool.obj
 0001:0002f720       $L46719                    00430720 f   MonitorPool.obj
 0001:0002f720       $L45750                    00430720 f   MonitorPool.obj
 0001:0002f720       $L46065                    00430720 f   MonitorPool.obj
 0001:0002f720       $L44224                    00430720 f   MonitorPool.obj
 0001:0002f728       __ehhandler$?insert@?$hashnode@Vword@chen@@PAVMonitor@@@chen@@QAEAAV?$hashelement@Vword@chen@@PAVMonitor@@@2@ABVword@2@ABQAVMonitor@@@Z 00430728 f   MonitorPool.obj
 0001:0002f728       __ehhandler$?RomoveNode@?$sorttree@V?$hashelement@Vword@chen@@PAVMonitor@@@chen@@@chen@@QAEXABV?$hashelement@Vword@chen@@PAVMonitor@@@2@@Z 00430728 f   MonitorPool.obj
 0001:0002f728       __ehhandler$?erase@?$hashnode@Vword@chen@@PAVMonitor@@@chen@@QAE_NABVword@2@@Z 00430728 f   MonitorPool.obj
 0001:0002f728       __ehhandler$?find@?$hashnode@Vword@chen@@PAVMonitor@@@chen@@QAE_NABVword@2@PAPAV?$hashelement@Vword@chen@@PAVMonitor@@@2@@Z 00430728 f   MonitorPool.obj
 0001:0002f740       $L45564                    00430740 f   MonitorPool.obj
 0001:0002f740       $L47780                    00430740 f   MonitorPool.obj
 0001:0002f74b       __ehhandler$??$CreateNode@V?$hashelement@Vword@chen@@PAVMonitor@@@chen@@@?$sorttree@V?$hashelement@Vword@chen@@PAVMonitor@@@chen@@@chen@@SAPAV?$treenode@V?$hashelement@Vword@chen@@PAVMonitor@@@chen@@@1@ABV?$hashelement@Vword@chen@@PAVMonitor@@@1@@Z 0043074b f   MonitorPool.obj
 0001:0002f74b       __ehhandler$?insert@?$hashtable@Vword@chen@@PAVMonitor@@@chen@@QAEAAPAVMonitor@@ABVword@2@ABQAV3@@Z 0043074b f   MonitorPool.obj
 0001:0002f760       $L46965                    00430760 f   MonitorPool.obj
 0001:0002f768       __ehhandler$?GetMonitorData@MonitorPool@@QAE_NVword@chen@@PADAAI@Z 00430768 f   MonitorPool.obj
 0001:0002f780       $L46992                    00430780 f   MonitorPool.obj
 0001:0002f780       $L47682                    00430780 f   MonitorPool.obj
 0001:0002f788       __ehhandler$??0?$hashtable@Vword@chen@@PAVMonitor@@@chen@@QAE@XZ 00430788 f   MonitorPool.obj
 0001:0002f788       __ehhandler$??1?$hashtable@Vword@chen@@PAVMonitor@@@chen@@QAE@XZ 00430788 f   MonitorPool.obj
 0001:0002f7a0       $L47641                    004307a0 f   MonitorPool.obj
 0001:0002f7a8       $L47642                    004307a8 f   MonitorPool.obj
 0001:0002f7b1       __ehhandler$?DeleteMonitor@MonitorPool@@QAE_NVword@chen@@@Z 004307b1 f   MonitorPool.obj
 0001:0002f7c0       $L48021                    004307c0 f   MonitorPool.obj
 0001:0002f7c8       $L48023                    004307c8 f   MonitorPool.obj
 0001:0002f7d0       $L48024                    004307d0 f   MonitorPool.obj
 0001:0002f7db       __ehhandler$??0MonitorPool@@QAE@Vword@chen@@@Z 004307db f   MonitorPool.obj
 0001:0002f7f0       $L48059                    004307f0 f   MonitorPool.obj
 0001:0002f7f8       $L48060                    004307f8 f   MonitorPool.obj
 0001:0002f803       $L48061                    00430803 f   MonitorPool.obj
 0001:0002f80b       __ehhandler$?CreateObjectByRawData@MonitorPool@@UAEHPBDI@Z 0043080b f   MonitorPool.obj
 0001:0002f820       $L48108                    00430820 f   MonitorPool.obj
 0001:0002f829       $L48109                    00430829 f   MonitorPool.obj
 0001:0002f831       __ehhandler$?push@MonitorPool@@QAE_NPAVMonitor@@@Z 00430831 f   MonitorPool.obj
 0001:0002f840       $L48153                    00430840 f   MonitorPool.obj
 0001:0002f849       $L48154                    00430849 f   MonitorPool.obj
 0001:0002f854       __ehhandler$?PushData@MonitorPool@@QAE_NPBDI@Z 00430854 f   MonitorPool.obj
 0001:0002f860       $L21486                    00430860 f   MonitorTemplet.obj
 0001:0002f86b       $L21487                    0043086b f   MonitorTemplet.obj
 0001:0002f876       $L21488                    00430876 f   MonitorTemplet.obj
 0001:0002f881       $L21489                    00430881 f   MonitorTemplet.obj
 0001:0002f88c       $L21490                    0043088c f   MonitorTemplet.obj
 0001:0002f897       __ehhandler$??0MonitorTemplet@@QAE@XZ 00430897 f   MonitorTemplet.obj
 0001:0002f8b0       $L21785                    004308b0 f   MonitorTemplet.obj
 0001:0002f8bb       $L21786                    004308bb f   MonitorTemplet.obj
 0001:0002f8c6       $L21787                    004308c6 f   MonitorTemplet.obj
 0001:0002f8d1       $L21788                    004308d1 f   MonitorTemplet.obj
 0001:0002f8dc       __ehhandler$??1MonitorTemplet@@QAE@XZ 004308dc f   MonitorTemplet.obj
 0001:0002f8f0       $L22421                    004308f0 f   MonitorTemplet.obj
 0001:0002f8fb       $L22422                    004308fb f   MonitorTemplet.obj
 0001:0002f906       $L22423                    00430906 f   MonitorTemplet.obj
 0001:0002f911       $L22424                    00430911 f   MonitorTemplet.obj
 0001:0002f91c       __ehhandler$?CreateObjectByRawData@MonitorTemplet@@UAEHPBDI@Z 0043091c f   MonitorTemplet.obj
 0001:0002f930       $L42915                    00430930 f   MonitorTempletPool.obj
 0001:0002f93c       $L42916                    0043093c f   MonitorTempletPool.obj
 0001:0002f948       __ehhandler$?Load@MonitorTempletPool@@UAE_NXZ 00430948 f   MonitorTempletPool.obj
 0001:0002f960       $L42947                    00430960 f   MonitorTempletPool.obj
 0001:0002f96c       $L42948                    0043096c f   MonitorTempletPool.obj
 0001:0002f978       __ehhandler$?Submit@MonitorTempletPool@@UAE_NXZ 00430978 f   MonitorTempletPool.obj
 0001:0002f990       $L43208                    00430990 f   MonitorTempletPool.obj
 0001:0002f990       $L43117                    00430990 f   MonitorTempletPool.obj
 0001:0002f999       $L43212                    00430999 f   MonitorTempletPool.obj
 0001:0002f999       $L43121                    00430999 f   MonitorTempletPool.obj
 0001:0002f9a2       __ehhandler$?_Xlen@?$vector@PAV?$hashnode@Vword@chen@@V12@@chen@@V?$allocator@PAV?$hashnode@Vword@chen@@V12@@chen@@@std@@@std@@IBEXXZ 004309a2 f   MonitorTempletPool.obj
 0001:0002f9a2       __ehhandler$?_Xlen@?$vector@PAVMonitorTemplet@@V?$allocator@PAVMonitorTemplet@@@std@@@std@@IBEXXZ 004309a2 f   MonitorTempletPool.obj
 0001:0002f9b0       $L43252                    004309b0 f   MonitorTempletPool.obj
 0001:0002f9b8       $L43253                    004309b8 f   MonitorTempletPool.obj
 0001:0002f9c3       __ehhandler$??0?$hashelement@Vword@chen@@V12@@chen@@QAE@ABVword@1@0@Z 004309c3 f   MonitorTempletPool.obj
 0001:0002f9d0       $L44192                    004309d0 f   MonitorTempletPool.obj
 0001:0002f9d0       $L43562                    004309d0 f   MonitorTempletPool.obj
 0001:0002f9db       __ehhandler$??0?$treenode@V?$hashelement@Vword@chen@@V12@@chen@@@chen@@QAE@ABV?$hashelement@Vword@chen@@V12@@1@@Z 004309db f   MonitorTempletPool.obj
 0001:0002f9db       __ehhandler$??0?$treenode@V?$hashelement@Vword@chen@@V12@@chen@@@chen@@QAE@ABV01@@Z 004309db f   MonitorTempletPool.obj
 0001:0002f9f0       $L44145                    004309f0 f   MonitorTempletPool.obj
 0001:0002f9f0       $L44097                    004309f0 f   MonitorTempletPool.obj
 0001:0002f9f8       __ehhandler$??M?$treenode@V?$hashelement@Vword@chen@@V12@@chen@@@chen@@QAE_NV01@@Z 004309f8 f   MonitorTempletPool.obj
 0001:0002f9f8       __ehhandler$??O?$treenode@V?$hashelement@Vword@chen@@V12@@chen@@@chen@@QAE_NV01@@Z 004309f8 f   MonitorTempletPool.obj
 0001:0002fa10       $L45330                    00430a10 f   MonitorTempletPool.obj
 0001:0002fa10       $L47890                    00430a10 f   MonitorTempletPool.obj
 0001:0002fa1b       __ehhandler$??$CreateNode@V?$hashelement@Vword@chen@@V12@@chen@@@?$sorttree@V?$hashelement@Vword@chen@@V12@@chen@@@chen@@SAPAV?$treenode@V?$hashelement@Vword@chen@@V12@@chen@@@1@ABV?$hashelement@Vword@chen@@V12@@1@@Z 00430a1b f   MonitorTempletPool.obj
 0001:0002fa1b       __ehhandler$?insert@?$hashtable@Vword@chen@@V12@@chen@@QAEAAVword@2@ABV32@0@Z 00430a1b f   MonitorTempletPool.obj
 0001:0002fa30       $L47183                    00430a30 f   MonitorTempletPool.obj
 0001:0002fa38       __ehhandler$?insert@?$hashnode@Vword@chen@@V12@@chen@@QAEAAV?$hashelement@Vword@chen@@V12@@2@ABVword@2@0@Z 00430a38 f   MonitorTempletPool.obj
 0001:0002fa50       $L47656                    00430a50 f   MonitorTempletPool.obj
 0001:0002fa59       __ehhandler$?push@MonitorTempletPool@@QAE_NPAVMonitorTemplet@@@Z 00430a59 f   MonitorTempletPool.obj
 0001:0002fa70       $L47859                    00430a70 f   MonitorTempletPool.obj
 0001:0002fa79       $L47860                    00430a79 f   MonitorTempletPool.obj
 0001:0002fa84       __ehhandler$?PushData@MonitorTempletPool@@QAE_NPBDI@Z 00430a84 f   MonitorTempletPool.obj
 0001:0002fa90       $L48269                    00430a90 f   MonitorTempletPool.obj
 0001:0002fa9b       __ehhandler$?CreateObjectByRawData@MonitorTempletPool@@UAEHPBDI@Z 00430a9b f   MonitorTempletPool.obj
 0001:0002fab0       $L48344                    00430ab0 f   MonitorTempletPool.obj
 0001:0002fab8       __ehhandler$??A?$hashtable@Vword@chen@@V12@@chen@@QAEAAVword@1@ABV21@@Z 00430ab8 f   MonitorTempletPool.obj
 0001:0002fad0       $L48365                    00430ad0 f   MonitorTempletPool.obj
 0001:0002fad8       $L48366                    00430ad8 f   MonitorTempletPool.obj
 0001:0002fae3       $L48367                    00430ae3 f   MonitorTempletPool.obj
 0001:0002faeb       __ehhandler$?GetInfo@MonitorTempletPool@@QAE_NVword@chen@@AAVStringMap@@@Z 00430aeb f   MonitorTempletPool.obj
 0001:0002fb00       $L18360                    00430b00 f   Option.obj
 0001:0002fb09       __ehhandler$??1?$pair@$$CBV?$basic_string@DU?$char_traits@D@std@@V?$allocator@D@2@@std@@V12@@std@@QAE@XZ 00430b09 f   Option.obj
 0001:0002fb20       $L20009                    00430b20 f   Option.obj
 0001:0002fb29       $L20019                    00430b29 f   Option.obj
 0001:0002fb32       $L20390                    00430b32 f   Option.obj
 0001:0002fb3b       __ehhandler$?erase@?$_Tree@V?$_Tmap_traits@V?$basic_string@DU?$char_traits@D@std@@V?$allocator@D@2@@std@@V12@UStlIniCompareStringNoCase@@V?$allocator@U?$pair@$$CBV?$basic_string@DU?$char_traits@D@std@@V?$allocator@D@2@@std@@V12@@std@@@2@$0A@@std@@@std@@QAE?AViterator@12@V312@@Z 00430b3b f   Option.obj
 0001:0002fb50       $L21163                    00430b50 f   Option.obj
 0001:0002fb59       __ehhandler$??1?$pair@$$CBV?$basic_string@DU?$char_traits@D@std@@V?$allocator@D@2@@std@@V?$map@V?$basic_string@DU?$char_traits@D@std@@V?$allocator@D@2@@std@@V12@UStlIniCompareStringNoCase@@V?$allocator@U?$pair@$$CBV?$basic_string@DU?$char_traits@D@std@@V?$allocator@D@2@@std@@V12@@std@@@2@@2@@std@@QAE@XZ 00430b59 f   Option.obj
 0001:0002fb70       $L21368                    00430b70 f   Option.obj
 0001:0002fb79       $L21378                    00430b79 f   Option.obj
 0001:0002fb82       __ehhandler$?erase@?$_Tree@V?$_Tmap_traits@V?$basic_string@DU?$char_traits@D@std@@V?$allocator@D@2@@std@@V?$map@V?$basic_string@DU?$char_traits@D@std@@V?$allocator@D@2@@std@@V12@UStlIniCompareStringNoCase@@V?$allocator@U?$pair@$$CBV?$basic_string@DU?$char_traits@D@std@@V?$allocator@D@2@@std@@V12@@std@@@2@@2@UStlIniCompareStringNoCase@@V?$allocator@U?$pair@$$CBV?$basic_string@DU?$char_traits@D@std@@V?$allocator@D@2@@std@@V?$map@V?$basic_string@DU?$char_traits@D@std@@V?$allocator@D@2@@std@@V12@UStlIniCompareStringNoCase@@V?$allocator@U?$pair@$$CBV?$basic_string@DU?$char_traits@D@std@@V?$allocator@D@2@@std@@V12@@std@@@2@@2@@std@@@2@$0A@@std@@@std@@QAE?AViterator@12@V312@@Z 00430b82 f   Option.obj
 0001:0002fb90       $L22514                    00430b90 f   Option.obj
 0001:0002fb9c       $L22515                    00430b9c f   Option.obj
 0001:0002fba8       $L22516                    00430ba8 f   Option.obj
 0001:0002fbb3       $L22517                    00430bb3 f   Option.obj
 0001:0002fbbf       $L22518                    00430bbf f   Option.obj
 0001:0002fbcb       $L22519                    00430bcb f   Option.obj
 0001:0002fbd7       $L22520                    00430bd7 f   Option.obj
 0001:0002fbe3       $L22521                    00430be3 f   Option.obj
 0001:0002fbef       $L22522                    00430bef f   Option.obj
 0001:0002fbfb       $L22523                    00430bfb f   Option.obj
 0001:0002fc07       $L22524                    00430c07 f   Option.obj
 0001:0002fc13       $L22525                    00430c13 f   Option.obj
 0001:0002fc1f       $L22526                    00430c1f f   Option.obj
 0001:0002fc2b       $L22527                    00430c2b f   Option.obj
 0001:0002fc37       $L22528                    00430c37 f   Option.obj
 0001:0002fc43       $L22529                    00430c43 f   Option.obj
 0001:0002fc4f       $L22530                    00430c4f f   Option.obj
 0001:0002fc5b       $L22531                    00430c5b f   Option.obj
 0001:0002fc67       $L22532                    00430c67 f   Option.obj
 0001:0002fc73       $L22533                    00430c73 f   Option.obj
 0001:0002fc7f       $L22534                    00430c7f f   Option.obj
 0001:0002fc8b       __ehhandler$?LoadOption@Option@@QAE_NXZ 00430c8b f   Option.obj
 0001:0002fca0       $L58359                    00430ca0 f   Page.obj
 0001:0002fca0       $L60116                    00430ca0 f   Page.obj
 0001:0002fca9       __ehhandler$?swapinex@Page@@QAE_NXZ 00430ca9 f   Page.obj
 0001:0002fca9       __ehhandler$?swapout@Page@@QAE_N_N@Z 00430ca9 f   Page.obj
 0001:0002fcc0       $L60259                    00430cc0 f   Page.obj
 0001:0002fcc9       __ehhandler$?swapoutex@Page@@QAE_N_N@Z 00430cc9 f   Page.obj
 0001:0002fce0       $L60500                    00430ce0 f   PagePool.obj
 0001:0002fce0       $L60531                    00430ce0 f   PagePool.obj
 0001:0002fce0       $L61367                    00430ce0 f   PagePool.obj
 0001:0002fce9       $L60504                    00430ce9 f   PagePool.obj
 0001:0002fce9       $L61387                    00430ce9 f   PagePool.obj
 0001:0002fce9       $L60535                    00430ce9 f   PagePool.obj
 0001:0002fcf2       __ehhandler$?_Xlen@?$vector@PAUSubPool@PagePool@@V?$allocator@PAUSubPool@PagePool@@@std@@@std@@IBEXXZ 00430cf2 f   PagePool.obj
 0001:0002fcf2       __ehhandler$?_Xlen@?$vector@PAVPage@@V?$allocator@PAVPage@@@std@@@std@@IBEXXZ 00430cf2 f   PagePool.obj
 0001:0002fcf2       __ehhandler$?_Incsize@?$list@PAVPage@@V?$allocator@PAVPage@@@std@@@std@@IAEXI@Z 00430cf2 f   PagePool.obj
 0001:0002fd00       $L63780                    00430d00 f   PagePool.obj
 0001:0002fd09       __ehhandler$?Get@PagePool@@QAEPAVPage@@H@Z 00430d09 f   PagePool.obj
 0001:0002fd20       $L63921                    00430d20 f   PagePool.obj
 0001:0002fd29       $L63922                    00430d29 f   PagePool.obj
 0001:0002fd32       __ehhandler$?FlushFileHead@PagePool@@IAEXH@Z 00430d32 f   PagePool.obj
 0001:0002fd40       $L64681                    00430d40 f   PagePool.obj
 0001:0002fd49       $L64682                    00430d49 f   PagePool.obj
 0001:0002fd55       $L64683                    00430d55 f   PagePool.obj
 0001:0002fd60       $L64684                    00430d60 f   PagePool.obj
 0001:0002fd6c       $L64685                    00430d6c f   PagePool.obj
 0001:0002fd77       __ehhandler$??0PagePool@@QAE@XZ 00430d77 f   PagePool.obj
 0001:0002fd90       $L65235                    00430d90 f   PagePool.obj
 0001:0002fd99       $L65236                    00430d99 f   PagePool.obj
 0001:0002fda5       $L65237                    00430da5 f   PagePool.obj
 0001:0002fdb0       $L65238                    00430db0 f   PagePool.obj
 0001:0002fdbc       $L65239                    00430dbc f   PagePool.obj
 0001:0002fdc7       $L65240                    00430dc7 f   PagePool.obj
 0001:0002fdd5       $L65241                    00430dd5 f   PagePool.obj
 0001:0002fdde       $L65242                    00430dde f   PagePool.obj
 0001:0002fde7       __ehhandler$??1PagePool@@QAE@XZ 00430de7 f   PagePool.obj
 0001:0002fe00       $L65801                    00430e00 f   PagePool.obj
 0001:0002fe00       $L65565                    00430e00 f   PagePool.obj
 0001:0002fe00       $L68562                    00430e00 f   PagePool.obj
 0001:0002fe00       $L63580                    00430e00 f   PagePool.obj
 0001:0002fe00       $L60325                    00430e00 f   PagePool.obj
 0001:0002fe09       __ehhandler$?RemoveFromFreePages@PagePool@@QAE_NH@Z 00430e09 f   PagePool.obj
 0001:0002fe09       __ehhandler$?PutFree@PagePool@@QAE_NPAVPage@@@Z 00430e09 f   PagePool.obj
 0001:0002fe09       __ehhandler$?GetFreeEx@PagePool@@QAEPAVPage@@XZ 00430e09 f   PagePool.obj
 0001:0002fe09       __ehhandler$?Put@PagePool@@QAE_NPAVPage@@_N1@Z 00430e09 f   PagePool.obj
 0001:0002fe09       __ehhandler$?GetFree@PagePool@@QAEPAVPage@@XZ 00430e09 f   PagePool.obj
 0001:0002fe20       $L66453                    00430e20 f   PagePool.obj
 0001:0002fe2c       $L66456                    00430e2c f   PagePool.obj
 0001:0002fe3a       __ehhandler$?LoadPageEx@PagePool@@QAE_NPBD@Z 00430e3a f   PagePool.obj
 0001:0002fe50       $L66831                    00430e50 f   PagePool.obj
 0001:0002fe5c       $L66833                    00430e5c f   PagePool.obj
 0001:0002fe6a       __ehhandler$?CreatePageEx@PagePool@@QAE_NPBDHHH_N@Z 00430e6a f   PagePool.obj
 0001:0002fe80       $L67320                    00430e80 f   PagePool.obj
 0001:0002fe8c       $L67321                    00430e8c f   PagePool.obj
 0001:0002fe98       $L67322                    00430e98 f   PagePool.obj
 0001:0002fea6       __ehhandler$?AddNewPagesEx@PagePool@@QAE_NH@Z 00430ea6 f   PagePool.obj
 0001:0002feb0       $L35191                    00430eb0 f   PoolBase.obj
 0001:0002febb       __ehhandler$??1PoolBase@@QAE@XZ 00430ebb f   PoolBase.obj
 0001:0002fed0       $L59336                    00430ed0 f   Queue.obj
 0001:0002fed0       $L59368                    00430ed0 f   Queue.obj
 0001:0002fed8       $L59369                    00430ed8 f   Queue.obj
 0001:0002fed8       $L59337                    00430ed8 f   Queue.obj
 0001:0002fee7       __ehhandler$??1Queue@@QAE@XZ 00430ee7 f   Queue.obj
 0001:0002fee7       __ehhandler$??0Queue@@QAE@XZ 00430ee7 f   Queue.obj
 0001:0002ff00       $L59394                    00430f00 f   Queue.obj
 0001:0002ff09       __ehhandler$?PeekTopRecord@Queue@@AAEHPADAAI@Z 00430f09 f   Queue.obj
 0001:0002ff20       $L61506                    00430f20 f   Queue.obj
 0001:0002ff20       $L59878                    00430f20 f   Queue.obj
 0001:0002ff29       __ehhandler$?Peek@Queue@@QAEHAAVbuffer@chen@@AAI_NI@Z 00430f29 f   Queue.obj
 0001:0002ff29       __ehhandler$?PopTop@Queue@@QAEHAAVbuffer@chen@@AAI_NI@Z 00430f29 f   Queue.obj
 0001:0002ff40       $L61325                    00430f40 f   Queue.obj
 0001:0002ff40       $L61350                    00430f40 f   Queue.obj
 0001:0002ff49       __ehhandler$?Clear@Queue@@QAE_NXZ 00430f49 f   Queue.obj
 0001:0002ff49       __ehhandler$?DeleteData@Queue@@QAE_NXZ 00430f49 f   Queue.obj
 0001:0002ff60       $L61397                    00430f60 f   Queue.obj
 0001:0002ff69       __ehhandler$?PopTopRecord@Queue@@AAEHPADAAI@Z 00430f69 f   Queue.obj
 0001:0002ff80       $L16237                    00430f80 f   QueueRecord.obj
 0001:0002ff89       $L16238                    00430f89 f   QueueRecord.obj
 0001:0002ff95       __ehhandler$??0QueueRecord@@QAE@V?$basic_string@DU?$char_traits@D@std@@V?$allocator@D@2@@std@@VTTime@chen@@PBDIH@Z 00430f95 f   QueueRecord.obj
 0001:0002ffa0       $L25735                    00430fa0 f   RecordSet.obj
 0001:0002ffac       $L25736                    00430fac f   RecordSet.obj
 0001:0002ffb7       __ehhandler$??0RecordType@@QAE@XZ 00430fb7 f   RecordSet.obj
 0001:0002ffd0       $L17585                    00430fd0 f   Resource.obj
 0001:0002ffd0       $L17563                    00430fd0 f   Resource.obj
 0001:0002ffdb       __ehhandler$??1Resource@@QAE@XZ 00430fdb f   Resource.obj
 0001:0002ffdb       __ehhandler$??0Resource@@QAE@XZ 00430fdb f   Resource.obj
 0001:0002fff0       __ehhandler$?CreateObjectByRawData@Resource@@UAEHPBDI@Z 00430ff0 f   Resource.obj
 0001:00030000       $L42961                    00431000 f   ResourcePool.obj
 0001:0003000c       $L42962                    0043100c f   ResourcePool.obj
 0001:00030018       __ehhandler$?Load@ResourcePool@@UAE_NXZ 00431018 f   ResourcePool.obj
 0001:00030030       $L42993                    00431030 f   ResourcePool.obj
 0001:0003003c       $L42994                    0043103c f   ResourcePool.obj
 0001:00030048       __ehhandler$?Submit@ResourcePool@@UAE_NXZ 00431048 f   ResourcePool.obj
 0001:00030060       $L43267                    00431060 f   ResourcePool.obj
 0001:00030069       $L43271                    00431069 f   ResourcePool.obj
 0001:00030072       __ehhandler$?_Xlen@?$vector@PAV?$hashnode@Vword@chen@@PAVResource@@@chen@@V?$allocator@PAV?$hashnode@Vword@chen@@PAVResource@@@chen@@@std@@@std@@IBEXXZ 00431072 f   ResourcePool.obj
 0001:00030080       $L43379                    00431080 f   ResourcePool.obj
 0001:00030080       $L43416                    00431080 f   ResourcePool.obj
 0001:00030088       __ehhandler$??O?$treenode@V?$hashelement@Vword@chen@@PAVResource@@@chen@@@chen@@QAE_NV01@@Z 00431088 f   ResourcePool.obj
 0001:00030088       __ehhandler$??M?$treenode@V?$hashelement@Vword@chen@@PAVResource@@@chen@@@chen@@QAE_NV01@@Z 00431088 f   ResourcePool.obj
 0001:000300a0       $L43452                    004310a0 f   ResourcePool.obj
 0001:000300a0       $L43674                    004310a0 f   ResourcePool.obj
 0001:000300ab       __ehhandler$??0?$treenode@V?$hashelement@Vword@chen@@PAVResource@@@chen@@@chen@@QAE@ABV01@@Z 004310ab f   ResourcePool.obj
 0001:000300ab       __ehhandler$??0?$treenode@V?$hashelement@Vword@chen@@PAVResource@@@chen@@@chen@@QAE@ABV?$hashelement@Vword@chen@@PAVResource@@@1@@Z 004310ab f   ResourcePool.obj
 0001:000300c0       $L45818                    004310c0 f   ResourcePool.obj
 0001:000300c0       $L43158                    004310c0 f   ResourcePool.obj
 0001:000300c0       $L43171                    004310c0 f   ResourcePool.obj
 0001:000300c8       __ehhandler$??1?$hashnode@Vword@chen@@PAVResource@@@chen@@QAE@XZ 004310c8 f   ResourcePool.obj
 0001:000300c8       __ehhandler$??0?$hashelement@Vword@chen@@PAVResource@@@chen@@QAE@ABVword@1@ABQAVResource@@@Z 004310c8 f   ResourcePool.obj
 0001:000300c8       __ehhandler$??0?$hashelement@Vword@chen@@PAVResource@@@chen@@QAE@ABVword@1@@Z 004310c8 f   ResourcePool.obj
 0001:000300e0       $L46543                    004310e0 f   ResourcePool.obj
 0001:000300e0       $L44048                    004310e0 f   ResourcePool.obj
 0001:000300e0       $L45889                    004310e0 f   ResourcePool.obj
 0001:000300e0       $L45574                    004310e0 f   ResourcePool.obj
 0001:000300e8       __ehhandler$?insert@?$hashnode@Vword@chen@@PAVResource@@@chen@@QAEAAV?$hashelement@Vword@chen@@PAVResource@@@2@ABVword@2@ABQAVResource@@@Z 004310e8 f   ResourcePool.obj
 0001:000300e8       __ehhandler$?RomoveNode@?$sorttree@V?$hashelement@Vword@chen@@PAVResource@@@chen@@@chen@@QAEXABV?$hashelement@Vword@chen@@PAVResource@@@2@@Z 004310e8 f   ResourcePool.obj
 0001:000300e8       __ehhandler$?find@?$hashnode@Vword@chen@@PAVResource@@@chen@@QAE_NABVword@2@PAPAV?$hashelement@Vword@chen@@PAVResource@@@2@@Z 004310e8 f   ResourcePool.obj
 0001:000300e8       __ehhandler$?erase@?$hashnode@Vword@chen@@PAVResource@@@chen@@QAE_NABVword@2@@Z 004310e8 f   ResourcePool.obj
 0001:00030100       $L47434                    00431100 f   ResourcePool.obj
 0001:00030108       $L47435                    00431108 f   ResourcePool.obj
 0001:00030111       __ehhandler$?DeleteResource@ResourcePool@@QAE_NVword@chen@@@Z 00431111 f   ResourcePool.obj
 0001:00030120       $L47475                    00431120 f   ResourcePool.obj
 0001:00030120       $L46785                    00431120 f   ResourcePool.obj
 0001:00030128       __ehhandler$??0?$hashtable@Vword@chen@@PAVResource@@@chen@@QAE@XZ 00431128 f   ResourcePool.obj
 0001:00030128       __ehhandler$??1?$hashtable@Vword@chen@@PAVResource@@@chen@@QAE@XZ 00431128 f   ResourcePool.obj
 0001:00030140       $L45388                    00431140 f   ResourcePool.obj
 0001:00030140       $L47573                    00431140 f   ResourcePool.obj
 0001:0003014b       __ehhandler$??$CreateNode@V?$hashelement@Vword@chen@@PAVResource@@@chen@@@?$sorttree@V?$hashelement@Vword@chen@@PAVResource@@@chen@@@chen@@SAPAV?$treenode@V?$hashelement@Vword@chen@@PAVResource@@@chen@@@1@ABV?$hashelement@Vword@chen@@PAVResource@@@1@@Z 0043114b f   ResourcePool.obj
 0001:0003014b       __ehhandler$?insert@?$hashtable@Vword@chen@@PAVResource@@@chen@@QAEAAPAVResource@@ABVword@2@ABQAV3@@Z 0043114b f   ResourcePool.obj
 0001:00030160       $L47823                    00431160 f   ResourcePool.obj
 0001:00030168       $L47824                    00431168 f   ResourcePool.obj
 0001:00030173       $L47825                    00431173 f   ResourcePool.obj
 0001:0003017b       __ehhandler$?CreateObjectByRawData@ResourcePool@@UAEHPBDI@Z 0043117b f   ResourcePool.obj
 0001:00030190       $L47872                    00431190 f   ResourcePool.obj
 0001:00030199       $L47873                    00431199 f   ResourcePool.obj
 0001:000301a1       __ehhandler$?push@ResourcePool@@QAE_NPAVResource@@@Z 004311a1 f   ResourcePool.obj
 0001:000301b0       $L47917                    004311b0 f   ResourcePool.obj
 0001:000301b9       $L47918                    004311b9 f   ResourcePool.obj
 0001:000301c4       __ehhandler$?PushData@ResourcePool@@QAE_NPBDI@Z 004311c4 f   ResourcePool.obj
 0001:000301d0       __ehhandler$?CreateObjectByRawData@CommonData@@UAEHPBDI@Z 004311d0 f   Section.obj
 0001:000301e0       $L24035                    004311e0 f   Section.obj
 0001:000301e8       __ehhandler$??1?$hashnode@Vword@chen@@PAVCommonData@@@chen@@QAE@XZ 004311e8 f   Section.obj
 0001:00030200       $L25643                    00431200 f   Section.obj
 0001:0003020b       $L25644                    0043120b f   Section.obj
 0001:00030216       $L25645                    00431216 f   Section.obj
 0001:00030221       __ehhandler$??1Section@@QAE@XZ 00431221 f   Section.obj
 0001:00030230       $L25725                    00431230 f   Section.obj
 0001:00030230       $L25218                    00431230 f   Section.obj
 0001:00030238       __ehhandler$??1?$hashtable@Vword@chen@@PAVCommonData@@@chen@@QAE@XZ 00431238 f   Section.obj
 0001:00030238       __ehhandler$??0?$hashtable@Vword@chen@@PAVCommonData@@@chen@@QAE@XZ 00431238 f   Section.obj
 0001:00030250       $L26038                    00431250 f   Section.obj
 0001:0003025b       $L26039                    0043125b f   Section.obj
 0001:00030266       $L26040                    00431266 f   Section.obj
 0001:00030271       __ehhandler$??0Section@@QAE@XZ 00431271 f   Section.obj
 0001:00030280       $L26160                    00431280 f   Section.obj
 0001:00030288       __ehhandler$?CreateObjectByRawData@Section@@UAEHPBDI@Z 00431288 f   Section.obj
 0001:000302a0       $L69773                    004312a0 f   Services.obj
 0001:000302a9       $L69774                    004312a9 f   Services.obj
 0001:000302b5       __ehhandler$?RunProcess@@YA_NPAU_PROCESS_INFORMATION@@V?$basic_string@DU?$char_traits@D@std@@V?$allocator@D@2@@std@@@Z 004312b5 f   Services.obj
 0001:000302c0       $L59111                    004312c0 f   SocketWatchThread.obj
 0001:000302cb       __ehhandler$?Init@SocketWatchThread@@QAE_NXZ 004312cb f   SocketWatchThread.obj
 0001:000302e0       $L59129                    004312e0 f   SocketWatchThread.obj
 0001:000302e9       $L59130                    004312e9 f   SocketWatchThread.obj
 0001:000302f2       __ehhandler$?run@SocketWatchThread@@UAEXXZ 004312f2 f   SocketWatchThread.obj
 0001:00030300       $L59524                    00431300 f   SocketWatchThread.obj
 0001:00030308       __ehhandler$??1SocketWatchThread@@UAE@XZ 00431308 f   SocketWatchThread.obj
 0001:00030320       $L19388                    00431320 f   stlini.obj
 0001:00030320       $L20073                    00431320 f   stlini.obj
 0001:00030320       $L26779                    00431320 f   stlini.obj
 0001:00030320       $L19456                    00431320 f   stlini.obj
 0001:00030320       $L26799                    00431320 f   stlini.obj
 0001:00030320       $L20281                    00431320 f   stlini.obj
 0001:00030320       $L26763                    00431320 f   stlini.obj
 0001:00030329       __ehhandler$??0?$pair@$$CBV?$basic_string@DU?$char_traits@D@std@@V?$allocator@D@2@@std@@V12@@std@@QAE@ABU01@@Z 00431329 f   stlini.obj
 0001:00030329       __ehhandler$??0?$pair@$$CBV?$basic_string@DU?$char_traits@D@std@@V?$allocator@D@2@@std@@V?$map@V?$basic_string@DU?$char_traits@D@std@@V?$allocator@D@2@@std@@V12@UStlIniCompareStringNoCase@@V?$allocator@U?$pair@$$CBV?$basic_string@DU?$char_traits@D@std@@V?$allocator@D@2@@std@@V12@@std@@@2@@2@@std@@QAE@ABU01@@Z 00431329 f   stlini.obj
 0001:00030329       __ehhandler$??0?$pair@V?$basic_string@DU?$char_traits@D@std@@V?$allocator@D@2@@std@@V?$map@V?$basic_string@DU?$char_traits@D@std@@V?$allocator@D@2@@std@@V12@UStlIniCompareStringNoCase@@V?$allocator@U?$pair@$$CBV?$basic_string@DU?$char_traits@D@std@@V?$allocator@D@2@@std@@V12@@std@@@2@@2@@std@@QAE@ABV?$basic_string@DU?$char_traits@D@std@@V?$allocator@D@2@@1@ABV?$map@V?$basic_string@DU?$char_traits@D@std@@V?$allocator@D@2@@std@@V12@UStlIniCompareStringNoCase@@V?$allocator@U?$pair@$$CBV?$basic_string@DU?$char_traits@D@std@@V?$allocator@D@2@@std@@V12@@std@@@2@@1@@Z 00431329 f   stlini.obj
 0001:00030329       __ehhandler$??1?$pair@V?$basic_string@DU?$char_traits@D@std@@V?$allocator@D@2@@std@@V12@@std@@QAE@XZ 00431329 f   stlini.obj
 0001:00030329       __ehhandler$??0?$pair@V?$basic_string@DU?$char_traits@D@std@@V?$allocator@D@2@@std@@V12@@std@@QAE@ABV?$basic_string@DU?$char_traits@D@std@@V?$allocator@D@2@@1@0@Z 00431329 f   stlini.obj
 0001:00030329       __ehhandler$??$?0V?$basic_string@DU?$char_traits@D@std@@V?$allocator@D@2@@std@@V?$map@V?$basic_string@DU?$char_traits@D@std@@V?$allocator@D@2@@std@@V12@UStlIniCompareStringNoCase@@V?$allocator@U?$pair@$$CBV?$basic_string@DU?$char_traits@D@std@@V?$allocator@D@2@@std@@V12@@std@@@2@@1@@?$pair@$$CBV?$basic_string@DU?$char_traits@D@std@@V?$allocator@D@2@@std@@V?$map@V?$basic_string@DU?$char_traits@D@std@@V?$allocator@D@2@@std@@V12@UStlIniCompareStringNoCase@@V?$allocator@U?$pair@$$CBV?$basic_string@DU?$char_traits@D@std@@V?$allocator@D@2@@std@@V12@@std@@@2@@2@@std@@QAE@ABU?$pair@V?$basic_string@DU?$char_traits@D@std@@V?$allocator@D@2@@std@@V?$map@V?$basic_string@DU?$char_traits@D@std@@V?$allocator@D@2@@std@@V12@UStlIniCompareStringNoCase@@V?$allocator@U?$pair@$$CBV?$basic_string@DU?$char_traits@D@std@@V?$allocator@D@2@@std@@V12@@std@@@2@@2@@1@@Z 00431329 f   stlini.obj
 0001:00030329       __ehhandler$??$?0V?$basic_string@DU?$char_traits@D@std@@V?$allocator@D@2@@std@@V01@@?$pair@$$CBV?$basic_string@DU?$char_traits@D@std@@V?$allocator@D@2@@std@@V12@@std@@QAE@ABU?$pair@V?$basic_string@DU?$char_traits@D@std@@V?$allocator@D@2@@std@@V12@@1@@Z 00431329 f   stlini.obj
 0001:00030340       $L22541                    00431340 f   stlini.obj
 0001:00030351       __ehhandler$?_Buynode@?$_Tree@V?$_Tmap_traits@V?$basic_string@DU?$char_traits@D@std@@V?$allocator@D@2@@std@@V12@UStlIniCompareStringNoCase@@V?$allocator@U?$pair@$$CBV?$basic_string@DU?$char_traits@D@std@@V?$allocator@D@2@@std@@V12@@std@@@2@$0A@@std@@@std@@IAEPAU_Node@?$_Tree_nod@V?$_Tmap_traits@V?$basic_string@DU?$char_traits@D@std@@V?$allocator@D@2@@std@@V12@UStlIniCompareStringNoCase@@V?$allocator@U?$pair@$$CBV?$basic_string@DU?$char_traits@D@std@@V?$allocator@D@2@@std@@V12@@std@@@2@$0A@@std@@@2@PAU342@00ABU?$pair@$$CBV?$basic_string@DU?$char_traits@D@std@@V?$allocator@D@2@@std@@V12@@2@D@Z 00431351 f   stlini.obj
 0001:00030360       $L23397                    00431360 f   stlini.obj
 0001:00030369       $L23400                    00431369 f   stlini.obj
 0001:00030383       __ehhandler$?GetIniSetting@@YA?AV?$basic_string@DU?$char_traits@D@std@@V?$allocator@D@2@@std@@AAV?$map@V?$basic_string@DU?$char_traits@D@std@@V?$allocator@D@2@@std@@V?$map@V?$basic_string@DU?$char_traits@D@std@@V?$allocator@D@2@@std@@V12@UStlIniCompareStringNoCase@@V?$allocator@U?$pair@$$CBV?$basic_string@DU?$char_traits@D@std@@V?$allocator@D@2@@std@@V12@@std@@@2@@2@UStlIniCompareStringNoCase@@V?$allocator@U?$pair@$$CBV?$basic_string@DU?$char_traits@D@std@@V?$allocator@D@2@@std@@V?$map@V?$basic_string@DU?$char_traits@D@std@@V?$allocator@D@2@@std@@V12@UStlIniCompareStringNoCase@@V?$allocator@U?$pair@$$CBV?$basic_string@DU?$char_traits@D@std@@V?$allocator@D@2@@std@@V12@@std@@@2@@2@@std@@@2@@2@PBD11@Z 00431383 f   stlini.obj
 0001:00030390       __ehhandler$?_Copy@?$_Tree@V?$_Tmap_traits@V?$basic_string@DU?$char_traits@D@std@@V?$allocator@D@2@@std@@V12@UStlIniCompareStringNoCase@@V?$allocator@U?$pair@$$CBV?$basic_string@DU?$char_traits@D@std@@V?$allocator@D@2@@std@@V12@@std@@@2@$0A@@std@@@std@@IAEPAU_Node@?$_Tree_nod@V?$_Tmap_traits@V?$basic_string@DU?$char_traits@D@std@@V?$allocator@D@2@@std@@V12@UStlIniCompareStringNoCase@@V?$allocator@U?$pair@$$CBV?$basic_string@DU?$char_traits@D@std@@V?$allocator@D@2@@std@@V12@@std@@@2@$0A@@std@@@2@PAU342@0@Z 00431390 f   stlini.obj
 0001:000303a0       __ehhandler$??0?$_Tree@V?$_Tmap_traits@V?$basic_string@DU?$char_traits@D@std@@V?$allocator@D@2@@std@@V12@UStlIniCompareStringNoCase@@V?$allocator@U?$pair@$$CBV?$basic_string@DU?$char_traits@D@std@@V?$allocator@D@2@@std@@V12@@std@@@2@$0A@@std@@@std@@QAE@ABV01@@Z 004313a0 f   stlini.obj
 0001:000303b0       $L26252                    004313b0 f   stlini.obj
 0001:000303b9       __ehhandler$??1?$pair@V?$basic_string@DU?$char_traits@D@std@@V?$allocator@D@2@@std@@V?$map@V?$basic_string@DU?$char_traits@D@std@@V?$allocator@D@2@@std@@V12@UStlIniCompareStringNoCase@@V?$allocator@U?$pair@$$CBV?$basic_string@DU?$char_traits@D@std@@V?$allocator@D@2@@std@@V12@@std@@@2@@2@@std@@QAE@XZ 004313b9 f   stlini.obj
 0001:000303d0       $L26829                    004313d0 f   stlini.obj
 0001:000303e1       __ehhandler$?_Buynode@?$_Tree@V?$_Tmap_traits@V?$basic_string@DU?$char_traits@D@std@@V?$allocator@D@2@@std@@V?$map@V?$basic_string@DU?$char_traits@D@std@@V?$allocator@D@2@@std@@V12@UStlIniCompareStringNoCase@@V?$allocator@U?$pair@$$CBV?$basic_string@DU?$char_traits@D@std@@V?$allocator@D@2@@std@@V12@@std@@@2@@2@UStlIniCompareStringNoCase@@V?$allocator@U?$pair@$$CBV?$basic_string@DU?$char_traits@D@std@@V?$allocator@D@2@@std@@V?$map@V?$basic_string@DU?$char_traits@D@std@@V?$allocator@D@2@@std@@V12@UStlIniCompareStringNoCase@@V?$allocator@U?$pair@$$CBV?$basic_string@DU?$char_traits@D@std@@V?$allocator@D@2@@std@@V12@@std@@@2@@2@@std@@@2@$0A@@std@@@std@@IAEPAU_Node@?$_Tree_nod@V?$_Tmap_traits@V?$basic_string@DU?$char_traits@D@std@@V?$allocator@D@2@@std@@V?$map@V?$basic_string@DU?$char_traits@D@std@@V?$allocator@D@2@@std@@V12@UStlIniCompareStringNoCase@@V?$allocator@U?$pair@$$CBV?$basic_string@DU?$char_traits@D@std@@V?$allocator@D@2@@std@@V12@@std@@@2@@2@UStlIniCompareStringNoCase@@V?$allocator@U?$pair@$$CBV?$basic_string@DU?$char_traits@D@std@@V?$allocator@D@2@@std@@V?$map@V?$basic_string@DU?$char_traits@D@std@@V?$allocator@D@2@@std@@V12@UStlIniCompareStringNoCase@@V?$allocator@U?$pair@$$CBV?$basic_string@DU?$char_traits@D@std@@V?$allocator@D@2@@std@@V12@@std@@@2@@2@@std@@@2@$0A@@std@@@2@PAU342@00ABU?$pair@$$CBV?$basic_string@DU?$char_traits@D@std@@V?$allocator@D@2@@std@@V?$map@V?$basic_string@DU?$char_traits@D@std@@V?$allocator@D@2@@std@@V12@UStlIniCompareStringNoCase@@V?$allocator@U?$pair@$$CBV?$basic_string@DU?$char_traits@D@std@@V?$allocator@D@2@@std@@V12@@std@@@2@@2@@2@D@Z 004313e1 f   stlini.obj
 0001:000303f0       $L26869                    004313f0 f   stlini.obj
 0001:000303f0       $L22974                    004313f0 f   stlini.obj
 0001:000303f9       $L26889                    004313f9 f   stlini.obj
 0001:000303f9       $L22994                    004313f9 f   stlini.obj
 0001:00030402       __ehhandler$?_Insert@?$_Tree@V?$_Tmap_traits@V?$basic_string@DU?$char_traits@D@std@@V?$allocator@D@2@@std@@V?$map@V?$basic_string@DU?$char_traits@D@std@@V?$allocator@D@2@@std@@V12@UStlIniCompareStringNoCase@@V?$allocator@U?$pair@$$CBV?$basic_string@DU?$char_traits@D@std@@V?$allocator@D@2@@std@@V12@@std@@@2@@2@UStlIniCompareStringNoCase@@V?$allocator@U?$pair@$$CBV?$basic_string@DU?$char_traits@D@std@@V?$allocator@D@2@@std@@V?$map@V?$basic_string@DU?$char_traits@D@std@@V?$allocator@D@2@@std@@V12@UStlIniCompareStringNoCase@@V?$allocator@U?$pair@$$CBV?$basic_string@DU?$char_traits@D@std@@V?$allocator@D@2@@std@@V12@@std@@@2@@2@@std@@@2@$0A@@std@@@std@@IAE?AViterator@12@_NPAU_Node@?$_Tree_nod@V?$_Tmap_traits@V?$basic_string@DU?$char_traits@D@std@@V?$allocator@D@2@@std@@V?$map@V?$basic_string@DU?$char_traits@D@std@@V?$allocator@D@2@@std@@V12@UStlIniCompareStringNoCase@@V?$allocator@U?$pair@$$CBV?$basic_string@DU?$char_traits@D@std@@V?$allocator@D@2@@std@@V12@@std@@@2@@2@UStlIniCompareStringNoCase@@V?$allocator@U?$pair@$$CBV?$basic_string@DU?$char_traits@D@std@@V?$allocator@D@2@@std@@V?$map@V?$basic_string@DU?$char_traits@D@std@@V?$allocator@D@2@@std@@V12@UStlIniCompareStringNoCase@@V?$allocator@U?$pair@$$CBV?$basic_string@DU?$char_traits@D@std@@V?$allocator@D@2@@std@@V12@@std@@@2@@2@@std@@@2@$0A@@std@@@2@ABU?$pair@$$CBV?$basic_string@DU?$char_traits@D@std@@V?$allocator@D@2@@std@@V?$map@V?$basic_string@DU?$char_traits@D@std@@V?$allocator@D@2@@std@@V12@UStlIniCompareStringNoCase@@V?$allocator@U?$pair@$$CBV?$basic_string@DU?$char_traits@D@std@@V?$allocator@D@2@@std@@V12@@std@@@2@@2@@2@@Z 00431402 f   stlini.obj
 0001:00030402       __ehhandler$?_Insert@?$_Tree@V?$_Tmap_traits@V?$basic_string@DU?$char_traits@D@std@@V?$allocator@D@2@@std@@V12@UStlIniCompareStringNoCase@@V?$allocator@U?$pair@$$CBV?$basic_string@DU?$char_traits@D@std@@V?$allocator@D@2@@std@@V12@@std@@@2@$0A@@std@@@std@@IAE?AViterator@12@_NPAU_Node@?$_Tree_nod@V?$_Tmap_traits@V?$basic_string@DU?$char_traits@D@std@@V?$allocator@D@2@@std@@V12@UStlIniCompareStringNoCase@@V?$allocator@U?$pair@$$CBV?$basic_string@DU?$char_traits@D@std@@V?$allocator@D@2@@std@@V12@@std@@@2@$0A@@std@@@2@ABU?$pair@$$CBV?$basic_string@DU?$char_traits@D@std@@V?$allocator@D@2@@std@@V12@@2@@Z 00431402 f   stlini.obj
 0001:00030410       $L27820                    00431410 f   stlini.obj
 0001:0003041b       $L27821                    0043141b f   stlini.obj
 0001:00030427       $L27822                    00431427 f   stlini.obj
 0001:00030433       $L27823                    00431433 f   stlini.obj
 0001:0003043e       $L27824                    0043143e f   stlini.obj
 0001:00030449       $L27825                    00431449 f   stlini.obj
 0001:00030455       $L27826                    00431455 f   stlini.obj
 0001:00030460       $L27827                    00431460 f   stlini.obj
 0001:0003046b       $L27829                    0043146b f   stlini.obj
 0001:00030474       $L27830                    00431474 f   stlini.obj
 0001:0003047d       $L27831                    0043147d f   stlini.obj
 0001:00030485       $L27832                    00431485 f   stlini.obj
 0001:00030490       __ehhandler$?PutIniSetting@@YAXAAV?$map@V?$basic_string@DU?$char_traits@D@std@@V?$allocator@D@2@@std@@V?$map@V?$basic_string@DU?$char_traits@D@std@@V?$allocator@D@2@@std@@V12@UStlIniCompareStringNoCase@@V?$allocator@U?$pair@$$CBV?$basic_string@DU?$char_traits@D@std@@V?$allocator@D@2@@std@@V12@@std@@@2@@2@UStlIniCompareStringNoCase@@V?$allocator@U?$pair@$$CBV?$basic_string@DU?$char_traits@D@std@@V?$allocator@D@2@@std@@V?$map@V?$basic_string@DU?$char_traits@D@std@@V?$allocator@D@2@@std@@V12@UStlIniCompareStringNoCase@@V?$allocator@U?$pair@$$CBV?$basic_string@DU?$char_traits@D@std@@V?$allocator@D@2@@std@@V12@@std@@@2@@2@@std@@@2@@std@@PBD11@Z 00431490 f   stlini.obj
 0001:000304a0       __ehhandler$?_Copy@?$_Tree@V?$_Tmap_traits@V?$basic_string@DU?$char_traits@D@std@@V?$allocator@D@2@@std@@V?$map@V?$basic_string@DU?$char_traits@D@std@@V?$allocator@D@2@@std@@V12@UStlIniCompareStringNoCase@@V?$allocator@U?$pair@$$CBV?$basic_string@DU?$char_traits@D@std@@V?$allocator@D@2@@std@@V12@@std@@@2@@2@UStlIniCompareStringNoCase@@V?$allocator@U?$pair@$$CBV?$basic_string@DU?$char_traits@D@std@@V?$allocator@D@2@@std@@V?$map@V?$basic_string@DU?$char_traits@D@std@@V?$allocator@D@2@@std@@V12@UStlIniCompareStringNoCase@@V?$allocator@U?$pair@$$CBV?$basic_string@DU?$char_traits@D@std@@V?$allocator@D@2@@std@@V12@@std@@@2@@2@@std@@@2@$0A@@std@@@std@@IAEPAU_Node@?$_Tree_nod@V?$_Tmap_traits@V?$basic_string@DU?$char_traits@D@std@@V?$allocator@D@2@@std@@V?$map@V?$basic_string@DU?$char_traits@D@std@@V?$allocator@D@2@@std@@V12@UStlIniCompareStringNoCase@@V?$allocator@U?$pair@$$CBV?$basic_string@DU?$char_traits@D@std@@V?$allocator@D@2@@std@@V12@@std@@@2@@2@UStlIniCompareStringNoCase@@V?$allocator@U?$pair@$$CBV?$basic_string@DU?$char_traits@D@std@@V?$allocator@D@2@@std@@V?$map@V?$basic_string@DU?$char_traits@D@std@@V?$allocator@D@2@@std@@V12@UStlIniCompareStringNoCase@@V?$allocator@U?$pair@$$CBV?$basic_string@DU?$char_traits@D@std@@V?$allocator@D@2@@std@@V12@@std@@@2@@2@@std@@@2@$0A@@std@@@2@PAU342@0@Z 004314a0 f   stlini.obj
 0001:000304b0       __ehhandler$??0?$_Tree@V?$_Tmap_traits@V?$basic_string@DU?$char_traits@D@std@@V?$allocator@D@2@@std@@V?$map@V?$basic_string@DU?$char_traits@D@std@@V?$allocator@D@2@@std@@V12@UStlIniCompareStringNoCase@@V?$allocator@U?$pair@$$CBV?$basic_string@DU?$char_traits@D@std@@V?$allocator@D@2@@std@@V12@@std@@@2@@2@UStlIniCompareStringNoCase@@V?$allocator@U?$pair@$$CBV?$basic_string@DU?$char_traits@D@std@@V?$allocator@D@2@@std@@V?$map@V?$basic_string@DU?$char_traits@D@std@@V?$allocator@D@2@@std@@V12@UStlIniCompareStringNoCase@@V?$allocator@U?$pair@$$CBV?$basic_string@DU?$char_traits@D@std@@V?$allocator@D@2@@std@@V12@@std@@@2@@2@@std@@@2@$0A@@std@@@std@@QAE@ABV01@@Z 004314b0 f   stlini.obj
 0001:000304c0       $L29620                    004314c0 f   stlini.obj
 0001:000304cb       $L29621                    004314cb f   stlini.obj
 0001:000304d7       $L29622                    004314d7 f   stlini.obj
 0001:000304e3       $L29623                    004314e3 f   stlini.obj
 0001:00030502       __ehhandler$?LoadIni@@YA?AV?$map@V?$basic_string@DU?$char_traits@D@std@@V?$allocator@D@2@@std@@V?$map@V?$basic_string@DU?$char_traits@D@std@@V?$allocator@D@2@@std@@V12@UStlIniCompareStringNoCase@@V?$allocator@U?$pair@$$CBV?$basic_string@DU?$char_traits@D@std@@V?$allocator@D@2@@std@@V12@@std@@@2@@2@UStlIniCompareStringNoCase@@V?$allocator@U?$pair@$$CBV?$basic_string@DU?$char_traits@D@std@@V?$allocator@D@2@@std@@V?$map@V?$basic_string@DU?$char_traits@D@std@@V?$allocator@D@2@@std@@V12@UStlIniCompareStringNoCase@@V?$allocator@U?$pair@$$CBV?$basic_string@DU?$char_traits@D@std@@V?$allocator@D@2@@std@@V12@@std@@@2@@2@@std@@@2@@std@@PBD@Z 00431502 f   stlini.obj
 0001:00030510       $L20518                    00431510 f   StringMap.obj
 0001:00030518       __ehhandler$??1?$hashnode@Vword@chen@@V12@@chen@@QAE@XZ 00431518 f   StringMap.obj
 0001:00030530       $L21835                    00431530 f   StringMap.obj
 0001:00030530       $L22179                    00431530 f   StringMap.obj
 0001:00030530       $L21929                    00431530 f   StringMap.obj
 0001:00030538       __ehhandler$??0StringMap@@QAE@XZ 00431538 f   StringMap.obj
 0001:00030538       __ehhandler$??0?$hashtable@Vword@chen@@V12@@chen@@QAE@H@Z 00431538 f   StringMap.obj
 0001:00030538       __ehhandler$??1?$hashtable@Vword@chen@@V12@@chen@@QAE@XZ 00431538 f   StringMap.obj
 0001:00030550       $L22322                    00431550 f   StringMap.obj
 0001:00030558       $L22323                    00431558 f   StringMap.obj
 0001:00030560       __ehhandler$?CreateObjectByRawData@StringMap@@UAEHPBDI@Z 00431560 f   StringMap.obj
 0001:00030570       $L67355                    00431570 f   svdb.obj
 0001:0003057b       __ehhandler$?Run@@YA_NXZ   0043157b f   svdb.obj
 0001:00030590       $L72032                    00431590 f   svdb.obj
 0001:00030590       $L81234                    00431590 f   svdb.obj
 0001:00030590       $L72192                    00431590 f   svdb.obj
 0001:00030590       $L81309                    00431590 f   svdb.obj
 0001:00030598       __ehhandler$?RomoveNode@?$sorttree@V?$hashelement@Vword@chen@@PAVCommonData@@@chen@@@chen@@QAEXABV?$hashelement@Vword@chen@@PAVCommonData@@@2@@Z 00431598 f   svdb.obj
 0001:00030598       __ehhandler$?erase@?$hashnode@Vword@chen@@PAVCommonData@@@chen@@QAE_NABVword@2@@Z 00431598 f   svdb.obj
 0001:00030598       __ehhandler$?RomoveNode@?$sorttree@V?$hashelement@Vword@chen@@PAVSection@@@chen@@@chen@@QAEXABV?$hashelement@Vword@chen@@PAVSection@@@2@@Z 00431598 f   svdb.obj
 0001:00030598       __ehhandler$?erase@?$hashnode@Vword@chen@@PAVSection@@@chen@@QAE_NABVword@2@@Z 00431598 f   svdb.obj
 0001:000305b0       $L67070                    004315b0 f   svdb.obj
 0001:000305b0       $L82637                    004315b0 f   svdb.obj
 0001:000305b0       $L67286                    004315b0 f   svdb.obj
 0001:000305b0       $L67093                    004315b0 f   svdb.obj
 0001:000305b0       $L82304                    004315b0 f   svdb.obj
 0001:000305b0       $L67113                    004315b0 f   svdb.obj
 0001:000305b0       $L82323                    004315b0 f   svdb.obj
 0001:000305b8       __ehhandler$?DeleteSectionInSectionOrder@GeneralPool@@IAE_NVword@chen@@@Z 004315b8 f   svdb.obj
 0001:000305b8       __ehhandler$?PutID@Group@@QAEXVword@chen@@@Z 004315b8 f   svdb.obj
 0001:000305b8       __ehhandler$?Find@EntityPool@@QAE_NVword@chen@@@Z 004315b8 f   svdb.obj
 0001:000305b8       __ehhandler$?PutLabel@SVSE@@QAEXVword@chen@@@Z 004315b8 f   svdb.obj
 0001:000305b8       __ehhandler$?PutID@Monitor@@QAEXVword@chen@@@Z 004315b8 f   svdb.obj
 0001:000305b8       __ehhandler$?GetEntity@EntityPool@@QAEPAVEntity@@Vword@chen@@@Z 004315b8 f   svdb.obj
 0001:000305b8       __ehhandler$?PutID@Entity@@QAEXVword@chen@@@Z 004315b8 f   svdb.obj
 0001:000305d0       $L88322                    004315d0 f   svdb.obj
 0001:000305d0       $L88526                    004315d0 f   svdb.obj
 0001:000305d8       $L88527                    004315d8 f   svdb.obj
 0001:000305d8       $L88323                    004315d8 f   svdb.obj
 0001:000305e0       __ehhandler$?ReplaceSectionInSectionOrder@GeneralPool@@IAE_NVword@chen@@0@Z 004315e0 f   svdb.obj
 0001:000305e0       __ehhandler$?ReplaceSectionInKeyOrder@Section@@IAE_NVword@chen@@0@Z 004315e0 f   svdb.obj
 0001:000305f0       $L91207                    004315f0 f   svdb.obj
 0001:000305f8       $L91209                    004315f8 f   svdb.obj
 0001:00030600       $L91210                    00431600 f   svdb.obj
 0001:0003060b       __ehhandler$??0MonitorTempletPool@@QAE@Vword@chen@@@Z 0043160b f   svdb.obj
 0001:00030620       $L103495                   00431620 f   svdb.obj
 0001:00030628       $L103496                   00431628 f   svdb.obj
 0001:00030630       $L103498                   00431630 f   svdb.obj
 0001:00030638       __ehhandler$?EditKeyName@Section@@QAE_NVword@chen@@0@Z 00431638 f   svdb.obj
 0001:00030650       $L103566                   00431650 f   svdb.obj
 0001:00030658       $L103567                   00431658 f   svdb.obj
 0001:00030660       $L103568                   00431660 f   svdb.obj
 0001:00030669       $L103571                   00431669 f   svdb.obj
 0001:00030671       __ehhandler$?EditSectionName@GeneralPool@@QAE_NVword@chen@@0@Z 00431671 f   svdb.obj
 0001:00030680       $L103648                   00431680 f   svdb.obj
 0001:00030688       $L103649                   00431688 f   svdb.obj
 0001:00030690       $L103650                   00431690 f   svdb.obj
 0001:00030698       $L103652                   00431698 f   svdb.obj
 0001:000306a0       $L103653                   004316a0 f   svdb.obj
 0001:000306a8       __ehhandler$?EditKeyName@GeneralPool@@QAE_NVword@chen@@00@Z 004316a8 f   svdb.obj
 0001:000306c0       $L62940                    004316c0 f   SvdbMain.obj
 0001:000306c9       $L62941                    004316c9 f   SvdbMain.obj
 0001:000306d5       $L62942                    004316d5 f   SvdbMain.obj
 0001:000306e1       $L62943                    004316e1 f   SvdbMain.obj
 0001:000306ed       $L62944                    004316ed f   SvdbMain.obj
 0001:000306f9       $L62945                    004316f9 f   SvdbMain.obj
 0001:00030708       $L62946                    00431708 f   SvdbMain.obj
 0001:00030717       $L62947                    00431717 f   SvdbMain.obj
 0001:00030726       __ehhandler$??0Option@@QAE@XZ 00431726 f   SvdbMain.obj
 0001:00030730       $L63174                    00431730 f   SvdbMain.obj
 0001:00030730       $L63332                    00431730 f   SvdbMain.obj
 0001:00030739       $L63336                    00431739 f   SvdbMain.obj
 0001:00030739       $L63178                    00431739 f   SvdbMain.obj
 0001:00030742       __ehhandler$?_Xlen@?$vector@PAVSVSE@@V?$allocator@PAVSVSE@@@std@@@std@@IBEXXZ 00431742 f   SvdbMain.obj
 0001:00030742       __ehhandler$?_Xlen@?$vector@PAV?$hashnode@Vword@chen@@PAVGeneralPool@@@chen@@V?$allocator@PAV?$hashnode@Vword@chen@@PAVGeneralPool@@@chen@@@std@@@std@@IBEXXZ 00431742 f   SvdbMain.obj
 0001:00030750       $L66041                    00431750 f   SvdbMain.obj
 0001:00030758       __ehhandler$??1?$hashnode@Vword@chen@@PAVGeneralPool@@@chen@@QAE@XZ 00431758 f   SvdbMain.obj
 0001:00030770       $L67074                    00431770 f   SvdbMain.obj
 0001:0003077b       __ehhandler$?InitSVSEPool@SVSEPool@@QAE_NXZ 0043177b f   SvdbMain.obj
 0001:00030790       $L69370                    00431790 f   SvdbMain.obj
 0001:00030790       $L68641                    00431790 f   SvdbMain.obj
 0001:00030798       __ehhandler$??1?$hashtable@Vword@chen@@PAVGeneralPool@@@chen@@QAE@XZ 00431798 f   SvdbMain.obj
 0001:00030798       __ehhandler$??0?$hashtable@Vword@chen@@PAVGeneralPool@@@chen@@QAE@XZ 00431798 f   SvdbMain.obj
 0001:000307b0       $L69633                    004317b0 f   SvdbMain.obj
 0001:000307b8       $L69635                    004317b8 f   SvdbMain.obj
 0001:000307c0       $L69636                    004317c0 f   SvdbMain.obj
 0001:000307cb       __ehhandler$??0SVSEPool@@QAE@Vword@chen@@@Z 004317cb f   SvdbMain.obj
 0001:000307e0       $L69801                    004317e0 f   SvdbMain.obj
 0001:000307e8       $L69803                    004317e8 f   SvdbMain.obj
 0001:000307f0       $L69804                    004317f0 f   SvdbMain.obj
 0001:000307fb       __ehhandler$??0ResourcePool@@QAE@Vword@chen@@@Z 004317fb f   SvdbMain.obj
 0001:00030810       $L69829                    00431810 f   SvdbMain.obj
 0001:0003081b       $L69830                    0043181b f   SvdbMain.obj
 0001:00030826       __ehhandler$??0SvdbMain@@QAE@XZ 00431826 f   SvdbMain.obj
 0001:00030830       $L69930                    00431830 f   SvdbMain.obj
 0001:0003083e       $L69931                    0043183e f   SvdbMain.obj
 0001:00030849       $L69932                    00431849 f   SvdbMain.obj
 0001:00030855       $L69933                    00431855 f   SvdbMain.obj
 0001:00030863       $L69935                    00431863 f   SvdbMain.obj
 0001:00030871       $L69937                    00431871 f   SvdbMain.obj
 0001:0003087f       $L69939                    0043187f f   SvdbMain.obj
 0001:0003088d       $L69941                    0043188d f   SvdbMain.obj
 0001:0003089b       $L69943                    0043189b f   SvdbMain.obj
 0001:000308a9       $L69945                    004318a9 f   SvdbMain.obj
 0001:000308b7       $L69947                    004318b7 f   SvdbMain.obj
 0001:000308c5       $L69949                    004318c5 f   SvdbMain.obj
 0001:000308d3       $L69951                    004318d3 f   SvdbMain.obj
 0001:000308e1       $L69954                    004318e1 f   SvdbMain.obj
 0001:000308ef       $L69957                    004318ef f   SvdbMain.obj
 0001:000308fd       $L69959                    004318fd f   SvdbMain.obj
 0001:0003090b       __ehhandler$?Init@SvdbMain@@QAE_NXZ 0043190b f   SvdbMain.obj
 0001:00030920       $L21217                    00431920 f   SVSE.obj
 0001:00030928       $L21218                    00431928 f   SVSE.obj
 0001:00030930       __ehhandler$?CreateObjectByRawData@SVSE@@UAEHPBDI@Z 00431930 f   SVSE.obj
 0001:00030940       $L21345                    00431940 f   SVSE.obj
 0001:0003094b       __ehhandler$??0SVSE@@QAE@XZ 0043194b f   SVSE.obj
 0001:00030960       $L43000                    00431960 f   SVSEPool.obj
 0001:0003096c       $L43001                    0043196c f   SVSEPool.obj
 0001:00030978       __ehhandler$?Load@SVSEPool@@UAE_NXZ 00431978 f   SVSEPool.obj
 0001:00030990       $L43032                    00431990 f   SVSEPool.obj
 0001:0003099c       $L43033                    0043199c f   SVSEPool.obj
 0001:000309a8       __ehhandler$?Submit@SVSEPool@@UAE_NXZ 004319a8 f   SVSEPool.obj
 0001:000309c0       $L46508                    004319c0 f   SVSEPool.obj
 0001:000309cb       __ehhandler$?CreateObjectByRawData@SVSEPool@@UAEHPBDI@Z 004319cb f   SVSEPool.obj
 0001:000309e0       $L65568                    004319e0 f   Table.obj
 0001:000309eb       $L65569                    004319eb f   Table.obj
 0001:000309f7       $L65570                    004319f7 f   Table.obj
 0001:00030a02       $L65571                    00431a02 f   Table.obj
 0001:00030a11       __ehhandler$??0Table@@QAE@XZ 00431a11 f   Table.obj
 0001:00030a20       $L65710                    00431a20 f   Table.obj
 0001:00030a2b       $L65711                    00431a2b f   Table.obj
 0001:00030a37       $L65712                    00431a37 f   Table.obj
 0001:00030a42       $L65713                    00431a42 f   Table.obj
 0001:00030a51       __ehhandler$??1Table@@QAE@XZ 00431a51 f   Table.obj
 0001:00030a60       __ehhandler$?SetNoDelay@MySocket@@QAE_N_N@Z 00431a60 f   ThreadContrl.obj
 0001:00030a70       $L61429                    00431a70 f   ThreadContrl.obj
 0001:00030a79       $L61449                    00431a79 f   ThreadContrl.obj
 0001:00030a82       __ehhandler$?_Incsize@?$list@PAVThreadEx@@V?$allocator@PAVThreadEx@@@std@@@std@@IAEXI@Z 00431a82 f   ThreadContrl.obj
 0001:00030a90       $L62039                    00431a90 f   ThreadContrl.obj
 0001:00030a90       $L61943                    00431a90 f   ThreadContrl.obj
 0001:00030a9b       __ehhandler$??0ThreadContrl@@QAE@XZ 00431a9b f   ThreadContrl.obj
 0001:00030a9b       __ehhandler$??1ThreadContrl@@QAE@XZ 00431a9b f   ThreadContrl.obj
 0001:00030ab0       $L62087                    00431ab0 f   ThreadContrl.obj
 0001:00030abb       __ehhandler$?CreateNewThreads@ThreadContrl@@IAEHH@Z 00431abb f   ThreadContrl.obj
 0001:00030ad0       $L62181                    00431ad0 f   ThreadContrl.obj
 0001:00030ad0       $L62275                    00431ad0 f   ThreadContrl.obj
 0001:00030ad9       __ehhandler$?AddToIdleThread@ThreadContrl@@QAEXPAVThreadEx@@@Z 00431ad9 f   ThreadContrl.obj
 0001:00030ad9       __ehhandler$?GetIdleThread@ThreadContrl@@IAEPAVThreadEx@@XZ 00431ad9 f   ThreadContrl.obj
 0001:00030af0       $L70898                    00431af0 f   util.obj
 0001:00030af0       $L71060                    00431af0 f   util.obj
 0001:00030af8       $L70899                    00431af8 f   util.obj
 0001:00030af8       $L71061                    00431af8 f   util.obj
 0001:00030b01       $L70900                    00431b01 f   util.obj
 0001:00030b01       $L71062                    00431b01 f   util.obj
 0001:00030b1a       $L70903                    00431b1a f   util.obj
 0001:00030b1a       $L71065                    00431b1a f   util.obj
 0001:00030b23       __ehhandler$?GetParentID@@YA?AVword@chen@@V12@@Z 00431b23 f   util.obj
 0001:00030b23       __ehhandler$?GetTopID@@YA?AVword@chen@@V12@@Z 00431b23 f   util.obj
 0001:00030b30       $L71038                    00431b30 f   util.obj
 0001:00030b38       $L71040                    00431b38 f   util.obj
 0001:00030b40       __ehhandler$?IsTopID@@YA_NVword@chen@@@Z 00431b40 f   util.obj
 0001:00030b50       $L71124                    00431b50 f   util.obj
 0001:00030b58       $L71125                    00431b58 f   util.obj
 0001:00030b64       $L71126                    00431b64 f   util.obj
 0001:00030b83       __ehhandler$?MakeIDByIndex@@YA?AVword@chen@@V12@H@Z 00431b83 f   util.obj
 0001:00030b90       $L71157                    00431b90 f   util.obj
 0001:00030b9c       $L71158                    00431b9c f   util.obj
 0001:00030bbc       __ehhandler$?GetRootPath@@YA?AV?$basic_string@DU?$char_traits@D@std@@V?$allocator@D@2@@std@@XZ 00431bbc f   util.obj
 0001:00030bd0       $L71336                    00431bd0 f   util.obj
 0001:00030bd9       __ehhandler$?ConvertType@@YAHV?$basic_string@DU?$char_traits@D@std@@V?$allocator@D@2@@std@@@Z 00431bd9 f   util.obj
 0001:00030bf0       $L71433                    00431bf0 f   util.obj
 0001:00030bf9       $L71434                    00431bf9 f   util.obj
 0001:00030c05       __ehhandler$?AddToErrorLog@@YAXV?$basic_string@DU?$char_traits@D@std@@V?$allocator@D@2@@std@@@Z 00431c05 f   util.obj
 0001:00030c10       $L59122                    00431c10 f   WatchThread.obj
 0001:00030c1b       __ehhandler$?Init@WatchThread@@QAE_NXZ 00431c1b f   WatchThread.obj
 0001:00030c30       $L59510                    00431c30 f   WatchThread.obj
 0001:00030c38       __ehhandler$??1WatchThread@@UAE@XZ 00431c38 f   WatchThread.obj
 0001:00030c50       __ehhandler$?WriteData@MySocket@@QAEIPBXIK@Z 00431c50 f   WorkThread.obj
 0001:00030c60       __ehhandler$?ReadData@MySocket@@QAEIPAXIDK@Z 00431c60 f   WorkThread.obj
 0001:00030c70       $L65140                    00431c70 f   WorkThread.obj
 0001:00030c78       $L65141                    00431c78 f   WorkThread.obj
 0001:00030c84       $L65142                    00431c84 f   WorkThread.obj
 0001:00030c8f       $L65143                    00431c8f f   WorkThread.obj
 0001:00030c9a       $L65144                    00431c9a f   WorkThread.obj
 0001:00030ca8       __ehhandler$??0WorkThread@@QAE@PAVThreadContrl@@@Z 00431ca8 f   WorkThread.obj
 0001:00030cc0       $L65154                    00431cc0 f   WorkThread.obj
 0001:00030cc8       $L65155                    00431cc8 f   WorkThread.obj
 0001:00030cd4       $L65156                    00431cd4 f   WorkThread.obj
 0001:00030cdf       $L65157                    00431cdf f   WorkThread.obj
 0001:00030cea       __ehhandler$??1WorkThread@@UAE@XZ 00431cea f   WorkThread.obj
 0001:00030d00       $L65270                    00431d00 f   WorkThread.obj
 0001:00030d09       $L65271                    00431d09 f   WorkThread.obj
 0001:00030d11       $L65273                    00431d11 f   WorkThread.obj
 0001:00030d19       $L65274                    00431d19 f   WorkThread.obj
 0001:00030d21       $L65275                    00431d21 f   WorkThread.obj
 0001:00030d2a       __ehhandler$?NotiyDBRecord@WorkThread@@AAE_NV?$basic_string@DU?$char_traits@D@std@@V?$allocator@D@2@@std@@AAVbuffer@chen@@I@Z 00431d2a f   WorkThread.obj
 0001:00030d40       $L65322                    00431d40 f   WorkThread.obj
 0001:00030d49       $L65323                    00431d49 f   WorkThread.obj
 0001:00030d52       $L65324                    00431d52 f   WorkThread.obj
 0001:00030d5b       $L65325                    00431d5b f   WorkThread.obj
 0001:00030d66       $L65327                    00431d66 f   WorkThread.obj
 0001:00030d71       $L65328                    00431d71 f   WorkThread.obj
 0001:00030d7c       $L65329                    00431d7c f   WorkThread.obj
 0001:00030d88       __ehhandler$?NotifyChange@WorkThread@@AAE_NV?$basic_string@DU?$char_traits@D@std@@V?$allocator@D@2@@std@@00@Z 00431d88 f   WorkThread.obj
 0001:00030da0       $L65443                    00431da0 f   WorkThread.obj
 0001:00030da9       $L65444                    00431da9 f   WorkThread.obj
 0001:00030db2       $L65445                    00431db2 f   WorkThread.obj
 0001:00030dbb       $L65446                    00431dbb f   WorkThread.obj
 0001:00030dc4       $L65447                    00431dc4 f   WorkThread.obj
 0001:00030dcf       $L65449                    00431dcf f   WorkThread.obj
 0001:00030dda       $L65450                    00431dda f   WorkThread.obj
 0001:00030de5       __ehhandler$?NotifyIniChangeToQueue@WorkThread@@AAE_NV?$basic_string@DU?$char_traits@D@std@@V?$allocator@D@2@@std@@000@Z 00431de5 f   WorkThread.obj
 0001:00030df0       $L66442                    00431df0 f   WorkThread.obj
 0001:00030df0       $L66030                    00431df0 f   WorkThread.obj
 0001:00030df8       __ehhandler$??0?$hashelement@Vword@chen@@PAVGeneralPool@@@chen@@QAE@ABVword@1@@Z 00431df8 f   WorkThread.obj
 0001:00030df8       __ehhandler$??0?$hashelement@Vword@chen@@PAVGeneralPool@@@chen@@QAE@ABVword@1@ABQAVGeneralPool@@@Z 00431df8 f   WorkThread.obj
 0001:00030e10       $L67205                    00431e10 f   WorkThread.obj
 0001:00030e10       $L67242                    00431e10 f   WorkThread.obj
 0001:00030e18       __ehhandler$??O?$treenode@V?$hashelement@Vword@chen@@PAVGeneralPool@@@chen@@@chen@@QAE_NV01@@Z 00431e18 f   WorkThread.obj
 0001:00030e18       __ehhandler$??M?$treenode@V?$hashelement@Vword@chen@@PAVGeneralPool@@@chen@@@chen@@QAE_NV01@@Z 00431e18 f   WorkThread.obj
 0001:00030e30       $L67278                    00431e30 f   WorkThread.obj
 0001:00030e30       $L67806                    00431e30 f   WorkThread.obj
 0001:00030e3b       __ehhandler$??0?$treenode@V?$hashelement@Vword@chen@@PAVGeneralPool@@@chen@@@chen@@QAE@ABV?$hashelement@Vword@chen@@PAVGeneralPool@@@1@@Z 00431e3b f   WorkThread.obj
 0001:00030e3b       __ehhandler$??0?$treenode@V?$hashelement@Vword@chen@@PAVGeneralPool@@@chen@@@chen@@QAE@ABV01@@Z 00431e3b f   WorkThread.obj
 0001:00030e50       $L87671                    00431e50 f   WorkThread.obj
 0001:00030e50       $L71714                    00431e50 f   WorkThread.obj
 0001:00030e5b       __ehhandler$??$CreateNode@V?$hashelement@Vword@chen@@PAVGeneralPool@@@chen@@@?$sorttree@V?$hashelement@Vword@chen@@PAVGeneralPool@@@chen@@@chen@@SAPAV?$treenode@V?$hashelement@Vword@chen@@PAVGeneralPool@@@chen@@@1@ABV?$hashelement@Vword@chen@@PAVGeneralPool@@@1@@Z 00431e5b f   WorkThread.obj
 0001:00030e5b       __ehhandler$?insert@?$hashtable@Vword@chen@@PAVGeneralPool@@@chen@@QAEAAPAVGeneralPool@@ABVword@2@ABQAV3@@Z 00431e5b f   WorkThread.obj
 0001:00030e70       $L75953                    00431e70 f   WorkThread.obj
 0001:00030e79       $L75954                    00431e79 f   WorkThread.obj
 0001:00030e92       __ehhandler$?GetNextSubID@SVSEPool@@QAE?AVword@chen@@I@Z 00431e92 f   WorkThread.obj
 0001:00030ea0       $L69216                    00431ea0 f   WorkThread.obj
 0001:00030ea0       $L75294                    00431ea0 f   WorkThread.obj
 0001:00030ea0       $L78368                    00431ea0 f   WorkThread.obj
 0001:00030ea0       $L68908                    00431ea0 f   WorkThread.obj
 0001:00030ea0       $L78494                    00431ea0 f   WorkThread.obj
 0001:00030ea0       $L78242                    00431ea0 f   WorkThread.obj
 0001:00030ea0       $L69062                    00431ea0 f   WorkThread.obj
 0001:00030ea0       $L73405                    00431ea0 f   WorkThread.obj
 0001:00030ea8       __ehhandler$?erase@?$hashnode@Vword@chen@@PAVEntityTemplet@@@chen@@QAE_NABVword@2@@Z 00431ea8 f   WorkThread.obj
 0001:00030ea8       __ehhandler$?RomoveNode@?$sorttree@V?$hashelement@Vword@chen@@PAVGeneralPool@@@chen@@@chen@@QAEXABV?$hashelement@Vword@chen@@PAVGeneralPool@@@2@@Z 00431ea8 f   WorkThread.obj
 0001:00030ea8       __ehhandler$?erase@?$hashnode@Vword@chen@@PAVEntityGroup@@@chen@@QAE_NABVword@2@@Z 00431ea8 f   WorkThread.obj
 0001:00030ea8       __ehhandler$?find@?$hashnode@Vword@chen@@PAVGeneralPool@@@chen@@QAE_NABVword@2@PAPAV?$hashelement@Vword@chen@@PAVGeneralPool@@@2@@Z 00431ea8 f   WorkThread.obj
 0001:00030ea8       __ehhandler$?RomoveNode@?$sorttree@V?$hashelement@Vword@chen@@PAVEntityGroup@@@chen@@@chen@@QAEXABV?$hashelement@Vword@chen@@PAVEntityGroup@@@2@@Z 00431ea8 f   WorkThread.obj
 0001:00030ea8       __ehhandler$?RomoveNode@?$sorttree@V?$hashelement@Vword@chen@@PAVEntityTemplet@@@chen@@@chen@@QAEXABV?$hashelement@Vword@chen@@PAVEntityTemplet@@@2@@Z 00431ea8 f   WorkThread.obj
 0001:00030ea8       __ehhandler$?insert@?$hashnode@Vword@chen@@PAVGeneralPool@@@chen@@QAEAAV?$hashelement@Vword@chen@@PAVGeneralPool@@@2@ABVword@2@ABQAVGeneralPool@@@Z 00431ea8 f   WorkThread.obj
 0001:00030ea8       __ehhandler$?erase@?$hashnode@Vword@chen@@PAVGeneralPool@@@chen@@QAE_NABVword@2@@Z 00431ea8 f   WorkThread.obj
 0001:00030ec0       $L79849                    00431ec0 f   WorkThread.obj
 0001:00030ec0       $L80093                    00431ec0 f   WorkThread.obj
 0001:00030ec8       $L80094                    00431ec8 f   WorkThread.obj
 0001:00030ec8       $L79850                    00431ec8 f   WorkThread.obj
 0001:00030ed1       __ehhandler$?PutSubGroup@SVSEPool@@QAE_NIVword@chen@@@Z 00431ed1 f   WorkThread.obj
 0001:00030ed1       __ehhandler$?PutSubEntity@SVSEPool@@QAE_NIVword@chen@@@Z 00431ed1 f   WorkThread.obj
 0001:00030ee0       $L80345                    00431ee0 f   WorkThread.obj
 0001:00030ee0       $L80554                    00431ee0 f   WorkThread.obj
 0001:00030ee8       $L80346                    00431ee8 f   WorkThread.obj
 0001:00030ee8       $L80555                    00431ee8 f   WorkThread.obj
 0001:00030ef1       $L80558                    00431ef1 f   WorkThread.obj
 0001:00030ef1       $L80349                    00431ef1 f   WorkThread.obj
 0001:00030ef9       $L80560                    00431ef9 f   WorkThread.obj
 0001:00030ef9       $L80351                    00431ef9 f   WorkThread.obj
 0001:00030f01       __ehhandler$?DeleteSubGroupID@SVSEPool@@QAE_NVword@chen@@@Z 00431f01 f   WorkThread.obj
 0001:00030f01       __ehhandler$?DeleteSubEntityID@SVSEPool@@QAE_NVword@chen@@@Z 00431f01 f   WorkThread.obj
 0001:00030f10       $L81327                    00431f10 f   WorkThread.obj
 0001:00030f10       $L82017                    00431f10 f   WorkThread.obj
 0001:00030f18       $L82018                    00431f18 f   WorkThread.obj
 0001:00030f18       $L81328                    00431f18 f   WorkThread.obj
 0001:00030f21       $L81330                    00431f21 f   WorkThread.obj
 0001:00030f21       $L82020                    00431f21 f   WorkThread.obj
 0001:00030f3a       __ehhandler$?GetNextSubID@EntityPool@@QAE?AVword@chen@@V23@@Z 00431f3a f   WorkThread.obj
 0001:00030f3a       __ehhandler$?GetNextSubID@GroupPool@@QAE?AVword@chen@@V23@@Z 00431f3a f   WorkThread.obj
 0001:00030f50       $L81368                    00431f50 f   WorkThread.obj
 0001:00030f50       $L82055                    00431f50 f   WorkThread.obj
 0001:00030f50       $L81486                    00431f50 f   WorkThread.obj
 0001:00030f50       $L86524                    00431f50 f   WorkThread.obj
 0001:00030f58       $L82056                    00431f58 f   WorkThread.obj
 0001:00030f58       $L81487                    00431f58 f   WorkThread.obj
 0001:00030f58       $L86525                    00431f58 f   WorkThread.obj
 0001:00030f58       $L81369                    00431f58 f   WorkThread.obj
 0001:00030f60       $L81488                    00431f60 f   WorkThread.obj
 0001:00030f60       $L82057                    00431f60 f   WorkThread.obj
 0001:00030f60       $L81370                    00431f60 f   WorkThread.obj
 0001:00030f60       $L86526                    00431f60 f   WorkThread.obj
 0001:00030f69       __ehhandler$?PutSubGroup@GroupPool@@QAE_NVword@chen@@0@Z 00431f69 f   WorkThread.obj
 0001:00030f69       __ehhandler$?DeleteKey@GeneralPool@@QAE_NVword@chen@@0@Z 00431f69 f   WorkThread.obj
 0001:00030f69       __ehhandler$?PutSubMonitor@EntityPool@@QAE_NVword@chen@@0@Z 00431f69 f   WorkThread.obj
 0001:00030f69       __ehhandler$?PutSubEntity@GroupPool@@QAE_NVword@chen@@0@Z 00431f69 f   WorkThread.obj
 0001:00030f80       $L82191                    00431f80 f   WorkThread.obj
 0001:00030f80       $L81681                    00431f80 f   WorkThread.obj
 0001:00030f80       $L81622                    00431f80 f   WorkThread.obj
 0001:00030f88       $L82192                    00431f88 f   WorkThread.obj
 0001:00030f88       $L81682                    00431f88 f   WorkThread.obj
 0001:00030f88       $L81623                    00431f88 f   WorkThread.obj
 0001:00030f91       $L81625                    00431f91 f   WorkThread.obj
 0001:00030f91       $L81684                    00431f91 f   WorkThread.obj
 0001:00030f91       $L82194                    00431f91 f   WorkThread.obj
 0001:00030f99       __ehhandler$?DeleteSubEntityID@GroupPool@@QAE_NVword@chen@@@Z 00431f99 f   WorkThread.obj
 0001:00030f99       __ehhandler$?DeleteSubGroupID@GroupPool@@QAE_NVword@chen@@@Z 00431f99 f   WorkThread.obj
 0001:00030f99       __ehhandler$?DeleteSubMonitorID@EntityPool@@QAE_NVword@chen@@@Z 00431f99 f   WorkThread.obj
 0001:00030fb0       $L81308                    00431fb0 f   WorkThread.obj
 0001:00030fb0       $L82803                    00431fb0 f   WorkThread.obj
 0001:00030fb0       $L82834                    00431fb0 f   WorkThread.obj
 0001:00030fb0       $L81741                    00431fb0 f   WorkThread.obj
 0001:00030fb0       $L81602                    00431fb0 f   WorkThread.obj
 0001:00030fb0       $L81051                    00431fb0 f   WorkThread.obj
 0001:00030fb0       $L79331                    00431fb0 f   WorkThread.obj
 0001:00030fb0       $L80790                    00431fb0 f   WorkThread.obj
 0001:00030fb0       $L86284                    00431fb0 f   WorkThread.obj
 0001:00030fb0       $L80757                    00431fb0 f   WorkThread.obj
 0001:00030fb0       $L89005                    00431fb0 f   WorkThread.obj
 0001:00030fb0       $L79592                    00431fb0 f   WorkThread.obj
 0001:00030fb8       __ehhandler$?Find@GroupPool@@QAE_NVword@chen@@@Z 00431fb8 f   WorkThread.obj
 0001:00030fb8       __ehhandler$?DeleteSubEntityID@SVSE@@QAE_NVword@chen@@@Z 00431fb8 f   WorkThread.obj
 0001:00030fb8       __ehhandler$?DeleteSubGroupID@SVSE@@QAE_NVword@chen@@@Z 00431fb8 f   WorkThread.obj
 0001:00030fb8       __ehhandler$?DeleteSubEntityID@Group@@QAE_NVword@chen@@@Z 00431fb8 f   WorkThread.obj
 0001:00030fb8       __ehhandler$?DeleteSubMonitorID@Entity@@QAE_NVword@chen@@@Z 00431fb8 f   WorkThread.obj
 0001:00030fb8       __ehhandler$?DeleteSubGroupID@Group@@QAE_NVword@chen@@@Z 00431fb8 f   WorkThread.obj
 0001:00030fb8       __ehhandler$?GetEntityGroup@EntityGroupPool@@QAE_NVword@chen@@PADAAI@Z 00431fb8 f   WorkThread.obj
 0001:00030fb8       __ehhandler$?GetGroup@GroupPool@@QAEPAVGroup@@Vword@chen@@@Z 00431fb8 f   WorkThread.obj
 0001:00030fb8       __ehhandler$?GetEntityTemplet@EntityTempletPool@@QAE_NVword@chen@@PADAAI@Z 00431fb8 f   WorkThread.obj
 0001:00030fb8       __ehhandler$?GetResourceData@ResourcePool@@QAE_NVword@chen@@PADAAI@Z 00431fb8 f   WorkThread.obj
 0001:00030fb8       __ehhandler$?GetSection@GeneralPool@@QAE_NVword@chen@@PADAAI@Z 00431fb8 f   WorkThread.obj
 0001:00030fb8       __ehhandler$?Delete@Section@@QAE_NVword@chen@@@Z 00431fb8 f   WorkThread.obj
 0001:00030fd0       $L86049                    00431fd0 f   WorkThread.obj
 0001:00030fd9       __ehhandler$?push@SVSEPool@@QAE_NPAVSVSE@@@Z 00431fd9 f   WorkThread.obj
 0001:00030ff0       $L86253                    00431ff0 f   WorkThread.obj
 0001:00030ff9       $L86254                    00431ff9 f   WorkThread.obj
 0001:00031004       __ehhandler$?PushData@SVSEPool@@QAE_NPBDI@Z 00432004 f   WorkThread.obj
 0001:00031010       $L86569                    00432010 f   WorkThread.obj
 0001:00031018       $L86570                    00432018 f   WorkThread.obj
 0001:00031021       __ehhandler$?DeleteSection@GeneralPool@@QAE_NVword@chen@@@Z 00432021 f   WorkThread.obj
 0001:00031030       $L86861                    00432030 f   WorkThread.obj
 0001:00031030       $L86813                    00432030 f   WorkThread.obj
 0001:00031038       $L86862                    00432038 f   WorkThread.obj
 0001:00031038       $L86814                    00432038 f   WorkThread.obj
 0001:00031041       __ehhandler$?DeleteEntityTemplet@EntityTempletPool@@QAE_NVword@chen@@@Z 00432041 f   WorkThread.obj
 0001:00031041       __ehhandler$?DeleteEntityGroup@EntityGroupPool@@QAE_NVword@chen@@@Z 00432041 f   WorkThread.obj
 0001:00031050       $L87892                    00432050 f   WorkThread.obj
 0001:00031050       $L90866                    00432050 f   WorkThread.obj
 0001:00031050       $L90827                    00432050 f   WorkThread.obj
 0001:00031058       __ehhandler$?ProcessMonitorTemplet@WorkThread@@IAEXXZ 00432058 f   WorkThread.obj
 0001:00031058       __ehhandler$?ProcessEntityTemplet@WorkThread@@IAEXXZ 00432058 f   WorkThread.obj
 0001:00031058       __ehhandler$?ProcessEntityGroup@WorkThread@@IAEXXZ 00432058 f   WorkThread.obj
 0001:00031070       $L87970                    00432070 f   WorkThread.obj
 0001:00031078       $L87971                    00432078 f   WorkThread.obj
 0001:00031080       $L87967                    00432080 f   WorkThread.obj
 0001:00031088       $L87968                    00432088 f   WorkThread.obj
 0001:00031090       $L87975                    00432090 f   WorkThread.obj
 0001:00031098       $L87962                    00432098 f   WorkThread.obj
 0001:000310a0       $L87964                    004320a0 f   WorkThread.obj
 0001:000310a8       __ehhandler$?ProcessDBQuery@WorkThread@@IAEXXZ 004320a8 f   WorkThread.obj
 0001:000310c0       $L88187                    004320c0 f   WorkThread.obj
 0001:000310c8       __ehhandler$?ProcessQueueQuery@WorkThread@@IAEXXZ 004320c8 f   WorkThread.obj
 0001:000310e0       $L88355                    004320e0 f   WorkThread.obj
 0001:000310e8       $L88358                    004320e8 f   WorkThread.obj
 0001:000310f0       $L88359                    004320f0 f   WorkThread.obj
 0001:000310f8       __ehhandler$?GetInfoBySE@MonitorPool@@QAE_NHVword@chen@@AAVStringMap@@@Z 004320f8 f   WorkThread.obj
 0001:00031110       $L88450                    00432110 f   WorkThread.obj
 0001:00031118       $L88451                    00432118 f   WorkThread.obj
 0001:00031123       $L88452                    00432123 f   WorkThread.obj
 0001:0003112b       __ehhandler$?GetInfo@SVSEPool@@QAE_NVword@chen@@AAVStringMap@@@Z 0043212b f   WorkThread.obj
 0001:00031140       $L88651                    00432140 f   WorkThread.obj
 0001:00031148       $L88652                    00432148 f   WorkThread.obj
 0001:00031150       __ehhandler$?GetInfo@ResourcePool@@QAE_NVword@chen@@AAVStringMap@@@Z 00432150 f   WorkThread.obj
 0001:00031160       $L89460                    00432160 f   WorkThread.obj
 0001:00031160       $L88705                    00432160 f   WorkThread.obj
 0001:00031160       $L89389                    00432160 f   WorkThread.obj
 0001:00031160       $L88776                    00432160 f   WorkThread.obj
 0001:00031160       $L88280                    00432160 f   WorkThread.obj
 0001:00031168       $L88281                    00432168 f   WorkThread.obj
 0001:00031168       $L88706                    00432168 f   WorkThread.obj
 0001:00031168       $L89390                    00432168 f   WorkThread.obj
 0001:00031168       $L88777                    00432168 f   WorkThread.obj
 0001:00031168       $L89461                    00432168 f   WorkThread.obj
 0001:00031170       $L88778                    00432170 f   WorkThread.obj
 0001:00031170       $L88282                    00432170 f   WorkThread.obj
 0001:00031170       $L89391                    00432170 f   WorkThread.obj
 0001:00031170       $L88707                    00432170 f   WorkThread.obj
 0001:00031170       $L89462                    00432170 f   WorkThread.obj
 0001:00031178       __ehhandler$?GetInfo@EntityTempletPool@@QAE_NVword@chen@@AAVStringMap@@@Z 00432178 f   WorkThread.obj
 0001:00031178       __ehhandler$?GetInfo@MonitorPool@@QAE_NVword@chen@@AAVStringMap@@@Z 00432178 f   WorkThread.obj
 0001:00031178       __ehhandler$?GetInfo@GroupPool@@QAE_NVword@chen@@AAVStringMap@@@Z 00432178 f   WorkThread.obj
 0001:00031178       __ehhandler$?GetInfo@EntityPool@@QAE_NVword@chen@@AAVStringMap@@@Z 00432178 f   WorkThread.obj
 0001:00031178       __ehhandler$?GetInfo@EntityGroupPool@@QAE_NVword@chen@@AAVStringMap@@@Z 00432178 f   WorkThread.obj
 0001:00031190       $L89063                    00432190 f   WorkThread.obj
 0001:00031199       $L89064                    00432199 f   WorkThread.obj
 0001:000311a1       $L89065                    004321a1 f   WorkThread.obj
 0001:000311a9       $L89066                    004321a9 f   WorkThread.obj
 0001:000311b1       $L89067                    004321b1 f   WorkThread.obj
 0001:000311b9       __ehhandler$?Push@GeneralPool@@QAE_NPAVSection@@@Z 004321b9 f   WorkThread.obj
 0001:000311d0       $L89350                    004321d0 f   WorkThread.obj
 0001:000311d9       $L89351                    004321d9 f   WorkThread.obj
 0001:000311e4       $L89352                    004321e4 f   WorkThread.obj
 0001:000311ec       __ehhandler$?Push@GeneralPool@@QAE_NPBDIAAV?$basic_string@DU?$char_traits@D@std@@V?$allocator@D@2@@std@@@Z 004321ec f   WorkThread.obj
 0001:00031200       $L89574                    00432200 f   WorkThread.obj
 0001:00031209       $L89575                    00432209 f   WorkThread.obj
 0001:00031212       $L89569                    00432212 f   WorkThread.obj
 0001:0003121b       $L89570                    0043221b f   WorkThread.obj
 0001:00031224       $L89577                    00432224 f   WorkThread.obj
 0001:0003122f       $L89578                    0043222f f   WorkThread.obj
 0001:00031237       $L89581                    00432237 f   WorkThread.obj
 0001:0003123f       $L89583                    0043223f f   WorkThread.obj
 0001:00031247       $L89585                    00432247 f   WorkThread.obj
 0001:00031250       $L89586                    00432250 f   WorkThread.obj
 0001:00031259       $L89590                    00432259 f   WorkThread.obj
 0001:00031261       $L89588                    00432261 f   WorkThread.obj
 0001:00031269       __ehhandler$?ProcessMonitor@WorkThread@@IAEXXZ 00432269 f   WorkThread.obj
 0001:00031280       $L89879                    00432280 f   WorkThread.obj
 0001:00031280       $L89731                    00432280 f   WorkThread.obj
 0001:00031289       $L89880                    00432289 f   WorkThread.obj
 0001:00031289       $L89732                    00432289 f   WorkThread.obj
 0001:00031292       $L89897                    00432292 f   WorkThread.obj
 0001:00031292       $L89749                    00432292 f   WorkThread.obj
 0001:0003129a       $L89734                    0043229a f   WorkThread.obj
 0001:0003129a       $L89882                    0043229a f   WorkThread.obj
 0001:000312a5       $L89735                    004322a5 f   WorkThread.obj
 0001:000312a5       $L89883                    004322a5 f   WorkThread.obj
 0001:000312ad       $L89886                    004322ad f   WorkThread.obj
 0001:000312ad       $L89738                    004322ad f   WorkThread.obj
 0001:000312b5       $L89888                    004322b5 f   WorkThread.obj
 0001:000312b5       $L89740                    004322b5 f   WorkThread.obj
 0001:000312bd       $L89891                    004322bd f   WorkThread.obj
 0001:000312bd       $L89743                    004322bd f   WorkThread.obj
 0001:000312c5       $L89894                    004322c5 f   WorkThread.obj
 0001:000312c5       $L89746                    004322c5 f   WorkThread.obj
 0001:000312ce       $L89895                    004322ce f   WorkThread.obj
 0001:000312ce       $L89747                    004322ce f   WorkThread.obj
 0001:000312d7       __ehhandler$?ProcessGroup@WorkThread@@IAEXXZ 004322d7 f   WorkThread.obj
 0001:000312d7       __ehhandler$?ProcessEntity@WorkThread@@IAEXXZ 004322d7 f   WorkThread.obj
 0001:000312f0       $L89979                    004322f0 f   WorkThread.obj
 0001:000312f8       $L89980                    004322f8 f   WorkThread.obj
 0001:00031300       $L89984                    00432300 f   WorkThread.obj
 0001:00031308       __ehhandler$?ProcessResource@WorkThread@@IAEXXZ 00432308 f   WorkThread.obj
 0001:00031320       $L90042                    00432320 f   WorkThread.obj
 0001:00031328       $L90041                    00432328 f   WorkThread.obj
 0001:00031333       __ehhandler$?ProcessSVSE@WorkThread@@IAEXXZ 00432333 f   WorkThread.obj
 0001:00031340       $L90127                    00432340 f   WorkThread.obj
 0001:00031349       $L90128                    00432349 f   WorkThread.obj
 0001:00031352       $L90129                    00432352 f   WorkThread.obj
 0001:0003135b       $L90132                    0043235b f   WorkThread.obj
 0001:00031364       $L90133                    00432364 f   WorkThread.obj
 0001:0003136d       $L90135                    0043236d f   WorkThread.obj
 0001:00031375       $L90136                    00432375 f   WorkThread.obj
 0001:0003137e       $L90137                    0043237e f   WorkThread.obj
 0001:00031389       $L90138                    00432389 f   WorkThread.obj
 0001:00031391       $L90142                    00432391 f   WorkThread.obj
 0001:00031399       $L90144                    00432399 f   WorkThread.obj
 0001:000313a2       $L90145                    004323a2 f   WorkThread.obj
 0001:000313ab       __ehhandler$?ProcessTask@WorkThread@@IAEXXZ 004323ab f   WorkThread.obj
 0001:000313c0       $L90358                    004323c0 f   WorkThread.obj
 0001:000313cb       $L90359                    004323cb f   WorkThread.obj
 0001:000313d6       $L90363                    004323d6 f   WorkThread.obj
 0001:000313e1       $L90365                    004323e1 f   WorkThread.obj
 0001:000313ef       $L90368                    004323ef f   WorkThread.obj
 0001:000313fb       $L90369                    004323fb f   WorkThread.obj
 0001:00031409       $L90371                    00432409 f   WorkThread.obj
 0001:00031414       $L90372                    00432414 f   WorkThread.obj
 0001:00031422       $L90360                    00432422 f   WorkThread.obj
 0001:00031430       $L90362                    00432430 f   WorkThread.obj
 0001:0003143b       $L90392                    0043243b f   WorkThread.obj
 0001:00031447       $L90398                    00432447 f   WorkThread.obj
 0001:00031452       $L90396                    00432452 f   WorkThread.obj
 0001:0003145d       $L90393                    0043245d f   WorkThread.obj
 0001:00031468       $L90394                    00432468 f   WorkThread.obj
 0001:00031473       $L90400                    00432473 f   WorkThread.obj
 0001:0003147f       $L90401                    0043247f f   WorkThread.obj
 0001:0003148b       $L90402                    0043248b f   WorkThread.obj
 0001:00031497       $L90374                    00432497 f   WorkThread.obj
 0001:000314a3       $L90375                    004324a3 f   WorkThread.obj
 0001:000314ae       $L90376                    004324ae f   WorkThread.obj
 0001:000314b9       $L90378                    004324b9 f   WorkThread.obj
 0001:000314c4       $L90379                    004324c4 f   WorkThread.obj
 0001:000314cf       $L90381                    004324cf f   WorkThread.obj
 0001:000314da       $L90383                    004324da f   WorkThread.obj
 0001:000314e5       $L90385                    004324e5 f   WorkThread.obj
 0001:000314f0       $L90387                    004324f0 f   WorkThread.obj
 0001:000314fb       $L90388                    004324fb f   WorkThread.obj
 0001:00031506       $L90390                    00432506 f   WorkThread.obj
 0001:00031511       $L90404                    00432511 f   WorkThread.obj
 0001:0003151d       $L90406                    0043251d f   WorkThread.obj
 0001:00031528       $L90408                    00432528 f   WorkThread.obj
 0001:00031534       $L90409                    00432534 f   WorkThread.obj
 0001:00031540       $L90410                    00432540 f   WorkThread.obj
 0001:0003154c       $L90412                    0043254c f   WorkThread.obj
 0001:00031558       $L90415                    00432558 f   WorkThread.obj
 0001:00031563       $L90416                    00432563 f   WorkThread.obj
 0001:0003156e       $L90413                    0043256e f   WorkThread.obj
 0001:00031579       $L90418                    00432579 f   WorkThread.obj
 0001:00031585       $L90419                    00432585 f   WorkThread.obj
 0001:00031591       $L90420                    00432591 f   WorkThread.obj
 0001:0003159d       __ehhandler$?ProcessIniFile@WorkThread@@IAEXXZ 0043259d f   WorkThread.obj
 0001:000315b0       _$E1                       004325b0 f   svdb.obj
 0001:000315d0       _$E2                       004325d0 f   svdb.obj
