; Listing generated by Microsoft (R) Optimizing Compiler Version 13.10.3077 

	TITLE	\SiteView\Ecc_Common\Base\funcGeneral.cpp
	.386P
include listing.inc
if @Version gt 510
.model FLAT
else
_TEXT	SEGMENT PARA USE32 PUBLIC 'CODE'
_TEXT	ENDS
_DATA	SEGMENT DWORD USE32 PUBLIC 'DATA'
_DATA	ENDS
CONST	SEGMENT DWORD USE32 PUBLIC 'CONST'
CONST	ENDS
_BSS	SEGMENT DWORD USE32 PUBLIC 'BSS'
_BSS	ENDS
$$SYMBOLS	SEGMENT BYTE USE32 'DEBSYM'
$$SYMBOLS	ENDS
_TLS	SEGMENT DWORD USE32 PUBLIC 'TLS'
_TLS	ENDS
;	COMDAT ??_C@_0BB@FOOCKEH@Magellan?5MSWHEEL?$AA@
CONST	SEGMENT DWORD USE32 PUBLIC 'CONST'
CONST	ENDS
;	COMDAT ??_C@_06PIBNFFGP@MouseZ?$AA@
CONST	SEGMENT DWORD USE32 PUBLIC 'CONST'
CONST	ENDS
;	COMDAT ??_C@_0BA@NAALPGKC@MSWHEEL_ROLLMSG?$AA@
CONST	SEGMENT DWORD USE32 PUBLIC 'CONST'
CONST	ENDS
;	COMDAT ??_C@_0BF@MKEAJGJE@MSH_WHEELSUPPORT_MSG?$AA@
CONST	SEGMENT DWORD USE32 PUBLIC 'CONST'
CONST	ENDS
;	COMDAT ??_C@_0BF@DMMDPNAL@MSH_SCROLL_LINES_MSG?$AA@
CONST	SEGMENT DWORD USE32 PUBLIC 'CONST'
CONST	ENDS
;	COMDAT ??_C@_0BB@KEKMKJPM@Invalid?5DateTime?$AA@
CONST	SEGMENT DWORD USE32 PUBLIC 'CONST'
CONST	ENDS
;	COMDAT ??_C@_0BF@GPPHKJFN@Invalid?5DateTimeSpan?$AA@
CONST	SEGMENT DWORD USE32 PUBLIC 'CONST'
CONST	ENDS
;	COMDAT ??_C@_05LLAMLEHD@?$CFI64d?$AA@
CONST	SEGMENT DWORD USE32 PUBLIC 'CONST'
CONST	ENDS
;	COMDAT ??_C@_05KCADNOJC@?$CF02ld?$AA@
CONST	SEGMENT DWORD USE32 PUBLIC 'CONST'
CONST	ENDS
;	COMDAT ??_C@_0FG@EOHGAEB@?3Sun?3Sunday?3Mon?3Monday?3Tue?3Tuesd@
CONST	SEGMENT DWORD USE32 PUBLIC 'CONST'
CONST	ENDS
;	COMDAT ??_C@_0IH@HPGJLCCK@?3Jan?3January?3Feb?3February?3Mar?3Ma@
CONST	SEGMENT DWORD USE32 PUBLIC 'CONST'
CONST	ENDS
;	COMDAT ??_C@_05LAPONLG@false?$AA@
CONST	SEGMENT DWORD USE32 PUBLIC 'CONST'
CONST	ENDS
;	COMDAT ??_C@_04LOAJBDKD@true?$AA@
CONST	SEGMENT DWORD USE32 PUBLIC 'CONST'
CONST	ENDS
;	COMDAT ??_C@_01GFHCPBMG@C?$AA@
CONST	SEGMENT DWORD USE32 PUBLIC 'CONST'
CONST	ENDS
;	COMDAT ??_C@_00CNPNBAHC@?$AA@
CONST	SEGMENT DWORD USE32 PUBLIC 'CONST'
CONST	ENDS
;	COMDAT ??_C@_05BMGBEOOC@?$CFs?2?$CFs?$AA@
CONST	SEGMENT DWORD USE32 PUBLIC 'CONST'
CONST	ENDS
;	COMDAT ??_C@_02DKCKIIND@?$CFs?$AA@
CONST	SEGMENT DWORD USE32 PUBLIC 'CONST'
CONST	ENDS
;	COMDAT ??_C@_0M@NLJHBKOA@HTTP_COOKIE?$AA@
CONST	SEGMENT DWORD USE32 PUBLIC 'CONST'
CONST	ENDS
;	COMDAT ??_C@_04IEFHJGLE@cid?$DN?$AA@
CONST	SEGMENT DWORD USE32 PUBLIC 'CONST'
CONST	ENDS
;	COMDAT ??_C@_01ICJEACDI@?$DL?$AA@
CONST	SEGMENT DWORD USE32 PUBLIC 'CONST'
CONST	ENDS
;	COMDAT ??_C@_0BO@JOODGAEE@SOFTWARE?2siteview?2siteviewecc?$AA@
CONST	SEGMENT DWORD USE32 PUBLIC 'CONST'
CONST	ENDS
;	COMDAT ??_C@_0M@KEDFDEMF@root_path_7?$AA@
CONST	SEGMENT DWORD USE32 PUBLIC 'CONST'
CONST	ENDS
;	COMDAT ??_C@_05ONEOBAM@?$CFs_?$CFs?$AA@
CONST	SEGMENT DWORD USE32 PUBLIC 'CONST'
CONST	ENDS
;	COMDAT ??_C@_09BMHOOPHN@oscmd?4ini?$AA@
CONST	SEGMENT DWORD USE32 PUBLIC 'CONST'
CONST	ENDS
;	COMDAT ??_C@_0BG@KFDBAEJB@?$CFs?2data?2TmpIniFile?2?$CFs?$AA@
CONST	SEGMENT DWORD USE32 PUBLIC 'CONST'
CONST	ENDS
;	COMDAT ??_C@_0M@ELOFBODM@?6info?5path?3?$AA@
CONST	SEGMENT DWORD USE32 PUBLIC 'CONST'
CONST	ENDS
;	COMDAT ??_C@_01EEMJAFIK@?6?$AA@
CONST	SEGMENT DWORD USE32 PUBLIC 'CONST'
CONST	ENDS
;	COMDAT ??_C@_02DPKJAMEF@?$CFd?$AA@
CONST	SEGMENT DWORD USE32 PUBLIC 'CONST'
CONST	ENDS
;	COMDAT ??_C@_0BC@MBOFKFHK@?$CFd?9?$CFd?9?$CFd?5?$CFd?3?$CFd?3?$CFd?$AA@
CONST	SEGMENT DWORD USE32 PUBLIC 'CONST'
CONST	ENDS
;	COMDAT ??_C@_01NEMOKFLO@?$DN?$AA@
CONST	SEGMENT DWORD USE32 PUBLIC 'CONST'
CONST	ENDS
;	COMDAT ??_C@_0BC@GIIBNEJI@?$CFs?2groups?2log?4ini?$AA@
CONST	SEGMENT DWORD USE32 PUBLIC 'CONST'
CONST	ENDS
;	COMDAT ??_C@_08EFEFJCIK@IsOpen?$CFd?$AA@
CONST	SEGMENT DWORD USE32 PUBLIC 'CONST'
CONST	ENDS
;	COMDAT ??_C@_06DKEIEPKC@IsOpen?$AA@
CONST	SEGMENT DWORD USE32 PUBLIC 'CONST'
CONST	ENDS
;	COMDAT ??_C@_05GCIPIGEI@Debug?$AA@
CONST	SEGMENT DWORD USE32 PUBLIC 'CONST'
CONST	ENDS
;	COMDAT ??_C@_0CE@FGJHIBPE@?$CFd?D?j?$CFd?T?B?$CFd?H?U?5LogType?$DN?$CFd?5?$CFd?3?$CFd?3?$CFd@
CONST	SEGMENT DWORD USE32 PUBLIC 'CONST'
CONST	ENDS
;	COMDAT ??_C@_0BA@DONDPCJE@?$CFs?2logs?2log?4txt?$AA@
CONST	SEGMENT DWORD USE32 PUBLIC 'CONST'
CONST	ENDS
;	COMDAT ??_C@_01JLIPDDHJ@?3?$AA@
CONST	SEGMENT DWORD USE32 PUBLIC 'CONST'
CONST	ENDS
;	COMDAT ??_C@_0BK@GNDEBDFN@?$CFs?2monitormanager?2logs?2?$CFs?$AA@
CONST	SEGMENT DWORD USE32 PUBLIC 'CONST'
CONST	ENDS
;	COMDAT ??_C@_02DPNLHKJD@a?$CL?$AA@
CONST	SEGMENT DWORD USE32 PUBLIC 'CONST'
CONST	ENDS
;	COMDAT ??_C@_02PCIJFNDE@?$AN?6?$AA@
CONST	SEGMENT DWORD USE32 PUBLIC 'CONST'
CONST	ENDS
;	COMDAT ??_C@_0BK@DHDFGIGF@?$CFs?2groups?2resource?4config?$AA@
CONST	SEGMENT DWORD USE32 PUBLIC 'CONST'
CONST	ENDS
;	COMDAT ??_C@_0M@DHIAIDA@CompanyName?$AA@
CONST	SEGMENT DWORD USE32 PUBLIC 'CONST'
CONST	ENDS
;	COMDAT ??_C@_08FLGELGHE@Resource?$AA@
CONST	SEGMENT DWORD USE32 PUBLIC 'CONST'
CONST	ENDS
;	COMDAT ??_C@_0L@HDFBFFKD@CompanyUrl?$AA@
CONST	SEGMENT DWORD USE32 PUBLIC 'CONST'
CONST	ENDS
;	COMDAT ??_C@_0BG@BFJACLLI@?$CFs?2fcgi?9bin?2mc?4config?$AA@
CONST	SEGMENT DWORD USE32 PUBLIC 'CONST'
CONST	ENDS
;	COMDAT ??_C@_04BPKCJLI@SEID?$AA@
CONST	SEGMENT DWORD USE32 PUBLIC 'CONST'
CONST	ENDS
;	COMDAT ??_C@_0BA@GGPFGLLN@MonitorSchedule?$AA@
CONST	SEGMENT DWORD USE32 PUBLIC 'CONST'
CONST	ENDS
;	COMDAT ??_C@_09IPAEKDAI@localhost?$AA@
CONST	SEGMENT DWORD USE32 PUBLIC 'CONST'
CONST	ENDS
;	COMDAT ??_C@_0L@HPMGBIOI@ServerHost?$AA@
CONST	SEGMENT DWORD USE32 PUBLIC 'CONST'
CONST	ENDS
;	COMDAT ??_C@_07DLHCIBDH@default?$AA@
CONST	SEGMENT DWORD USE32 PUBLIC 'CONST'
CONST	ENDS
;	COMDAT ??_C@_02EAOCLKAK@ld?$AA@
CONST	SEGMENT DWORD USE32 PUBLIC 'CONST'
CONST	ENDS
;	COMDAT ??_C@_02BDDLJJBK@lu?$AA@
CONST	SEGMENT DWORD USE32 PUBLIC 'CONST'
CONST	ENDS
;	COMDAT ??_C@_02HIKPPMOK@Ld?$AA@
CONST	SEGMENT DWORD USE32 PUBLIC 'CONST'
CONST	ENDS
;	COMDAT ??_C@_02CLHGNPPK@Lu?$AA@
CONST	SEGMENT DWORD USE32 PUBLIC 'CONST'
CONST	ENDS
;	COMDAT ??_C@_02BBAHNLBA@?$CFp?$AA@
CONST	SEGMENT DWORD USE32 PUBLIC 'CONST'
CONST	ENDS
;	COMDAT ??_C@_0BH@HHDGIIFB@0123456789abcdefABCDEF?$AA@
CONST	SEGMENT DWORD USE32 PUBLIC 'CONST'
CONST	ENDS
;	COMDAT ??_C@_01DDCIFGEA@E?$AA@
CONST	SEGMENT DWORD USE32 PUBLIC 'CONST'
CONST	ENDS
;	COMDAT ??_C@_01KGKMHCOC@e?$AA@
CONST	SEGMENT DWORD USE32 PUBLIC 'CONST'
CONST	ENDS
;	COMDAT ??_C@_08EPJLHIJG@bad?5cast?$AA@
CONST	SEGMENT DWORD USE32 PUBLIC 'CONST'
CONST	ENDS
xdata$x	SEGMENT DWORD USE32 PUBLIC 'CONST'
xdata$x	ENDS
text$yc	SEGMENT PARA USE32 PUBLIC 'CODE'
text$yc	ENDS
CRT$XCA	SEGMENT DWORD USE32 PUBLIC 'DATA'
CRT$XCA	ENDS
CRT$XCU	SEGMENT DWORD USE32 PUBLIC 'DATA'
CRT$XCU	ENDS
CRT$XCL	SEGMENT DWORD USE32 PUBLIC 'DATA'
CRT$XCL	ENDS
CRT$XCC	SEGMENT DWORD USE32 PUBLIC 'DATA'
CRT$XCC	ENDS
CRT$XCZ	SEGMENT DWORD USE32 PUBLIC 'DATA'
CRT$XCZ	ENDS
text$yd	SEGMENT PARA USE32 PUBLIC 'CODE'
text$yd	ENDS
;	COMDAT _IsEqualGUID
_TEXT	SEGMENT PARA USE32 PUBLIC 'CODE'
_TEXT	ENDS
;	COMDAT _==
_TEXT	SEGMENT PARA USE32 PUBLIC 'CODE'
_TEXT	ENDS
;	COMDAT ?GetNextWindow@@YAPAUHWND__@@PAU1@I@Z
_TEXT	SEGMENT PARA USE32 PUBLIC 'CODE'
_TEXT	ENDS
;	COMDAT ?DrawState@@YGHPAUHDC__@@PAUHBRUSH__@@P6GH0JIHH@ZJIHHHHI@Z
_TEXT	SEGMENT PARA USE32 PUBLIC 'CODE'
_TEXT	ENDS
;	COMDAT ?Allocate@CCRTAllocator@ATL@@SAPAXI@Z
_TEXT	SEGMENT PARA USE32 PUBLIC 'CODE'
_TEXT	ENDS
;	COMDAT ?Free@CCRTAllocator@ATL@@SAXPAX@Z
_TEXT	SEGMENT PARA USE32 PUBLIC 'CODE'
_TEXT	ENDS
;	COMDAT ?_AtlVerifyStackAvailable@_ATL_SAFE_ALLOCA_IMPL@ATL@@YA_NK@Z
_TEXT	SEGMENT PARA USE32 PUBLIC 'CODE'
_TEXT	ENDS
;	COMDAT ?InterlockedExchangePointer@@YGPAXPAPAXPAX@Z
_TEXT	SEGMENT PARA USE32 PUBLIC 'CODE'
_TEXT	ENDS
;	COMDAT ?_AtlGetThreadACPFake@ATL@@YGIXZ
_TEXT	SEGMENT PARA USE32 PUBLIC 'CODE'
_TEXT	ENDS
;	COMDAT ?_AtlGetThreadACPReal@ATL@@YGIXZ
_TEXT	SEGMENT PARA USE32 PUBLIC 'CODE'
_TEXT	ENDS
;	COMDAT ?_AtlGetThreadACPThunk@ATL@@YGIXZ
_TEXT	SEGMENT PARA USE32 PUBLIC 'CODE'
_TEXT	ENDS
;	COMDAT ?_AtlGetConversionACP@ATL@@YGIXZ
_TEXT	SEGMENT PARA USE32 PUBLIC 'CODE'
_TEXT	ENDS
;	COMDAT ?AtlA2WHelper@@YGPA_WPA_WPBDHI@Z
_TEXT	SEGMENT PARA USE32 PUBLIC 'CODE'
_TEXT	ENDS
;	COMDAT ?AtlW2AHelper@@YGPADPADPB_WHI@Z
_TEXT	SEGMENT PARA USE32 PUBLIC 'CODE'
_TEXT	ENDS
;	COMDAT ?ocslen@@YAHPB_W@Z
_TEXT	SEGMENT PARA USE32 PUBLIC 'CODE'
_TEXT	ENDS
;	COMDAT ?ocscpy@@YAPA_WPA_WPB_W@Z
_TEXT	SEGMENT PARA USE32 PUBLIC 'CODE'
_TEXT	ENDS
;	COMDAT ?A2WBSTR@@YAPA_WPBDH@Z
_TEXT	SEGMENT PARA USE32 PUBLIC 'CODE'
_TEXT	ENDS
;	COMDAT ?AtlThrow@ATL@@YGXJ@Z
_TEXT	SEGMENT PARA USE32 PUBLIC 'CODE'
_TEXT	ENDS
;	COMDAT ?AtlThrowLastWin32@ATL@@YGXXZ
_TEXT	SEGMENT PARA USE32 PUBLIC 'CODE'
_TEXT	ENDS
;	COMDAT ??0CComCriticalSection@ATL@@QAE@XZ
_TEXT	SEGMENT PARA USE32 PUBLIC 'CODE'
_TEXT	ENDS
;	COMDAT ?Init@CComCriticalSection@ATL@@QAEJXZ
_TEXT	SEGMENT PARA USE32 PUBLIC 'CODE'
_TEXT	ENDS
;	COMDAT ?Term@CComCriticalSection@ATL@@QAEJXZ
_TEXT	SEGMENT PARA USE32 PUBLIC 'CODE'
_TEXT	ENDS
;	COMDAT ?_AtlGetStringResourceImage@ATL@@YAPBUATLSTRINGRESOURCEIMAGE@1@PAUHINSTANCE__@@PAUHRSRC__@@I@Z
_TEXT	SEGMENT PARA USE32 PUBLIC 'CODE'
_TEXT	ENDS
;	COMDAT ?AtlGetStringResourceImage@ATL@@YAPBUATLSTRINGRESOURCEIMAGE@1@PAUHINSTANCE__@@I@Z
_TEXT	SEGMENT PARA USE32 PUBLIC 'CODE'
_TEXT	ENDS
;	COMDAT ?AtlGetStringResourceImage@ATL@@YAPBUATLSTRINGRESOURCEIMAGE@1@PAUHINSTANCE__@@IG@Z
_TEXT	SEGMENT PARA USE32 PUBLIC 'CODE'
_TEXT	ENDS
;	COMDAT ?AtlFindResourceInstance@ATL@@YAPAUHINSTANCE__@@PBD0G@Z
_TEXT	SEGMENT PARA USE32 PUBLIC 'CODE'
_TEXT	ENDS
;	COMDAT ??1CWin32Heap@ATL@@UAE@XZ
_TEXT	SEGMENT PARA USE32 PUBLIC 'CODE'
_TEXT	ENDS
;	COMDAT ?Allocate@CWin32Heap@ATL@@UAEPAXI@Z
_TEXT	SEGMENT PARA USE32 PUBLIC 'CODE'
_TEXT	ENDS
;	COMDAT ?Free@CWin32Heap@ATL@@UAEXPAX@Z
_TEXT	SEGMENT PARA USE32 PUBLIC 'CODE'
_TEXT	ENDS
;	COMDAT ?Reallocate@CWin32Heap@ATL@@UAEPAXPAXI@Z
_TEXT	SEGMENT PARA USE32 PUBLIC 'CODE'
_TEXT	ENDS
;	COMDAT ?GetSize@CWin32Heap@ATL@@UAEIPAX@Z
_TEXT	SEGMENT PARA USE32 PUBLIC 'CODE'
_TEXT	ENDS
;	COMDAT ??_GCWin32Heap@ATL@@UAEPAXI@Z
_TEXT	SEGMENT PARA USE32 PUBLIC 'CODE'
_TEXT	ENDS
;	COMDAT ?data@CStringData@ATL@@QAEPAXXZ
_TEXT	SEGMENT PARA USE32 PUBLIC 'CODE'
_TEXT	ENDS
;	COMDAT ?AddRef@CStringData@ATL@@QAEXXZ
_TEXT	SEGMENT PARA USE32 PUBLIC 'CODE'
_TEXT	ENDS
;	COMDAT ?IsLocked@CStringData@ATL@@QBE_NXZ
_TEXT	SEGMENT PARA USE32 PUBLIC 'CODE'
_TEXT	ENDS
;	COMDAT ?IsShared@CStringData@ATL@@QBE_NXZ
_TEXT	SEGMENT PARA USE32 PUBLIC 'CODE'
_TEXT	ENDS
;	COMDAT ?Release@CStringData@ATL@@QAEXXZ
_TEXT	SEGMENT PARA USE32 PUBLIC 'CODE'
_TEXT	ENDS
;	COMDAT ?_AtlInstallStringThunk@ATL@@YAXPAPAXPAX1@Z
_TEXT	SEGMENT PARA USE32 PUBLIC 'CODE'
_TEXT	ENDS
;	COMDAT ?GetEnvironmentVariableWFake@ATL@@YGKPB_WPA_WK@Z
_TEXT	SEGMENT PARA USE32 PUBLIC 'CODE'
_TEXT	ENDS
;	COMDAT ?GetEnvironmentVariableWThunk@ATL@@YGKPB_WPA_WK@Z
_TEXT	SEGMENT PARA USE32 PUBLIC 'CODE'
_TEXT	ENDS
;	COMDAT ?CompareStringWFake@ATL@@YGHKKPB_WH0H@Z
_TEXT	SEGMENT PARA USE32 PUBLIC 'CODE'
_TEXT	ENDS
;	COMDAT ?CompareStringWThunk@ATL@@YGHKKPB_WH0H@Z
_TEXT	SEGMENT PARA USE32 PUBLIC 'CODE'
_TEXT	ENDS
;	COMDAT ?GetStringTypeExWFake@ATL@@YGHKKPB_WHPAG@Z
_TEXT	SEGMENT PARA USE32 PUBLIC 'CODE'
_TEXT	ENDS
;	COMDAT ?GetStringTypeExWThunk@ATL@@YGHKKPB_WHPAG@Z
_TEXT	SEGMENT PARA USE32 PUBLIC 'CODE'
_TEXT	ENDS
;	COMDAT ?lstrcmpiWFake@ATL@@YGHPB_W0@Z
_TEXT	SEGMENT PARA USE32 PUBLIC 'CODE'
_TEXT	ENDS
;	COMDAT ?lstrcmpiWThunk@ATL@@YGHPB_W0@Z
_TEXT	SEGMENT PARA USE32 PUBLIC 'CODE'
_TEXT	ENDS
;	COMDAT ?CharLowerWFake@ATL@@YGPA_WPA_W@Z
_TEXT	SEGMENT PARA USE32 PUBLIC 'CODE'
_TEXT	ENDS
;	COMDAT ?CharLowerWThunk@ATL@@YGPA_WPA_W@Z
_TEXT	SEGMENT PARA USE32 PUBLIC 'CODE'
_TEXT	ENDS
;	COMDAT ?CharUpperWFake@ATL@@YGPA_WPA_W@Z
_TEXT	SEGMENT PARA USE32 PUBLIC 'CODE'
_TEXT	ENDS
;	COMDAT ?CharUpperWThunk@ATL@@YGPA_WPA_W@Z
_TEXT	SEGMENT PARA USE32 PUBLIC 'CODE'
_TEXT	ENDS
;	COMDAT ?_GetEnvironmentVariableW@?$ChTraitsCRT@_W@ATL@@CGKPB_WPA_WK@Z
_TEXT	SEGMENT PARA USE32 PUBLIC 'CODE'
_TEXT	ENDS
;	COMDAT ?StringFindString@?$ChTraitsCRT@_W@ATL@@SAPB_WPB_W0@Z
_TEXT	SEGMENT PARA USE32 PUBLIC 'CODE'
_TEXT	ENDS
;	COMDAT ??1CFixedStringMgr@ATL@@UAE@XZ
_TEXT	SEGMENT PARA USE32 PUBLIC 'CODE'
_TEXT	ENDS
;	COMDAT ?Allocate@CFixedStringMgr@ATL@@UAEPAUCStringData@2@HH@Z
_TEXT	SEGMENT PARA USE32 PUBLIC 'CODE'
_TEXT	ENDS
;	COMDAT ?Free@CFixedStringMgr@ATL@@UAEXPAUCStringData@2@@Z
_TEXT	SEGMENT PARA USE32 PUBLIC 'CODE'
_TEXT	ENDS
;	COMDAT ?Reallocate@CFixedStringMgr@ATL@@UAEPAUCStringData@2@PAU32@HH@Z
_TEXT	SEGMENT PARA USE32 PUBLIC 'CODE'
_TEXT	ENDS
;	COMDAT ?GetNilString@CFixedStringMgr@ATL@@UAEPAUCStringData@2@XZ
_TEXT	SEGMENT PARA USE32 PUBLIC 'CODE'
_TEXT	ENDS
;	COMDAT ?Clone@CFixedStringMgr@ATL@@UAEPAUIAtlStringMgr@2@XZ
_TEXT	SEGMENT PARA USE32 PUBLIC 'CODE'
_TEXT	ENDS
;	COMDAT ??_GCFixedStringMgr@ATL@@UAEPAXI@Z
_TEXT	SEGMENT PARA USE32 PUBLIC 'CODE'
_TEXT	ENDS
;	COMDAT ??1CFixedStringLog@ATL@@UAE@XZ
_TEXT	SEGMENT PARA USE32 PUBLIC 'CODE'
_TEXT	ENDS
;	COMDAT ?OnAllocateSpill@CFixedStringLog@ATL@@UAEXHHPBUCStringData@2@@Z
_TEXT	SEGMENT PARA USE32 PUBLIC 'CODE'
_TEXT	ENDS
;	COMDAT ?OnReallocateSpill@CFixedStringLog@ATL@@UAEXHHPBUCStringData@2@@Z
_TEXT	SEGMENT PARA USE32 PUBLIC 'CODE'
_TEXT	ENDS
;	COMDAT ??_GCFixedStringLog@ATL@@UAEPAXI@Z
_TEXT	SEGMENT PARA USE32 PUBLIC 'CODE'
_TEXT	ENDS
;	COMDAT ??0IFixedStringLog@ATL@@QAE@XZ
_TEXT	SEGMENT PARA USE32 PUBLIC 'CODE'
_TEXT	ENDS
;	COMDAT ??0CTimeSpan@ATL@@QAE@_J@Z
_TEXT	SEGMENT PARA USE32 PUBLIC 'CODE'
_TEXT	ENDS
;	COMDAT ?GetDays@CTimeSpan@ATL@@QBE_JXZ
_TEXT	SEGMENT PARA USE32 PUBLIC 'CODE'
_TEXT	ENDS
;	COMDAT ?GetTotalHours@CTimeSpan@ATL@@QBE_JXZ
_TEXT	SEGMENT PARA USE32 PUBLIC 'CODE'
_TEXT	ENDS
;	COMDAT ?GetHours@CTimeSpan@ATL@@QBEJXZ
_TEXT	SEGMENT PARA USE32 PUBLIC 'CODE'
_TEXT	ENDS
;	COMDAT ?GetTotalMinutes@CTimeSpan@ATL@@QBE_JXZ
_TEXT	SEGMENT PARA USE32 PUBLIC 'CODE'
_TEXT	ENDS
;	COMDAT ?GetMinutes@CTimeSpan@ATL@@QBEJXZ
_TEXT	SEGMENT PARA USE32 PUBLIC 'CODE'
_TEXT	ENDS
;	COMDAT ?GetTotalSeconds@CTimeSpan@ATL@@QBE_JXZ
_TEXT	SEGMENT PARA USE32 PUBLIC 'CODE'
_TEXT	ENDS
;	COMDAT ?GetSeconds@CTimeSpan@ATL@@QBEJXZ
_TEXT	SEGMENT PARA USE32 PUBLIC 'CODE'
_TEXT	ENDS
;	COMDAT ?GetTimeSpan@CTimeSpan@ATL@@QBE_JXZ
_TEXT	SEGMENT PARA USE32 PUBLIC 'CODE'
_TEXT	ENDS
;	COMDAT ??0CTime@ATL@@QAE@_J@Z
_TEXT	SEGMENT PARA USE32 PUBLIC 'CODE'
_TEXT	ENDS
;	COMDAT ??0CTime@ATL@@QAE@HHHHHHH@Z
_TEXT	SEGMENT PARA USE32 PUBLIC 'CODE'
_TEXT	ENDS
;	COMDAT ??0CTime@ATL@@QAE@ABU_SYSTEMTIME@@H@Z
_TEXT	SEGMENT PARA USE32 PUBLIC 'CODE'
_TEXT	ENDS
;	COMDAT ?GetLocalTm@CTime@ATL@@QBEPAUtm@@PAU3@@Z
_TEXT	SEGMENT PARA USE32 PUBLIC 'CODE'
_TEXT	ENDS
;	COMDAT ?GetYear@CTime@ATL@@QBEHXZ
_TEXT	SEGMENT PARA USE32 PUBLIC 'CODE'
_TEXT	ENDS
;	COMDAT ?GetMonth@CTime@ATL@@QBEHXZ
_TEXT	SEGMENT PARA USE32 PUBLIC 'CODE'
_TEXT	ENDS
;	COMDAT ?GetDay@CTime@ATL@@QBEHXZ
_TEXT	SEGMENT PARA USE32 PUBLIC 'CODE'
_TEXT	ENDS
;	COMDAT ?GetHour@CTime@ATL@@QBEHXZ
_TEXT	SEGMENT PARA USE32 PUBLIC 'CODE'
_TEXT	ENDS
;	COMDAT ?GetMinute@CTime@ATL@@QBEHXZ
_TEXT	SEGMENT PARA USE32 PUBLIC 'CODE'
_TEXT	ENDS
;	COMDAT ?GetSecond@CTime@ATL@@QBEHXZ
_TEXT	SEGMENT PARA USE32 PUBLIC 'CODE'
_TEXT	ENDS
;	COMDAT ??0CFileTimeSpan@ATL@@QAE@_J@Z
_TEXT	SEGMENT PARA USE32 PUBLIC 'CODE'
_TEXT	ENDS
;	COMDAT ?GetTimeSpan@CFileTimeSpan@ATL@@QBE_JXZ
_TEXT	SEGMENT PARA USE32 PUBLIC 'CODE'
_TEXT	ENDS
;	COMDAT ??0CFileTime@ATL@@QAE@XZ
_TEXT	SEGMENT PARA USE32 PUBLIC 'CODE'
_TEXT	ENDS
;	COMDAT ??0CFileTime@ATL@@QAE@_K@Z
_TEXT	SEGMENT PARA USE32 PUBLIC 'CODE'
_TEXT	ENDS
;	COMDAT ?GetTime@CFileTime@ATL@@QBE_KXZ
_TEXT	SEGMENT PARA USE32 PUBLIC 'CODE'
_TEXT	ENDS
;	COMDAT ?SetTime@CFileTime@ATL@@QAEX_K@Z
_TEXT	SEGMENT PARA USE32 PUBLIC 'CODE'
_TEXT	ENDS
;	COMDAT ?Format@CTimeSpan@ATL@@QBE?AV?$CStringT@DV?$StrTraitMFC_DLL@DV?$ChTraitsCRT@D@ATL@@@@@2@PBD@Z
_TEXT	SEGMENT PARA USE32 PUBLIC 'CODE'
_TEXT	ENDS
;	COMDAT ?Format@CTime@ATL@@QBE?AV?$CStringT@DV?$StrTraitMFC_DLL@DV?$ChTraitsCRT@D@ATL@@@@@2@PBD@Z
_TEXT	SEGMENT PARA USE32 PUBLIC 'CODE'
_TEXT	ENDS
;	COMDAT ?FormatGmt@CTime@ATL@@QBE?AV?$CStringT@DV?$StrTraitMFC_DLL@DV?$ChTraitsCRT@D@ATL@@@@@2@PBD@Z
_TEXT	SEGMENT PARA USE32 PUBLIC 'CODE'
_TEXT	ENDS
;	COMDAT ??0CPair@CMapStringToString@@IAE@PBD@Z
_TEXT	SEGMENT PARA USE32 PUBLIC 'CODE'
_TEXT	ENDS
;	COMDAT ??1CPair@CMapStringToString@@QAE@XZ
_TEXT	SEGMENT PARA USE32 PUBLIC 'CODE'
_TEXT	ENDS
;	COMDAT ??0CSize@@QAE@HH@Z
_TEXT	SEGMENT PARA USE32 PUBLIC 'CODE'
_TEXT	ENDS
;	COMDAT ??0CSize@@QAE@UtagSIZE@@@Z
_TEXT	SEGMENT PARA USE32 PUBLIC 'CODE'
_TEXT	ENDS
;	COMDAT ??0CSize@@QAE@K@Z
_TEXT	SEGMENT PARA USE32 PUBLIC 'CODE'
_TEXT	ENDS
;	COMDAT ??0CPoint@@QAE@XZ
_TEXT	SEGMENT PARA USE32 PUBLIC 'CODE'
_TEXT	ENDS
;	COMDAT ??0CPoint@@QAE@HH@Z
_TEXT	SEGMENT PARA USE32 PUBLIC 'CODE'
_TEXT	ENDS
;	COMDAT ??0CPoint@@QAE@UtagPOINT@@@Z
_TEXT	SEGMENT PARA USE32 PUBLIC 'CODE'
_TEXT	ENDS
;	COMDAT ??0CPoint@@QAE@J@Z
_TEXT	SEGMENT PARA USE32 PUBLIC 'CODE'
_TEXT	ENDS
;	COMDAT ??0CRect@@QAE@XZ
_TEXT	SEGMENT PARA USE32 PUBLIC 'CODE'
_TEXT	ENDS
;	COMDAT ??0CRect@@QAE@HHHH@Z
_TEXT	SEGMENT PARA USE32 PUBLIC 'CODE'
_TEXT	ENDS
;	COMDAT ??0CRect@@QAE@PBUtagRECT@@@Z
_TEXT	SEGMENT PARA USE32 PUBLIC 'CODE'
_TEXT	ENDS
;	COMDAT ?Width@CRect@@QBEHXZ
_TEXT	SEGMENT PARA USE32 PUBLIC 'CODE'
_TEXT	ENDS
;	COMDAT ?Height@CRect@@QBEHXZ
_TEXT	SEGMENT PARA USE32 PUBLIC 'CODE'
_TEXT	ENDS
;	COMDAT ?SwapLeftRight@CRect@@SGXPAUtagRECT@@@Z
_TEXT	SEGMENT PARA USE32 PUBLIC 'CODE'
_TEXT	ENDS
;	COMDAT ?MoveToY@CRect@@QAEXH@Z
_TEXT	SEGMENT PARA USE32 PUBLIC 'CODE'
_TEXT	ENDS
;	COMDAT ?MoveToX@CRect@@QAEXH@Z
_TEXT	SEGMENT PARA USE32 PUBLIC 'CODE'
_TEXT	ENDS
;	COMDAT ??HCRect@@QBE?AV0@UtagPOINT@@@Z
_TEXT	SEGMENT PARA USE32 PUBLIC 'CODE'
_TEXT	ENDS
;	COMDAT ??GCRect@@QBE?AV0@UtagPOINT@@@Z
_TEXT	SEGMENT PARA USE32 PUBLIC 'CODE'
_TEXT	ENDS
;	COMDAT ??HCRect@@QBE?AV0@UtagSIZE@@@Z
_TEXT	SEGMENT PARA USE32 PUBLIC 'CODE'
_TEXT	ENDS
;	COMDAT ??GCRect@@QBE?AV0@UtagSIZE@@@Z
_TEXT	SEGMENT PARA USE32 PUBLIC 'CODE'
_TEXT	ENDS
;	COMDAT ?InflateRect@CRect@@QAEXPBUtagRECT@@@Z
_TEXT	SEGMENT PARA USE32 PUBLIC 'CODE'
_TEXT	ENDS
;	COMDAT ?DeflateRect@CRect@@QAEXPBUtagRECT@@@Z
_TEXT	SEGMENT PARA USE32 PUBLIC 'CODE'
_TEXT	ENDS
;	COMDAT ?GetNextPtr@CSimpleList@@QBEPAPAXPAX@Z
_TEXT	SEGMENT PARA USE32 PUBLIC 'CODE'
_TEXT	ENDS
;	COMDAT ??1CNoTrackObject@@UAE@XZ
_TEXT	SEGMENT PARA USE32 PUBLIC 'CODE'
_TEXT	ENDS
;	COMDAT ?GetAt@CByteArray@@QBEEH@Z
_TEXT	SEGMENT PARA USE32 PUBLIC 'CODE'
_TEXT	ENDS
;	COMDAT ?ElementAt@CByteArray@@QAEAAEH@Z
_TEXT	SEGMENT PARA USE32 PUBLIC 'CODE'
_TEXT	ENDS
;	COMDAT ?GetAt@CWordArray@@QBEGH@Z
_TEXT	SEGMENT PARA USE32 PUBLIC 'CODE'
_TEXT	ENDS
;	COMDAT ?ElementAt@CWordArray@@QAEAAGH@Z
_TEXT	SEGMENT PARA USE32 PUBLIC 'CODE'
_TEXT	ENDS
;	COMDAT ?GetAt@CDWordArray@@QBEKH@Z
_TEXT	SEGMENT PARA USE32 PUBLIC 'CODE'
_TEXT	ENDS
;	COMDAT ?ElementAt@CDWordArray@@QAEAAKH@Z
_TEXT	SEGMENT PARA USE32 PUBLIC 'CODE'
_TEXT	ENDS
;	COMDAT ?GetAt@CUIntArray@@QBEIH@Z
_TEXT	SEGMENT PARA USE32 PUBLIC 'CODE'
_TEXT	ENDS
;	COMDAT ?ElementAt@CUIntArray@@QAEAAIH@Z
_TEXT	SEGMENT PARA USE32 PUBLIC 'CODE'
_TEXT	ENDS
;	COMDAT ?GetAt@CPtrArray@@QBEPAXH@Z
_TEXT	SEGMENT PARA USE32 PUBLIC 'CODE'
_TEXT	ENDS
;	COMDAT ?ElementAt@CPtrArray@@QAEAAPAXH@Z
_TEXT	SEGMENT PARA USE32 PUBLIC 'CODE'
_TEXT	ENDS
;	COMDAT ?GetAt@CObArray@@QBEPAVCObject@@H@Z
_TEXT	SEGMENT PARA USE32 PUBLIC 'CODE'
_TEXT	ENDS
;	COMDAT ?ElementAt@CObArray@@QAEAAPAVCObject@@H@Z
_TEXT	SEGMENT PARA USE32 PUBLIC 'CODE'
_TEXT	ENDS
;	COMDAT ?GetAt@CStringArray@@QBEABV?$CStringT@DV?$StrTraitMFC_DLL@DV?$ChTraitsCRT@D@ATL@@@@@ATL@@H@Z
_TEXT	SEGMENT PARA USE32 PUBLIC 'CODE'
_TEXT	ENDS
;	COMDAT ?ElementAt@CStringArray@@QAEAAV?$CStringT@DV?$StrTraitMFC_DLL@DV?$ChTraitsCRT@D@ATL@@@@@ATL@@H@Z
_TEXT	SEGMENT PARA USE32 PUBLIC 'CODE'
_TEXT	ENDS
;	COMDAT ?GetCount@CStringList@@QBEHXZ
_TEXT	SEGMENT PARA USE32 PUBLIC 'CODE'
_TEXT	ENDS
;	COMDAT ?GetHeadPosition@CStringList@@QBEPAU__POSITION@@XZ
_TEXT	SEGMENT PARA USE32 PUBLIC 'CODE'
_TEXT	ENDS
;	COMDAT ?GetNext@CStringList@@QAEAAV?$CStringT@DV?$StrTraitMFC_DLL@DV?$ChTraitsCRT@D@ATL@@@@@ATL@@AAPAU__POSITION@@@Z
_TEXT	SEGMENT PARA USE32 PUBLIC 'CODE'
_TEXT	ENDS
;	COMDAT ??0CObject@@IAE@XZ
_TEXT	SEGMENT PARA USE32 PUBLIC 'CODE'
_TEXT	ENDS
;	COMDAT ??1CObject@@UAE@XZ
_TEXT	SEGMENT PARA USE32 PUBLIC 'CODE'
_TEXT	ENDS
;	COMDAT ?Serialize@CObject@@UAEXAAVCArchive@@@Z
_TEXT	SEGMENT PARA USE32 PUBLIC 'CODE'
_TEXT	ENDS
;	COMDAT ??3CObject@@SGXPAX@Z
_TEXT	SEGMENT PARA USE32 PUBLIC 'CODE'
_TEXT	ENDS
;	COMDAT ?AssertValid@CObject@@UBEXXZ
_TEXT	SEGMENT PARA USE32 PUBLIC 'CODE'
_TEXT	ENDS
;	COMDAT ?Dump@CObject@@UBEXAAVCDumpContext@@@Z
_TEXT	SEGMENT PARA USE32 PUBLIC 'CODE'
_TEXT	ENDS
;	COMDAT ??1CException@@UAE@XZ
_TEXT	SEGMENT PARA USE32 PUBLIC 'CODE'
_TEXT	ENDS
;	COMDAT ??0CSimpleException@@QAE@XZ
_TEXT	SEGMENT PARA USE32 PUBLIC 'CODE'
_TEXT	ENDS
;	COMDAT ??0CSimpleException@@QAE@H@Z
_TEXT	SEGMENT PARA USE32 PUBLIC 'CODE'
_TEXT	ENDS
;	COMDAT ??1CSimpleException@@UAE@XZ
_TEXT	SEGMENT PARA USE32 PUBLIC 'CODE'
_TEXT	ENDS
;	COMDAT ??_GCMemoryException@@UAEPAXI@Z
_TEXT	SEGMENT PARA USE32 PUBLIC 'CODE'
_TEXT	ENDS
;	COMDAT ??1CMemoryException@@UAE@XZ
_TEXT	SEGMENT PARA USE32 PUBLIC 'CODE'
_TEXT	ENDS
;	COMDAT ??_GCNotSupportedException@@UAEPAXI@Z
_TEXT	SEGMENT PARA USE32 PUBLIC 'CODE'
_TEXT	ENDS
;	COMDAT ??1CNotSupportedException@@UAE@XZ
_TEXT	SEGMENT PARA USE32 PUBLIC 'CODE'
_TEXT	ENDS
;	COMDAT ??_GCInvalidArgException@@UAEPAXI@Z
_TEXT	SEGMENT PARA USE32 PUBLIC 'CODE'
_TEXT	ENDS
;	COMDAT ??1CInvalidArgException@@UAE@XZ
_TEXT	SEGMENT PARA USE32 PUBLIC 'CODE'
_TEXT	ENDS
;	COMDAT ??_GCArchiveException@@UAEPAXI@Z
_TEXT	SEGMENT PARA USE32 PUBLIC 'CODE'
_TEXT	ENDS
;	COMDAT ??1CArchiveException@@UAE@XZ
_TEXT	SEGMENT PARA USE32 PUBLIC 'CODE'
_TEXT	ENDS
;	COMDAT ??_GCFileException@@UAEPAXI@Z
_TEXT	SEGMENT PARA USE32 PUBLIC 'CODE'
_TEXT	ENDS
;	COMDAT ??1CFileException@@UAE@XZ
_TEXT	SEGMENT PARA USE32 PUBLIC 'CODE'
_TEXT	ENDS
;	COMDAT ?IsLoading@CArchive@@QBEHXZ
_TEXT	SEGMENT PARA USE32 PUBLIC 'CODE'
_TEXT	ENDS
;	COMDAT ?IsStoring@CArchive@@QBEHXZ
_TEXT	SEGMENT PARA USE32 PUBLIC 'CODE'
_TEXT	ENDS
;	COMDAT ??6CArchive@@QAEAAV0@E@Z
_TEXT	SEGMENT PARA USE32 PUBLIC 'CODE'
_TEXT	ENDS
;	COMDAT ??6CArchive@@QAEAAV0@G@Z
_TEXT	SEGMENT PARA USE32 PUBLIC 'CODE'
_TEXT	ENDS
;	COMDAT ??6CArchive@@QAEAAV0@J@Z
_TEXT	SEGMENT PARA USE32 PUBLIC 'CODE'
_TEXT	ENDS
;	COMDAT ??5CArchive@@QAEAAV0@AAE@Z
_TEXT	SEGMENT PARA USE32 PUBLIC 'CODE'
_TEXT	ENDS
;	COMDAT ??5CArchive@@QAEAAV0@AAG@Z
_TEXT	SEGMENT PARA USE32 PUBLIC 'CODE'
_TEXT	ENDS
;	COMDAT ??5CArchive@@QAEAAV0@AAJ@Z
_TEXT	SEGMENT PARA USE32 PUBLIC 'CODE'
_TEXT	ENDS
;	COMDAT ?AfxGetApp@@YGPAVCWinApp@@XZ
_TEXT	SEGMENT PARA USE32 PUBLIC 'CODE'
_TEXT	ENDS
;	COMDAT ??_GCResourceException@@UAEPAXI@Z
_TEXT	SEGMENT PARA USE32 PUBLIC 'CODE'
_TEXT	ENDS
;	COMDAT ??1CResourceException@@UAE@XZ
_TEXT	SEGMENT PARA USE32 PUBLIC 'CODE'
_TEXT	ENDS
;	COMDAT ??_GCUserException@@UAEPAXI@Z
_TEXT	SEGMENT PARA USE32 PUBLIC 'CODE'
_TEXT	ENDS
;	COMDAT ??1CUserException@@UAE@XZ
_TEXT	SEGMENT PARA USE32 PUBLIC 'CODE'
_TEXT	ENDS
;	COMDAT ??BCGdiObject@@QBEPAXXZ
_TEXT	SEGMENT PARA USE32 PUBLIC 'CODE'
_TEXT	ENDS
;	COMDAT ?GetSafeHandle@CGdiObject@@QBEPAXXZ
_TEXT	SEGMENT PARA USE32 PUBLIC 'CODE'
_TEXT	ENDS
;	COMDAT ??0CGdiObject@@QAE@XZ
_TEXT	SEGMENT PARA USE32 PUBLIC 'CODE'
_TEXT	ENDS
;	COMDAT ??_GCGdiObject@@UAEPAXI@Z
_TEXT	SEGMENT PARA USE32 PUBLIC 'CODE'
_TEXT	ENDS
;	COMDAT ??1CGdiObject@@UAE@XZ
_TEXT	SEGMENT PARA USE32 PUBLIC 'CODE'
_TEXT	ENDS
;	COMDAT ?FromHandle@CPen@@SGPAV1@PAUHPEN__@@@Z
_TEXT	SEGMENT PARA USE32 PUBLIC 'CODE'
_TEXT	ENDS
;	COMDAT ??_GCPen@@UAEPAXI@Z
_TEXT	SEGMENT PARA USE32 PUBLIC 'CODE'
_TEXT	ENDS
;	COMDAT ??1CPen@@UAE@XZ
_TEXT	SEGMENT PARA USE32 PUBLIC 'CODE'
_TEXT	ENDS
;	COMDAT ?FromHandle@CBrush@@SGPAV1@PAUHBRUSH__@@@Z
_TEXT	SEGMENT PARA USE32 PUBLIC 'CODE'
_TEXT	ENDS
;	COMDAT ??_GCBrush@@UAEPAXI@Z
_TEXT	SEGMENT PARA USE32 PUBLIC 'CODE'
_TEXT	ENDS
;	COMDAT ??1CBrush@@UAE@XZ
_TEXT	SEGMENT PARA USE32 PUBLIC 'CODE'
_TEXT	ENDS
;	COMDAT ?FromHandle@CFont@@SGPAV1@PAUHFONT__@@@Z
_TEXT	SEGMENT PARA USE32 PUBLIC 'CODE'
_TEXT	ENDS
;	COMDAT ??_GCFont@@UAEPAXI@Z
_TEXT	SEGMENT PARA USE32 PUBLIC 'CODE'
_TEXT	ENDS
;	COMDAT ??1CFont@@UAE@XZ
_TEXT	SEGMENT PARA USE32 PUBLIC 'CODE'
_TEXT	ENDS
;	COMDAT ?FromHandle@CBitmap@@SGPAV1@PAUHBITMAP__@@@Z
_TEXT	SEGMENT PARA USE32 PUBLIC 'CODE'
_TEXT	ENDS
;	COMDAT ??_GCBitmap@@UAEPAXI@Z
_TEXT	SEGMENT PARA USE32 PUBLIC 'CODE'
_TEXT	ENDS
;	COMDAT ??1CBitmap@@UAE@XZ
_TEXT	SEGMENT PARA USE32 PUBLIC 'CODE'
_TEXT	ENDS
;	COMDAT ?FromHandle@CPalette@@SGPAV1@PAUHPALETTE__@@@Z
_TEXT	SEGMENT PARA USE32 PUBLIC 'CODE'
_TEXT	ENDS
;	COMDAT ??_GCPalette@@UAEPAXI@Z
_TEXT	SEGMENT PARA USE32 PUBLIC 'CODE'
_TEXT	ENDS
;	COMDAT ??1CPalette@@UAE@XZ
_TEXT	SEGMENT PARA USE32 PUBLIC 'CODE'
_TEXT	ENDS
;	COMDAT ??_GCRgn@@UAEPAXI@Z
_TEXT	SEGMENT PARA USE32 PUBLIC 'CODE'
_TEXT	ENDS
;	COMDAT ??1CRgn@@UAE@XZ
_TEXT	SEGMENT PARA USE32 PUBLIC 'CODE'
_TEXT	ENDS
;	COMDAT ?GetSafeHdc@CDC@@QBEPAUHDC__@@XZ
_TEXT	SEGMENT PARA USE32 PUBLIC 'CODE'
_TEXT	ENDS
;	COMDAT ??_GCMenu@@UAEPAXI@Z
_TEXT	SEGMENT PARA USE32 PUBLIC 'CODE'
_TEXT	ENDS
;	COMDAT ??1CMenu@@UAE@XZ
_TEXT	SEGMENT PARA USE32 PUBLIC 'CODE'
_TEXT	ENDS
;	COMDAT ??BCMenu@@QBEPAUHMENU__@@XZ
_TEXT	SEGMENT PARA USE32 PUBLIC 'CODE'
_TEXT	ENDS
;	COMDAT ?GetSafeHmenu@CMenu@@QBEPAUHMENU__@@XZ
_TEXT	SEGMENT PARA USE32 PUBLIC 'CODE'
_TEXT	ENDS
;	COMDAT ??BCWnd@@QBEPAUHWND__@@XZ
_TEXT	SEGMENT PARA USE32 PUBLIC 'CODE'
_TEXT	ENDS
;	COMDAT ?GetSafeHwnd@CWnd@@QBEPAUHWND__@@XZ
_TEXT	SEGMENT PARA USE32 PUBLIC 'CODE'
_TEXT	ENDS
;	COMDAT ?GetParent@CWnd@@QBEPAV1@XZ
_TEXT	SEGMENT PARA USE32 PUBLIC 'CODE'
_TEXT	ENDS
;	COMDAT ?EnableActiveAccessibility@CWnd@@QAEXXZ
_TEXT	SEGMENT PARA USE32 PUBLIC 'CODE'
_TEXT	ENDS
;	COMDAT ?DoDataExchange@CWnd@@MAEXPAVCDataExchange@@@Z
_TEXT	SEGMENT PARA USE32 PUBLIC 'CODE'
_TEXT	ENDS
;	COMDAT ?BeginModalState@CWnd@@UAEXXZ
_TEXT	SEGMENT PARA USE32 PUBLIC 'CODE'
_TEXT	ENDS
;	COMDAT ?EndModalState@CWnd@@UAEXXZ
_TEXT	SEGMENT PARA USE32 PUBLIC 'CODE'
_TEXT	ENDS
;	COMDAT ??_GCStatic@@UAEPAXI@Z
_TEXT	SEGMENT PARA USE32 PUBLIC 'CODE'
_TEXT	ENDS
;	COMDAT ??_GCButton@@UAEPAXI@Z
_TEXT	SEGMENT PARA USE32 PUBLIC 'CODE'
_TEXT	ENDS
;	COMDAT ??0CListBox@@QAE@XZ
_TEXT	SEGMENT PARA USE32 PUBLIC 'CODE'
_TEXT	ENDS
;	COMDAT ??_GCListBox@@UAEPAXI@Z
_TEXT	SEGMENT PARA USE32 PUBLIC 'CODE'
_TEXT	ENDS
;	COMDAT ?SetItemData@CListBox@@QAEHHK@Z
_TEXT	SEGMENT PARA USE32 PUBLIC 'CODE'
_TEXT	ENDS
;	COMDAT ??_GCCheckListBox@@UAEPAXI@Z
_TEXT	SEGMENT PARA USE32 PUBLIC 'CODE'
_TEXT	ENDS
;	COMDAT ??1CCheckListBox@@UAE@XZ
_TEXT	SEGMENT PARA USE32 PUBLIC 'CODE'
_TEXT	ENDS
;	COMDAT ??_GCComboBox@@UAEPAXI@Z
_TEXT	SEGMENT PARA USE32 PUBLIC 'CODE'
_TEXT	ENDS
;	COMDAT ?GetItemData@CComboBox@@QBEKH@Z
_TEXT	SEGMENT PARA USE32 PUBLIC 'CODE'
_TEXT	ENDS
;	COMDAT ?SetItemData@CComboBox@@QAEHHK@Z
_TEXT	SEGMENT PARA USE32 PUBLIC 'CODE'
_TEXT	ENDS
;	COMDAT ??_GCEdit@@UAEPAXI@Z
_TEXT	SEGMENT PARA USE32 PUBLIC 'CODE'
_TEXT	ENDS
;	COMDAT ??_GCScrollBar@@UAEPAXI@Z
_TEXT	SEGMENT PARA USE32 PUBLIC 'CODE'
_TEXT	ENDS
;	COMDAT ?SetHelpMode@CWinApp@@QAEXW4AFX_HELP_TYPE@@@Z
_TEXT	SEGMENT PARA USE32 PUBLIC 'CODE'
_TEXT	ENDS
;	COMDAT ?IN6_IS_ADDR_UNSPECIFIED@@YAHPBUin6_addr@@@Z
_TEXT	SEGMENT PARA USE32 PUBLIC 'CODE'
_TEXT	ENDS
;	COMDAT ?IN6_IS_ADDR_LOOPBACK@@YAHPBUin6_addr@@@Z
_TEXT	SEGMENT PARA USE32 PUBLIC 'CODE'
_TEXT	ENDS
;	COMDAT ?IN6_IS_ADDR_MULTICAST@@YAHPBUin6_addr@@@Z
_TEXT	SEGMENT PARA USE32 PUBLIC 'CODE'
_TEXT	ENDS
;	COMDAT ?IN6_SET_ADDR_UNSPECIFIED@@YAXPAUin6_addr@@@Z
_TEXT	SEGMENT PARA USE32 PUBLIC 'CODE'
_TEXT	ENDS
;	COMDAT ?IN6_SET_ADDR_LOOPBACK@@YAXPAUin6_addr@@@Z
_TEXT	SEGMENT PARA USE32 PUBLIC 'CODE'
_TEXT	ENDS
;	COMDAT ??0CSocketAddr@ATL@@QAE@XZ
_TEXT	SEGMENT PARA USE32 PUBLIC 'CODE'
_TEXT	ENDS
;	COMDAT ??_GCSocketAddr@ATL@@UAEPAXI@Z
_TEXT	SEGMENT PARA USE32 PUBLIC 'CODE'
_TEXT	ENDS
;	COMDAT ??1CSocketAddr@ATL@@UAE@XZ
_TEXT	SEGMENT PARA USE32 PUBLIC 'CODE'
_TEXT	ENDS
;	COMDAT ?FindAddr@CSocketAddr@ATL@@QAEHPBD0HHHH@Z
_TEXT	SEGMENT PARA USE32 PUBLIC 'CODE'
_TEXT	ENDS
;	COMDAT ?FindAddr@CSocketAddr@ATL@@QAEHPBDHHHHH@Z
_TEXT	SEGMENT PARA USE32 PUBLIC 'CODE'
_TEXT	ENDS
;	COMDAT ?getaddrinfo@CSocketAddr@ATL@@QBEQAUaddrinfo@@H@Z
_TEXT	SEGMENT PARA USE32 PUBLIC 'CODE'
_TEXT	ENDS
;	COMDAT ?GetPeerName@CAsyncSocket@@QAEHPAUsockaddr@@PAH@Z
_TEXT	SEGMENT PARA USE32 PUBLIC 'CODE'
_TEXT	ENDS
;	COMDAT ?GetSockName@CAsyncSocket@@QAEHPAUsockaddr@@PAH@Z
_TEXT	SEGMENT PARA USE32 PUBLIC 'CODE'
_TEXT	ENDS
;	COMDAT ?GetSockOpt@CAsyncSocket@@QAEHHPAXPAHH@Z
_TEXT	SEGMENT PARA USE32 PUBLIC 'CODE'
_TEXT	ENDS
;	COMDAT ?Bind@CAsyncSocket@@QAEHPBUsockaddr@@H@Z
_TEXT	SEGMENT PARA USE32 PUBLIC 'CODE'
_TEXT	ENDS
;	COMDAT ?Connect@CAsyncSocket@@QAEHPBUsockaddr@@H@Z
_TEXT	SEGMENT PARA USE32 PUBLIC 'CODE'
_TEXT	ENDS
;	COMDAT ?ReceiveFrom@CAsyncSocket@@QAEHPAXHPAUsockaddr@@PAHH@Z
_TEXT	SEGMENT PARA USE32 PUBLIC 'CODE'
_TEXT	ENDS
;	COMDAT ?SendTo@CAsyncSocket@@QAEHPBXHPBUsockaddr@@HH@Z
_TEXT	SEGMENT PARA USE32 PUBLIC 'CODE'
_TEXT	ENDS
;	COMDAT ??1bad_exception@std@@UAE@XZ
_TEXT	SEGMENT PARA USE32 PUBLIC 'CODE'
_TEXT	ENDS
;	COMDAT ??_Gbad_exception@std@@UAEPAXI@Z
_TEXT	SEGMENT PARA USE32 PUBLIC 'CODE'
_TEXT	ENDS
;	COMDAT ??1bad_alloc@std@@UAE@XZ
_TEXT	SEGMENT PARA USE32 PUBLIC 'CODE'
_TEXT	ENDS
;	COMDAT ??_Gbad_alloc@std@@UAEPAXI@Z
_TEXT	SEGMENT PARA USE32 PUBLIC 'CODE'
_TEXT	ENDS
;	COMDAT _wmemchr
_TEXT	SEGMENT PARA USE32 PUBLIC 'CODE'
_TEXT	ENDS
;	COMDAT _wmemcmp
_TEXT	SEGMENT PARA USE32 PUBLIC 'CODE'
_TEXT	ENDS
;	COMDAT _wmemcpy
_TEXT	SEGMENT PARA USE32 PUBLIC 'CODE'
_TEXT	ENDS
;	COMDAT _wmemmove
_TEXT	SEGMENT PARA USE32 PUBLIC 'CODE'
_TEXT	ENDS
;	COMDAT _wmemset
_TEXT	SEGMENT PARA USE32 PUBLIC 'CODE'
_TEXT	ENDS
;	COMDAT __imp_?assign@?$char_traits@_W@std@@SAXAA_WAB_W@Z
_TEXT	SEGMENT PARA USE32 PUBLIC 'CODE'
_TEXT	ENDS
;	COMDAT __imp_?length@?$char_traits@_W@std@@SAIPB_W@Z
_TEXT	SEGMENT PARA USE32 PUBLIC 'CODE'
_TEXT	ENDS
;	COMDAT __imp_?copy@?$char_traits@_W@std@@SAPA_WPA_WPB_WI@Z
_TEXT	SEGMENT PARA USE32 PUBLIC 'CODE'
_TEXT	ENDS
;	COMDAT __imp_?move@?$char_traits@_W@std@@SAPA_WPA_WPB_WI@Z
_TEXT	SEGMENT PARA USE32 PUBLIC 'CODE'
_TEXT	ENDS
;	COMDAT __imp_?assign@?$char_traits@_W@std@@SAPA_WPA_WI_W@Z
_TEXT	SEGMENT PARA USE32 PUBLIC 'CODE'
_TEXT	ENDS
;	COMDAT __imp_?to_char_type@?$char_traits@_W@std@@SA_WABG@Z
_TEXT	SEGMENT PARA USE32 PUBLIC 'CODE'
_TEXT	ENDS
;	COMDAT __imp_?to_int_type@?$char_traits@_W@std@@SAGAB_W@Z
_TEXT	SEGMENT PARA USE32 PUBLIC 'CODE'
_TEXT	ENDS
;	COMDAT __imp_?eq_int_type@?$char_traits@_W@std@@SA_NABG0@Z
_TEXT	SEGMENT PARA USE32 PUBLIC 'CODE'
_TEXT	ENDS
;	COMDAT __imp_?eof@?$char_traits@_W@std@@SAGXZ
_TEXT	SEGMENT PARA USE32 PUBLIC 'CODE'
_TEXT	ENDS
;	COMDAT __imp_?assign@?$char_traits@D@std@@SAXAADABD@Z
_TEXT	SEGMENT PARA USE32 PUBLIC 'CODE'
_TEXT	ENDS
;	COMDAT __imp_?length@?$char_traits@D@std@@SAIPBD@Z
_TEXT	SEGMENT PARA USE32 PUBLIC 'CODE'
_TEXT	ENDS
;	COMDAT __imp_?copy@?$char_traits@D@std@@SAPADPADPBDI@Z
_TEXT	SEGMENT PARA USE32 PUBLIC 'CODE'
_TEXT	ENDS
;	COMDAT __imp_?move@?$char_traits@D@std@@SAPADPADPBDI@Z
_TEXT	SEGMENT PARA USE32 PUBLIC 'CODE'
_TEXT	ENDS
;	COMDAT __imp_?assign@?$char_traits@D@std@@SAPADPADID@Z
_TEXT	SEGMENT PARA USE32 PUBLIC 'CODE'
_TEXT	ENDS
;	COMDAT __imp_?to_char_type@?$char_traits@D@std@@SADABH@Z
_TEXT	SEGMENT PARA USE32 PUBLIC 'CODE'
_TEXT	ENDS
;	COMDAT __imp_?to_int_type@?$char_traits@D@std@@SAHABD@Z
_TEXT	SEGMENT PARA USE32 PUBLIC 'CODE'
_TEXT	ENDS
;	COMDAT __imp_?eq_int_type@?$char_traits@D@std@@SA_NABH0@Z
_TEXT	SEGMENT PARA USE32 PUBLIC 'CODE'
_TEXT	ENDS
;	COMDAT __imp_?eof@?$char_traits@D@std@@SAHXZ
_TEXT	SEGMENT PARA USE32 PUBLIC 'CODE'
_TEXT	ENDS
;	COMDAT ??0logic_error@std@@QAE@ABV?$basic_string@DU?$char_traits@D@std@@V?$allocator@D@2@@1@@Z
_TEXT	SEGMENT PARA USE32 PUBLIC 'CODE'
_TEXT	ENDS
;	COMDAT ??1logic_error@std@@UAE@XZ
_TEXT	SEGMENT PARA USE32 PUBLIC 'CODE'
_TEXT	ENDS
;	COMDAT ?what@logic_error@std@@UBEPBDXZ
_TEXT	SEGMENT PARA USE32 PUBLIC 'CODE'
_TEXT	ENDS
;	COMDAT ??_Glogic_error@std@@UAEPAXI@Z
_TEXT	SEGMENT PARA USE32 PUBLIC 'CODE'
_TEXT	ENDS
;	COMDAT ??1domain_error@std@@UAE@XZ
_TEXT	SEGMENT PARA USE32 PUBLIC 'CODE'
_TEXT	ENDS
;	COMDAT ??_Gdomain_error@std@@UAEPAXI@Z
_TEXT	SEGMENT PARA USE32 PUBLIC 'CODE'
_TEXT	ENDS
;	COMDAT ??1invalid_argument@std@@UAE@XZ
_TEXT	SEGMENT PARA USE32 PUBLIC 'CODE'
_TEXT	ENDS
;	COMDAT ??_Ginvalid_argument@std@@UAEPAXI@Z
_TEXT	SEGMENT PARA USE32 PUBLIC 'CODE'
_TEXT	ENDS
;	COMDAT ??1length_error@std@@UAE@XZ
_TEXT	SEGMENT PARA USE32 PUBLIC 'CODE'
_TEXT	ENDS
;	COMDAT ??_Glength_error@std@@UAEPAXI@Z
_TEXT	SEGMENT PARA USE32 PUBLIC 'CODE'
_TEXT	ENDS
;	COMDAT ??1out_of_range@std@@UAE@XZ
_TEXT	SEGMENT PARA USE32 PUBLIC 'CODE'
_TEXT	ENDS
;	COMDAT ??_Gout_of_range@std@@UAEPAXI@Z
_TEXT	SEGMENT PARA USE32 PUBLIC 'CODE'
_TEXT	ENDS
;	COMDAT ??0runtime_error@std@@QAE@ABV?$basic_string@DU?$char_traits@D@std@@V?$allocator@D@2@@1@@Z
_TEXT	SEGMENT PARA USE32 PUBLIC 'CODE'
_TEXT	ENDS
;	COMDAT ??1runtime_error@std@@UAE@XZ
_TEXT	SEGMENT PARA USE32 PUBLIC 'CODE'
_TEXT	ENDS
;	COMDAT ?what@runtime_error@std@@UBEPBDXZ
_TEXT	SEGMENT PARA USE32 PUBLIC 'CODE'
_TEXT	ENDS
;	COMDAT ??_Gruntime_error@std@@UAEPAXI@Z
_TEXT	SEGMENT PARA USE32 PUBLIC 'CODE'
_TEXT	ENDS
;	COMDAT ??1overflow_error@std@@UAE@XZ
_TEXT	SEGMENT PARA USE32 PUBLIC 'CODE'
_TEXT	ENDS
;	COMDAT ??_Goverflow_error@std@@UAEPAXI@Z
_TEXT	SEGMENT PARA USE32 PUBLIC 'CODE'
_TEXT	ENDS
;	COMDAT ??1underflow_error@std@@UAE@XZ
_TEXT	SEGMENT PARA USE32 PUBLIC 'CODE'
_TEXT	ENDS
;	COMDAT ??_Gunderflow_error@std@@UAEPAXI@Z
_TEXT	SEGMENT PARA USE32 PUBLIC 'CODE'
_TEXT	ENDS
;	COMDAT ??1range_error@std@@UAE@XZ
_TEXT	SEGMENT PARA USE32 PUBLIC 'CODE'
_TEXT	ENDS
;	COMDAT ??_Grange_error@std@@UAEPAXI@Z
_TEXT	SEGMENT PARA USE32 PUBLIC 'CODE'
_TEXT	ENDS
;	COMDAT __imp_??0_Timevec@std@@QAE@PAX@Z
_TEXT	SEGMENT PARA USE32 PUBLIC 'CODE'
_TEXT	ENDS
;	COMDAT __imp_??1_Timevec@std@@QAE@XZ
_TEXT	SEGMENT PARA USE32 PUBLIC 'CODE'
_TEXT	ENDS
;	COMDAT __imp_??4_Timevec@std@@QAEAAV01@ABV01@@Z
_TEXT	SEGMENT PARA USE32 PUBLIC 'CODE'
_TEXT	ENDS
;	COMDAT __imp_?_Getctype@_Locinfo@std@@QBE?AU_Ctypevec@@XZ
_TEXT	SEGMENT PARA USE32 PUBLIC 'CODE'
_TEXT	ENDS
;	COMDAT __imp_?_Getcvt@_Locinfo@std@@QBE?AU_Cvtvec@@XZ
_TEXT	SEGMENT PARA USE32 PUBLIC 'CODE'
_TEXT	ENDS
;	COMDAT __imp_?_Getlconv@_Locinfo@std@@QBEPBUlconv@@XZ
_TEXT	SEGMENT PARA USE32 PUBLIC 'CODE'
_TEXT	ENDS
;	COMDAT __imp_?_Getfalse@_Locinfo@std@@QBEPBDXZ
_TEXT	SEGMENT PARA USE32 PUBLIC 'CODE'
_TEXT	ENDS
;	COMDAT __imp_?_Gettrue@_Locinfo@std@@QBEPBDXZ
_TEXT	SEGMENT PARA USE32 PUBLIC 'CODE'
_TEXT	ENDS
;	COMDAT __imp_??Bid@locale@std@@QAEIXZ
_TEXT	SEGMENT PARA USE32 PUBLIC 'CODE'
_TEXT	ENDS
;	COMDAT __imp_?_Incref@facet@locale@std@@QAEXXZ
_TEXT	SEGMENT PARA USE32 PUBLIC 'CODE'
_TEXT	ENDS
;	COMDAT __imp_?_Decref@facet@locale@std@@QAEPAV123@XZ
_TEXT	SEGMENT PARA USE32 PUBLIC 'CODE'
_TEXT	ENDS
;	COMDAT __imp_??1facet@locale@std@@UAE@XZ
_TEXT	SEGMENT PARA USE32 PUBLIC 'CODE'
_TEXT	ENDS
;	COMDAT __imp_??0facet@locale@std@@IAE@I@Z
_TEXT	SEGMENT PARA USE32 PUBLIC 'CODE'
_TEXT	ENDS
;	COMDAT __imp_??0locale@std@@QAE@ABV01@@Z
_TEXT	SEGMENT PARA USE32 PUBLIC 'CODE'
_TEXT	ENDS
;	COMDAT __imp_??1locale@std@@QAE@XZ
_TEXT	SEGMENT PARA USE32 PUBLIC 'CODE'
_TEXT	ENDS
;	COMDAT ??$_Maklocbyte@_W@std@@YAD_WABU_Cvtvec@@@Z
_TEXT	SEGMENT PARA USE32 PUBLIC 'CODE'
_TEXT	ENDS
;	COMDAT ??$_Maklocchr@_W@std@@YA_WDPA_WABU_Cvtvec@@@Z
_TEXT	SEGMENT PARA USE32 PUBLIC 'CODE'
_TEXT	ENDS
;	COMDAT ??$_Maklocstr@_W@std@@YAPA_WPBDPA_WABU_Cvtvec@@@Z
_TEXT	SEGMENT PARA USE32 PUBLIC 'CODE'
_TEXT	ENDS
;	COMDAT __imp_??0codecvt_base@std@@QAE@I@Z
_TEXT	SEGMENT PARA USE32 PUBLIC 'CODE'
_TEXT	ENDS
;	COMDAT __imp_??1codecvt_base@std@@UAE@XZ
_TEXT	SEGMENT PARA USE32 PUBLIC 'CODE'
_TEXT	ENDS
;	COMDAT __imp_??0?$codecvt@_WDH@std@@QAE@I@Z
_TEXT	SEGMENT PARA USE32 PUBLIC 'CODE'
_TEXT	ENDS
;	COMDAT __imp_??1?$codecvt@_WDH@std@@MAE@XZ
_TEXT	SEGMENT PARA USE32 PUBLIC 'CODE'
_TEXT	ENDS
;	COMDAT __imp_?_Init@?$codecvt@_WDH@std@@IAEXABV_Locinfo@2@@Z
_TEXT	SEGMENT PARA USE32 PUBLIC 'CODE'
_TEXT	ENDS
;	COMDAT __imp_?do_in@?$codecvt@_WDH@std@@MBEHAAHPBD1AAPBDPA_W3AAPA_W@Z
_TEXT	SEGMENT PARA USE32 PUBLIC 'CODE'
_TEXT	ENDS
;	COMDAT __imp_?do_out@?$codecvt@_WDH@std@@MBEHAAHPB_W1AAPB_WPAD3AAPAD@Z
_TEXT	SEGMENT PARA USE32 PUBLIC 'CODE'
_TEXT	ENDS
;	COMDAT __imp_?do_unshift@?$codecvt@_WDH@std@@MBEHAAHPAD1AAPAD@Z
_TEXT	SEGMENT PARA USE32 PUBLIC 'CODE'
_TEXT	ENDS
;	COMDAT __imp_?do_length@?$codecvt@_WDH@std@@MBEHABHPBD1I@Z
_TEXT	SEGMENT PARA USE32 PUBLIC 'CODE'
_TEXT	ENDS
;	COMDAT __imp_?do_always_noconv@?$codecvt@_WDH@std@@MBE_NXZ
_TEXT	SEGMENT PARA USE32 PUBLIC 'CODE'
_TEXT	ENDS
;	COMDAT __imp_?do_max_length@?$codecvt@_WDH@std@@MBEHXZ
_TEXT	SEGMENT PARA USE32 PUBLIC 'CODE'
_TEXT	ENDS
;	COMDAT __imp_?do_encoding@?$codecvt@_WDH@std@@MBEHXZ
_TEXT	SEGMENT PARA USE32 PUBLIC 'CODE'
_TEXT	ENDS
;	COMDAT ??_G?$codecvt@_WDH@std@@MAEPAXI@Z
_TEXT	SEGMENT PARA USE32 PUBLIC 'CODE'
_TEXT	ENDS
;	COMDAT __imp_??0ctype_base@std@@QAE@I@Z
_TEXT	SEGMENT PARA USE32 PUBLIC 'CODE'
_TEXT	ENDS
;	COMDAT __imp_??1ctype_base@std@@UAE@XZ
_TEXT	SEGMENT PARA USE32 PUBLIC 'CODE'
_TEXT	ENDS
;	COMDAT __imp_?is@?$ctype@D@std@@QBE_NFD@Z
_TEXT	SEGMENT PARA USE32 PUBLIC 'CODE'
_TEXT	ENDS
;	COMDAT __imp_?widen@?$ctype@D@std@@QBEDD@Z
_TEXT	SEGMENT PARA USE32 PUBLIC 'CODE'
_TEXT	ENDS
;	COMDAT __imp_??0?$ctype@D@std@@QAE@PBF_NI@Z
_TEXT	SEGMENT PARA USE32 PUBLIC 'CODE'
_TEXT	ENDS
;	COMDAT __imp_?_Getcat@?$ctype@D@std@@SAIPAPBVfacet@locale@2@@Z
_TEXT	SEGMENT PARA USE32 PUBLIC 'CODE'
_TEXT	ENDS
;	COMDAT __imp_??1?$ctype@D@std@@MAE@XZ
_TEXT	SEGMENT PARA USE32 PUBLIC 'CODE'
_TEXT	ENDS
;	COMDAT __imp_?_Init@?$ctype@D@std@@IAEXABV_Locinfo@2@@Z
_TEXT	SEGMENT PARA USE32 PUBLIC 'CODE'
_TEXT	ENDS
;	COMDAT __imp_?_Tidy@?$ctype@D@std@@IAEXXZ
_TEXT	SEGMENT PARA USE32 PUBLIC 'CODE'
_TEXT	ENDS
;	COMDAT __imp_?do_tolower@?$ctype@D@std@@MBEDD@Z
_TEXT	SEGMENT PARA USE32 PUBLIC 'CODE'
_TEXT	ENDS
;	COMDAT __imp_?do_tolower@?$ctype@D@std@@MBEPBDPADPBD@Z
_TEXT	SEGMENT PARA USE32 PUBLIC 'CODE'
_TEXT	ENDS
;	COMDAT __imp_?do_toupper@?$ctype@D@std@@MBEDD@Z
_TEXT	SEGMENT PARA USE32 PUBLIC 'CODE'
_TEXT	ENDS
;	COMDAT __imp_?do_toupper@?$ctype@D@std@@MBEPBDPADPBD@Z
_TEXT	SEGMENT PARA USE32 PUBLIC 'CODE'
_TEXT	ENDS
;	COMDAT __imp_?do_widen@?$ctype@D@std@@MBEDD@Z
_TEXT	SEGMENT PARA USE32 PUBLIC 'CODE'
_TEXT	ENDS
;	COMDAT __imp_?do_widen@?$ctype@D@std@@MBEPBDPBD0PAD@Z
_TEXT	SEGMENT PARA USE32 PUBLIC 'CODE'
_TEXT	ENDS
;	COMDAT __imp_?do_narrow@?$ctype@D@std@@MBEDDD@Z
_TEXT	SEGMENT PARA USE32 PUBLIC 'CODE'
_TEXT	ENDS
;	COMDAT __imp_?do_narrow@?$ctype@D@std@@MBEPBDPBD0DPAD@Z
_TEXT	SEGMENT PARA USE32 PUBLIC 'CODE'
_TEXT	ENDS
;	COMDAT __imp_?table@?$ctype@D@std@@IBEPBFXZ
_TEXT	SEGMENT PARA USE32 PUBLIC 'CODE'
_TEXT	ENDS
;	COMDAT __imp_?is@?$ctype@_W@std@@QBE_NF_W@Z
_TEXT	SEGMENT PARA USE32 PUBLIC 'CODE'
_TEXT	ENDS
;	COMDAT __imp_?widen@?$ctype@_W@std@@QBE_WD@Z
_TEXT	SEGMENT PARA USE32 PUBLIC 'CODE'
_TEXT	ENDS
;	COMDAT __imp_??0?$ctype@_W@std@@QAE@I@Z
_TEXT	SEGMENT PARA USE32 PUBLIC 'CODE'
_TEXT	ENDS
;	COMDAT __imp_?_Getcat@?$ctype@_W@std@@SAIPAPBVfacet@locale@2@@Z
_TEXT	SEGMENT PARA USE32 PUBLIC 'CODE'
_TEXT	ENDS
;	COMDAT __imp_??1?$ctype@_W@std@@MAE@XZ
_TEXT	SEGMENT PARA USE32 PUBLIC 'CODE'
_TEXT	ENDS
;	COMDAT __imp_?_Init@?$ctype@_W@std@@IAEXABV_Locinfo@2@@Z
_TEXT	SEGMENT PARA USE32 PUBLIC 'CODE'
_TEXT	ENDS
;	COMDAT __imp_?do_is@?$ctype@_W@std@@MBE_NF_W@Z
_TEXT	SEGMENT PARA USE32 PUBLIC 'CODE'
_TEXT	ENDS
;	COMDAT __imp_?do_is@?$ctype@_W@std@@MBEPB_WPB_W0PAF@Z
_TEXT	SEGMENT PARA USE32 PUBLIC 'CODE'
_TEXT	ENDS
;	COMDAT __imp_?do_scan_is@?$ctype@_W@std@@MBEPB_WFPB_W0@Z
_TEXT	SEGMENT PARA USE32 PUBLIC 'CODE'
_TEXT	ENDS
;	COMDAT __imp_?do_scan_not@?$ctype@_W@std@@MBEPB_WFPB_W0@Z
_TEXT	SEGMENT PARA USE32 PUBLIC 'CODE'
_TEXT	ENDS
;	COMDAT __imp_?do_tolower@?$ctype@_W@std@@MBE_W_W@Z
_TEXT	SEGMENT PARA USE32 PUBLIC 'CODE'
_TEXT	ENDS
;	COMDAT __imp_?do_tolower@?$ctype@_W@std@@MBEPB_WPA_WPB_W@Z
_TEXT	SEGMENT PARA USE32 PUBLIC 'CODE'
_TEXT	ENDS
;	COMDAT __imp_?do_toupper@?$ctype@_W@std@@MBE_W_W@Z
_TEXT	SEGMENT PARA USE32 PUBLIC 'CODE'
_TEXT	ENDS
;	COMDAT __imp_?do_toupper@?$ctype@_W@std@@MBEPB_WPA_WPB_W@Z
_TEXT	SEGMENT PARA USE32 PUBLIC 'CODE'
_TEXT	ENDS
;	COMDAT __imp_?_Dowiden@?$ctype@_W@std@@IBE_WD@Z
_TEXT	SEGMENT PARA USE32 PUBLIC 'CODE'
_TEXT	ENDS
;	COMDAT __imp_?do_widen@?$ctype@_W@std@@MBE_WD@Z
_TEXT	SEGMENT PARA USE32 PUBLIC 'CODE'
_TEXT	ENDS
;	COMDAT __imp_?do_widen@?$ctype@_W@std@@MBEPBDPBD0PA_W@Z
_TEXT	SEGMENT PARA USE32 PUBLIC 'CODE'
_TEXT	ENDS
;	COMDAT __imp_?_Donarrow@?$ctype@_W@std@@IBED_WD@Z
_TEXT	SEGMENT PARA USE32 PUBLIC 'CODE'
_TEXT	ENDS
;	COMDAT __imp_?do_narrow@?$ctype@_W@std@@MBED_WD@Z
_TEXT	SEGMENT PARA USE32 PUBLIC 'CODE'
_TEXT	ENDS
;	COMDAT __imp_?do_narrow@?$ctype@_W@std@@MBEPB_WPB_W0DPAD@Z
_TEXT	SEGMENT PARA USE32 PUBLIC 'CODE'
_TEXT	ENDS
;	COMDAT ??_G?$ctype@D@std@@MAEPAXI@Z
_TEXT	SEGMENT PARA USE32 PUBLIC 'CODE'
_TEXT	ENDS
;	COMDAT ??_G?$ctype@_W@std@@MAEPAXI@Z
_TEXT	SEGMENT PARA USE32 PUBLIC 'CODE'
_TEXT	ENDS
;	COMDAT ??1failure@ios_base@std@@UAE@XZ
_TEXT	SEGMENT PARA USE32 PUBLIC 'CODE'
_TEXT	ENDS
;	COMDAT __imp_?clear@ios_base@std@@QAEXH@Z
_TEXT	SEGMENT PARA USE32 PUBLIC 'CODE'
_TEXT	ENDS
;	COMDAT __imp_?rdstate@ios_base@std@@QBEHXZ
_TEXT	SEGMENT PARA USE32 PUBLIC 'CODE'
_TEXT	ENDS
;	COMDAT __imp_?setstate@ios_base@std@@QAEXH@Z
_TEXT	SEGMENT PARA USE32 PUBLIC 'CODE'
_TEXT	ENDS
;	COMDAT __imp_?good@ios_base@std@@QBE_NXZ
_TEXT	SEGMENT PARA USE32 PUBLIC 'CODE'
_TEXT	ENDS
;	COMDAT __imp_?eof@ios_base@std@@QBE_NXZ
_TEXT	SEGMENT PARA USE32 PUBLIC 'CODE'
_TEXT	ENDS
;	COMDAT __imp_?fail@ios_base@std@@QBE_NXZ
_TEXT	SEGMENT PARA USE32 PUBLIC 'CODE'
_TEXT	ENDS
;	COMDAT __imp_?exceptions@ios_base@std@@QAEXH@Z
_TEXT	SEGMENT PARA USE32 PUBLIC 'CODE'
_TEXT	ENDS
;	COMDAT __imp_?flags@ios_base@std@@QBEHXZ
_TEXT	SEGMENT PARA USE32 PUBLIC 'CODE'
_TEXT	ENDS
;	COMDAT __imp_?setf@ios_base@std@@QAEHH@Z
_TEXT	SEGMENT PARA USE32 PUBLIC 'CODE'
_TEXT	ENDS
;	COMDAT __imp_?setf@ios_base@std@@QAEHHH@Z
_TEXT	SEGMENT PARA USE32 PUBLIC 'CODE'
_TEXT	ENDS
;	COMDAT __imp_?unsetf@ios_base@std@@QAEXH@Z
_TEXT	SEGMENT PARA USE32 PUBLIC 'CODE'
_TEXT	ENDS
;	COMDAT __imp_?precision@ios_base@std@@QBEHXZ
_TEXT	SEGMENT PARA USE32 PUBLIC 'CODE'
_TEXT	ENDS
;	COMDAT __imp_?width@ios_base@std@@QBEHXZ
_TEXT	SEGMENT PARA USE32 PUBLIC 'CODE'
_TEXT	ENDS
;	COMDAT __imp_?width@ios_base@std@@QAEHH@Z
_TEXT	SEGMENT PARA USE32 PUBLIC 'CODE'
_TEXT	ENDS
;	COMDAT __imp_?getloc@ios_base@std@@QBE?AVlocale@2@XZ
_TEXT	SEGMENT PARA USE32 PUBLIC 'CODE'
_TEXT	ENDS
;	COMDAT ??_Gfailure@ios_base@std@@UAEPAXI@Z
_TEXT	SEGMENT PARA USE32 PUBLIC 'CODE'
_TEXT	ENDS
;	COMDAT ??1sentry@?$basic_istream@DU?$char_traits@D@std@@@std@@QAE@XZ
_TEXT	SEGMENT PARA USE32 PUBLIC 'CODE'
_TEXT	ENDS
;	COMDAT ??1sentry@?$basic_istream@_WU?$char_traits@_W@std@@@std@@QAE@XZ
_TEXT	SEGMENT PARA USE32 PUBLIC 'CODE'
_TEXT	ENDS
;	COMDAT _$E1
text$yc	SEGMENT PARA USE32 PUBLIC 'CODE'
text$yc	ENDS
;	COMDAT _$E2
text$yd	SEGMENT PARA USE32 PUBLIC 'CODE'
text$yd	ENDS
;	COMDAT ?CheckTempPath@@YAXXZ
_TEXT	SEGMENT PARA USE32 PUBLIC 'CODE'
_TEXT	ENDS
;	COMDAT ?FuncGetInstallPath@@YA?AV?$CStringT@DV?$StrTraitMFC_DLL@DV?$ChTraitsCRT@D@ATL@@@@@ATL@@XZ
_TEXT	SEGMENT PARA USE32 PUBLIC 'CODE'
_TEXT	ENDS
;	COMDAT ?FuncGetInstallRootSCPath@@YA?AV?$CStringT@DV?$StrTraitMFC_DLL@DV?$ChTraitsCRT@D@ATL@@@@@ATL@@XZ
_TEXT	SEGMENT PARA USE32 PUBLIC 'CODE'
_TEXT	ENDS
;	COMDAT ?FuncGetInstallPath@@YA?AV?$CStringT@DV?$StrTraitMFC_DLL@DV?$ChTraitsCRT@D@ATL@@@@@ATL@@V12@@Z
_TEXT	SEGMENT PARA USE32 PUBLIC 'CODE'
_TEXT	ENDS
;	COMDAT ?FuncGetStringFromIDS@@YA?AV?$CStringT@DV?$StrTraitMFC_DLL@DV?$ChTraitsCRT@D@ATL@@@@@ATL@@PBD@Z
_TEXT	SEGMENT PARA USE32 PUBLIC 'CODE'
_TEXT	ENDS
;	COMDAT ?FuncGetStringFromIDS@@YA?AV?$CStringT@DV?$StrTraitMFC_DLL@DV?$ChTraitsCRT@D@ATL@@@@@ATL@@PBD0@Z
_TEXT	SEGMENT PARA USE32 PUBLIC 'CODE'
_TEXT	ENDS
;	COMDAT ?GetCIDFromCookie@@YA?AV?$CStringT@DV?$StrTraitMFC_DLL@DV?$ChTraitsCRT@D@ATL@@@@@ATL@@XZ
_TEXT	SEGMENT PARA USE32 PUBLIC 'CODE'
_TEXT	ENDS
;	COMDAT ?FuncGetInstallRootPath@@YA?AV?$CStringT@DV?$StrTraitMFC_DLL@DV?$ChTraitsCRT@D@ATL@@@@@ATL@@XZ
_TEXT	SEGMENT PARA USE32 PUBLIC 'CODE'
_TEXT	ENDS
;	COMDAT ?WSA_Init@@YAHXZ
_TEXT	SEGMENT PARA USE32 PUBLIC 'CODE'
_TEXT	ENDS
;	COMDAT ?WSA_Free@@YAXXZ
_TEXT	SEGMENT PARA USE32 PUBLIC 'CODE'
_TEXT	ENDS
;	COMDAT ?DFNParser_GetPrivateProfileString@@YAKPBD00PADK0@Z
_TEXT	SEGMENT PARA USE32 PUBLIC 'CODE'
_TEXT	ENDS
;	COMDAT ?DFN_GetPrivateProfileString@@YAKPBD00PADK0@Z
_TEXT	SEGMENT PARA USE32 PUBLIC 'CODE'
_TEXT	ENDS
;	COMDAT ?DFNParser_GetPrivateProfileInt@@YAHPBD0H0@Z
_TEXT	SEGMENT PARA USE32 PUBLIC 'CODE'
_TEXT	ENDS
;	COMDAT ?DFN_GetPrivateProfileInt@@YAHPBD0H0@Z
_TEXT	SEGMENT PARA USE32 PUBLIC 'CODE'
_TEXT	ENDS
;	COMDAT ?DFN_WritePrivateProfileString@@YAHPBD000@Z
_TEXT	SEGMENT PARA USE32 PUBLIC 'CODE'
_TEXT	ENDS
;	COMDAT ?FuncGetCountByMark@@YAHV?$CStringT@DV?$StrTraitMFC_DLL@DV?$ChTraitsCRT@D@ATL@@@@@ATL@@0@Z
_TEXT	SEGMENT PARA USE32 PUBLIC 'CODE'
_TEXT	ENDS
;	COMDAT ?FuncGetProfileIntBy@@YAHV?$CStringT@DV?$StrTraitMFC_DLL@DV?$ChTraitsCRT@D@ATL@@@@@ATL@@00@Z
_TEXT	SEGMENT PARA USE32 PUBLIC 'CODE'
_TEXT	ENDS
;	COMDAT ?FuncGetLeftStringByMark@@YA?AV?$CStringT@DV?$StrTraitMFC_DLL@DV?$ChTraitsCRT@D@ATL@@@@@ATL@@V12@0H@Z
_TEXT	SEGMENT PARA USE32 PUBLIC 'CODE'
_TEXT	ENDS
;	COMDAT ?TimeToString@@YA?AV?$CStringT@DV?$StrTraitMFC_DLL@DV?$ChTraitsCRT@D@ATL@@@@@ATL@@VCTime@2@@Z
_TEXT	SEGMENT PARA USE32 PUBLIC 'CODE'
_TEXT	ENDS
;	COMDAT ?GetValueFromList@@YA?AV?$CStringT@DV?$StrTraitMFC_DLL@DV?$ChTraitsCRT@D@ATL@@@@@ATL@@V12@AAVCStringList@@@Z
_TEXT	SEGMENT PARA USE32 PUBLIC 'CODE'
_TEXT	ENDS
;	COMDAT ?CreateListByStringandMark@@YAXV?$CStringT@DV?$StrTraitMFC_DLL@DV?$ChTraitsCRT@D@ATL@@@@@ATL@@AAVCStringList@@0@Z
_TEXT	SEGMENT PARA USE32 PUBLIC 'CODE'
_TEXT	ENDS
;	COMDAT ?WriteLog@@YAXV?$CStringT@DV?$StrTraitMFC_DLL@DV?$ChTraitsCRT@D@ATL@@@@@ATL@@H0@Z
_TEXT	SEGMENT PARA USE32 PUBLIC 'CODE'
_TEXT	ENDS
;	COMDAT ?FuncGetProfileStringBy@@YA?AV?$CStringT@DV?$StrTraitMFC_DLL@DV?$ChTraitsCRT@D@ATL@@@@@ATL@@V12@00@Z
_TEXT	SEGMENT PARA USE32 PUBLIC 'CODE'
_TEXT	ENDS
;	COMDAT ?FuncGetCompanyName@@YAXAAV?$CStringT@DV?$StrTraitMFC_DLL@DV?$ChTraitsCRT@D@ATL@@@@@ATL@@@Z
_TEXT	SEGMENT PARA USE32 PUBLIC 'CODE'
_TEXT	ENDS
;	COMDAT ?FuncGetCompanyUrl@@YAXAAV?$CStringT@DV?$StrTraitMFC_DLL@DV?$ChTraitsCRT@D@ATL@@@@@ATL@@@Z
_TEXT	SEGMENT PARA USE32 PUBLIC 'CODE'
_TEXT	ENDS
;	COMDAT ?SortList@@YAXAAVCStringList@@0H@Z
_TEXT	SEGMENT PARA USE32 PUBLIC 'CODE'
_TEXT	ENDS
;	COMDAT ??_E_rec@@QAEPAXI@Z
_TEXT	SEGMENT PARA USE32 PUBLIC 'CODE'
_TEXT	ENDS
;	COMDAT ??0_rec@@QAE@XZ
_TEXT	SEGMENT PARA USE32 PUBLIC 'CODE'
_TEXT	ENDS
;	COMDAT ??1_rec@@QAE@XZ
_TEXT	SEGMENT PARA USE32 PUBLIC 'CODE'
_TEXT	ENDS
;	COMDAT ?_Sort@@YAXPAU_rec@@HH@Z
_TEXT	SEGMENT PARA USE32 PUBLIC 'CODE'
_TEXT	ENDS
;	COMDAT ??4_rec@@QAEAAU0@ABU0@@Z
_TEXT	SEGMENT PARA USE32 PUBLIC 'CODE'
_TEXT	ENDS
;	COMDAT ?FuncGetRightString@@YA?AV?$CStringT@DV?$StrTraitMFC_DLL@DV?$ChTraitsCRT@D@ATL@@@@@ATL@@V12@0@Z
_TEXT	SEGMENT PARA USE32 PUBLIC 'CODE'
_TEXT	ENDS
;	COMDAT ?MakeStringListByChar@@YA_NAAVCStringList@@PBD@Z
_TEXT	SEGMENT PARA USE32 PUBLIC 'CODE'
_TEXT	ENDS
;	COMDAT ?MakeCharByString@@YA_NPADAAHV?$CStringT@DV?$StrTraitMFC_DLL@DV?$ChTraitsCRT@D@ATL@@@@@ATL@@@Z
_TEXT	SEGMENT PARA USE32 PUBLIC 'CODE'
_TEXT	ENDS
;	COMDAT ?GetSEIP@@YA?AV?$basic_string@DU?$char_traits@D@std@@V?$allocator@D@2@@std@@XZ
_TEXT	SEGMENT PARA USE32 PUBLIC 'CODE'
_TEXT	ENDS
;	COMDAT ?GetResourceValue@@YA?AV?$basic_string@DU?$char_traits@D@std@@V?$allocator@D@2@@std@@V12@@Z
_TEXT	SEGMENT PARA USE32 PUBLIC 'CODE'
_TEXT	ENDS
;	COMDAT ??0?$CAtlSafeAllocBufferManager@VCCRTAllocator@ATL@@@_ATL_SAFE_ALLOCA_IMPL@ATL@@QAE@XZ
_TEXT	SEGMENT PARA USE32 PUBLIC 'CODE'
_TEXT	ENDS
;	COMDAT ?Allocate@?$CAtlSafeAllocBufferManager@VCCRTAllocator@ATL@@@_ATL_SAFE_ALLOCA_IMPL@ATL@@QAEPAXK@Z
_TEXT	SEGMENT PARA USE32 PUBLIC 'CODE'
_TEXT	ENDS
;	COMDAT ??1?$CAtlSafeAllocBufferManager@VCCRTAllocator@ATL@@@_ATL_SAFE_ALLOCA_IMPL@ATL@@QAE@XZ
_TEXT	SEGMENT PARA USE32 PUBLIC 'CODE'
_TEXT	ENDS
;	COMDAT ??0?$CTempBuffer@D$0IA@VCCRTAllocator@ATL@@@ATL@@QAE@XZ
_TEXT	SEGMENT PARA USE32 PUBLIC 'CODE'
_TEXT	ENDS
;	COMDAT ??1?$CTempBuffer@D$0IA@VCCRTAllocator@ATL@@@ATL@@QAE@XZ
_TEXT	SEGMENT PARA USE32 PUBLIC 'CODE'
_TEXT	ENDS
;	COMDAT ??B?$CTempBuffer@D$0IA@VCCRTAllocator@ATL@@@ATL@@QBEPADXZ
_TEXT	SEGMENT PARA USE32 PUBLIC 'CODE'
_TEXT	ENDS
;	COMDAT ?Allocate@?$CTempBuffer@D$0IA@VCCRTAllocator@ATL@@@ATL@@QAEPADI@Z
_TEXT	SEGMENT PARA USE32 PUBLIC 'CODE'
_TEXT	ENDS
;	COMDAT ??0?$CW2AEX@$0IA@@ATL@@QAE@PB_W@Z
_TEXT	SEGMENT PARA USE32 PUBLIC 'CODE'
_TEXT	ENDS
;	COMDAT ??1?$CW2AEX@$0IA@@ATL@@QAE@XZ
_TEXT	SEGMENT PARA USE32 PUBLIC 'CODE'
_TEXT	ENDS
;	COMDAT ??B?$CW2AEX@$0IA@@ATL@@QBEPADXZ
_TEXT	SEGMENT PARA USE32 PUBLIC 'CODE'
_TEXT	ENDS
;	COMDAT __imp_??B?$CSimpleStringT@D$00@ATL@@QBEPBDXZ
_TEXT	SEGMENT PARA USE32 PUBLIC 'CODE'
_TEXT	ENDS
;	COMDAT __imp_?GetBuffer@?$CSimpleStringT@D$00@ATL@@QAEPADH@Z
_TEXT	SEGMENT PARA USE32 PUBLIC 'CODE'
_TEXT	ENDS
;	COMDAT __imp_?GetLength@?$CSimpleStringT@D$00@ATL@@QBEHXZ
_TEXT	SEGMENT PARA USE32 PUBLIC 'CODE'
_TEXT	ENDS
;	COMDAT __imp_?Preallocate@?$CSimpleStringT@D$00@ATL@@QAEXH@Z
_TEXT	SEGMENT PARA USE32 PUBLIC 'CODE'
_TEXT	ENDS
;	COMDAT __imp_?ReleaseBuffer@?$CSimpleStringT@D$00@ATL@@QAEXH@Z
_TEXT	SEGMENT PARA USE32 PUBLIC 'CODE'
_TEXT	ENDS
;	COMDAT __imp_??0?$CStringT@DV?$StrTraitMFC_DLL@DV?$ChTraitsCRT@D@ATL@@@@@ATL@@QAE@XZ
_TEXT	SEGMENT PARA USE32 PUBLIC 'CODE'
_TEXT	ENDS
;	COMDAT __imp_??0?$CStringT@DV?$StrTraitMFC_DLL@DV?$ChTraitsCRT@D@ATL@@@@@ATL@@QAE@ABV01@@Z
_TEXT	SEGMENT PARA USE32 PUBLIC 'CODE'
_TEXT	ENDS
;	COMDAT __imp_??0?$CStringT@DV?$StrTraitMFC_DLL@DV?$ChTraitsCRT@D@ATL@@@@@ATL@@QAE@PBD@Z
_TEXT	SEGMENT PARA USE32 PUBLIC 'CODE'
_TEXT	ENDS
;	COMDAT __imp_??1?$CStringT@DV?$StrTraitMFC_DLL@DV?$ChTraitsCRT@D@ATL@@@@@ATL@@QAE@XZ
_TEXT	SEGMENT PARA USE32 PUBLIC 'CODE'
_TEXT	ENDS
;	COMDAT __imp_??4?$CStringT@DV?$StrTraitMFC_DLL@DV?$ChTraitsCRT@D@ATL@@@@@ATL@@QAEAAV01@ABV01@@Z
_TEXT	SEGMENT PARA USE32 PUBLIC 'CODE'
_TEXT	ENDS
;	COMDAT __imp_??4?$CStringT@DV?$StrTraitMFC_DLL@DV?$ChTraitsCRT@D@ATL@@@@@ATL@@QAEAAV01@PBD@Z
_TEXT	SEGMENT PARA USE32 PUBLIC 'CODE'
_TEXT	ENDS
;	COMDAT __imp_??Y?$CStringT@DV?$StrTraitMFC_DLL@DV?$ChTraitsCRT@D@ATL@@@@@ATL@@QAEAAV01@D@Z
_TEXT	SEGMENT PARA USE32 PUBLIC 'CODE'
_TEXT	ENDS
;	COMDAT __imp_?Compare@?$CStringT@DV?$StrTraitMFC_DLL@DV?$ChTraitsCRT@D@ATL@@@@@ATL@@QBEHPBD@Z
_TEXT	SEGMENT PARA USE32 PUBLIC 'CODE'
_TEXT	ENDS
;	COMDAT __imp_?CompareNoCase@?$CStringT@DV?$StrTraitMFC_DLL@DV?$ChTraitsCRT@D@ATL@@@@@ATL@@QBEHPBD@Z
_TEXT	SEGMENT PARA USE32 PUBLIC 'CODE'
_TEXT	ENDS
;	COMDAT __imp_?Find@?$CStringT@DV?$StrTraitMFC_DLL@DV?$ChTraitsCRT@D@ATL@@@@@ATL@@QBEHPBDH@Z
_TEXT	SEGMENT PARA USE32 PUBLIC 'CODE'
_TEXT	ENDS
;	COMDAT __imp_?Mid@?$CStringT@DV?$StrTraitMFC_DLL@DV?$ChTraitsCRT@D@ATL@@@@@ATL@@QBE?AV12@HH@Z
_TEXT	SEGMENT PARA USE32 PUBLIC 'CODE'
_TEXT	ENDS
;	COMDAT __imp_?Right@?$CStringT@DV?$StrTraitMFC_DLL@DV?$ChTraitsCRT@D@ATL@@@@@ATL@@QBE?AV12@H@Z
_TEXT	SEGMENT PARA USE32 PUBLIC 'CODE'
_TEXT	ENDS
;	COMDAT __imp_?Left@?$CStringT@DV?$StrTraitMFC_DLL@DV?$ChTraitsCRT@D@ATL@@@@@ATL@@QBE?AV12@H@Z
_TEXT	SEGMENT PARA USE32 PUBLIC 'CODE'
_TEXT	ENDS
;	COMDAT __imp_?Format@?$CStringT@DV?$StrTraitMFC_DLL@DV?$ChTraitsCRT@D@ATL@@@@@ATL@@QAAXPBDZZ
_TEXT	SEGMENT PARA USE32 PUBLIC 'CODE'
_TEXT	ENDS
;	COMDAT __imp_?AppendFormat@?$CStringT@DV?$StrTraitMFC_DLL@DV?$ChTraitsCRT@D@ATL@@@@@ATL@@QAAXPBDZZ
_TEXT	SEGMENT PARA USE32 PUBLIC 'CODE'
_TEXT	ENDS
;	COMDAT __imp_?LoadStringA@?$CStringT@DV?$StrTraitMFC_DLL@DV?$ChTraitsCRT@D@ATL@@@@@ATL@@QAEHI@Z
_TEXT	SEGMENT PARA USE32 PUBLIC 'CODE'
_TEXT	ENDS
;	COMDAT ??8ATL@@YA_NABV?$CStringT@DV?$StrTraitMFC_DLL@DV?$ChTraitsCRT@D@ATL@@@@@0@0@Z
_TEXT	SEGMENT PARA USE32 PUBLIC 'CODE'
_TEXT	ENDS
;	COMDAT ??8ATL@@YA_NABV?$CStringT@DV?$StrTraitMFC_DLL@DV?$ChTraitsCRT@D@ATL@@@@@0@PBD@Z
_TEXT	SEGMENT PARA USE32 PUBLIC 'CODE'
_TEXT	ENDS
;	COMDAT ??9ATL@@YA_NABV?$CStringT@DV?$StrTraitMFC_DLL@DV?$ChTraitsCRT@D@ATL@@@@@0@PBD@Z
_TEXT	SEGMENT PARA USE32 PUBLIC 'CODE'
_TEXT	ENDS
;	COMDAT __imp_??0?$basic_string@DU?$char_traits@D@std@@V?$allocator@D@2@@std@@QAE@XZ
_TEXT	SEGMENT PARA USE32 PUBLIC 'CODE'
_TEXT	ENDS
;	COMDAT __imp_??0?$basic_string@DU?$char_traits@D@std@@V?$allocator@D@2@@std@@QAE@ABV01@@Z
_TEXT	SEGMENT PARA USE32 PUBLIC 'CODE'
_TEXT	ENDS
;	COMDAT __imp_??0?$basic_string@DU?$char_traits@D@std@@V?$allocator@D@2@@std@@QAE@PBD@Z
_TEXT	SEGMENT PARA USE32 PUBLIC 'CODE'
_TEXT	ENDS
;	COMDAT __imp_??1?$basic_string@DU?$char_traits@D@std@@V?$allocator@D@2@@std@@QAE@XZ
_TEXT	SEGMENT PARA USE32 PUBLIC 'CODE'
_TEXT	ENDS
;	COMDAT __imp_??4?$basic_string@DU?$char_traits@D@std@@V?$allocator@D@2@@std@@QAEAAV01@ABV01@@Z
_TEXT	SEGMENT PARA USE32 PUBLIC 'CODE'
_TEXT	ENDS
;	COMDAT __imp_??4?$basic_string@DU?$char_traits@D@std@@V?$allocator@D@2@@std@@QAEAAV01@PBD@Z
_TEXT	SEGMENT PARA USE32 PUBLIC 'CODE'
_TEXT	ENDS
;	COMDAT __imp_?c_str@?$basic_string@DU?$char_traits@D@std@@V?$allocator@D@2@@std@@QBEPBDXZ
_TEXT	SEGMENT PARA USE32 PUBLIC 'CODE'
_TEXT	ENDS
;	COMDAT __imp_?size@?$basic_string@DU?$char_traits@D@std@@V?$allocator@D@2@@std@@QBEIXZ
_TEXT	SEGMENT PARA USE32 PUBLIC 'CODE'
_TEXT	ENDS
;	COMDAT __imp_??0?$_String_val@DV?$allocator@D@std@@@std@@IAE@V?$allocator@D@1@@Z
_TEXT	SEGMENT PARA USE32 PUBLIC 'CODE'
_TEXT	ENDS
;	COMDAT ??0?$allocator@D@std@@QAE@XZ
_TEXT	SEGMENT PARA USE32 PUBLIC 'CODE'
_TEXT	ENDS
;	COMDAT ??0?$allocator@D@std@@QAE@ABV01@@Z
_TEXT	SEGMENT PARA USE32 PUBLIC 'CODE'
_TEXT	ENDS
;	COMDAT __imp_??0?$_String_val@_WV?$allocator@_W@std@@@std@@IAE@V?$allocator@_W@1@@Z
_TEXT	SEGMENT PARA USE32 PUBLIC 'CODE'
_TEXT	ENDS
;	COMDAT ??0?$allocator@_W@std@@QAE@XZ
_TEXT	SEGMENT PARA USE32 PUBLIC 'CODE'
_TEXT	ENDS
;	COMDAT ??0?$allocator@_W@std@@QAE@ABV01@@Z
_TEXT	SEGMENT PARA USE32 PUBLIC 'CODE'
_TEXT	ENDS
;	COMDAT __imp_??1?$codecvt@DDH@std@@MAE@XZ
_TEXT	SEGMENT PARA USE32 PUBLIC 'CODE'
_TEXT	ENDS
;	COMDAT __imp_??1?$basic_streambuf@DU?$char_traits@D@std@@@std@@UAE@XZ
_TEXT	SEGMENT PARA USE32 PUBLIC 'CODE'
_TEXT	ENDS
;	COMDAT __imp_?sgetc@?$basic_streambuf@DU?$char_traits@D@std@@@std@@QAEHXZ
_TEXT	SEGMENT PARA USE32 PUBLIC 'CODE'
_TEXT	ENDS
;	COMDAT __imp_?snextc@?$basic_streambuf@DU?$char_traits@D@std@@@std@@QAEHXZ
_TEXT	SEGMENT PARA USE32 PUBLIC 'CODE'
_TEXT	ENDS
;	COMDAT __imp_??1?$basic_streambuf@_WU?$char_traits@_W@std@@@std@@UAE@XZ
_TEXT	SEGMENT PARA USE32 PUBLIC 'CODE'
_TEXT	ENDS
;	COMDAT __imp_?sgetc@?$basic_streambuf@_WU?$char_traits@_W@std@@@std@@QAEGXZ
_TEXT	SEGMENT PARA USE32 PUBLIC 'CODE'
_TEXT	ENDS
;	COMDAT __imp_?snextc@?$basic_streambuf@_WU?$char_traits@_W@std@@@std@@QAEGXZ
_TEXT	SEGMENT PARA USE32 PUBLIC 'CODE'
_TEXT	ENDS
;	COMDAT __imp_??1?$numpunct@D@std@@MAE@XZ
_TEXT	SEGMENT PARA USE32 PUBLIC 'CODE'
_TEXT	ENDS
;	COMDAT __imp_?do_decimal_point@?$numpunct@D@std@@MBEDXZ
_TEXT	SEGMENT PARA USE32 PUBLIC 'CODE'
_TEXT	ENDS
;	COMDAT __imp_?do_thousands_sep@?$numpunct@D@std@@MBEDXZ
_TEXT	SEGMENT PARA USE32 PUBLIC 'CODE'
_TEXT	ENDS
;	COMDAT __imp_?do_grouping@?$numpunct@D@std@@MBE?AV?$basic_string@DU?$char_traits@D@std@@V?$allocator@D@2@@2@XZ
_TEXT	SEGMENT PARA USE32 PUBLIC 'CODE'
_TEXT	ENDS
;	COMDAT __imp_?do_falsename@?$numpunct@D@std@@MBE?AV?$basic_string@DU?$char_traits@D@std@@V?$allocator@D@2@@2@XZ
_TEXT	SEGMENT PARA USE32 PUBLIC 'CODE'
_TEXT	ENDS
;	COMDAT __imp_?do_truename@?$numpunct@D@std@@MBE?AV?$basic_string@DU?$char_traits@D@std@@V?$allocator@D@2@@2@XZ
_TEXT	SEGMENT PARA USE32 PUBLIC 'CODE'
_TEXT	ENDS
;	COMDAT __imp_??1?$num_get@DV?$istreambuf_iterator@DU?$char_traits@D@std@@@std@@@std@@MAE@XZ
_TEXT	SEGMENT PARA USE32 PUBLIC 'CODE'
_TEXT	ENDS
;	COMDAT __imp_??1?$num_put@DV?$ostreambuf_iterator@DU?$char_traits@D@std@@@std@@@std@@MAE@XZ
_TEXT	SEGMENT PARA USE32 PUBLIC 'CODE'
_TEXT	ENDS
;	COMDAT __imp_??1?$numpunct@_W@std@@MAE@XZ
_TEXT	SEGMENT PARA USE32 PUBLIC 'CODE'
_TEXT	ENDS
;	COMDAT __imp_?do_decimal_point@?$numpunct@_W@std@@MBE_WXZ
_TEXT	SEGMENT PARA USE32 PUBLIC 'CODE'
_TEXT	ENDS
;	COMDAT __imp_?do_thousands_sep@?$numpunct@_W@std@@MBE_WXZ
_TEXT	SEGMENT PARA USE32 PUBLIC 'CODE'
_TEXT	ENDS
;	COMDAT __imp_?do_grouping@?$numpunct@_W@std@@MBE?AV?$basic_string@DU?$char_traits@D@std@@V?$allocator@D@2@@2@XZ
_TEXT	SEGMENT PARA USE32 PUBLIC 'CODE'
_TEXT	ENDS
;	COMDAT __imp_?do_falsename@?$numpunct@_W@std@@MBE?AV?$basic_string@_WU?$char_traits@_W@std@@V?$allocator@_W@2@@2@XZ
_TEXT	SEGMENT PARA USE32 PUBLIC 'CODE'
_TEXT	ENDS
;	COMDAT __imp_?do_truename@?$numpunct@_W@std@@MBE?AV?$basic_string@_WU?$char_traits@_W@std@@V?$allocator@_W@2@@2@XZ
_TEXT	SEGMENT PARA USE32 PUBLIC 'CODE'
_TEXT	ENDS
;	COMDAT __imp_??1?$num_get@_WV?$istreambuf_iterator@_WU?$char_traits@_W@std@@@std@@@std@@MAE@XZ
_TEXT	SEGMENT PARA USE32 PUBLIC 'CODE'
_TEXT	ENDS
;	COMDAT __imp_??1?$num_put@_WV?$ostreambuf_iterator@_WU?$char_traits@_W@std@@@std@@@std@@MAE@XZ
_TEXT	SEGMENT PARA USE32 PUBLIC 'CODE'
_TEXT	ENDS
;	COMDAT __imp_??1?$basic_ios@DU?$char_traits@D@std@@@std@@UAE@XZ
_TEXT	SEGMENT PARA USE32 PUBLIC 'CODE'
_TEXT	ENDS
;	COMDAT __imp_?setstate@?$basic_ios@DU?$char_traits@D@std@@@std@@QAEXH_N@Z
_TEXT	SEGMENT PARA USE32 PUBLIC 'CODE'
_TEXT	ENDS
;	COMDAT __imp_?rdbuf@?$basic_ios@DU?$char_traits@D@std@@@std@@QBEPAV?$basic_streambuf@DU?$char_traits@D@std@@@2@XZ
_TEXT	SEGMENT PARA USE32 PUBLIC 'CODE'
_TEXT	ENDS
;	COMDAT __imp_??1?$basic_ios@_WU?$char_traits@_W@std@@@std@@UAE@XZ
_TEXT	SEGMENT PARA USE32 PUBLIC 'CODE'
_TEXT	ENDS
;	COMDAT __imp_?setstate@?$basic_ios@_WU?$char_traits@_W@std@@@std@@QAEXH_N@Z
_TEXT	SEGMENT PARA USE32 PUBLIC 'CODE'
_TEXT	ENDS
;	COMDAT __imp_?rdbuf@?$basic_ios@_WU?$char_traits@_W@std@@@std@@QBEPAV?$basic_streambuf@_WU?$char_traits@_W@std@@@2@XZ
_TEXT	SEGMENT PARA USE32 PUBLIC 'CODE'
_TEXT	ENDS
;	COMDAT __imp_??1?$basic_ostream@DU?$char_traits@D@std@@@std@@UAE@XZ
_TEXT	SEGMENT PARA USE32 PUBLIC 'CODE'
_TEXT	ENDS
;	COMDAT __imp_?put@?$basic_ostream@DU?$char_traits@D@std@@@std@@QAEAAV12@D@Z
_TEXT	SEGMENT PARA USE32 PUBLIC 'CODE'
_TEXT	ENDS
;	COMDAT __imp_?flush@?$basic_ostream@DU?$char_traits@D@std@@@std@@QAEAAV12@XZ
_TEXT	SEGMENT PARA USE32 PUBLIC 'CODE'
_TEXT	ENDS
;	COMDAT __imp_??1?$basic_ostream@_WU?$char_traits@_W@std@@@std@@UAE@XZ
_TEXT	SEGMENT PARA USE32 PUBLIC 'CODE'
_TEXT	ENDS
;	COMDAT __imp_?put@?$basic_ostream@_WU?$char_traits@_W@std@@@std@@QAEAAV12@_W@Z
_TEXT	SEGMENT PARA USE32 PUBLIC 'CODE'
_TEXT	ENDS
;	COMDAT __imp_?flush@?$basic_ostream@_WU?$char_traits@_W@std@@@std@@QAEAAV12@XZ
_TEXT	SEGMENT PARA USE32 PUBLIC 'CODE'
_TEXT	ENDS
;	COMDAT __imp_??1?$basic_istream@DU?$char_traits@D@std@@@std@@UAE@XZ
_TEXT	SEGMENT PARA USE32 PUBLIC 'CODE'
_TEXT	ENDS
;	COMDAT __imp_??1?$basic_istream@_WU?$char_traits@_W@std@@@std@@UAE@XZ
_TEXT	SEGMENT PARA USE32 PUBLIC 'CODE'
_TEXT	ENDS
;	COMDAT __imp_??1?$basic_iostream@DU?$char_traits@D@std@@@std@@UAE@XZ
_TEXT	SEGMENT PARA USE32 PUBLIC 'CODE'
_TEXT	ENDS
;	COMDAT __imp_??1?$basic_iostream@_WU?$char_traits@_W@std@@@std@@UAE@XZ
_TEXT	SEGMENT PARA USE32 PUBLIC 'CODE'
_TEXT	ENDS
;	COMDAT ??0sentry@?$basic_istream@DU?$char_traits@D@std@@@std@@QAE@AAV12@_N@Z
_TEXT	SEGMENT PARA USE32 PUBLIC 'CODE'
_TEXT	ENDS
;	COMDAT ??Bsentry@?$basic_istream@DU?$char_traits@D@std@@@std@@QBE_NXZ
_TEXT	SEGMENT PARA USE32 PUBLIC 'CODE'
_TEXT	ENDS
;	COMDAT ??1_Sentry_base@?$basic_istream@DU?$char_traits@D@std@@@std@@QAE@XZ
_TEXT	SEGMENT PARA USE32 PUBLIC 'CODE'
_TEXT	ENDS
;	COMDAT ??0sentry@?$basic_istream@_WU?$char_traits@_W@std@@@std@@QAE@AAV12@_N@Z
_TEXT	SEGMENT PARA USE32 PUBLIC 'CODE'
_TEXT	ENDS
;	COMDAT ??Bsentry@?$basic_istream@_WU?$char_traits@_W@std@@@std@@QBE_NXZ
_TEXT	SEGMENT PARA USE32 PUBLIC 'CODE'
_TEXT	ENDS
;	COMDAT ??1_Sentry_base@?$basic_istream@_WU?$char_traits@_W@std@@@std@@QAE@XZ
_TEXT	SEGMENT PARA USE32 PUBLIC 'CODE'
_TEXT	ENDS
;	COMDAT ??_Glocale@std@@QAEPAXI@Z
_TEXT	SEGMENT PARA USE32 PUBLIC 'CODE'
_TEXT	ENDS
;	COMDAT ??_G?$numpunct@D@std@@MAEPAXI@Z
_TEXT	SEGMENT PARA USE32 PUBLIC 'CODE'
_TEXT	ENDS
;	COMDAT ??_G?$numpunct@_W@std@@MAEPAXI@Z
_TEXT	SEGMENT PARA USE32 PUBLIC 'CODE'
_TEXT	ENDS
;	COMDAT __imp_??_D?$basic_ostream@DU?$char_traits@D@std@@@std@@QAEXXZ
_TEXT	SEGMENT PARA USE32 PUBLIC 'CODE'
_TEXT	ENDS
;	COMDAT __imp_??_D?$basic_ostream@_WU?$char_traits@_W@std@@@std@@QAEXXZ
_TEXT	SEGMENT PARA USE32 PUBLIC 'CODE'
_TEXT	ENDS
;	COMDAT __imp_??_D?$basic_istream@DU?$char_traits@D@std@@@std@@QAEXXZ
_TEXT	SEGMENT PARA USE32 PUBLIC 'CODE'
_TEXT	ENDS
;	COMDAT __imp_??_D?$basic_istream@_WU?$char_traits@_W@std@@@std@@QAEXXZ
_TEXT	SEGMENT PARA USE32 PUBLIC 'CODE'
_TEXT	ENDS
;	COMDAT __imp_??_D?$basic_iostream@DU?$char_traits@D@std@@@std@@QAEXXZ
_TEXT	SEGMENT PARA USE32 PUBLIC 'CODE'
_TEXT	ENDS
;	COMDAT __imp_??_D?$basic_iostream@_WU?$char_traits@_W@std@@@std@@QAEXXZ
_TEXT	SEGMENT PARA USE32 PUBLIC 'CODE'
_TEXT	ENDS
;	COMDAT ?AllocateBytes@?$CTempBuffer@D$0IA@VCCRTAllocator@ATL@@@ATL@@QAEPADI@Z
_TEXT	SEGMENT PARA USE32 PUBLIC 'CODE'
_TEXT	ENDS
;	COMDAT ?FreeHeap@?$CTempBuffer@D$0IA@VCCRTAllocator@ATL@@@ATL@@AAEXXZ
_TEXT	SEGMENT PARA USE32 PUBLIC 'CODE'
_TEXT	ENDS
;	COMDAT ?Init@?$CW2AEX@$0IA@@ATL@@AAEXPB_WI@Z
_TEXT	SEGMENT PARA USE32 PUBLIC 'CODE'
_TEXT	ENDS
;	COMDAT __imp_??0?$CSimpleStringT@D$00@ATL@@QAE@PAUIAtlStringMgr@1@@Z
_TEXT	SEGMENT PARA USE32 PUBLIC 'CODE'
_TEXT	ENDS
;	COMDAT __imp_??0?$CSimpleStringT@D$00@ATL@@QAE@ABV01@@Z
_TEXT	SEGMENT PARA USE32 PUBLIC 'CODE'
_TEXT	ENDS
;	COMDAT __imp_??1?$CSimpleStringT@D$00@ATL@@QAE@XZ
_TEXT	SEGMENT PARA USE32 PUBLIC 'CODE'
_TEXT	ENDS
;	COMDAT __imp_??4?$CSimpleStringT@D$00@ATL@@QAEAAV01@ABV01@@Z
_TEXT	SEGMENT PARA USE32 PUBLIC 'CODE'
_TEXT	ENDS
;	COMDAT __imp_??4?$CSimpleStringT@D$00@ATL@@QAEAAV01@PBD@Z
_TEXT	SEGMENT PARA USE32 PUBLIC 'CODE'
_TEXT	ENDS
;	COMDAT __imp_??Y?$CSimpleStringT@D$00@ATL@@QAEAAV01@D@Z
_TEXT	SEGMENT PARA USE32 PUBLIC 'CODE'
_TEXT	ENDS
;	COMDAT __imp_?GetManager@?$CSimpleStringT@D$00@ATL@@QBEPAUIAtlStringMgr@2@XZ
_TEXT	SEGMENT PARA USE32 PUBLIC 'CODE'
_TEXT	ENDS
;	COMDAT __imp_?GetString@?$CSimpleStringT@D$00@ATL@@QBEPBDXZ
_TEXT	SEGMENT PARA USE32 PUBLIC 'CODE'
_TEXT	ENDS
;	COMDAT __imp_?StringLength@?$CSimpleStringT@D$00@ATL@@SAHPBD@Z
_TEXT	SEGMENT PARA USE32 PUBLIC 'CODE'
_TEXT	ENDS
;	COMDAT __imp_?GetData@?$CSimpleStringT@D$00@ATL@@ABEPAUCStringData@2@XZ
_TEXT	SEGMENT PARA USE32 PUBLIC 'CODE'
_TEXT	ENDS
;	COMDAT __imp_?PrepareWrite@?$CSimpleStringT@D$00@ATL@@AAEPADH@Z
_TEXT	SEGMENT PARA USE32 PUBLIC 'CODE'
_TEXT	ENDS
;	COMDAT __imp_?SetLength@?$CSimpleStringT@D$00@ATL@@AAEXH@Z
_TEXT	SEGMENT PARA USE32 PUBLIC 'CODE'
_TEXT	ENDS
;	COMDAT __imp_??0?$CStringT@DV?$StrTraitMFC_DLL@DV?$ChTraitsCRT@D@ATL@@@@@ATL@@QAE@PBDHPAUIAtlStringMgr@1@@Z
_TEXT	SEGMENT PARA USE32 PUBLIC 'CODE'
_TEXT	ENDS
;	COMDAT __imp_?AppendFormatV@?$CStringT@DV?$StrTraitMFC_DLL@DV?$ChTraitsCRT@D@ATL@@@@@ATL@@QAEXPBDPAD@Z
_TEXT	SEGMENT PARA USE32 PUBLIC 'CODE'
_TEXT	ENDS
;	COMDAT __imp_?FormatV@?$CStringT@DV?$StrTraitMFC_DLL@DV?$ChTraitsCRT@D@ATL@@@@@ATL@@QAEXPBDPAD@Z
_TEXT	SEGMENT PARA USE32 PUBLIC 'CODE'
_TEXT	ENDS
;	COMDAT __imp_?LoadStringA@?$CStringT@DV?$StrTraitMFC_DLL@DV?$ChTraitsCRT@D@ATL@@@@@ATL@@QAEHPAUHINSTANCE__@@I@Z
_TEXT	SEGMENT PARA USE32 PUBLIC 'CODE'
_TEXT	ENDS
;	COMDAT __imp_?CheckImplicitLoad@?$CStringT@DV?$StrTraitMFC_DLL@DV?$ChTraitsCRT@D@ATL@@@@@ATL@@AAE_NPBX@Z
_TEXT	SEGMENT PARA USE32 PUBLIC 'CODE'
_TEXT	ENDS
;	COMDAT ?FindStringResourceInstance@?$StrTraitMFC_DLL@DV?$ChTraitsCRT@D@ATL@@@@SAPAUHINSTANCE__@@I@Z
_TEXT	SEGMENT PARA USE32 PUBLIC 'CODE'
_TEXT	ENDS
;	COMDAT ?GetDefaultManager@?$StrTraitMFC_DLL@DV?$ChTraitsCRT@D@ATL@@@@SAPAUIAtlStringMgr@ATL@@XZ
_TEXT	SEGMENT PARA USE32 PUBLIC 'CODE'
_TEXT	ENDS
;	COMDAT ?StringCompare@?$ChTraitsCRT@D@ATL@@SAHPBD0@Z
_TEXT	SEGMENT PARA USE32 PUBLIC 'CODE'
_TEXT	ENDS
;	COMDAT ?StringCompareIgnore@?$ChTraitsCRT@D@ATL@@SAHPBD0@Z
_TEXT	SEGMENT PARA USE32 PUBLIC 'CODE'
_TEXT	ENDS
;	COMDAT ?StringFindString@?$ChTraitsCRT@D@ATL@@SAPBDPBD0@Z
_TEXT	SEGMENT PARA USE32 PUBLIC 'CODE'
_TEXT	ENDS
;	COMDAT __imp_??0?$basic_string@DU?$char_traits@D@std@@V?$allocator@D@2@@std@@QAE@ID@Z
_TEXT	SEGMENT PARA USE32 PUBLIC 'CODE'
_TEXT	ENDS
;	COMDAT __imp_??Y?$basic_string@DU?$char_traits@D@std@@V?$allocator@D@2@@std@@QAEAAV01@ABV01@@Z
_TEXT	SEGMENT PARA USE32 PUBLIC 'CODE'
_TEXT	ENDS
;	COMDAT __imp_??Y?$basic_string@DU?$char_traits@D@std@@V?$allocator@D@2@@std@@QAEAAV01@D@Z
_TEXT	SEGMENT PARA USE32 PUBLIC 'CODE'
_TEXT	ENDS
;	COMDAT __imp_?assign@?$basic_string@DU?$char_traits@D@std@@V?$allocator@D@2@@std@@QAEAAV12@ABV12@@Z
_TEXT	SEGMENT PARA USE32 PUBLIC 'CODE'
_TEXT	ENDS
;	COMDAT __imp_?assign@?$basic_string@DU?$char_traits@D@std@@V?$allocator@D@2@@std@@QAEAAV12@ABV12@II@Z
_TEXT	SEGMENT PARA USE32 PUBLIC 'CODE'
_TEXT	ENDS
;	COMDAT __imp_?assign@?$basic_string@DU?$char_traits@D@std@@V?$allocator@D@2@@std@@QAEAAV12@PBD@Z
_TEXT	SEGMENT PARA USE32 PUBLIC 'CODE'
_TEXT	ENDS
;	COMDAT __imp_?_Tidy@?$basic_string@DU?$char_traits@D@std@@V?$allocator@D@2@@std@@IAEX_NI@Z
_TEXT	SEGMENT PARA USE32 PUBLIC 'CODE'
_TEXT	ENDS
;	COMDAT __imp_?_Myptr@?$basic_string@DU?$char_traits@D@std@@V?$allocator@D@2@@std@@QBEPBDXZ
_TEXT	SEGMENT PARA USE32 PUBLIC 'CODE'
_TEXT	ENDS
;	COMDAT __imp_??0?$basic_string@_WU?$char_traits@_W@std@@V?$allocator@_W@2@@std@@QAE@XZ
_TEXT	SEGMENT PARA USE32 PUBLIC 'CODE'
_TEXT	ENDS
;	COMDAT __imp_??0?$basic_string@_WU?$char_traits@_W@std@@V?$allocator@_W@2@@std@@QAE@PB_W@Z
_TEXT	SEGMENT PARA USE32 PUBLIC 'CODE'
_TEXT	ENDS
;	COMDAT __imp_??0?$basic_string@_WU?$char_traits@_W@std@@V?$allocator@_W@2@@std@@QAE@I_W@Z
_TEXT	SEGMENT PARA USE32 PUBLIC 'CODE'
_TEXT	ENDS
;	COMDAT __imp_??1?$basic_string@_WU?$char_traits@_W@std@@V?$allocator@_W@2@@std@@QAE@XZ
_TEXT	SEGMENT PARA USE32 PUBLIC 'CODE'
_TEXT	ENDS
;	COMDAT __imp_??Y?$basic_string@_WU?$char_traits@_W@std@@V?$allocator@_W@2@@std@@QAEAAV01@ABV01@@Z
_TEXT	SEGMENT PARA USE32 PUBLIC 'CODE'
_TEXT	ENDS
;	COMDAT __imp_??Y?$basic_string@_WU?$char_traits@_W@std@@V?$allocator@_W@2@@std@@QAEAAV01@_W@Z
_TEXT	SEGMENT PARA USE32 PUBLIC 'CODE'
_TEXT	ENDS
;	COMDAT __imp_?assign@?$basic_string@_WU?$char_traits@_W@std@@V?$allocator@_W@2@@std@@QAEAAV12@ABV12@@Z
_TEXT	SEGMENT PARA USE32 PUBLIC 'CODE'
_TEXT	ENDS
;	COMDAT __imp_?c_str@?$basic_string@_WU?$char_traits@_W@std@@V?$allocator@_W@2@@std@@QBEPB_WXZ
_TEXT	SEGMENT PARA USE32 PUBLIC 'CODE'
_TEXT	ENDS
;	COMDAT __imp_?size@?$basic_string@_WU?$char_traits@_W@std@@V?$allocator@_W@2@@std@@QBEIXZ
_TEXT	SEGMENT PARA USE32 PUBLIC 'CODE'
_TEXT	ENDS
;	COMDAT __imp_?pubsync@?$basic_streambuf@DU?$char_traits@D@std@@@std@@QAEHXZ
_TEXT	SEGMENT PARA USE32 PUBLIC 'CODE'
_TEXT	ENDS
;	COMDAT __imp_?sbumpc@?$basic_streambuf@DU?$char_traits@D@std@@@std@@QAEHXZ
_TEXT	SEGMENT PARA USE32 PUBLIC 'CODE'
_TEXT	ENDS
;	COMDAT __imp_?sputc@?$basic_streambuf@DU?$char_traits@D@std@@@std@@QAEHD@Z
_TEXT	SEGMENT PARA USE32 PUBLIC 'CODE'
_TEXT	ENDS
;	COMDAT __imp_?_Unlock@?$basic_streambuf@DU?$char_traits@D@std@@@std@@QAEXXZ
_TEXT	SEGMENT PARA USE32 PUBLIC 'CODE'
_TEXT	ENDS
;	COMDAT __imp_?gptr@?$basic_streambuf@DU?$char_traits@D@std@@@std@@IBEPADXZ
_TEXT	SEGMENT PARA USE32 PUBLIC 'CODE'
_TEXT	ENDS
;	COMDAT __imp_?pptr@?$basic_streambuf@DU?$char_traits@D@std@@@std@@IBEPADXZ
_TEXT	SEGMENT PARA USE32 PUBLIC 'CODE'
_TEXT	ENDS
;	COMDAT __imp_?egptr@?$basic_streambuf@DU?$char_traits@D@std@@@std@@IBEPADXZ
_TEXT	SEGMENT PARA USE32 PUBLIC 'CODE'
_TEXT	ENDS
;	COMDAT __imp_?gbump@?$basic_streambuf@DU?$char_traits@D@std@@@std@@IAEXH@Z
_TEXT	SEGMENT PARA USE32 PUBLIC 'CODE'
_TEXT	ENDS
;	COMDAT __imp_?epptr@?$basic_streambuf@DU?$char_traits@D@std@@@std@@IBEPADXZ
_TEXT	SEGMENT PARA USE32 PUBLIC 'CODE'
_TEXT	ENDS
;	COMDAT __imp_?_Gninc@?$basic_streambuf@DU?$char_traits@D@std@@@std@@IAEPADXZ
_TEXT	SEGMENT PARA USE32 PUBLIC 'CODE'
_TEXT	ENDS
;	COMDAT __imp_?pbump@?$basic_streambuf@DU?$char_traits@D@std@@@std@@IAEXH@Z
_TEXT	SEGMENT PARA USE32 PUBLIC 'CODE'
_TEXT	ENDS
;	COMDAT __imp_?pubsync@?$basic_streambuf@_WU?$char_traits@_W@std@@@std@@QAEHXZ
_TEXT	SEGMENT PARA USE32 PUBLIC 'CODE'
_TEXT	ENDS
;	COMDAT __imp_?sbumpc@?$basic_streambuf@_WU?$char_traits@_W@std@@@std@@QAEGXZ
_TEXT	SEGMENT PARA USE32 PUBLIC 'CODE'
_TEXT	ENDS
;	COMDAT __imp_?sputc@?$basic_streambuf@_WU?$char_traits@_W@std@@@std@@QAEG_W@Z
_TEXT	SEGMENT PARA USE32 PUBLIC 'CODE'
_TEXT	ENDS
;	COMDAT __imp_?_Unlock@?$basic_streambuf@_WU?$char_traits@_W@std@@@std@@QAEXXZ
_TEXT	SEGMENT PARA USE32 PUBLIC 'CODE'
_TEXT	ENDS
;	COMDAT __imp_?gptr@?$basic_streambuf@_WU?$char_traits@_W@std@@@std@@IBEPA_WXZ
_TEXT	SEGMENT PARA USE32 PUBLIC 'CODE'
_TEXT	ENDS
;	COMDAT __imp_?pptr@?$basic_streambuf@_WU?$char_traits@_W@std@@@std@@IBEPA_WXZ
_TEXT	SEGMENT PARA USE32 PUBLIC 'CODE'
_TEXT	ENDS
;	COMDAT __imp_?egptr@?$basic_streambuf@_WU?$char_traits@_W@std@@@std@@IBEPA_WXZ
_TEXT	SEGMENT PARA USE32 PUBLIC 'CODE'
_TEXT	ENDS
;	COMDAT __imp_?gbump@?$basic_streambuf@_WU?$char_traits@_W@std@@@std@@IAEXH@Z
_TEXT	SEGMENT PARA USE32 PUBLIC 'CODE'
_TEXT	ENDS
;	COMDAT __imp_?epptr@?$basic_streambuf@_WU?$char_traits@_W@std@@@std@@IBEPA_WXZ
_TEXT	SEGMENT PARA USE32 PUBLIC 'CODE'
_TEXT	ENDS
;	COMDAT __imp_?_Gninc@?$basic_streambuf@_WU?$char_traits@_W@std@@@std@@IAEPA_WXZ
_TEXT	SEGMENT PARA USE32 PUBLIC 'CODE'
_TEXT	ENDS
;	COMDAT __imp_?pbump@?$basic_streambuf@_WU?$char_traits@_W@std@@@std@@IAEXH@Z
_TEXT	SEGMENT PARA USE32 PUBLIC 'CODE'
_TEXT	ENDS
;	COMDAT __imp_?falsename@?$numpunct@D@std@@QBE?AV?$basic_string@DU?$char_traits@D@std@@V?$allocator@D@2@@2@XZ
_TEXT	SEGMENT PARA USE32 PUBLIC 'CODE'
_TEXT	ENDS
;	COMDAT __imp_?truename@?$numpunct@D@std@@QBE?AV?$basic_string@DU?$char_traits@D@std@@V?$allocator@D@2@@2@XZ
_TEXT	SEGMENT PARA USE32 PUBLIC 'CODE'
_TEXT	ENDS
;	COMDAT __imp_?_Tidy@?$numpunct@D@std@@AAEXXZ
_TEXT	SEGMENT PARA USE32 PUBLIC 'CODE'
_TEXT	ENDS
;	COMDAT __imp_?_Getifld@?$num_get@DV?$istreambuf_iterator@DU?$char_traits@D@std@@@std@@@std@@ABAHPADAAV?$istreambuf_iterator@DU?$char_traits@D@std@@@2@1HABVlocale@2@@Z
_TEXT	SEGMENT PARA USE32 PUBLIC 'CODE'
_TEXT	ENDS
;	COMDAT __imp_?_Getffld@?$num_get@DV?$istreambuf_iterator@DU?$char_traits@D@std@@@std@@@std@@ABAHPADAAV?$istreambuf_iterator@DU?$char_traits@D@std@@@2@1ABVlocale@2@@Z
_TEXT	SEGMENT PARA USE32 PUBLIC 'CODE'
_TEXT	ENDS
;	COMDAT __imp_?_Ffmt@?$num_put@DV?$ostreambuf_iterator@DU?$char_traits@D@std@@@std@@@std@@ABAPADPADDH@Z
_TEXT	SEGMENT PARA USE32 PUBLIC 'CODE'
_TEXT	ENDS
;	COMDAT __imp_?_Fput@?$num_put@DV?$ostreambuf_iterator@DU?$char_traits@D@std@@@std@@@std@@ABA?AV?$ostreambuf_iterator@DU?$char_traits@D@std@@@2@V32@AAVios_base@2@DPBDIIII@Z
_TEXT	SEGMENT PARA USE32 PUBLIC 'CODE'
_TEXT	ENDS
;	COMDAT __imp_?_Ifmt@?$num_put@DV?$ostreambuf_iterator@DU?$char_traits@D@std@@@std@@@std@@ABAPADPADPBDH@Z
_TEXT	SEGMENT PARA USE32 PUBLIC 'CODE'
_TEXT	ENDS
;	COMDAT __imp_?_Iput@?$num_put@DV?$ostreambuf_iterator@DU?$char_traits@D@std@@@std@@@std@@ABA?AV?$ostreambuf_iterator@DU?$char_traits@D@std@@@2@V32@AAVios_base@2@DPADI@Z
_TEXT	SEGMENT PARA USE32 PUBLIC 'CODE'
_TEXT	ENDS
;	COMDAT __imp_?_Put@?$num_put@DV?$ostreambuf_iterator@DU?$char_traits@D@std@@@std@@@std@@ABA?AV?$ostreambuf_iterator@DU?$char_traits@D@std@@@2@V32@PBDI@Z
_TEXT	SEGMENT PARA USE32 PUBLIC 'CODE'
_TEXT	ENDS
;	COMDAT __imp_?_Rep@?$num_put@DV?$ostreambuf_iterator@DU?$char_traits@D@std@@@std@@@std@@ABA?AV?$ostreambuf_iterator@DU?$char_traits@D@std@@@2@V32@DI@Z
_TEXT	SEGMENT PARA USE32 PUBLIC 'CODE'
_TEXT	ENDS
;	COMDAT __imp_?falsename@?$numpunct@_W@std@@QBE?AV?$basic_string@_WU?$char_traits@_W@std@@V?$allocator@_W@2@@2@XZ
_TEXT	SEGMENT PARA USE32 PUBLIC 'CODE'
_TEXT	ENDS
;	COMDAT __imp_?truename@?$numpunct@_W@std@@QBE?AV?$basic_string@_WU?$char_traits@_W@std@@V?$allocator@_W@2@@2@XZ
_TEXT	SEGMENT PARA USE32 PUBLIC 'CODE'
_TEXT	ENDS
;	COMDAT __imp_?_Tidy@?$numpunct@_W@std@@AAEXXZ
_TEXT	SEGMENT PARA USE32 PUBLIC 'CODE'
_TEXT	ENDS
;	COMDAT __imp_?_Getifld@?$num_get@_WV?$istreambuf_iterator@_WU?$char_traits@_W@std@@@std@@@std@@ABAHPADAAV?$istreambuf_iterator@_WU?$char_traits@_W@std@@@2@1HABVlocale@2@@Z
_TEXT	SEGMENT PARA USE32 PUBLIC 'CODE'
_TEXT	ENDS
;	COMDAT __imp_?_Getffld@?$num_get@_WV?$istreambuf_iterator@_WU?$char_traits@_W@std@@@std@@@std@@ABAHPADAAV?$istreambuf_iterator@_WU?$char_traits@_W@std@@@2@1ABVlocale@2@@Z
_TEXT	SEGMENT PARA USE32 PUBLIC 'CODE'
_TEXT	ENDS
;	COMDAT __imp_?_Ffmt@?$num_put@_WV?$ostreambuf_iterator@_WU?$char_traits@_W@std@@@std@@@std@@ABAPADPADDH@Z
_TEXT	SEGMENT PARA USE32 PUBLIC 'CODE'
_TEXT	ENDS
;	COMDAT __imp_?_Fput@?$num_put@_WV?$ostreambuf_iterator@_WU?$char_traits@_W@std@@@std@@@std@@ABA?AV?$ostreambuf_iterator@_WU?$char_traits@_W@std@@@2@V32@AAVios_base@2@_WPBDIIII@Z
_TEXT	SEGMENT PARA USE32 PUBLIC 'CODE'
_TEXT	ENDS
;	COMDAT __imp_?_Ifmt@?$num_put@_WV?$ostreambuf_iterator@_WU?$char_traits@_W@std@@@std@@@std@@ABAPADPADPBDH@Z
_TEXT	SEGMENT PARA USE32 PUBLIC 'CODE'
_TEXT	ENDS
;	COMDAT __imp_?_Iput@?$num_put@_WV?$ostreambuf_iterator@_WU?$char_traits@_W@std@@@std@@@std@@ABA?AV?$ostreambuf_iterator@_WU?$char_traits@_W@std@@@2@V32@AAVios_base@2@_WPADI@Z
_TEXT	SEGMENT PARA USE32 PUBLIC 'CODE'
_TEXT	ENDS
;	COMDAT __imp_?_Put@?$num_put@_WV?$ostreambuf_iterator@_WU?$char_traits@_W@std@@@std@@@std@@ABA?AV?$ostreambuf_iterator@_WU?$char_traits@_W@std@@@2@V32@PB_WI@Z
_TEXT	SEGMENT PARA USE32 PUBLIC 'CODE'
_TEXT	ENDS
;	COMDAT __imp_?_Rep@?$num_put@_WV?$ostreambuf_iterator@_WU?$char_traits@_W@std@@@std@@@std@@ABA?AV?$ostreambuf_iterator@_WU?$char_traits@_W@std@@@2@V32@_WI@Z
_TEXT	SEGMENT PARA USE32 PUBLIC 'CODE'
_TEXT	ENDS
;	COMDAT __imp_?clear@?$basic_ios@DU?$char_traits@D@std@@@std@@QAEXH_N@Z
_TEXT	SEGMENT PARA USE32 PUBLIC 'CODE'
_TEXT	ENDS
;	COMDAT __imp_?clear@?$basic_ios@_WU?$char_traits@_W@std@@@std@@QAEXH_N@Z
_TEXT	SEGMENT PARA USE32 PUBLIC 'CODE'
_TEXT	ENDS
;	COMDAT __imp_?_Ipfx@?$basic_istream@DU?$char_traits@D@std@@@std@@QAE_N_N@Z
_TEXT	SEGMENT PARA USE32 PUBLIC 'CODE'
_TEXT	ENDS
;	COMDAT __imp_?_Ipfx@?$basic_istream@_WU?$char_traits@_W@std@@@std@@QAE_N_N@Z
_TEXT	SEGMENT PARA USE32 PUBLIC 'CODE'
_TEXT	ENDS
;	COMDAT ??0_Sentry_base@?$basic_istream@DU?$char_traits@D@std@@@std@@QAE@AAV12@@Z
_TEXT	SEGMENT PARA USE32 PUBLIC 'CODE'
_TEXT	ENDS
;	COMDAT ??0_Sentry_base@?$basic_istream@_WU?$char_traits@_W@std@@@std@@QAE@AAV12@@Z
_TEXT	SEGMENT PARA USE32 PUBLIC 'CODE'
_TEXT	ENDS
;	COMDAT ?GetData@CAtlSafeAllocBufferNode@?$CAtlSafeAllocBufferManager@VCCRTAllocator@ATL@@@_ATL_SAFE_ALLOCA_IMPL@ATL@@QAEPAXXZ
_TEXT	SEGMENT PARA USE32 PUBLIC 'CODE'
_TEXT	ENDS
;	COMDAT ??0?$fpos@H@std@@QAE@J@Z
_TEXT	SEGMENT PARA USE32 PUBLIC 'CODE'
_TEXT	ENDS
;	COMDAT ??0sentry@?$basic_ostream@DU?$char_traits@D@std@@@std@@QAE@AAV12@@Z
_TEXT	SEGMENT PARA USE32 PUBLIC 'CODE'
_TEXT	ENDS
;	COMDAT ??1sentry@?$basic_ostream@DU?$char_traits@D@std@@@std@@QAE@XZ
_TEXT	SEGMENT PARA USE32 PUBLIC 'CODE'
_TEXT	ENDS
;	COMDAT ??Bsentry@?$basic_ostream@DU?$char_traits@D@std@@@std@@QBE_NXZ
_TEXT	SEGMENT PARA USE32 PUBLIC 'CODE'
_TEXT	ENDS
;	COMDAT ??0sentry@?$basic_ostream@_WU?$char_traits@_W@std@@@std@@QAE@AAV12@@Z
_TEXT	SEGMENT PARA USE32 PUBLIC 'CODE'
_TEXT	ENDS
;	COMDAT ??1sentry@?$basic_ostream@_WU?$char_traits@_W@std@@@std@@QAE@XZ
_TEXT	SEGMENT PARA USE32 PUBLIC 'CODE'
_TEXT	ENDS
;	COMDAT ??Bsentry@?$basic_ostream@_WU?$char_traits@_W@std@@@std@@QBE_NXZ
_TEXT	SEGMENT PARA USE32 PUBLIC 'CODE'
_TEXT	ENDS
;	COMDAT ?AllocateHeap@?$CTempBuffer@D$0IA@VCCRTAllocator@ATL@@@ATL@@AAEXI@Z
_TEXT	SEGMENT PARA USE32 PUBLIC 'CODE'
_TEXT	ENDS
;	COMDAT __imp_??0?$CSimpleStringT@D$00@ATL@@QAE@PBDHPAUIAtlStringMgr@1@@Z
_TEXT	SEGMENT PARA USE32 PUBLIC 'CODE'
_TEXT	ENDS
;	COMDAT __imp_?AppendChar@?$CSimpleStringT@D$00@ATL@@QAEXD@Z
_TEXT	SEGMENT PARA USE32 PUBLIC 'CODE'
_TEXT	ENDS
;	COMDAT __imp_?ReleaseBufferSetLength@?$CSimpleStringT@D$00@ATL@@QAEXH@Z
_TEXT	SEGMENT PARA USE32 PUBLIC 'CODE'
_TEXT	ENDS
;	COMDAT __imp_?SetString@?$CSimpleStringT@D$00@ATL@@QAEXPBD@Z
_TEXT	SEGMENT PARA USE32 PUBLIC 'CODE'
_TEXT	ENDS
;	COMDAT __imp_?SetString@?$CSimpleStringT@D$00@ATL@@QAEXPBDH@Z
_TEXT	SEGMENT PARA USE32 PUBLIC 'CODE'
_TEXT	ENDS
;	COMDAT __imp_?Attach@?$CSimpleStringT@D$00@ATL@@AAEXPAUCStringData@2@@Z
_TEXT	SEGMENT PARA USE32 PUBLIC 'CODE'
_TEXT	ENDS
;	COMDAT __imp_?PrepareWrite2@?$CSimpleStringT@D$00@ATL@@AAEXH@Z
_TEXT	SEGMENT PARA USE32 PUBLIC 'CODE'
_TEXT	ENDS
;	COMDAT __imp_?CloneData@?$CSimpleStringT@D$00@ATL@@CAPAUCStringData@2@PAU32@@Z
_TEXT	SEGMENT PARA USE32 PUBLIC 'CODE'
_TEXT	ENDS
;	COMDAT ?GetFormattedLength@?$ChTraitsCRT@D@ATL@@SAHPBDPAD@Z
_TEXT	SEGMENT PARA USE32 PUBLIC 'CODE'
_TEXT	ENDS
;	COMDAT ?Format@?$ChTraitsCRT@D@ATL@@SAHPADPBD0@Z
_TEXT	SEGMENT PARA USE32 PUBLIC 'CODE'
_TEXT	ENDS
;	COMDAT ?GetBaseTypeLength@?$ChTraitsCRT@D@ATL@@SAHPB_WH@Z
_TEXT	SEGMENT PARA USE32 PUBLIC 'CODE'
_TEXT	ENDS
;	COMDAT ?ConvertToBaseType@?$ChTraitsCRT@D@ATL@@SAXPADHPB_WH@Z
_TEXT	SEGMENT PARA USE32 PUBLIC 'CODE'
_TEXT	ENDS
;	COMDAT __imp_?append@?$basic_string@DU?$char_traits@D@std@@V?$allocator@D@2@@std@@QAEAAV12@ABV12@@Z
_TEXT	SEGMENT PARA USE32 PUBLIC 'CODE'
_TEXT	ENDS
;	COMDAT __imp_?append@?$basic_string@DU?$char_traits@D@std@@V?$allocator@D@2@@std@@QAEAAV12@PBDI@Z
_TEXT	SEGMENT PARA USE32 PUBLIC 'CODE'
_TEXT	ENDS
;	COMDAT __imp_?append@?$basic_string@DU?$char_traits@D@std@@V?$allocator@D@2@@std@@QAEAAV12@ID@Z
_TEXT	SEGMENT PARA USE32 PUBLIC 'CODE'
_TEXT	ENDS
;	COMDAT __imp_?assign@?$basic_string@DU?$char_traits@D@std@@V?$allocator@D@2@@std@@QAEAAV12@PBDI@Z
_TEXT	SEGMENT PARA USE32 PUBLIC 'CODE'
_TEXT	ENDS
;	COMDAT __imp_?assign@?$basic_string@DU?$char_traits@D@std@@V?$allocator@D@2@@std@@QAEAAV12@ID@Z
_TEXT	SEGMENT PARA USE32 PUBLIC 'CODE'
_TEXT	ENDS
;	COMDAT __imp_?insert@?$basic_string@DU?$char_traits@D@std@@V?$allocator@D@2@@std@@QAEAAV12@IID@Z
_TEXT	SEGMENT PARA USE32 PUBLIC 'CODE'
_TEXT	ENDS
;	COMDAT __imp_?erase@?$basic_string@DU?$char_traits@D@std@@V?$allocator@D@2@@std@@QAEAAV12@II@Z
_TEXT	SEGMENT PARA USE32 PUBLIC 'CODE'
_TEXT	ENDS
;	COMDAT __imp_??A?$basic_string@DU?$char_traits@D@std@@V?$allocator@D@2@@std@@QAEAADI@Z
_TEXT	SEGMENT PARA USE32 PUBLIC 'CODE'
_TEXT	ENDS
;	COMDAT __imp_?_Eos@?$basic_string@DU?$char_traits@D@std@@V?$allocator@D@2@@std@@IAEXI@Z
_TEXT	SEGMENT PARA USE32 PUBLIC 'CODE'
_TEXT	ENDS
;	COMDAT __imp_?_Grow@?$basic_string@DU?$char_traits@D@std@@V?$allocator@D@2@@std@@IAE_NI_N@Z
_TEXT	SEGMENT PARA USE32 PUBLIC 'CODE'
_TEXT	ENDS
;	COMDAT __imp_?_Myptr@?$basic_string@DU?$char_traits@D@std@@V?$allocator@D@2@@std@@QAEPADXZ
_TEXT	SEGMENT PARA USE32 PUBLIC 'CODE'
_TEXT	ENDS
;	COMDAT ?deallocate@?$allocator@D@std@@QAEXPADI@Z
_TEXT	SEGMENT PARA USE32 PUBLIC 'CODE'
_TEXT	ENDS
;	COMDAT __imp_?append@?$basic_string@_WU?$char_traits@_W@std@@V?$allocator@_W@2@@std@@QAEAAV12@ABV12@@Z
_TEXT	SEGMENT PARA USE32 PUBLIC 'CODE'
_TEXT	ENDS
;	COMDAT __imp_?append@?$basic_string@_WU?$char_traits@_W@std@@V?$allocator@_W@2@@std@@QAEAAV12@I_W@Z
_TEXT	SEGMENT PARA USE32 PUBLIC 'CODE'
_TEXT	ENDS
;	COMDAT __imp_?assign@?$basic_string@_WU?$char_traits@_W@std@@V?$allocator@_W@2@@std@@QAEAAV12@ABV12@II@Z
_TEXT	SEGMENT PARA USE32 PUBLIC 'CODE'
_TEXT	ENDS
;	COMDAT __imp_?assign@?$basic_string@_WU?$char_traits@_W@std@@V?$allocator@_W@2@@std@@QAEAAV12@PB_W@Z
_TEXT	SEGMENT PARA USE32 PUBLIC 'CODE'
_TEXT	ENDS
;	COMDAT __imp_?assign@?$basic_string@_WU?$char_traits@_W@std@@V?$allocator@_W@2@@std@@QAEAAV12@I_W@Z
_TEXT	SEGMENT PARA USE32 PUBLIC 'CODE'
_TEXT	ENDS
;	COMDAT __imp_?_Tidy@?$basic_string@_WU?$char_traits@_W@std@@V?$allocator@_W@2@@std@@IAEX_NI@Z
_TEXT	SEGMENT PARA USE32 PUBLIC 'CODE'
_TEXT	ENDS
;	COMDAT __imp_?_Myptr@?$basic_string@_WU?$char_traits@_W@std@@V?$allocator@_W@2@@std@@QBEPB_WXZ
_TEXT	SEGMENT PARA USE32 PUBLIC 'CODE'
_TEXT	ENDS
;	COMDAT __imp_?_Lock@?$basic_streambuf@DU?$char_traits@D@std@@@std@@QAEXXZ
_TEXT	SEGMENT PARA USE32 PUBLIC 'CODE'
_TEXT	ENDS
;	COMDAT __imp_?_Pninc@?$basic_streambuf@DU?$char_traits@D@std@@@std@@IAEPADXZ
_TEXT	SEGMENT PARA USE32 PUBLIC 'CODE'
_TEXT	ENDS
;	COMDAT __imp_?_Lock@?$basic_streambuf@_WU?$char_traits@_W@std@@@std@@QAEXXZ
_TEXT	SEGMENT PARA USE32 PUBLIC 'CODE'
_TEXT	ENDS
;	COMDAT __imp_?_Pninc@?$basic_streambuf@_WU?$char_traits@_W@std@@@std@@IAEPA_WXZ
_TEXT	SEGMENT PARA USE32 PUBLIC 'CODE'
_TEXT	ENDS
;	COMDAT __imp_?decimal_point@?$numpunct@D@std@@QBEDXZ
_TEXT	SEGMENT PARA USE32 PUBLIC 'CODE'
_TEXT	ENDS
;	COMDAT __imp_?thousands_sep@?$numpunct@D@std@@QBEDXZ
_TEXT	SEGMENT PARA USE32 PUBLIC 'CODE'
_TEXT	ENDS
;	COMDAT __imp_?grouping@?$numpunct@D@std@@QBE?AV?$basic_string@DU?$char_traits@D@std@@V?$allocator@D@2@@2@XZ
_TEXT	SEGMENT PARA USE32 PUBLIC 'CODE'
_TEXT	ENDS
;	COMDAT __imp_?_Putc@?$num_put@DV?$ostreambuf_iterator@DU?$char_traits@D@std@@@std@@@std@@ABA?AV?$ostreambuf_iterator@DU?$char_traits@D@std@@@2@V32@PBDI@Z
_TEXT	SEGMENT PARA USE32 PUBLIC 'CODE'
_TEXT	ENDS
;	COMDAT __imp_?_Putgrouped@?$num_put@DV?$ostreambuf_iterator@DU?$char_traits@D@std@@@std@@@std@@ABA?AV?$ostreambuf_iterator@DU?$char_traits@D@std@@@2@V32@PBDID@Z
_TEXT	SEGMENT PARA USE32 PUBLIC 'CODE'
_TEXT	ENDS
;	COMDAT __imp_?decimal_point@?$numpunct@_W@std@@QBE_WXZ
_TEXT	SEGMENT PARA USE32 PUBLIC 'CODE'
_TEXT	ENDS
;	COMDAT __imp_?thousands_sep@?$numpunct@_W@std@@QBE_WXZ
_TEXT	SEGMENT PARA USE32 PUBLIC 'CODE'
_TEXT	ENDS
;	COMDAT __imp_?grouping@?$numpunct@_W@std@@QBE?AV?$basic_string@DU?$char_traits@D@std@@V?$allocator@D@2@@2@XZ
_TEXT	SEGMENT PARA USE32 PUBLIC 'CODE'
_TEXT	ENDS
;	COMDAT __imp_?_Putc@?$num_put@_WV?$ostreambuf_iterator@_WU?$char_traits@_W@std@@@std@@@std@@ABA?AV?$ostreambuf_iterator@_WU?$char_traits@_W@std@@@2@V32@PBDI@Z
_TEXT	SEGMENT PARA USE32 PUBLIC 'CODE'
_TEXT	ENDS
;	COMDAT __imp_?_Putgrouped@?$num_put@_WV?$ostreambuf_iterator@_WU?$char_traits@_W@std@@@std@@@std@@ABA?AV?$ostreambuf_iterator@_WU?$char_traits@_W@std@@@2@V32@PBDI_W@Z
_TEXT	SEGMENT PARA USE32 PUBLIC 'CODE'
_TEXT	ENDS
;	COMDAT __imp_?tie@?$basic_ios@DU?$char_traits@D@std@@@std@@QBEPAV?$basic_ostream@DU?$char_traits@D@std@@@2@XZ
_TEXT	SEGMENT PARA USE32 PUBLIC 'CODE'
_TEXT	ENDS
;	COMDAT __imp_?tie@?$basic_ios@_WU?$char_traits@_W@std@@@std@@QBEPAV?$basic_ostream@_WU?$char_traits@_W@std@@@2@XZ
_TEXT	SEGMENT PARA USE32 PUBLIC 'CODE'
_TEXT	ENDS
;	COMDAT __imp_?_Osfx@?$basic_ostream@DU?$char_traits@D@std@@@std@@QAEXXZ
_TEXT	SEGMENT PARA USE32 PUBLIC 'CODE'
_TEXT	ENDS
;	COMDAT __imp_?_Osfx@?$basic_ostream@_WU?$char_traits@_W@std@@@std@@QAEXXZ
_TEXT	SEGMENT PARA USE32 PUBLIC 'CODE'
_TEXT	ENDS
;	COMDAT ??D?$istreambuf_iterator@DU?$char_traits@D@std@@@std@@QBEDXZ
_TEXT	SEGMENT PARA USE32 PUBLIC 'CODE'
_TEXT	ENDS
;	COMDAT ??E?$istreambuf_iterator@DU?$char_traits@D@std@@@std@@QAEAAV01@XZ
_TEXT	SEGMENT PARA USE32 PUBLIC 'CODE'
_TEXT	ENDS
;	COMDAT ??4?$ostreambuf_iterator@DU?$char_traits@D@std@@@std@@QAEAAV01@D@Z
_TEXT	SEGMENT PARA USE32 PUBLIC 'CODE'
_TEXT	ENDS
;	COMDAT ??D?$ostreambuf_iterator@DU?$char_traits@D@std@@@std@@QAEAAV01@XZ
_TEXT	SEGMENT PARA USE32 PUBLIC 'CODE'
_TEXT	ENDS
;	COMDAT ??E?$ostreambuf_iterator@DU?$char_traits@D@std@@@std@@QAEAAV01@XZ
_TEXT	SEGMENT PARA USE32 PUBLIC 'CODE'
_TEXT	ENDS
;	COMDAT ??D?$istreambuf_iterator@_WU?$char_traits@_W@std@@@std@@QBE_WXZ
_TEXT	SEGMENT PARA USE32 PUBLIC 'CODE'
_TEXT	ENDS
;	COMDAT ??E?$istreambuf_iterator@_WU?$char_traits@_W@std@@@std@@QAEAAV01@XZ
_TEXT	SEGMENT PARA USE32 PUBLIC 'CODE'
_TEXT	ENDS
;	COMDAT ??4?$ostreambuf_iterator@_WU?$char_traits@_W@std@@@std@@QAEAAV01@_W@Z
_TEXT	SEGMENT PARA USE32 PUBLIC 'CODE'
_TEXT	ENDS
;	COMDAT ??D?$ostreambuf_iterator@_WU?$char_traits@_W@std@@@std@@QAEAAV01@XZ
_TEXT	SEGMENT PARA USE32 PUBLIC 'CODE'
_TEXT	ENDS
;	COMDAT ??E?$ostreambuf_iterator@_WU?$char_traits@_W@std@@@std@@QAEAAV01@XZ
_TEXT	SEGMENT PARA USE32 PUBLIC 'CODE'
_TEXT	ENDS
;	COMDAT ??0_Sentry_base@?$basic_ostream@DU?$char_traits@D@std@@@std@@QAE@AAV12@@Z
_TEXT	SEGMENT PARA USE32 PUBLIC 'CODE'
_TEXT	ENDS
;	COMDAT ??1_Sentry_base@?$basic_ostream@DU?$char_traits@D@std@@@std@@QAE@XZ
_TEXT	SEGMENT PARA USE32 PUBLIC 'CODE'
_TEXT	ENDS
;	COMDAT ??0_Sentry_base@?$basic_ostream@_WU?$char_traits@_W@std@@@std@@QAE@AAV12@@Z
_TEXT	SEGMENT PARA USE32 PUBLIC 'CODE'
_TEXT	ENDS
;	COMDAT ??1_Sentry_base@?$basic_ostream@_WU?$char_traits@_W@std@@@std@@QAE@XZ
_TEXT	SEGMENT PARA USE32 PUBLIC 'CODE'
_TEXT	ENDS
;	COMDAT __imp_?Empty@?$CSimpleStringT@D$00@ATL@@QAEXXZ
_TEXT	SEGMENT PARA USE32 PUBLIC 'CODE'
_TEXT	ENDS
;	COMDAT __imp_?CopyChars@?$CSimpleStringT@D$00@ATL@@SAXPADPBDH@Z
_TEXT	SEGMENT PARA USE32 PUBLIC 'CODE'
_TEXT	ENDS
;	COMDAT __imp_?CopyCharsOverlapped@?$CSimpleStringT@D$00@ATL@@SAXPADPBDH@Z
_TEXT	SEGMENT PARA USE32 PUBLIC 'CODE'
_TEXT	ENDS
;	COMDAT __imp_?ThrowMemoryException@?$CSimpleStringT@D$00@ATL@@KAXXZ
_TEXT	SEGMENT PARA USE32 PUBLIC 'CODE'
_TEXT	ENDS
;	COMDAT __imp_?Fork@?$CSimpleStringT@D$00@ATL@@AAEXH@Z
_TEXT	SEGMENT PARA USE32 PUBLIC 'CODE'
_TEXT	ENDS
;	COMDAT __imp_?Reallocate@?$CSimpleStringT@D$00@ATL@@AAEXH@Z
_TEXT	SEGMENT PARA USE32 PUBLIC 'CODE'
_TEXT	ENDS
;	COMDAT __imp_?append@?$basic_string@DU?$char_traits@D@std@@V?$allocator@D@2@@std@@QAEAAV12@ABV12@II@Z
_TEXT	SEGMENT PARA USE32 PUBLIC 'CODE'
_TEXT	ENDS
;	COMDAT __imp_?max_size@?$basic_string@DU?$char_traits@D@std@@V?$allocator@D@2@@std@@QBEIXZ
_TEXT	SEGMENT PARA USE32 PUBLIC 'CODE'
_TEXT	ENDS
;	COMDAT __imp_?_Copy@?$basic_string@DU?$char_traits@D@std@@V?$allocator@D@2@@std@@IAEXII@Z
_TEXT	SEGMENT PARA USE32 PUBLIC 'CODE'
_TEXT	ENDS
;	COMDAT __imp_?_Inside@?$basic_string@DU?$char_traits@D@std@@V?$allocator@D@2@@std@@IAE_NPBD@Z
_TEXT	SEGMENT PARA USE32 PUBLIC 'CODE'
_TEXT	ENDS
;	COMDAT __imp_?append@?$basic_string@_WU?$char_traits@_W@std@@V?$allocator@_W@2@@std@@QAEAAV12@ABV12@II@Z
_TEXT	SEGMENT PARA USE32 PUBLIC 'CODE'
_TEXT	ENDS
;	COMDAT __imp_?assign@?$basic_string@_WU?$char_traits@_W@std@@V?$allocator@_W@2@@std@@QAEAAV12@PB_WI@Z
_TEXT	SEGMENT PARA USE32 PUBLIC 'CODE'
_TEXT	ENDS
;	COMDAT __imp_?erase@?$basic_string@_WU?$char_traits@_W@std@@V?$allocator@_W@2@@std@@QAEAAV12@II@Z
_TEXT	SEGMENT PARA USE32 PUBLIC 'CODE'
_TEXT	ENDS
;	COMDAT __imp_?_Eos@?$basic_string@_WU?$char_traits@_W@std@@V?$allocator@_W@2@@std@@IAEXI@Z
_TEXT	SEGMENT PARA USE32 PUBLIC 'CODE'
_TEXT	ENDS
;	COMDAT __imp_?_Grow@?$basic_string@_WU?$char_traits@_W@std@@V?$allocator@_W@2@@std@@IAE_NI_N@Z
_TEXT	SEGMENT PARA USE32 PUBLIC 'CODE'
_TEXT	ENDS
;	COMDAT __imp_?_Myptr@?$basic_string@_WU?$char_traits@_W@std@@V?$allocator@_W@2@@std@@QAEPA_WXZ
_TEXT	SEGMENT PARA USE32 PUBLIC 'CODE'
_TEXT	ENDS
;	COMDAT ?deallocate@?$allocator@_W@std@@QAEXPA_WI@Z
_TEXT	SEGMENT PARA USE32 PUBLIC 'CODE'
_TEXT	ENDS
;	COMDAT ?_Inc@?$istreambuf_iterator@DU?$char_traits@D@std@@@std@@AAEXXZ
_TEXT	SEGMENT PARA USE32 PUBLIC 'CODE'
_TEXT	ENDS
;	COMDAT ?_Peek@?$istreambuf_iterator@DU?$char_traits@D@std@@@std@@AAEDXZ
_TEXT	SEGMENT PARA USE32 PUBLIC 'CODE'
_TEXT	ENDS
;	COMDAT ?_Inc@?$istreambuf_iterator@_WU?$char_traits@_W@std@@@std@@AAEXXZ
_TEXT	SEGMENT PARA USE32 PUBLIC 'CODE'
_TEXT	ENDS
;	COMDAT ?_Peek@?$istreambuf_iterator@_WU?$char_traits@_W@std@@@std@@AAE_WXZ
_TEXT	SEGMENT PARA USE32 PUBLIC 'CODE'
_TEXT	ENDS
;	COMDAT ?allocate@?$allocator@D@std@@QAEPADI@Z
_TEXT	SEGMENT PARA USE32 PUBLIC 'CODE'
_TEXT	ENDS
;	COMDAT ?max_size@?$allocator@D@std@@QBEIXZ
_TEXT	SEGMENT PARA USE32 PUBLIC 'CODE'
_TEXT	ENDS
;	COMDAT __imp_?max_size@?$basic_string@_WU?$char_traits@_W@std@@V?$allocator@_W@2@@std@@QBEIXZ
_TEXT	SEGMENT PARA USE32 PUBLIC 'CODE'
_TEXT	ENDS
;	COMDAT __imp_?_Copy@?$basic_string@_WU?$char_traits@_W@std@@V?$allocator@_W@2@@std@@IAEXII@Z
_TEXT	SEGMENT PARA USE32 PUBLIC 'CODE'
_TEXT	ENDS
;	COMDAT __imp_?_Inside@?$basic_string@_WU?$char_traits@_W@std@@V?$allocator@_W@2@@std@@IAE_NPB_W@Z
_TEXT	SEGMENT PARA USE32 PUBLIC 'CODE'
_TEXT	ENDS
;	COMDAT ?allocate@?$allocator@_W@std@@QAEPA_WI@Z
_TEXT	SEGMENT PARA USE32 PUBLIC 'CODE'
_TEXT	ENDS
;	COMDAT ?max_size@?$allocator@_W@std@@QBEIXZ
_TEXT	SEGMENT PARA USE32 PUBLIC 'CODE'
_TEXT	ENDS
;	COMDAT ??$use_facet@V?$ctype@D@std@@@std@@YAABV?$ctype@D@0@ABVlocale@0@@Z
_TEXT	SEGMENT PARA USE32 PUBLIC 'CODE'
_TEXT	ENDS
;	COMDAT ??$use_facet@V?$ctype@_W@std@@@std@@YAABV?$ctype@_W@0@ABVlocale@0@@Z
_TEXT	SEGMENT PARA USE32 PUBLIC 'CODE'
_TEXT	ENDS
;	COMDAT ??$?HDU?$char_traits@D@std@@V?$allocator@D@1@@std@@YA?AV?$basic_string@DU?$char_traits@D@std@@V?$allocator@D@2@@0@ABV10@0@Z
_TEXT	SEGMENT PARA USE32 PUBLIC 'CODE'
_TEXT	ENDS
;	COMDAT ??$?HDU?$char_traits@D@std@@V?$allocator@D@1@@std@@YA?AV?$basic_string@DU?$char_traits@D@std@@V?$allocator@D@2@@0@PBDABV10@@Z
_TEXT	SEGMENT PARA USE32 PUBLIC 'CODE'
_TEXT	ENDS
;	COMDAT ??$?HDU?$char_traits@D@std@@V?$allocator@D@1@@std@@YA?AV?$basic_string@DU?$char_traits@D@std@@V?$allocator@D@2@@0@DABV10@@Z
_TEXT	SEGMENT PARA USE32 PUBLIC 'CODE'
_TEXT	ENDS
;	COMDAT ??$?HDU?$char_traits@D@std@@V?$allocator@D@1@@std@@YA?AV?$basic_string@DU?$char_traits@D@std@@V?$allocator@D@2@@0@ABV10@PBD@Z
_TEXT	SEGMENT PARA USE32 PUBLIC 'CODE'
_TEXT	ENDS
;	COMDAT ??$?HDU?$char_traits@D@std@@V?$allocator@D@1@@std@@YA?AV?$basic_string@DU?$char_traits@D@std@@V?$allocator@D@2@@0@ABV10@D@Z
_TEXT	SEGMENT PARA USE32 PUBLIC 'CODE'
_TEXT	ENDS
;	COMDAT ??$?H_WU?$char_traits@_W@std@@V?$allocator@_W@1@@std@@YA?AV?$basic_string@_WU?$char_traits@_W@std@@V?$allocator@_W@2@@0@ABV10@0@Z
_TEXT	SEGMENT PARA USE32 PUBLIC 'CODE'
_TEXT	ENDS
;	COMDAT ??$?H_WU?$char_traits@_W@std@@V?$allocator@_W@1@@std@@YA?AV?$basic_string@_WU?$char_traits@_W@std@@V?$allocator@_W@2@@0@PB_WABV10@@Z
_TEXT	SEGMENT PARA USE32 PUBLIC 'CODE'
_TEXT	ENDS
;	COMDAT ??$?H_WU?$char_traits@_W@std@@V?$allocator@_W@1@@std@@YA?AV?$basic_string@_WU?$char_traits@_W@std@@V?$allocator@_W@2@@0@_WABV10@@Z
_TEXT	SEGMENT PARA USE32 PUBLIC 'CODE'
_TEXT	ENDS
;	COMDAT ??$?H_WU?$char_traits@_W@std@@V?$allocator@_W@1@@std@@YA?AV?$basic_string@_WU?$char_traits@_W@std@@V?$allocator@_W@2@@0@ABV10@PB_W@Z
_TEXT	SEGMENT PARA USE32 PUBLIC 'CODE'
_TEXT	ENDS
;	COMDAT ??$?H_WU?$char_traits@_W@std@@V?$allocator@_W@1@@std@@YA?AV?$basic_string@_WU?$char_traits@_W@std@@V?$allocator@_W@2@@0@ABV10@_W@Z
_TEXT	SEGMENT PARA USE32 PUBLIC 'CODE'
_TEXT	ENDS
;	COMDAT ??$?5DU?$char_traits@D@std@@V?$allocator@D@1@@std@@YAAAV?$basic_istream@DU?$char_traits@D@std@@@0@AAV10@AAV?$basic_string@DU?$char_traits@D@std@@V?$allocator@D@2@@0@@Z
_TEXT	SEGMENT PARA USE32 PUBLIC 'CODE'
_TEXT	ENDS
;	COMDAT ??$getline@DU?$char_traits@D@std@@V?$allocator@D@2@@std@@YAAAV?$basic_istream@DU?$char_traits@D@std@@@0@AAV10@AAV?$basic_string@DU?$char_traits@D@std@@V?$allocator@D@2@@0@@Z
_TEXT	SEGMENT PARA USE32 PUBLIC 'CODE'
_TEXT	ENDS
;	COMDAT ??$getline@DU?$char_traits@D@std@@V?$allocator@D@2@@std@@YAAAV?$basic_istream@DU?$char_traits@D@std@@@0@AAV10@AAV?$basic_string@DU?$char_traits@D@std@@V?$allocator@D@2@@0@D@Z
_TEXT	SEGMENT PARA USE32 PUBLIC 'CODE'
_TEXT	ENDS
;	COMDAT ??$?6DU?$char_traits@D@std@@V?$allocator@D@1@@std@@YAAAV?$basic_ostream@DU?$char_traits@D@std@@@0@AAV10@ABV?$basic_string@DU?$char_traits@D@std@@V?$allocator@D@2@@0@@Z
_TEXT	SEGMENT PARA USE32 PUBLIC 'CODE'
_TEXT	ENDS
;	COMDAT ??$?5_WU?$char_traits@_W@std@@V?$allocator@_W@1@@std@@YAAAV?$basic_istream@_WU?$char_traits@_W@std@@@0@AAV10@AAV?$basic_string@_WU?$char_traits@_W@std@@V?$allocator@_W@2@@0@@Z
_TEXT	SEGMENT PARA USE32 PUBLIC 'CODE'
_TEXT	ENDS
;	COMDAT ??$getline@_WU?$char_traits@_W@std@@V?$allocator@_W@2@@std@@YAAAV?$basic_istream@_WU?$char_traits@_W@std@@@0@AAV10@AAV?$basic_string@_WU?$char_traits@_W@std@@V?$allocator@_W@2@@0@@Z
_TEXT	SEGMENT PARA USE32 PUBLIC 'CODE'
_TEXT	ENDS
;	COMDAT ??$getline@_WU?$char_traits@_W@std@@V?$allocator@_W@2@@std@@YAAAV?$basic_istream@_WU?$char_traits@_W@std@@@0@AAV10@AAV?$basic_string@_WU?$char_traits@_W@std@@V?$allocator@_W@2@@0@_W@Z
_TEXT	SEGMENT PARA USE32 PUBLIC 'CODE'
_TEXT	ENDS
;	COMDAT ??$?6_WU?$char_traits@_W@std@@V?$allocator@_W@1@@std@@YAAAV?$basic_ostream@_WU?$char_traits@_W@std@@@0@AAV10@ABV?$basic_string@_WU?$char_traits@_W@std@@V?$allocator@_W@2@@0@@Z
_TEXT	SEGMENT PARA USE32 PUBLIC 'CODE'
_TEXT	ENDS
;	COMDAT ??$use_facet@V?$numpunct@D@std@@@std@@YAABV?$numpunct@D@0@ABVlocale@0@@Z
_TEXT	SEGMENT PARA USE32 PUBLIC 'CODE'
_TEXT	ENDS
;	COMDAT ??$_Getloctxt@DV?$istreambuf_iterator@DU?$char_traits@D@std@@@std@@@std@@YAHAAV?$istreambuf_iterator@DU?$char_traits@D@std@@@0@0IPBD@Z
_TEXT	SEGMENT PARA USE32 PUBLIC 'CODE'
_TEXT	ENDS
;	COMDAT ??$?8DU?$char_traits@D@std@@@std@@YA_NABV?$istreambuf_iterator@DU?$char_traits@D@std@@@0@0@Z
_TEXT	SEGMENT PARA USE32 PUBLIC 'CODE'
_TEXT	ENDS
;	COMDAT ??$use_facet@V?$numpunct@_W@std@@@std@@YAABV?$numpunct@_W@0@ABVlocale@0@@Z
_TEXT	SEGMENT PARA USE32 PUBLIC 'CODE'
_TEXT	ENDS
;	COMDAT ??$_Getloctxt@_WV?$istreambuf_iterator@_WU?$char_traits@_W@std@@@std@@@std@@YAHAAV?$istreambuf_iterator@_WU?$char_traits@_W@std@@@0@0IPB_W@Z
_TEXT	SEGMENT PARA USE32 PUBLIC 'CODE'
_TEXT	ENDS
;	COMDAT ??$?8_WU?$char_traits@_W@std@@@std@@YA_NABV?$istreambuf_iterator@_WU?$char_traits@_W@std@@@0@0@Z
_TEXT	SEGMENT PARA USE32 PUBLIC 'CODE'
_TEXT	ENDS
;	COMDAT ??$_Maklocchr@D@std@@YADDPADABU_Cvtvec@@@Z
_TEXT	SEGMENT PARA USE32 PUBLIC 'CODE'
_TEXT	ENDS
;	COMDAT ??$?9DU?$char_traits@D@std@@@std@@YA_NABV?$istreambuf_iterator@DU?$char_traits@D@std@@@0@0@Z
_TEXT	SEGMENT PARA USE32 PUBLIC 'CODE'
_TEXT	ENDS
;	COMDAT ??$_Maklocbyte@D@std@@YADDABU_Cvtvec@@@Z
_TEXT	SEGMENT PARA USE32 PUBLIC 'CODE'
_TEXT	ENDS
;	COMDAT ??$?9_WU?$char_traits@_W@std@@@std@@YA_NABV?$istreambuf_iterator@_WU?$char_traits@_W@std@@@0@0@Z
_TEXT	SEGMENT PARA USE32 PUBLIC 'CODE'
_TEXT	ENDS
;	COMDAT ??$_Allocate@D@std@@YAPADIPAD@Z
_TEXT	SEGMENT PARA USE32 PUBLIC 'CODE'
_TEXT	ENDS
;	COMDAT ??$_Allocate@_W@std@@YAPA_WIPA_W@Z
_TEXT	SEGMENT PARA USE32 PUBLIC 'CODE'
_TEXT	ENDS
;	COMDAT __imp_??Y?$basic_string@DU?$char_traits@D@std@@V?$allocator@D@2@@std@@QAEAAV01@PBD@Z
_TEXT	SEGMENT PARA USE32 PUBLIC 'CODE'
_TEXT	ENDS
;	COMDAT __imp_??A?$basic_string@DU?$char_traits@D@std@@V?$allocator@D@2@@std@@QBEABDI@Z
_TEXT	SEGMENT PARA USE32 PUBLIC 'CODE'
_TEXT	ENDS
;	COMDAT __imp_??0?$basic_string@_WU?$char_traits@_W@std@@V?$allocator@_W@2@@std@@QAE@ABV01@@Z
_TEXT	SEGMENT PARA USE32 PUBLIC 'CODE'
_TEXT	ENDS
;	COMDAT __imp_??Y?$basic_string@_WU?$char_traits@_W@std@@V?$allocator@_W@2@@std@@QAEAAV01@PB_W@Z
_TEXT	SEGMENT PARA USE32 PUBLIC 'CODE'
_TEXT	ENDS
;	COMDAT __imp_??A?$basic_string@_WU?$char_traits@_W@std@@V?$allocator@_W@2@@std@@QBEAB_WI@Z
_TEXT	SEGMENT PARA USE32 PUBLIC 'CODE'
_TEXT	ENDS
;	COMDAT __imp_?_Getcat@?$numpunct@D@std@@SAIPAPBVfacet@locale@2@@Z
_TEXT	SEGMENT PARA USE32 PUBLIC 'CODE'
_TEXT	ENDS
;	COMDAT __imp_?_Getcat@?$numpunct@_W@std@@SAIPAPBVfacet@locale@2@@Z
_TEXT	SEGMENT PARA USE32 PUBLIC 'CODE'
_TEXT	ENDS
;	COMDAT __imp_?fill@?$basic_ios@DU?$char_traits@D@std@@@std@@QBEDXZ
_TEXT	SEGMENT PARA USE32 PUBLIC 'CODE'
_TEXT	ENDS
;	COMDAT __imp_?widen@?$basic_ios@DU?$char_traits@D@std@@@std@@QBEDD@Z
_TEXT	SEGMENT PARA USE32 PUBLIC 'CODE'
_TEXT	ENDS
;	COMDAT __imp_?fill@?$basic_ios@_WU?$char_traits@_W@std@@@std@@QBE_WXZ
_TEXT	SEGMENT PARA USE32 PUBLIC 'CODE'
_TEXT	ENDS
;	COMDAT __imp_?widen@?$basic_ios@_WU?$char_traits@_W@std@@@std@@QBE_WD@Z
_TEXT	SEGMENT PARA USE32 PUBLIC 'CODE'
_TEXT	ENDS
;	COMDAT ?equal@?$istreambuf_iterator@DU?$char_traits@D@std@@@std@@QBE_NABV12@@Z
_TEXT	SEGMENT PARA USE32 PUBLIC 'CODE'
_TEXT	ENDS
;	COMDAT ?equal@?$istreambuf_iterator@_WU?$char_traits@_W@std@@@std@@QBE_NABV12@@Z
_TEXT	SEGMENT PARA USE32 PUBLIC 'CODE'
_TEXT	ENDS
;	COMDAT __imp_?append@?$basic_string@DU?$char_traits@D@std@@V?$allocator@D@2@@std@@QAEAAV12@PBD@Z
_TEXT	SEGMENT PARA USE32 PUBLIC 'CODE'
_TEXT	ENDS
;	COMDAT __imp_?append@?$basic_string@_WU?$char_traits@_W@std@@V?$allocator@_W@2@@std@@QAEAAV12@PB_W@Z
_TEXT	SEGMENT PARA USE32 PUBLIC 'CODE'
_TEXT	ENDS
;	COMDAT __imp_??0?$numpunct@D@std@@QAE@I@Z
_TEXT	SEGMENT PARA USE32 PUBLIC 'CODE'
_TEXT	ENDS
;	COMDAT __imp_??0?$numpunct@_W@std@@QAE@I@Z
_TEXT	SEGMENT PARA USE32 PUBLIC 'CODE'
_TEXT	ENDS
;	COMDAT __imp_?append@?$basic_string@_WU?$char_traits@_W@std@@V?$allocator@_W@2@@std@@QAEAAV12@PB_WI@Z
_TEXT	SEGMENT PARA USE32 PUBLIC 'CODE'
_TEXT	ENDS
;	COMDAT __imp_?_Init@?$numpunct@D@std@@IAEXABV_Locinfo@2@@Z
_TEXT	SEGMENT PARA USE32 PUBLIC 'CODE'
_TEXT	ENDS
;	COMDAT __imp_?_Init@?$numpunct@_W@std@@IAEXABV_Locinfo@2@@Z
_TEXT	SEGMENT PARA USE32 PUBLIC 'CODE'
_TEXT	ENDS
;	COMDAT ??$_Maklocstr@D@std@@YAPADPBDPADABU_Cvtvec@@@Z
_TEXT	SEGMENT PARA USE32 PUBLIC 'CODE'
_TEXT	ENDS
;	COMDAT ??_7CMemoryException@@6B@
CONST	SEGMENT DWORD USE32 PUBLIC 'CONST'
CONST	ENDS
;	COMDAT ??_7CBrush@@6B@
CONST	SEGMENT DWORD USE32 PUBLIC 'CONST'
CONST	ENDS
;	COMDAT ?buff@?1??gai_strerrorA@@9@4PADA
_BSS	SEGMENT DWORD USE32 PUBLIC 'BSS'
_BSS	ENDS
;	COMDAT ?s_bWin9x@?1??_AtlInstallStringThunk@ATL@@YAXPAPAXPAX1@Z@4_NA
_BSS	SEGMENT DWORD USE32 PUBLIC 'BSS'
_BSS	ENDS
;	COMDAT ??_7CResourceException@@6B@
CONST	SEGMENT DWORD USE32 PUBLIC 'CONST'
CONST	ENDS
;	COMDAT ??_7CPen@@6B@
CONST	SEGMENT DWORD USE32 PUBLIC 'CONST'
CONST	ENDS
;	COMDAT ??_7CFont@@6B@
CONST	SEGMENT DWORD USE32 PUBLIC 'CONST'
CONST	ENDS
;	COMDAT __CT??_R0?AVexception@@@8??0exception@@QAE@ABV0@@Z12
xdata$x	SEGMENT DWORD USE32 PUBLIC 'CONST'
xdata$x	ENDS
;	COMDAT ??_7CListBox@@6B@
CONST	SEGMENT DWORD USE32 PUBLIC 'CONST'
CONST	ENDS
;	COMDAT ??_7CGdiObject@@6B@
CONST	SEGMENT DWORD USE32 PUBLIC 'CONST'
CONST	ENDS
;	COMDAT ?buff@?1??gai_strerrorW@@9@4PA_WA
_BSS	SEGMENT DWORD USE32 PUBLIC 'BSS'
_BSS	ENDS
;	COMDAT ??_7CArchiveException@@6B@
CONST	SEGMENT DWORD USE32 PUBLIC 'CONST'
CONST	ENDS
;	COMDAT ??_7CException@@6B@
CONST	SEGMENT DWORD USE32 PUBLIC 'CONST'
CONST	ENDS
;	COMDAT __TI2?AVbad_cast@@
xdata$x	SEGMENT DWORD USE32 PUBLIC 'CONST'
xdata$x	ENDS
;	COMDAT ??_B?1??_AtlInstallStringThunk@ATL@@YAXPAPAXPAX1@Z@51
_BSS	SEGMENT DWORD USE32 PUBLIC 'BSS'
_BSS	ENDS
;	COMDAT ??_7CNoTrackObject@@6B@
CONST	SEGMENT DWORD USE32 PUBLIC 'CONST'
CONST	ENDS
;	COMDAT ??_R0?AVexception@@@8
_DATA	SEGMENT DWORD USE32 PUBLIC 'DATA'
_DATA	ENDS
;	COMDAT __CT??_R0?AVbad_cast@@@8??0bad_cast@@QAE@ABV0@@Z12
xdata$x	SEGMENT DWORD USE32 PUBLIC 'CONST'
xdata$x	ENDS
;	COMDAT ??_7CComboBox@@6B@
CONST	SEGMENT DWORD USE32 PUBLIC 'CONST'
CONST	ENDS
;	COMDAT ??_7CMenu@@6B@
CONST	SEGMENT DWORD USE32 PUBLIC 'CONST'
CONST	ENDS
;	COMDAT ??_7CUserException@@6B@
CONST	SEGMENT DWORD USE32 PUBLIC 'CONST'
CONST	ENDS
;	COMDAT __CTA2?AVbad_cast@@
xdata$x	SEGMENT DWORD USE32 PUBLIC 'CONST'
xdata$x	ENDS
;	COMDAT ??_R0?AVbad_cast@@@8
_DATA	SEGMENT DWORD USE32 PUBLIC 'DATA'
_DATA	ENDS
;	COMDAT ??_7CCheckListBox@@6B@
CONST	SEGMENT DWORD USE32 PUBLIC 'CONST'
CONST	ENDS
;	COMDAT ??_7CStatic@@6B@
CONST	SEGMENT DWORD USE32 PUBLIC 'CONST'
CONST	ENDS
;	COMDAT ??_7CButton@@6B@
CONST	SEGMENT DWORD USE32 PUBLIC 'CONST'
CONST	ENDS
;	COMDAT ??_7CFileException@@6B@
CONST	SEGMENT DWORD USE32 PUBLIC 'CONST'
CONST	ENDS
;	COMDAT ??_7CNotSupportedException@@6B@
CONST	SEGMENT DWORD USE32 PUBLIC 'CONST'
CONST	ENDS
;	COMDAT ??_7CScrollBar@@6B@
CONST	SEGMENT DWORD USE32 PUBLIC 'CONST'
CONST	ENDS
;	COMDAT ??_7CObject@@6B@
CONST	SEGMENT DWORD USE32 PUBLIC 'CONST'
CONST	ENDS
;	COMDAT ??_7CPalette@@6B@
CONST	SEGMENT DWORD USE32 PUBLIC 'CONST'
CONST	ENDS
;	COMDAT ??_7CSimpleException@@6B@
CONST	SEGMENT DWORD USE32 PUBLIC 'CONST'
CONST	ENDS
;	COMDAT ??_7CBitmap@@6B@
CONST	SEGMENT DWORD USE32 PUBLIC 'CONST'
CONST	ENDS
;	COMDAT ??_7CRgn@@6B@
CONST	SEGMENT DWORD USE32 PUBLIC 'CONST'
CONST	ENDS
;	COMDAT ?Day@CFileTime@ATL@@2_KB
CONST	SEGMENT DWORD USE32 PUBLIC 'CONST'
CONST	ENDS
;	COMDAT ??_7CFixedStringMgr@ATL@@6B@
CONST	SEGMENT DWORD USE32 PUBLIC 'CONST'
CONST	ENDS
;	COMDAT ?s_pLog@CFixedStringMgr@ATL@@2PAVIFixedStringLog@2@A
_DATA	SEGMENT DWORD USE32 PUBLIC 'DATA'
_DATA	ENDS
;	COMDAT ?szInvalidDateTimeSpan@ATL@@3QBDB
CONST	SEGMENT DWORD USE32 PUBLIC 'CONST'
CONST	ENDS
;	COMDAT ?Minute@CFileTime@ATL@@2_KB
CONST	SEGMENT DWORD USE32 PUBLIC 'CONST'
CONST	ENDS
;	COMDAT ??_7CFixedStringLog@ATL@@6B@
CONST	SEGMENT DWORD USE32 PUBLIC 'CONST'
CONST	ENDS
;	COMDAT ?Week@CFileTime@ATL@@2_KB
CONST	SEGMENT DWORD USE32 PUBLIC 'CONST'
CONST	ENDS
;	COMDAT ?Hour@CFileTime@ATL@@2_KB
CONST	SEGMENT DWORD USE32 PUBLIC 'CONST'
CONST	ENDS
;	COMDAT ?m_bInitFailed@CAtlBaseModule@ATL@@2_NA
_DATA	SEGMENT DWORD USE32 PUBLIC 'DATA'
_DATA	ENDS
;	COMDAT ??_7IFixedStringLog@ATL@@6B@
CONST	SEGMENT DWORD USE32 PUBLIC 'CONST'
CONST	ENDS
;	COMDAT ?Millisecond@CFileTime@ATL@@2_KB
CONST	SEGMENT DWORD USE32 PUBLIC 'CONST'
CONST	ENDS
;	COMDAT ?c_bIsMFCDLLTraits@?$_MFCDLLTraitsCheck@DV?$StrTraitMFC_DLL@DV?$ChTraitsCRT@D@ATL@@@@@_CSTRING_IMPL_@ATL@@2_NB
CONST	SEGMENT DWORD USE32 PUBLIC 'CONST'
CONST	ENDS
;	COMDAT ?c_bIsMFCDLLTraits@?$_MFCDLLTraitsCheck@_WV?$StrTraitMFC_DLL@_WV?$ChTraitsCRT@_W@ATL@@@@@_CSTRING_IMPL_@ATL@@2_NB
CONST	SEGMENT DWORD USE32 PUBLIC 'CONST'
CONST	ENDS
;	COMDAT ?_strthunks@ATL@@3U_AtlStringThunks@1@A
_DATA	SEGMENT DWORD USE32 PUBLIC 'DATA'
_DATA	ENDS
;	COMDAT ?szInvalidDateTime@ATL@@3QBDB
CONST	SEGMENT DWORD USE32 PUBLIC 'CONST'
CONST	ENDS
;	COMDAT ?Second@CFileTime@ATL@@2_KB
CONST	SEGMENT DWORD USE32 PUBLIC 'CONST'
CONST	ENDS
;	COMDAT ??_7CSocketAddr@ATL@@6B@
CONST	SEGMENT DWORD USE32 PUBLIC 'CONST'
CONST	ENDS
;	COMDAT ?g_pfnGetThreadACP@ATL@@3P6GIXZA
_DATA	SEGMENT DWORD USE32 PUBLIC 'DATA'
_DATA	ENDS
;	COMDAT ??_7CWin32Heap@ATL@@6B@
CONST	SEGMENT DWORD USE32 PUBLIC 'CONST'
CONST	ENDS
;	COMDAT ??_7CInvalidArgException@@6B@
CONST	SEGMENT DWORD USE32 PUBLIC 'CONST'
CONST	ENDS
;	COMDAT ?binary@?$_Iosb@H@std@@2W4_Openmode@12@B
CONST	SEGMENT DWORD USE32 PUBLIC 'CONST'
CONST	ENDS
;	COMDAT ?_Hardfail@?$_Iosb@H@std@@2W4_Iostate@12@B
CONST	SEGMENT DWORD USE32 PUBLIC 'CONST'
CONST	ENDS
;	COMDAT ?eofbit@?$_Iosb@H@std@@2W4_Iostate@12@B
CONST	SEGMENT DWORD USE32 PUBLIC 'CONST'
CONST	ENDS
;	COMDAT ??_7invalid_argument@std@@6B@
CONST	SEGMENT DWORD USE32 PUBLIC 'CONST'
CONST	ENDS
;	COMDAT ?app@?$_Iosb@H@std@@2W4_Openmode@12@B
CONST	SEGMENT DWORD USE32 PUBLIC 'CONST'
CONST	ENDS
;	COMDAT ?uppercase@?$_Iosb@H@std@@2W4_Fmtflags@12@B
CONST	SEGMENT DWORD USE32 PUBLIC 'CONST'
CONST	ENDS
;	COMDAT ??_S?$numpunct@_W@std@@6B@
CONST	SEGMENT DWORD USE32 PUBLIC 'CONST'
CONST	ENDS
;	COMDAT ??_7out_of_range@std@@6B@
CONST	SEGMENT DWORD USE32 PUBLIC 'CONST'
CONST	ENDS
;	COMDAT ?trunc@?$_Iosb@H@std@@2W4_Openmode@12@B
CONST	SEGMENT DWORD USE32 PUBLIC 'CONST'
CONST	ENDS
;	COMDAT ??_S?$ctype@_W@std@@6B@
CONST	SEGMENT DWORD USE32 PUBLIC 'CONST'
CONST	ENDS
;	COMDAT ??_S?$numpunct@D@std@@6B@
CONST	SEGMENT DWORD USE32 PUBLIC 'CONST'
CONST	ENDS
;	COMDAT ?skipws@?$_Iosb@H@std@@2W4_Fmtflags@12@B
CONST	SEGMENT DWORD USE32 PUBLIC 'CONST'
CONST	ENDS
;	COMDAT ?basefield@?$_Iosb@H@std@@2W4_Fmtflags@12@B
CONST	SEGMENT DWORD USE32 PUBLIC 'CONST'
CONST	ENDS
;	COMDAT ??_7bad_alloc@std@@6B@
CONST	SEGMENT DWORD USE32 PUBLIC 'CONST'
CONST	ENDS
;	COMDAT ?_Stdio@?$_Iosb@H@std@@2W4_Fmtflags@12@B
CONST	SEGMENT DWORD USE32 PUBLIC 'CONST'
CONST	ENDS
;	COMDAT ?left@?$_Iosb@H@std@@2W4_Fmtflags@12@B
CONST	SEGMENT DWORD USE32 PUBLIC 'CONST'
CONST	ENDS
;	COMDAT ??_7runtime_error@std@@6B@
CONST	SEGMENT DWORD USE32 PUBLIC 'CONST'
CONST	ENDS
;	COMDAT ?showpos@?$_Iosb@H@std@@2W4_Fmtflags@12@B
CONST	SEGMENT DWORD USE32 PUBLIC 'CONST'
CONST	ENDS
;	COMDAT ?_Psave@?$_Facetptr@V?$ctype@D@std@@@std@@2PBVfacet@locale@2@B
_DATA	SEGMENT DWORD USE32 PUBLIC 'DATA'
_DATA	ENDS
;	COMDAT ?adjustfield@?$_Iosb@H@std@@2W4_Fmtflags@12@B
CONST	SEGMENT DWORD USE32 PUBLIC 'CONST'
CONST	ENDS
;	COMDAT ??_S?$ctype@D@std@@6B@
CONST	SEGMENT DWORD USE32 PUBLIC 'CONST'
CONST	ENDS
;	COMDAT ?badbit@?$_Iosb@H@std@@2W4_Iostate@12@B
CONST	SEGMENT DWORD USE32 PUBLIC 'CONST'
CONST	ENDS
;	COMDAT ?in@?$_Iosb@H@std@@2W4_Openmode@12@B
CONST	SEGMENT DWORD USE32 PUBLIC 'CONST'
CONST	ENDS
;	COMDAT ??_7underflow_error@std@@6B@
CONST	SEGMENT DWORD USE32 PUBLIC 'CONST'
CONST	ENDS
;	COMDAT ??_7overflow_error@std@@6B@
CONST	SEGMENT DWORD USE32 PUBLIC 'CONST'
CONST	ENDS
;	COMDAT ?_Psave@?$_Facetptr@V?$ctype@_W@std@@@std@@2PBVfacet@locale@2@B
_DATA	SEGMENT DWORD USE32 PUBLIC 'DATA'
_DATA	ENDS
;	COMDAT ?oct@?$_Iosb@H@std@@2W4_Fmtflags@12@B
CONST	SEGMENT DWORD USE32 PUBLIC 'CONST'
CONST	ENDS
;	COMDAT ?hex@?$_Iosb@H@std@@2W4_Fmtflags@12@B
CONST	SEGMENT DWORD USE32 PUBLIC 'CONST'
CONST	ENDS
;	COMDAT ?showbase@?$_Iosb@H@std@@2W4_Fmtflags@12@B
CONST	SEGMENT DWORD USE32 PUBLIC 'CONST'
CONST	ENDS
;	COMDAT ?showpoint@?$_Iosb@H@std@@2W4_Fmtflags@12@B
CONST	SEGMENT DWORD USE32 PUBLIC 'CONST'
CONST	ENDS
;	COMDAT ?collate@?$_Locbase@H@std@@2HB
CONST	SEGMENT DWORD USE32 PUBLIC 'CONST'
CONST	ENDS
;	COMDAT ??_7length_error@std@@6B@
CONST	SEGMENT DWORD USE32 PUBLIC 'CONST'
CONST	ENDS
;	COMDAT ?beg@?$_Iosb@H@std@@2W4_Seekdir@12@B
CONST	SEGMENT DWORD USE32 PUBLIC 'CONST'
CONST	ENDS
;	COMDAT ?failbit@?$_Iosb@H@std@@2W4_Iostate@12@B
CONST	SEGMENT DWORD USE32 PUBLIC 'CONST'
CONST	ENDS
;	COMDAT ?unitbuf@?$_Iosb@H@std@@2W4_Fmtflags@12@B
CONST	SEGMENT DWORD USE32 PUBLIC 'CONST'
CONST	ENDS
;	COMDAT ?right@?$_Iosb@H@std@@2W4_Fmtflags@12@B
CONST	SEGMENT DWORD USE32 PUBLIC 'CONST'
CONST	ENDS
;	COMDAT ?_Stz@?$fpos@H@std@@0HA
_BSS	SEGMENT DWORD USE32 PUBLIC 'BSS'
_BSS	ENDS
;	COMDAT ?ctype@?$_Locbase@H@std@@2HB
CONST	SEGMENT DWORD USE32 PUBLIC 'CONST'
CONST	ENDS
;	COMDAT ?out@?$_Iosb@H@std@@2W4_Openmode@12@B
CONST	SEGMENT DWORD USE32 PUBLIC 'CONST'
CONST	ENDS
;	COMDAT ?_Psave@?$_Facetptr@V?$numpunct@D@std@@@std@@2PBVfacet@locale@2@B
_DATA	SEGMENT DWORD USE32 PUBLIC 'DATA'
_DATA	ENDS
;	COMDAT ?internal@?$_Iosb@H@std@@2W4_Fmtflags@12@B
CONST	SEGMENT DWORD USE32 PUBLIC 'CONST'
CONST	ENDS
;	COMDAT ??_S?$codecvt@_WDH@std@@6B@
CONST	SEGMENT DWORD USE32 PUBLIC 'CONST'
CONST	ENDS
;	COMDAT ?goodbit@?$_Iosb@H@std@@2W4_Iostate@12@B
CONST	SEGMENT DWORD USE32 PUBLIC 'CONST'
CONST	ENDS
;	COMDAT ??_7bad_exception@std@@6B@
CONST	SEGMENT DWORD USE32 PUBLIC 'CONST'
CONST	ENDS
;	COMDAT ?boolalpha@?$_Iosb@H@std@@2W4_Fmtflags@12@B
CONST	SEGMENT DWORD USE32 PUBLIC 'CONST'
CONST	ENDS
;	COMDAT ?ate@?$_Iosb@H@std@@2W4_Openmode@12@B
CONST	SEGMENT DWORD USE32 PUBLIC 'CONST'
CONST	ENDS
;	COMDAT ?all@?$_Locbase@H@std@@2HB
CONST	SEGMENT DWORD USE32 PUBLIC 'CONST'
CONST	ENDS
;	COMDAT ?numeric@?$_Locbase@H@std@@2HB
CONST	SEGMENT DWORD USE32 PUBLIC 'CONST'
CONST	ENDS
;	COMDAT ?end@?$_Iosb@H@std@@2W4_Seekdir@12@B
CONST	SEGMENT DWORD USE32 PUBLIC 'CONST'
CONST	ENDS
;	COMDAT ?_Noreplace@?$_Iosb@H@std@@2W4_Openmode@12@B
CONST	SEGMENT DWORD USE32 PUBLIC 'CONST'
CONST	ENDS
;	COMDAT ??_7failure@ios_base@std@@6B@
CONST	SEGMENT DWORD USE32 PUBLIC 'CONST'
CONST	ENDS
;	COMDAT ?cur@?$_Iosb@H@std@@2W4_Seekdir@12@B
CONST	SEGMENT DWORD USE32 PUBLIC 'CONST'
CONST	ENDS
;	COMDAT ??_7range_error@std@@6B@
CONST	SEGMENT DWORD USE32 PUBLIC 'CONST'
CONST	ENDS
;	COMDAT ??_7logic_error@std@@6B@
CONST	SEGMENT DWORD USE32 PUBLIC 'CONST'
CONST	ENDS
;	COMDAT ?time@?$_Locbase@H@std@@2HB
CONST	SEGMENT DWORD USE32 PUBLIC 'CONST'
CONST	ENDS
;	COMDAT ?messages@?$_Locbase@H@std@@2HB
CONST	SEGMENT DWORD USE32 PUBLIC 'CONST'
CONST	ENDS
;	COMDAT ??_7domain_error@std@@6B@
CONST	SEGMENT DWORD USE32 PUBLIC 'CONST'
CONST	ENDS
;	COMDAT ?fixed@?$_Iosb@H@std@@2W4_Fmtflags@12@B
CONST	SEGMENT DWORD USE32 PUBLIC 'CONST'
CONST	ENDS
;	COMDAT ?none@?$_Locbase@H@std@@2HB
CONST	SEGMENT DWORD USE32 PUBLIC 'CONST'
CONST	ENDS
;	COMDAT ?floatfield@?$_Iosb@H@std@@2W4_Fmtflags@12@B
CONST	SEGMENT DWORD USE32 PUBLIC 'CONST'
CONST	ENDS
;	COMDAT ?_Nocreate@?$_Iosb@H@std@@2W4_Openmode@12@B
CONST	SEGMENT DWORD USE32 PUBLIC 'CONST'
CONST	ENDS
;	COMDAT ?scientific@?$_Iosb@H@std@@2W4_Fmtflags@12@B
CONST	SEGMENT DWORD USE32 PUBLIC 'CONST'
CONST	ENDS
;	COMDAT ?monetary@?$_Locbase@H@std@@2HB
CONST	SEGMENT DWORD USE32 PUBLIC 'CONST'
CONST	ENDS
;	COMDAT ?_Psave@?$_Facetptr@V?$numpunct@_W@std@@@std@@2PBVfacet@locale@2@B
_DATA	SEGMENT DWORD USE32 PUBLIC 'DATA'
_DATA	ENDS
;	COMDAT ?dec@?$_Iosb@H@std@@2W4_Fmtflags@12@B
CONST	SEGMENT DWORD USE32 PUBLIC 'CONST'
CONST	ENDS
;	COMDAT ??_7CEdit@@6B@
CONST	SEGMENT DWORD USE32 PUBLIC 'CONST'
CONST	ENDS
FLAT	GROUP _DATA, CONST, _BSS
	ASSUME	CS: FLAT, DS: FLAT, SS: FLAT
endif

INCLUDELIB MSVCRT
INCLUDELIB OLDNAMES

PUBLIC	?_strthunks@ATL@@3U_AtlStringThunks@1@A		; ATL::_strthunks
PUBLIC	?GetEnvironmentVariableWThunk@ATL@@YGKPB_WPA_WK@Z ; ATL::GetEnvironmentVariableWThunk
PUBLIC	?c_bIsMFCDLLTraits@?$_MFCDLLTraitsCheck@DV?$StrTraitMFC_DLL@DV?$ChTraitsCRT@D@ATL@@@@@_CSTRING_IMPL_@ATL@@2_NB ; ATL::_CSTRING_IMPL_::_MFCDLLTraitsCheck<char,StrTraitMFC_DLL<char,ATL::ChTraitsCRT<char> > >::c_bIsMFCDLLTraits
PUBLIC	?CompareStringWThunk@ATL@@YGHKKPB_WH0H@Z	; ATL::CompareStringWThunk
PUBLIC	?collate@?$_Locbase@H@std@@2HB			; std::_Locbase<int>::collate
PUBLIC	?ctype@?$_Locbase@H@std@@2HB			; std::_Locbase<int>::ctype
PUBLIC	?GetStringTypeExWThunk@ATL@@YGHKKPB_WHPAG@Z	; ATL::GetStringTypeExWThunk
PUBLIC	?monetary@?$_Locbase@H@std@@2HB			; std::_Locbase<int>::monetary
PUBLIC	?numeric@?$_Locbase@H@std@@2HB			; std::_Locbase<int>::numeric
PUBLIC	?time@?$_Locbase@H@std@@2HB			; std::_Locbase<int>::time
PUBLIC	?messages@?$_Locbase@H@std@@2HB			; std::_Locbase<int>::messages
PUBLIC	?all@?$_Locbase@H@std@@2HB			; std::_Locbase<int>::all
PUBLIC	?none@?$_Locbase@H@std@@2HB			; std::_Locbase<int>::none
PUBLIC	?lstrcmpiWThunk@ATL@@YGHPB_W0@Z			; ATL::lstrcmpiWThunk
PUBLIC	?CharLowerWThunk@ATL@@YGPA_WPA_W@Z		; ATL::CharLowerWThunk
PUBLIC	?CharUpperWThunk@ATL@@YGPA_WPA_W@Z		; ATL::CharUpperWThunk
PUBLIC	?m_bInitFailed@CAtlBaseModule@ATL@@2_NA		; ATL::CAtlBaseModule::m_bInitFailed
PUBLIC	?skipws@?$_Iosb@H@std@@2W4_Fmtflags@12@B	; std::_Iosb<int>::skipws
PUBLIC	?unitbuf@?$_Iosb@H@std@@2W4_Fmtflags@12@B	; std::_Iosb<int>::unitbuf
PUBLIC	?uppercase@?$_Iosb@H@std@@2W4_Fmtflags@12@B	; std::_Iosb<int>::uppercase
PUBLIC	?showbase@?$_Iosb@H@std@@2W4_Fmtflags@12@B	; std::_Iosb<int>::showbase
PUBLIC	?showpoint@?$_Iosb@H@std@@2W4_Fmtflags@12@B	; std::_Iosb<int>::showpoint
PUBLIC	?showpos@?$_Iosb@H@std@@2W4_Fmtflags@12@B	; std::_Iosb<int>::showpos
PUBLIC	?left@?$_Iosb@H@std@@2W4_Fmtflags@12@B		; std::_Iosb<int>::left
PUBLIC	?right@?$_Iosb@H@std@@2W4_Fmtflags@12@B		; std::_Iosb<int>::right
PUBLIC	?internal@?$_Iosb@H@std@@2W4_Fmtflags@12@B	; std::_Iosb<int>::internal
PUBLIC	?dec@?$_Iosb@H@std@@2W4_Fmtflags@12@B		; std::_Iosb<int>::dec
PUBLIC	?oct@?$_Iosb@H@std@@2W4_Fmtflags@12@B		; std::_Iosb<int>::oct
PUBLIC	?hex@?$_Iosb@H@std@@2W4_Fmtflags@12@B		; std::_Iosb<int>::hex
PUBLIC	?scientific@?$_Iosb@H@std@@2W4_Fmtflags@12@B	; std::_Iosb<int>::scientific
PUBLIC	?fixed@?$_Iosb@H@std@@2W4_Fmtflags@12@B		; std::_Iosb<int>::fixed
PUBLIC	?boolalpha@?$_Iosb@H@std@@2W4_Fmtflags@12@B	; std::_Iosb<int>::boolalpha
PUBLIC	?_Stdio@?$_Iosb@H@std@@2W4_Fmtflags@12@B	; std::_Iosb<int>::_Stdio
PUBLIC	?adjustfield@?$_Iosb@H@std@@2W4_Fmtflags@12@B	; std::_Iosb<int>::adjustfield
PUBLIC	?basefield@?$_Iosb@H@std@@2W4_Fmtflags@12@B	; std::_Iosb<int>::basefield
PUBLIC	?floatfield@?$_Iosb@H@std@@2W4_Fmtflags@12@B	; std::_Iosb<int>::floatfield
PUBLIC	?goodbit@?$_Iosb@H@std@@2W4_Iostate@12@B	; std::_Iosb<int>::goodbit
PUBLIC	?eofbit@?$_Iosb@H@std@@2W4_Iostate@12@B		; std::_Iosb<int>::eofbit
PUBLIC	?failbit@?$_Iosb@H@std@@2W4_Iostate@12@B	; std::_Iosb<int>::failbit
PUBLIC	?badbit@?$_Iosb@H@std@@2W4_Iostate@12@B		; std::_Iosb<int>::badbit
PUBLIC	?_Hardfail@?$_Iosb@H@std@@2W4_Iostate@12@B	; std::_Iosb<int>::_Hardfail
PUBLIC	?in@?$_Iosb@H@std@@2W4_Openmode@12@B		; std::_Iosb<int>::in
PUBLIC	?out@?$_Iosb@H@std@@2W4_Openmode@12@B		; std::_Iosb<int>::out
PUBLIC	?ate@?$_Iosb@H@std@@2W4_Openmode@12@B		; std::_Iosb<int>::ate
PUBLIC	?app@?$_Iosb@H@std@@2W4_Openmode@12@B		; std::_Iosb<int>::app
PUBLIC	?trunc@?$_Iosb@H@std@@2W4_Openmode@12@B		; std::_Iosb<int>::trunc
PUBLIC	?_Nocreate@?$_Iosb@H@std@@2W4_Openmode@12@B	; std::_Iosb<int>::_Nocreate
PUBLIC	?_Noreplace@?$_Iosb@H@std@@2W4_Openmode@12@B	; std::_Iosb<int>::_Noreplace
PUBLIC	?binary@?$_Iosb@H@std@@2W4_Openmode@12@B	; std::_Iosb<int>::binary
PUBLIC	?beg@?$_Iosb@H@std@@2W4_Seekdir@12@B		; std::_Iosb<int>::beg
PUBLIC	?cur@?$_Iosb@H@std@@2W4_Seekdir@12@B		; std::_Iosb<int>::cur
PUBLIC	?end@?$_Iosb@H@std@@2W4_Seekdir@12@B		; std::_Iosb<int>::end
PUBLIC	?g_pfnGetThreadACP@ATL@@3P6GIXZA		; ATL::g_pfnGetThreadACP
PUBLIC	?_AtlGetThreadACPThunk@ATL@@YGIXZ		; ATL::_AtlGetThreadACPThunk
PUBLIC	?Millisecond@CFileTime@ATL@@2_KB		; ATL::CFileTime::Millisecond
PUBLIC	?Second@CFileTime@ATL@@2_KB			; ATL::CFileTime::Second
PUBLIC	?Minute@CFileTime@ATL@@2_KB			; ATL::CFileTime::Minute
PUBLIC	?Hour@CFileTime@ATL@@2_KB			; ATL::CFileTime::Hour
PUBLIC	?Day@CFileTime@ATL@@2_KB			; ATL::CFileTime::Day
PUBLIC	?Week@CFileTime@ATL@@2_KB			; ATL::CFileTime::Week
PUBLIC	?szInvalidDateTime@ATL@@3QBDB			; ATL::szInvalidDateTime
PUBLIC	??_C@_0BB@KEKMKJPM@Invalid?5DateTime?$AA@	; `string'
PUBLIC	?szInvalidDateTimeSpan@ATL@@3QBDB		; ATL::szInvalidDateTimeSpan
PUBLIC	??_C@_0BF@GPPHKJFN@Invalid?5DateTimeSpan?$AA@	; `string'
PUBLIC	?c_bIsMFCDLLTraits@?$_MFCDLLTraitsCheck@_WV?$StrTraitMFC_DLL@_WV?$ChTraitsCRT@_W@ATL@@@@@_CSTRING_IMPL_@ATL@@2_NB ; ATL::_CSTRING_IMPL_::_MFCDLLTraitsCheck<wchar_t,StrTraitMFC_DLL<wchar_t,ATL::ChTraitsCRT<wchar_t> > >::c_bIsMFCDLLTraits
PUBLIC	?s_pLog@CFixedStringMgr@ATL@@2PAVIFixedStringLog@2@A ; ATL::CFixedStringMgr::s_pLog
;	COMDAT ?m_bInitFailed@CAtlBaseModule@ATL@@2_NA
_BSS	SEGMENT
?m_bInitFailed@CAtlBaseModule@ATL@@2_NA DB 01H DUP (?)	; ATL::CAtlBaseModule::m_bInitFailed
_BSS	ENDS
;	COMDAT ?s_pLog@CFixedStringMgr@ATL@@2PAVIFixedStringLog@2@A
_BSS	SEGMENT
?s_pLog@CFixedStringMgr@ATL@@2PAVIFixedStringLog@2@A DD 01H DUP (?) ; ATL::CFixedStringMgr::s_pLog
_BSS	ENDS
;	COMDAT ?g_pfnGetThreadACP@ATL@@3P6GIXZA
_DATA	SEGMENT
?g_pfnGetThreadACP@ATL@@3P6GIXZA DD FLAT:?_AtlGetThreadACPThunk@ATL@@YGIXZ ; ATL::g_pfnGetThreadACP
_DATA	ENDS
;	COMDAT ?_strthunks@ATL@@3U_AtlStringThunks@1@A
_DATA	SEGMENT
?_strthunks@ATL@@3U_AtlStringThunks@1@A DD FLAT:?CompareStringWThunk@ATL@@YGHKKPB_WH0H@Z ; ATL::_strthunks
	DD	FLAT:?GetStringTypeExWThunk@ATL@@YGHKKPB_WHPAG@Z
	DD	FLAT:?lstrcmpiWThunk@ATL@@YGHPB_W0@Z
	DD	FLAT:?CharLowerWThunk@ATL@@YGPA_WPA_W@Z
	DD	FLAT:?CharUpperWThunk@ATL@@YGPA_WPA_W@Z
	DD	FLAT:?GetEnvironmentVariableWThunk@ATL@@YGKPB_WPA_WK@Z
_DATA	ENDS
;	COMDAT ?c_bIsMFCDLLTraits@?$_MFCDLLTraitsCheck@DV?$StrTraitMFC_DLL@DV?$ChTraitsCRT@D@ATL@@@@@_CSTRING_IMPL_@ATL@@2_NB
CONST	SEGMENT
?c_bIsMFCDLLTraits@?$_MFCDLLTraitsCheck@DV?$StrTraitMFC_DLL@DV?$ChTraitsCRT@D@ATL@@@@@_CSTRING_IMPL_@ATL@@2_NB DB 01H ; ATL::_CSTRING_IMPL_::_MFCDLLTraitsCheck<char,StrTraitMFC_DLL<char,ATL::ChTraitsCRT<char> > >::c_bIsMFCDLLTraits
CONST	ENDS
;	COMDAT ?c_bIsMFCDLLTraits@?$_MFCDLLTraitsCheck@_WV?$StrTraitMFC_DLL@_WV?$ChTraitsCRT@_W@ATL@@@@@_CSTRING_IMPL_@ATL@@2_NB
CONST	SEGMENT
?c_bIsMFCDLLTraits@?$_MFCDLLTraitsCheck@_WV?$StrTraitMFC_DLL@_WV?$ChTraitsCRT@_W@ATL@@@@@_CSTRING_IMPL_@ATL@@2_NB DB 01H ; ATL::_CSTRING_IMPL_::_MFCDLLTraitsCheck<wchar_t,StrTraitMFC_DLL<wchar_t,ATL::ChTraitsCRT<wchar_t> > >::c_bIsMFCDLLTraits
CONST	ENDS
;	COMDAT ?Millisecond@CFileTime@ATL@@2_KB
CONST	SEGMENT
?Millisecond@CFileTime@ATL@@2_KB DQ 0000000000002710H	; ATL::CFileTime::Millisecond
CONST	ENDS
;	COMDAT ?Second@CFileTime@ATL@@2_KB
CONST	SEGMENT
?Second@CFileTime@ATL@@2_KB DQ 0000000000989680H	; ATL::CFileTime::Second
CONST	ENDS
;	COMDAT ?Minute@CFileTime@ATL@@2_KB
CONST	SEGMENT
?Minute@CFileTime@ATL@@2_KB DQ 0000000023c34600H	; ATL::CFileTime::Minute
CONST	ENDS
;	COMDAT ?Hour@CFileTime@ATL@@2_KB
CONST	SEGMENT
?Hour@CFileTime@ATL@@2_KB DQ 0000000861c46800H		; ATL::CFileTime::Hour
CONST	ENDS
;	COMDAT ?Day@CFileTime@ATL@@2_KB
CONST	SEGMENT
?Day@CFileTime@ATL@@2_KB DQ 000000c92a69c000H		; ATL::CFileTime::Day
CONST	ENDS
;	COMDAT ?Week@CFileTime@ATL@@2_KB
CONST	SEGMENT
?Week@CFileTime@ATL@@2_KB DQ 0000058028e44000H		; ATL::CFileTime::Week
CONST	ENDS
;	COMDAT ??_C@_0BB@KEKMKJPM@Invalid?5DateTime?$AA@
CONST	SEGMENT
??_C@_0BB@KEKMKJPM@Invalid?5DateTime?$AA@ DB 'Invalid DateTime', 00H ; `string'
CONST	ENDS
;	COMDAT ?szInvalidDateTime@ATL@@3QBDB
CONST	SEGMENT
?szInvalidDateTime@ATL@@3QBDB DD FLAT:??_C@_0BB@KEKMKJPM@Invalid?5DateTime?$AA@ ; ATL::szInvalidDateTime
CONST	ENDS
;	COMDAT ??_C@_0BF@GPPHKJFN@Invalid?5DateTimeSpan?$AA@
CONST	SEGMENT
??_C@_0BF@GPPHKJFN@Invalid?5DateTimeSpan?$AA@ DB 'Invalid DateTimeSpan', 00H ; `string'
CONST	ENDS
;	COMDAT ?szInvalidDateTimeSpan@ATL@@3QBDB
CONST	SEGMENT
?szInvalidDateTimeSpan@ATL@@3QBDB DD FLAT:??_C@_0BF@GPPHKJFN@Invalid?5DateTimeSpan?$AA@ ; ATL::szInvalidDateTimeSpan
CONST	ENDS
;	COMDAT ?collate@?$_Locbase@H@std@@2HB
CONST	SEGMENT
?collate@?$_Locbase@H@std@@2HB DD 01H			; std::_Locbase<int>::collate
CONST	ENDS
;	COMDAT ?ctype@?$_Locbase@H@std@@2HB
CONST	SEGMENT
?ctype@?$_Locbase@H@std@@2HB DD 02H			; std::_Locbase<int>::ctype
CONST	ENDS
;	COMDAT ?monetary@?$_Locbase@H@std@@2HB
CONST	SEGMENT
?monetary@?$_Locbase@H@std@@2HB DD 04H			; std::_Locbase<int>::monetary
CONST	ENDS
;	COMDAT ?numeric@?$_Locbase@H@std@@2HB
CONST	SEGMENT
?numeric@?$_Locbase@H@std@@2HB DD 08H			; std::_Locbase<int>::numeric
CONST	ENDS
;	COMDAT ?time@?$_Locbase@H@std@@2HB
CONST	SEGMENT
?time@?$_Locbase@H@std@@2HB DD 010H			; std::_Locbase<int>::time
CONST	ENDS
;	COMDAT ?messages@?$_Locbase@H@std@@2HB
CONST	SEGMENT
?messages@?$_Locbase@H@std@@2HB DD 020H			; std::_Locbase<int>::messages
CONST	ENDS
;	COMDAT ?all@?$_Locbase@H@std@@2HB
CONST	SEGMENT
?all@?$_Locbase@H@std@@2HB DD 03fH			; std::_Locbase<int>::all
CONST	ENDS
;	COMDAT ?none@?$_Locbase@H@std@@2HB
CONST	SEGMENT
?none@?$_Locbase@H@std@@2HB DD 00H			; std::_Locbase<int>::none
CONST	ENDS
;	COMDAT ?skipws@?$_Iosb@H@std@@2W4_Fmtflags@12@B
CONST	SEGMENT
?skipws@?$_Iosb@H@std@@2W4_Fmtflags@12@B DD 01H		; std::_Iosb<int>::skipws
CONST	ENDS
;	COMDAT ?unitbuf@?$_Iosb@H@std@@2W4_Fmtflags@12@B
CONST	SEGMENT
?unitbuf@?$_Iosb@H@std@@2W4_Fmtflags@12@B DD 02H	; std::_Iosb<int>::unitbuf
CONST	ENDS
;	COMDAT ?uppercase@?$_Iosb@H@std@@2W4_Fmtflags@12@B
CONST	SEGMENT
?uppercase@?$_Iosb@H@std@@2W4_Fmtflags@12@B DD 04H	; std::_Iosb<int>::uppercase
CONST	ENDS
;	COMDAT ?showbase@?$_Iosb@H@std@@2W4_Fmtflags@12@B
CONST	SEGMENT
?showbase@?$_Iosb@H@std@@2W4_Fmtflags@12@B DD 08H	; std::_Iosb<int>::showbase
CONST	ENDS
;	COMDAT ?showpoint@?$_Iosb@H@std@@2W4_Fmtflags@12@B
CONST	SEGMENT
?showpoint@?$_Iosb@H@std@@2W4_Fmtflags@12@B DD 010H	; std::_Iosb<int>::showpoint
CONST	ENDS
;	COMDAT ?showpos@?$_Iosb@H@std@@2W4_Fmtflags@12@B
CONST	SEGMENT
?showpos@?$_Iosb@H@std@@2W4_Fmtflags@12@B DD 020H	; std::_Iosb<int>::showpos
CONST	ENDS
;	COMDAT ?left@?$_Iosb@H@std@@2W4_Fmtflags@12@B
CONST	SEGMENT
?left@?$_Iosb@H@std@@2W4_Fmtflags@12@B DD 040H		; std::_Iosb<int>::left
CONST	ENDS
;	COMDAT ?right@?$_Iosb@H@std@@2W4_Fmtflags@12@B
CONST	SEGMENT
?right@?$_Iosb@H@std@@2W4_Fmtflags@12@B DD 080H		; std::_Iosb<int>::right
CONST	ENDS
;	COMDAT ?internal@?$_Iosb@H@std@@2W4_Fmtflags@12@B
CONST	SEGMENT
?internal@?$_Iosb@H@std@@2W4_Fmtflags@12@B DD 0100H	; std::_Iosb<int>::internal
CONST	ENDS
;	COMDAT ?dec@?$_Iosb@H@std@@2W4_Fmtflags@12@B
CONST	SEGMENT
?dec@?$_Iosb@H@std@@2W4_Fmtflags@12@B DD 0200H		; std::_Iosb<int>::dec
CONST	ENDS
;	COMDAT ?oct@?$_Iosb@H@std@@2W4_Fmtflags@12@B
CONST	SEGMENT
?oct@?$_Iosb@H@std@@2W4_Fmtflags@12@B DD 0400H		; std::_Iosb<int>::oct
CONST	ENDS
;	COMDAT ?hex@?$_Iosb@H@std@@2W4_Fmtflags@12@B
CONST	SEGMENT
?hex@?$_Iosb@H@std@@2W4_Fmtflags@12@B DD 0800H		; std::_Iosb<int>::hex
CONST	ENDS
;	COMDAT ?scientific@?$_Iosb@H@std@@2W4_Fmtflags@12@B
CONST	SEGMENT
?scientific@?$_Iosb@H@std@@2W4_Fmtflags@12@B DD 01000H	; std::_Iosb<int>::scientific
CONST	ENDS
;	COMDAT ?fixed@?$_Iosb@H@std@@2W4_Fmtflags@12@B
CONST	SEGMENT
?fixed@?$_Iosb@H@std@@2W4_Fmtflags@12@B DD 02000H	; std::_Iosb<int>::fixed
CONST	ENDS
;	COMDAT ?boolalpha@?$_Iosb@H@std@@2W4_Fmtflags@12@B
CONST	SEGMENT
?boolalpha@?$_Iosb@H@std@@2W4_Fmtflags@12@B DD 04000H	; std::_Iosb<int>::boolalpha
CONST	ENDS
;	COMDAT ?_Stdio@?$_Iosb@H@std@@2W4_Fmtflags@12@B
CONST	SEGMENT
?_Stdio@?$_Iosb@H@std@@2W4_Fmtflags@12@B DD 08000H	; std::_Iosb<int>::_Stdio
CONST	ENDS
;	COMDAT ?adjustfield@?$_Iosb@H@std@@2W4_Fmtflags@12@B
CONST	SEGMENT
?adjustfield@?$_Iosb@H@std@@2W4_Fmtflags@12@B DD 01c0H	; std::_Iosb<int>::adjustfield
CONST	ENDS
;	COMDAT ?basefield@?$_Iosb@H@std@@2W4_Fmtflags@12@B
CONST	SEGMENT
?basefield@?$_Iosb@H@std@@2W4_Fmtflags@12@B DD 0e00H	; std::_Iosb<int>::basefield
CONST	ENDS
;	COMDAT ?floatfield@?$_Iosb@H@std@@2W4_Fmtflags@12@B
CONST	SEGMENT
?floatfield@?$_Iosb@H@std@@2W4_Fmtflags@12@B DD 03000H	; std::_Iosb<int>::floatfield
CONST	ENDS
;	COMDAT ?goodbit@?$_Iosb@H@std@@2W4_Iostate@12@B
CONST	SEGMENT
?goodbit@?$_Iosb@H@std@@2W4_Iostate@12@B DD 00H		; std::_Iosb<int>::goodbit
CONST	ENDS
;	COMDAT ?eofbit@?$_Iosb@H@std@@2W4_Iostate@12@B
CONST	SEGMENT
?eofbit@?$_Iosb@H@std@@2W4_Iostate@12@B DD 01H		; std::_Iosb<int>::eofbit
CONST	ENDS
;	COMDAT ?failbit@?$_Iosb@H@std@@2W4_Iostate@12@B
CONST	SEGMENT
?failbit@?$_Iosb@H@std@@2W4_Iostate@12@B DD 02H		; std::_Iosb<int>::failbit
CONST	ENDS
;	COMDAT ?badbit@?$_Iosb@H@std@@2W4_Iostate@12@B
CONST	SEGMENT
?badbit@?$_Iosb@H@std@@2W4_Iostate@12@B DD 04H		; std::_Iosb<int>::badbit
CONST	ENDS
;	COMDAT ?_Hardfail@?$_Iosb@H@std@@2W4_Iostate@12@B
CONST	SEGMENT
?_Hardfail@?$_Iosb@H@std@@2W4_Iostate@12@B DD 010H	; std::_Iosb<int>::_Hardfail
CONST	ENDS
;	COMDAT ?in@?$_Iosb@H@std@@2W4_Openmode@12@B
CONST	SEGMENT
?in@?$_Iosb@H@std@@2W4_Openmode@12@B DD 01H		; std::_Iosb<int>::in
CONST	ENDS
;	COMDAT ?out@?$_Iosb@H@std@@2W4_Openmode@12@B
CONST	SEGMENT
?out@?$_Iosb@H@std@@2W4_Openmode@12@B DD 02H		; std::_Iosb<int>::out
CONST	ENDS
;	COMDAT ?ate@?$_Iosb@H@std@@2W4_Openmode@12@B
CONST	SEGMENT
?ate@?$_Iosb@H@std@@2W4_Openmode@12@B DD 04H		; std::_Iosb<int>::ate
CONST	ENDS
;	COMDAT ?app@?$_Iosb@H@std@@2W4_Openmode@12@B
CONST	SEGMENT
?app@?$_Iosb@H@std@@2W4_Openmode@12@B DD 08H		; std::_Iosb<int>::app
CONST	ENDS
;	COMDAT ?trunc@?$_Iosb@H@std@@2W4_Openmode@12@B
CONST	SEGMENT
?trunc@?$_Iosb@H@std@@2W4_Openmode@12@B DD 010H		; std::_Iosb<int>::trunc
CONST	ENDS
;	COMDAT ?_Nocreate@?$_Iosb@H@std@@2W4_Openmode@12@B
CONST	SEGMENT
?_Nocreate@?$_Iosb@H@std@@2W4_Openmode@12@B DD 040H	; std::_Iosb<int>::_Nocreate
CONST	ENDS
;	COMDAT ?_Noreplace@?$_Iosb@H@std@@2W4_Openmode@12@B
CONST	SEGMENT
?_Noreplace@?$_Iosb@H@std@@2W4_Openmode@12@B DD 080H	; std::_Iosb<int>::_Noreplace
CONST	ENDS
;	COMDAT ?binary@?$_Iosb@H@std@@2W4_Openmode@12@B
CONST	SEGMENT
?binary@?$_Iosb@H@std@@2W4_Openmode@12@B DD 020H	; std::_Iosb<int>::binary
CONST	ENDS
;	COMDAT ?beg@?$_Iosb@H@std@@2W4_Seekdir@12@B
CONST	SEGMENT
?beg@?$_Iosb@H@std@@2W4_Seekdir@12@B DD 00H		; std::_Iosb<int>::beg
CONST	ENDS
;	COMDAT ?cur@?$_Iosb@H@std@@2W4_Seekdir@12@B
CONST	SEGMENT
?cur@?$_Iosb@H@std@@2W4_Seekdir@12@B DD 01H		; std::_Iosb<int>::cur
CONST	ENDS
;	COMDAT ?end@?$_Iosb@H@std@@2W4_Seekdir@12@B
CONST	SEGMENT
?end@?$_Iosb@H@std@@2W4_Seekdir@12@B DD 02H		; std::_Iosb<int>::end
CONST	ENDS
PUBLIC	?Allocate@CCRTAllocator@ATL@@SAPAXI@Z		; ATL::CCRTAllocator::Allocate
EXTRN	__imp__malloc:NEAR
; Function compile flags: /Ogty
; File d:\program files\microsoft visual studio .net 2003\vc7\atlmfc\include\atlalloc.h
;	COMDAT ?Allocate@CCRTAllocator@ATL@@SAPAXI@Z
_TEXT	SEGMENT
_nBytes$ = 8						; size = 4
?Allocate@CCRTAllocator@ATL@@SAPAXI@Z PROC NEAR		; ATL::CCRTAllocator::Allocate, COMDAT

; 31   : 		return malloc(nBytes);

  00000	ff 25 00 00 00
	00		 jmp	 DWORD PTR __imp__malloc
?Allocate@CCRTAllocator@ATL@@SAPAXI@Z ENDP		; ATL::CCRTAllocator::Allocate
_TEXT	ENDS
PUBLIC	?Free@CCRTAllocator@ATL@@SAXPAX@Z		; ATL::CCRTAllocator::Free
EXTRN	__imp__free:NEAR
; Function compile flags: /Ogty
;	COMDAT ?Free@CCRTAllocator@ATL@@SAXPAX@Z
_TEXT	SEGMENT
_p$ = 8							; size = 4
?Free@CCRTAllocator@ATL@@SAXPAX@Z PROC NEAR		; ATL::CCRTAllocator::Free, COMDAT

; 36   : 		free(p);

  00000	ff 25 00 00 00
	00		 jmp	 DWORD PTR __imp__free
?Free@CCRTAllocator@ATL@@SAXPAX@Z ENDP			; ATL::CCRTAllocator::Free
_TEXT	ENDS
PUBLIC	?_AtlVerifyStackAvailable@_ATL_SAFE_ALLOCA_IMPL@ATL@@YA_NK@Z ; ATL::_ATL_SAFE_ALLOCA_IMPL::_AtlVerifyStackAvailable
EXTRN	__imp___resetstkoflw:NEAR
EXTRN	__alloca_probe:NEAR
EXTRN	__except_handler3:NEAR
EXTRN	__except_list:DWORD
;	COMDAT CONST
CONST	SEGMENT
$T66242	DD	0ffffffffH
	DD	FLAT:$L66237
	DD	FLAT:$L66238
; Function compile flags: /Ogty
CONST	ENDS
;	COMDAT ?_AtlVerifyStackAvailable@_ATL_SAFE_ALLOCA_IMPL@ATL@@YA_NK@Z
_TEXT	SEGMENT
_p$25175 = -28						; size = 4
__$SEHRec$ = -24					; size = 24
_Size$ = 8						; size = 4
?_AtlVerifyStackAvailable@_ATL_SAFE_ALLOCA_IMPL@ATL@@YA_NK@Z PROC NEAR ; ATL::_ATL_SAFE_ALLOCA_IMPL::_AtlVerifyStackAvailable, COMDAT

; 331  : {

  00000	55		 push	 ebp
  00001	8b ec		 mov	 ebp, esp
  00003	6a ff		 push	 -1
  00005	68 00 00 00 00	 push	 OFFSET FLAT:$T66242
  0000a	68 00 00 00 00	 push	 OFFSET FLAT:__except_handler3
  0000f	64 a1 00 00 00
	00		 mov	 eax, DWORD PTR fs:__except_list
  00015	50		 push	 eax
  00016	64 89 25 00 00
	00 00		 mov	 DWORD PTR fs:__except_list, esp
  0001d	83 ec 0c	 sub	 esp, 12			; 0000000cH
  00020	53		 push	 ebx
  00021	56		 push	 esi
  00022	57		 push	 edi
  00023	89 65 e8	 mov	 DWORD PTR __$SEHRec$[ebp], esp

; 332  :     bool bStackAvailable = true;

  00026	b3 01		 mov	 bl, 1

; 333  : 
; 334  :     __try

  00028	c7 45 fc 00 00
	00 00		 mov	 DWORD PTR __$SEHRec$[ebp+20], 0

; 335  :     {
; 336  :         PVOID p = _alloca(Size + _ATL_STACK_MARGIN);

  0002f	8b 45 08	 mov	 eax, DWORD PTR _Size$[ebp]
  00032	05 03 20 00 00	 add	 eax, 8195		; 00002003H
  00037	83 e0 fc	 and	 eax, -4			; fffffffcH
  0003a	e8 00 00 00 00	 call	 __alloca_probe
  0003f	89 65 e8	 mov	 DWORD PTR __$SEHRec$[ebp], esp
  00042	8b c4		 mov	 eax, esp
  00044	89 45 e4	 mov	 DWORD PTR _p$25175[ebp], eax
  00047	eb 1f		 jmp	 SHORT $L66247
$L66237:

; 337  :         (p);
; 338  :     }
; 339  :     __except ((EXCEPTION_STACK_OVERFLOW == GetExceptionCode()) ?
; 340  :                    EXCEPTION_EXECUTE_HANDLER :
; 341  :                    EXCEPTION_CONTINUE_SEARCH)

  00049	8b 45 ec	 mov	 eax, DWORD PTR __$SEHRec$[ebp+4]
  0004c	8b 08		 mov	 ecx, DWORD PTR [eax]
  0004e	8b 01		 mov	 eax, DWORD PTR [ecx]
  00050	33 d2		 xor	 edx, edx
  00052	3d fd 00 00 c0	 cmp	 eax, -1073741571	; c00000fdH
  00057	0f 94 c2	 sete	 dl
  0005a	8b c2		 mov	 eax, edx
$L66239:
  0005c	c3		 ret	 0
$L66238:
  0005d	8b 65 e8	 mov	 esp, DWORD PTR __$SEHRec$[ebp]

; 342  :     {
; 343  :         bStackAvailable = false;

  00060	32 db		 xor	 bl, bl

; 344  :         _resetstkoflw();

  00062	ff 15 00 00 00
	00		 call	 DWORD PTR __imp___resetstkoflw
$L66247:
  00068	c7 45 fc ff ff
	ff ff		 mov	 DWORD PTR __$SEHRec$[ebp+20], -1

; 345  :     }
; 346  :     return bStackAvailable;

  0006f	8a c3		 mov	 al, bl

; 347  : }

  00071	8d 65 d8	 lea	 esp, DWORD PTR [ebp-40]
  00074	8b 4d f0	 mov	 ecx, DWORD PTR __$SEHRec$[ebp+8]
  00077	64 89 0d 00 00
	00 00		 mov	 DWORD PTR fs:__except_list, ecx
  0007e	5f		 pop	 edi
  0007f	5e		 pop	 esi
  00080	5b		 pop	 ebx
  00081	8b e5		 mov	 esp, ebp
  00083	5d		 pop	 ebp
  00084	c3		 ret	 0
?_AtlVerifyStackAvailable@_ATL_SAFE_ALLOCA_IMPL@ATL@@YA_NK@Z ENDP ; ATL::_ATL_SAFE_ALLOCA_IMPL::_AtlVerifyStackAvailable
_TEXT	ENDS
PUBLIC	?InterlockedExchangePointer@@YGPAXPAPAXPAX@Z	; InterlockedExchangePointer
EXTRN	__imp__InterlockedExchange@8:NEAR
; Function compile flags: /Ogty
; File d:\program files\microsoft visual studio .net 2003\vc7\atlmfc\include\atlconv.h
;	COMDAT ?InterlockedExchangePointer@@YGPAXPAPAXPAX@Z
_TEXT	SEGMENT
_pp$ = 8						; size = 4
_pNew$ = 12						; size = 4
?InterlockedExchangePointer@@YGPAXPAPAXPAX@Z PROC NEAR	; InterlockedExchangePointer, COMDAT

; 92   : 	return( reinterpret_cast<void*>(static_cast<LONG_PTR>(::InterlockedExchange(reinterpret_cast<LONG*>(pp), static_cast<LONG>(reinterpret_cast<LONG_PTR>(pNew))))) );

  00000	ff 25 00 00 00
	00		 jmp	 DWORD PTR __imp__InterlockedExchange@8
?InterlockedExchangePointer@@YGPAXPAPAXPAX@Z ENDP	; InterlockedExchangePointer
_TEXT	ENDS
PUBLIC	?_AtlGetThreadACPFake@ATL@@YGIXZ		; ATL::_AtlGetThreadACPFake
EXTRN	__imp__GetACP@0:NEAR
EXTRN	___security_cookie:DWORD
EXTRN	@__security_check_cookie@4:NEAR
EXTRN	__imp__GetLocaleInfoA@16:NEAR
EXTRN	__imp__GetThreadLocale@0:NEAR
; Function compile flags: /Ogty
;	COMDAT ?_AtlGetThreadACPFake@ATL@@YGIXZ
_TEXT	SEGMENT
_szACP$ = -12						; size = 7
__$ArrayPad$ = -4					; size = 4
__$ReturnAddr$ = 4					; size = 4
?_AtlGetThreadACPFake@ATL@@YGIXZ PROC NEAR		; ATL::_AtlGetThreadACPFake, COMDAT

; 101  : {

  00000	83 ec 0c	 sub	 esp, 12			; 0000000cH
  00003	a1 00 00 00 00	 mov	 eax, DWORD PTR ___security_cookie
  00008	56		 push	 esi
  00009	89 44 24 0c	 mov	 DWORD PTR __$ArrayPad$[esp+16], eax

; 102  : 	UINT nACP = 0;

  0000d	33 f6		 xor	 esi, esi

; 103  : 
; 104  : 	LCID lcidThread = ::GetThreadLocale();

  0000f	ff 15 00 00 00
	00		 call	 DWORD PTR __imp__GetThreadLocale@0

; 105  : 
; 106  : 	char szACP[7];
; 107  : 	// GetLocaleInfoA will fail for a Unicode-only LCID, but those are only supported on 
; 108  : 	// Windows 2000.  Since Windows 2000 supports CP_THREAD_ACP, this code path is never
; 109  : 	// executed on Windows 2000.
; 110  : 	if (::GetLocaleInfoA(lcidThread, LOCALE_IDEFAULTANSICODEPAGE, szACP, 7) != 0)

  00015	6a 07		 push	 7
  00017	8d 4c 24 08	 lea	 ecx, DWORD PTR _szACP$[esp+20]
  0001b	51		 push	 ecx
  0001c	68 04 10 00 00	 push	 4100			; 00001004H
  00021	50		 push	 eax
  00022	ff 15 00 00 00
	00		 call	 DWORD PTR __imp__GetLocaleInfoA@16
  00028	85 c0		 test	 eax, eax
  0002a	74 21		 je	 SHORT $L66257

; 111  : 	{
; 112  : 		char* pch = szACP;
; 113  : 		while (*pch != '\0')

  0002c	8a 44 24 04	 mov	 al, BYTE PTR _szACP$[esp+16]
  00030	84 c0		 test	 al, al
  00032	8d 4c 24 04	 lea	 ecx, DWORD PTR _szACP$[esp+16]
  00036	74 15		 je	 SHORT $L66257
$L25220:

; 114  : 		{
; 115  : 			nACP *= 10;
; 116  : 			nACP += *pch++ - '0';

  00038	0f be c0	 movsx	 eax, al
  0003b	8d 14 b6	 lea	 edx, DWORD PTR [esi+esi*4]
  0003e	41		 inc	 ecx
  0003f	8d 74 50 d0	 lea	 esi, DWORD PTR [eax+edx*2-48]
  00043	8a 01		 mov	 al, BYTE PTR [ecx]
  00045	84 c0		 test	 al, al
  00047	75 ef		 jne	 SHORT $L25220

; 117  : 		}
; 118  : 	}
; 119  : 	// Use the Default ANSI Code Page if we were unable to get the thread ACP or if one does not exist.
; 120  : 	if (nACP == 0)

  00049	85 f6		 test	 esi, esi
  0004b	75 14		 jne	 SHORT $L66258
$L66257:

; 121  : 		nACP = ::GetACP();

  0004d	ff 15 00 00 00
	00		 call	 DWORD PTR __imp__GetACP@0
  00053	5e		 pop	 esi

; 122  : 
; 123  : 	return nACP;
; 124  : }

  00054	8b 4c 24 08	 mov	 ecx, DWORD PTR __$ArrayPad$[esp+12]
  00058	e8 00 00 00 00	 call	 @__security_check_cookie@4
  0005d	83 c4 0c	 add	 esp, 12			; 0000000cH
  00060	c3		 ret	 0
$L66258:
  00061	8b 4c 24 0c	 mov	 ecx, DWORD PTR __$ArrayPad$[esp+16]
  00065	8b c6		 mov	 eax, esi
  00067	5e		 pop	 esi
  00068	e8 00 00 00 00	 call	 @__security_check_cookie@4
  0006d	83 c4 0c	 add	 esp, 12			; 0000000cH
  00070	c3		 ret	 0
?_AtlGetThreadACPFake@ATL@@YGIXZ ENDP			; ATL::_AtlGetThreadACPFake
_TEXT	ENDS
PUBLIC	?_AtlGetThreadACPReal@ATL@@YGIXZ		; ATL::_AtlGetThreadACPReal
; Function compile flags: /Ogty
;	COMDAT ?_AtlGetThreadACPReal@ATL@@YGIXZ
_TEXT	SEGMENT
?_AtlGetThreadACPReal@ATL@@YGIXZ PROC NEAR		; ATL::_AtlGetThreadACPReal, COMDAT

; 128  : 	return( CP_THREAD_ACP );

  00000	b8 03 00 00 00	 mov	 eax, 3

; 129  : }

  00005	c3		 ret	 0
?_AtlGetThreadACPReal@ATL@@YGIXZ ENDP			; ATL::_AtlGetThreadACPReal
_TEXT	ENDS
EXTRN	__imp__GetVersionExA@4:NEAR
; Function compile flags: /Ogty
;	COMDAT ?_AtlGetThreadACPThunk@ATL@@YGIXZ
_TEXT	SEGMENT
_ver$ = -152						; size = 148
__$ArrayPad$ = -4					; size = 4
__$ReturnAddr$ = 4					; size = 4
?_AtlGetThreadACPThunk@ATL@@YGIXZ PROC NEAR		; ATL::_AtlGetThreadACPThunk, COMDAT

; 134  : {

  00000	81 ec 98 00 00
	00		 sub	 esp, 152		; 00000098H
  00006	a1 00 00 00 00	 mov	 eax, DWORD PTR ___security_cookie
  0000b	89 84 24 94 00
	00 00		 mov	 DWORD PTR __$ArrayPad$[esp+152], eax

; 135  : 	OSVERSIONINFO ver;
; 136  : 	ATLGETTHREADACP pfnGetThreadACP;
; 137  : 
; 138  : 	ver.dwOSVersionInfoSize = sizeof( ver );
; 139  : 	::GetVersionEx( &ver );

  00012	8d 04 24	 lea	 eax, DWORD PTR _ver$[esp+152]
  00015	50		 push	 eax
  00016	c7 44 24 04 94
	00 00 00	 mov	 DWORD PTR _ver$[esp+156], 148 ; 00000094H
  0001e	ff 15 00 00 00
	00		 call	 DWORD PTR __imp__GetVersionExA@4

; 140  : 	if( (ver.dwPlatformId == VER_PLATFORM_WIN32_NT) && (ver.dwMajorVersion >= 5) )

  00024	83 7c 24 10 02	 cmp	 DWORD PTR _ver$[esp+168], 2
  00029	75 0c		 jne	 SHORT $L25230
  0002b	83 7c 24 04 05	 cmp	 DWORD PTR _ver$[esp+156], 5

; 141  : 	{
; 142  : 		// On Win2K, CP_THREAD_ACP is supported
; 143  : 		pfnGetThreadACP = _AtlGetThreadACPReal;

  00030	b8 00 00 00 00	 mov	 eax, OFFSET FLAT:?_AtlGetThreadACPReal@ATL@@YGIXZ ; ATL::_AtlGetThreadACPReal
  00035	73 05		 jae	 SHORT $L25231
$L25230:

; 144  : 	}
; 145  : 	else
; 146  : 	{
; 147  : 		pfnGetThreadACP = _AtlGetThreadACPFake;

  00037	b8 00 00 00 00	 mov	 eax, OFFSET FLAT:?_AtlGetThreadACPFake@ATL@@YGIXZ ; ATL::_AtlGetThreadACPFake
$L25231:

; 148  : 	}
; 149  : 	InterlockedExchangePointer( reinterpret_cast< void** >(&g_pfnGetThreadACP), pfnGetThreadACP );

  0003c	50		 push	 eax
  0003d	68 00 00 00 00	 push	 OFFSET FLAT:?g_pfnGetThreadACP@ATL@@3P6GIXZA ; ATL::g_pfnGetThreadACP
  00042	ff 15 00 00 00
	00		 call	 DWORD PTR __imp__InterlockedExchange@8

; 150  : 
; 151  : 	return( g_pfnGetThreadACP() );

  00048	ff 15 00 00 00
	00		 call	 DWORD PTR ?g_pfnGetThreadACP@ATL@@3P6GIXZA ; ATL::g_pfnGetThreadACP

; 152  : }

  0004e	8b 8c 24 94 00
	00 00		 mov	 ecx, DWORD PTR __$ArrayPad$[esp+152]
  00055	e8 00 00 00 00	 call	 @__security_check_cookie@4
  0005a	81 c4 98 00 00
	00		 add	 esp, 152		; 00000098H
  00060	c3		 ret	 0
?_AtlGetThreadACPThunk@ATL@@YGIXZ ENDP			; ATL::_AtlGetThreadACPThunk
_TEXT	ENDS
PUBLIC	?_AtlGetConversionACP@ATL@@YGIXZ		; ATL::_AtlGetConversionACP
; Function compile flags: /Ogty
;	COMDAT ?_AtlGetConversionACP@ATL@@YGIXZ
_TEXT	SEGMENT
?_AtlGetConversionACP@ATL@@YGIXZ PROC NEAR		; ATL::_AtlGetConversionACP, COMDAT

; 158  : 	return( g_pfnGetThreadACP() );

  00000	ff 25 00 00 00
	00		 jmp	 DWORD PTR ?g_pfnGetThreadACP@ATL@@3P6GIXZA ; ATL::g_pfnGetThreadACP
?_AtlGetConversionACP@ATL@@YGIXZ ENDP			; ATL::_AtlGetConversionACP
_TEXT	ENDS
PUBLIC	?AtlA2WHelper@@YGPA_WPA_WPBDHI@Z		; AtlA2WHelper
EXTRN	__imp__MultiByteToWideChar@24:NEAR
; Function compile flags: /Ogty
;	COMDAT ?AtlA2WHelper@@YGPA_WPA_WPBDHI@Z
_TEXT	SEGMENT
_lpw$ = 8						; size = 4
_lpa$ = 12						; size = 4
_nChars$ = 16						; size = 4
_acp$ = 20						; size = 4
?AtlA2WHelper@@YGPA_WPA_WPBDHI@Z PROC NEAR		; AtlA2WHelper, COMDAT

; 554  : {

  00000	56		 push	 esi

; 555  : 	ATLASSERT(lpa != NULL);
; 556  : 	ATLASSERT(lpw != NULL);
; 557  : 	if (lpw == NULL || lpa == NULL)

  00001	8b 74 24 08	 mov	 esi, DWORD PTR _lpw$[esp]
  00005	85 f6		 test	 esi, esi
  00007	74 2d		 je	 SHORT $L25363
  00009	8b 44 24 0c	 mov	 eax, DWORD PTR _lpa$[esp]
  0000d	85 c0		 test	 eax, eax
  0000f	74 25		 je	 SHORT $L25363

; 559  : 	// verify that no illegal character present
; 560  : 	// since lpw was allocated based on the size of lpa
; 561  : 	// don't worry about the number of chars
; 562  : 	lpw[0] = '\0';
; 563  : 	int ret = MultiByteToWideChar(acp, 0, lpa, -1, lpw, nChars);

  00011	8b 4c 24 10	 mov	 ecx, DWORD PTR _nChars$[esp]
  00015	8b 54 24 14	 mov	 edx, DWORD PTR _acp$[esp]
  00019	51		 push	 ecx
  0001a	56		 push	 esi
  0001b	6a ff		 push	 -1
  0001d	50		 push	 eax
  0001e	6a 00		 push	 0
  00020	52		 push	 edx
  00021	66 c7 06 00 00	 mov	 WORD PTR [esi], 0
  00026	ff 15 00 00 00
	00		 call	 DWORD PTR __imp__MultiByteToWideChar@24

; 564  : 	if(ret == 0)

  0002c	f7 d8		 neg	 eax
  0002e	1b c0		 sbb	 eax, eax
  00030	23 c6		 and	 eax, esi
  00032	5e		 pop	 esi

; 565  : 	{
; 566  : 		ATLASSERT(FALSE);
; 567  : 		return NULL;
; 568  : 	}		
; 569  : 	return lpw;
; 570  : }

  00033	c2 10 00	 ret	 16			; 00000010H
$L25363:

; 558  : 		return NULL;

  00036	33 c0		 xor	 eax, eax
  00038	5e		 pop	 esi

; 565  : 	{
; 566  : 		ATLASSERT(FALSE);
; 567  : 		return NULL;
; 568  : 	}		
; 569  : 	return lpw;
; 570  : }

  00039	c2 10 00	 ret	 16			; 00000010H
?AtlA2WHelper@@YGPA_WPA_WPBDHI@Z ENDP			; AtlA2WHelper
_TEXT	ENDS
PUBLIC	?AtlW2AHelper@@YGPADPADPB_WHI@Z			; AtlW2AHelper
EXTRN	__imp__WideCharToMultiByte@32:NEAR
; Function compile flags: /Ogty
;	COMDAT ?AtlW2AHelper@@YGPADPADPB_WHI@Z
_TEXT	SEGMENT
_lpa$ = 8						; size = 4
_lpw$ = 12						; size = 4
_nChars$ = 16						; size = 4
_acp$ = 20						; size = 4
?AtlW2AHelper@@YGPADPADPB_WHI@Z PROC NEAR		; AtlW2AHelper, COMDAT

; 573  : {

  00000	56		 push	 esi

; 574  : 	ATLASSERT(lpw != NULL);
; 575  : 	ATLASSERT(lpa != NULL);
; 576  : 	if (lpa == NULL || lpw == NULL)

  00001	8b 74 24 08	 mov	 esi, DWORD PTR _lpa$[esp]
  00005	85 f6		 test	 esi, esi
  00007	74 2f		 je	 SHORT $L25376
  00009	8b 44 24 0c	 mov	 eax, DWORD PTR _lpw$[esp]
  0000d	85 c0		 test	 eax, eax
  0000f	74 27		 je	 SHORT $L25376

; 578  : 	// verify that no illegal character present
; 579  : 	// since lpa was allocated based on the size of lpw
; 580  : 	// don't worry about the number of chars
; 581  : 	lpa[0] = '\0';
; 582  : 	int ret = WideCharToMultiByte(acp, 0, lpw, -1, lpa, nChars, NULL, NULL);

  00011	8b 4c 24 10	 mov	 ecx, DWORD PTR _nChars$[esp]
  00015	8b 54 24 14	 mov	 edx, DWORD PTR _acp$[esp]
  00019	6a 00		 push	 0
  0001b	6a 00		 push	 0
  0001d	51		 push	 ecx
  0001e	56		 push	 esi
  0001f	6a ff		 push	 -1
  00021	50		 push	 eax
  00022	6a 00		 push	 0
  00024	52		 push	 edx
  00025	c6 06 00	 mov	 BYTE PTR [esi], 0
  00028	ff 15 00 00 00
	00		 call	 DWORD PTR __imp__WideCharToMultiByte@32

; 583  : 	if(ret == 0)

  0002e	f7 d8		 neg	 eax
  00030	1b c0		 sbb	 eax, eax
  00032	23 c6		 and	 eax, esi
  00034	5e		 pop	 esi

; 584  : 	{
; 585  : 		ATLASSERT(FALSE);
; 586  : 		return NULL;
; 587  : 	}
; 588  : 	return lpa;
; 589  : }

  00035	c2 10 00	 ret	 16			; 00000010H
$L25376:

; 577  : 		return NULL;

  00038	33 c0		 xor	 eax, eax
  0003a	5e		 pop	 esi

; 584  : 	{
; 585  : 		ATLASSERT(FALSE);
; 586  : 		return NULL;
; 587  : 	}
; 588  : 	return lpa;
; 589  : }

  0003b	c2 10 00	 ret	 16			; 00000010H
?AtlW2AHelper@@YGPADPADPB_WHI@Z ENDP			; AtlW2AHelper
_TEXT	ENDS
PUBLIC	?AtlThrow@ATL@@YGXJ@Z				; ATL::AtlThrow
EXTRN	?AfxThrowMemoryException@@YGXXZ:NEAR		; AfxThrowMemoryException
EXTRN	?AfxThrowOleException@@YGXJ@Z:NEAR		; AfxThrowOleException
; Function compile flags: /Ogty
; File d:\program files\microsoft visual studio .net 2003\vc7\atlmfc\include\atlexcept.h
;	COMDAT ?AtlThrow@ATL@@YGXJ@Z
_TEXT	SEGMENT
_hr$ = 8						; size = 4
?AtlThrow@ATL@@YGXJ@Z PROC NEAR				; ATL::AtlThrow, COMDAT

; 62   : 	ATLTRACE(atlTraceException, 0, _T("AtlThrow: hr = 0x%x\n"), hr );
; 63   : #ifdef _AFX
; 64   : 	if( hr == E_OUTOFMEMORY )

  00000	8b 44 24 04	 mov	 eax, DWORD PTR _hr$[esp-4]
  00004	3d 0e 00 07 80	 cmp	 eax, -2147024882	; 8007000eH
  00009	75 05		 jne	 SHORT $L25738

; 65   : 	{
; 66   : 		AfxThrowMemoryException();

  0000b	e8 00 00 00 00	 call	 ?AfxThrowMemoryException@@YGXXZ ; AfxThrowMemoryException
$L25738:

; 67   : 	}
; 68   : 	else
; 69   : 	{
; 70   : 		AfxThrowOleException( hr );

  00010	50		 push	 eax
  00011	e8 00 00 00 00	 call	 ?AfxThrowOleException@@YGXJ@Z ; AfxThrowOleException
$L66280:
  00016	cc		 int	 3
?AtlThrow@ATL@@YGXJ@Z ENDP				; ATL::AtlThrow
_TEXT	ENDS
PUBLIC	?AtlThrowLastWin32@ATL@@YGXXZ			; ATL::AtlThrowLastWin32
EXTRN	__imp__GetLastError@0:NEAR
; Function compile flags: /Ogty
;	COMDAT ?AtlThrowLastWin32@ATL@@YGXXZ
_TEXT	SEGMENT
?AtlThrowLastWin32@ATL@@YGXXZ PROC NEAR			; ATL::AtlThrowLastWin32, COMDAT

; 81   : 	DWORD dwError = ::GetLastError();

  00000	ff 15 00 00 00
	00		 call	 DWORD PTR __imp__GetLastError@0

; 82   : 	AtlThrow( HRESULT_FROM_WIN32( dwError ) );

  00006	85 c0		 test	 eax, eax
  00008	7e 0a		 jle	 SHORT $L66284
  0000a	25 ff ff 00 00	 and	 eax, 65535		; 0000ffffH
  0000f	0d 00 00 07 80	 or	 eax, -2147024896	; 80070000H
$L66284:
  00014	50		 push	 eax
  00015	e8 00 00 00 00	 call	 ?AtlThrow@ATL@@YGXJ@Z	; ATL::AtlThrow
$L66285:
  0001a	cc		 int	 3
?AtlThrowLastWin32@ATL@@YGXXZ ENDP			; ATL::AtlThrowLastWin32
_TEXT	ENDS
PUBLIC	?_AtlInstallStringThunk@ATL@@YAXPAPAXPAX1@Z	; ATL::_AtlInstallStringThunk
PUBLIC	?s_bWin9x@?1??_AtlInstallStringThunk@ATL@@YAXPAPAXPAX1@Z@4_NA ; `ATL::_AtlInstallStringThunk'::`2'::s_bWin9x
PUBLIC	??_B?1??_AtlInstallStringThunk@ATL@@YAXPAPAXPAX1@Z@51 ; `ATL::_AtlInstallStringThunk'::`2'::`local static guard'
EXTRN	__imp__GetVersion@0:NEAR
;	COMDAT ?s_bWin9x@?1??_AtlInstallStringThunk@ATL@@YAXPAPAXPAX1@Z@4_NA
; File d:\program files\microsoft visual studio .net 2003\vc7\atlmfc\include\atlconv.h
_BSS	SEGMENT
?s_bWin9x@?1??_AtlInstallStringThunk@ATL@@YAXPAPAXPAX1@Z@4_NA DB 01H DUP (?) ; `ATL::_AtlInstallStringThunk'::`2'::s_bWin9x
_BSS	ENDS
;	COMDAT ??_B?1??_AtlInstallStringThunk@ATL@@YAXPAPAXPAX1@Z@51
_BSS	SEGMENT
??_B?1??_AtlInstallStringThunk@ATL@@YAXPAPAXPAX1@Z@51 DD 01H DUP (?) ; `ATL::_AtlInstallStringThunk'::`2'::`local static guard'
; Function compile flags: /Ogty
; File d:\program files\microsoft visual studio .net 2003\vc7\atlmfc\include\cstringt.h
_BSS	ENDS
;	COMDAT ?_AtlInstallStringThunk@ATL@@YAXPAPAXPAX1@Z
_TEXT	SEGMENT
_ppThunk$ = 8						; size = 4
_pfnWin9x$ = 12						; size = 4
_pfnNT$ = 16						; size = 4
?_AtlInstallStringThunk@ATL@@YAXPAPAXPAX1@Z PROC NEAR	; ATL::_AtlInstallStringThunk, COMDAT

; 116  : #pragma warning (push)
; 117  : #pragma warning (disable : 4640)	// construction of local static object is not thread-safe
; 118  : 
; 119  : 	static bool s_bWin9x = (::GetVersion()&0x80000000) != 0;

  00000	f6 05 00 00 00
	00 01		 test	 BYTE PTR ??_B?1??_AtlInstallStringThunk@ATL@@YAXPAPAXPAX1@Z@51, 1
  00007	75 19		 jne	 SHORT $L66291
  00009	83 0d 00 00 00
	00 01		 or	 DWORD PTR ??_B?1??_AtlInstallStringThunk@ATL@@YAXPAPAXPAX1@Z@51, 1
  00010	ff 15 00 00 00
	00		 call	 DWORD PTR __imp__GetVersion@0
  00016	c1 e8 1f	 shr	 eax, 31			; 0000001fH
  00019	24 01		 and	 al, 1
  0001b	a2 00 00 00 00	 mov	 BYTE PTR ?s_bWin9x@?1??_AtlInstallStringThunk@ATL@@YAXPAPAXPAX1@Z@4_NA, al ; `ATL::_AtlInstallStringThunk'::`2'::s_bWin9x
  00020	eb 05		 jmp	 SHORT $L26698
$L66291:
  00022	a0 00 00 00 00	 mov	 al, BYTE PTR ?s_bWin9x@?1??_AtlInstallStringThunk@ATL@@YAXPAPAXPAX1@Z@4_NA ; `ATL::_AtlInstallStringThunk'::`2'::s_bWin9x
$L26698:

; 120  : 	
; 121  : #pragma warning (pop)
; 122  : 
; 123  : 	void* pfn;
; 124  : 	if (s_bWin9x)

  00027	84 c0		 test	 al, al

; 125  : 		pfn = pfnWin9x;

  00029	8b 44 24 08	 mov	 eax, DWORD PTR _pfnWin9x$[esp-4]
  0002d	75 04		 jne	 SHORT $L26701

; 126  : 	else
; 127  : 	{
; 128  : #ifdef _CSTRING_ALWAYS_THUNK
; 129  : 		pfn = pfnWin9x;
; 130  : 		(void)pfnNT;
; 131  : #else
; 132  : 		pfn = pfnNT;

  0002f	8b 44 24 0c	 mov	 eax, DWORD PTR _pfnNT$[esp-4]
$L26701:

; 133  : #endif
; 134  : 	}
; 135  : 	InterlockedExchangePointer(ppThunk, pfn);

  00033	50		 push	 eax
  00034	8b 44 24 08	 mov	 eax, DWORD PTR _ppThunk$[esp]
  00038	50		 push	 eax
  00039	ff 15 00 00 00
	00		 call	 DWORD PTR __imp__InterlockedExchange@8

; 136  : }

  0003f	c3		 ret	 0
?_AtlInstallStringThunk@ATL@@YAXPAPAXPAX1@Z ENDP	; ATL::_AtlInstallStringThunk
_TEXT	ENDS
PUBLIC	?lstrcmpiWFake@ATL@@YGHPB_W0@Z			; ATL::lstrcmpiWFake
EXTRN	__imp__lstrcmpiA@8:NEAR
EXTRN	__imp__lstrlenW@4:NEAR
; Function compile flags: /Ogty
;	COMDAT ?lstrcmpiWFake@ATL@@YGHPB_W0@Z
_TEXT	SEGMENT
__acp$ = -4						; size = 4
_psz1$ = 8						; size = 4
_psz2$ = 12						; size = 4
?lstrcmpiWFake@ATL@@YGHPB_W0@Z PROC NEAR		; ATL::lstrcmpiWFake, COMDAT

; 247  : {

  00000	55		 push	 ebp
  00001	8b ec		 mov	 ebp, esp
  00003	51		 push	 ecx
  00004	53		 push	 ebx
  00005	56		 push	 esi
  00006	57		 push	 edi

; 248  : 	USES_CONVERSION;

  00007	ff 15 00 00 00
	00		 call	 DWORD PTR ?g_pfnGetThreadACP@ATL@@3P6GIXZA ; ATL::g_pfnGetThreadACP

; 249  : 
; 250  : 	return ::lstrcmpiA(W2A(psz1), W2A(psz2));

  0000d	8b 75 0c	 mov	 esi, DWORD PTR _psz2$[ebp]
  00010	85 f6		 test	 esi, esi
  00012	89 45 fc	 mov	 DWORD PTR __acp$[ebp], eax
  00015	74 40		 je	 SHORT $L66305
  00017	56		 push	 esi
  00018	ff 15 00 00 00
	00		 call	 DWORD PTR __imp__lstrlenW@4
  0001e	8d 5c 00 02	 lea	 ebx, DWORD PTR [eax+eax+2]
  00022	8b c3		 mov	 eax, ebx
  00024	83 c0 03	 add	 eax, 3
  00027	83 e0 fc	 and	 eax, -4			; fffffffcH
  0002a	e8 00 00 00 00	 call	 __alloca_probe
  0002f	8b fc		 mov	 edi, esp
  00031	85 ff		 test	 edi, edi
  00033	74 22		 je	 SHORT $L66305
  00035	8b 45 fc	 mov	 eax, DWORD PTR __acp$[ebp]
  00038	6a 00		 push	 0
  0003a	6a 00		 push	 0
  0003c	53		 push	 ebx
  0003d	57		 push	 edi
  0003e	6a ff		 push	 -1
  00040	56		 push	 esi
  00041	6a 00		 push	 0
  00043	50		 push	 eax
  00044	c6 07 00	 mov	 BYTE PTR [edi], 0
  00047	ff 15 00 00 00
	00		 call	 DWORD PTR __imp__WideCharToMultiByte@32
  0004d	8b f0		 mov	 esi, eax
  0004f	f7 de		 neg	 esi
  00051	1b f6		 sbb	 esi, esi
  00053	23 f7		 and	 esi, edi
  00055	eb 02		 jmp	 SHORT $L66303
$L66305:
  00057	33 f6		 xor	 esi, esi
$L66303:
  00059	8b 45 08	 mov	 eax, DWORD PTR _psz1$[ebp]
  0005c	85 c0		 test	 eax, eax
  0005e	74 53		 je	 SHORT $L66314
  00060	50		 push	 eax
  00061	ff 15 00 00 00
	00		 call	 DWORD PTR __imp__lstrlenW@4
  00067	8d 5c 00 02	 lea	 ebx, DWORD PTR [eax+eax+2]
  0006b	8b c3		 mov	 eax, ebx
  0006d	83 c0 03	 add	 eax, 3
  00070	83 e0 fc	 and	 eax, -4			; fffffffcH
  00073	e8 00 00 00 00	 call	 __alloca_probe
  00078	8b fc		 mov	 edi, esp
  0007a	85 ff		 test	 edi, edi
  0007c	74 35		 je	 SHORT $L66314
  0007e	8b 4d 08	 mov	 ecx, DWORD PTR _psz1$[ebp]
  00081	8b 55 fc	 mov	 edx, DWORD PTR __acp$[ebp]
  00084	6a 00		 push	 0
  00086	6a 00		 push	 0
  00088	53		 push	 ebx
  00089	57		 push	 edi
  0008a	6a ff		 push	 -1
  0008c	51		 push	 ecx
  0008d	6a 00		 push	 0
  0008f	52		 push	 edx
  00090	c6 07 00	 mov	 BYTE PTR [edi], 0
  00093	ff 15 00 00 00
	00		 call	 DWORD PTR __imp__WideCharToMultiByte@32
  00099	f7 d8		 neg	 eax
  0009b	1b c0		 sbb	 eax, eax
  0009d	23 c7		 and	 eax, edi
  0009f	56		 push	 esi
  000a0	50		 push	 eax
  000a1	ff 15 00 00 00
	00		 call	 DWORD PTR __imp__lstrcmpiA@8

; 251  : }

  000a7	8d 65 f0	 lea	 esp, DWORD PTR [ebp-16]
  000aa	5f		 pop	 edi
  000ab	5e		 pop	 esi
  000ac	5b		 pop	 ebx
  000ad	8b e5		 mov	 esp, ebp
  000af	5d		 pop	 ebp
  000b0	c2 08 00	 ret	 8

; 249  : 
; 250  : 	return ::lstrcmpiA(W2A(psz1), W2A(psz2));

$L66314:
  000b3	33 c0		 xor	 eax, eax
  000b5	56		 push	 esi
  000b6	50		 push	 eax
  000b7	ff 15 00 00 00
	00		 call	 DWORD PTR __imp__lstrcmpiA@8

; 251  : }

  000bd	8d 65 f0	 lea	 esp, DWORD PTR [ebp-16]
  000c0	5f		 pop	 edi
  000c1	5e		 pop	 esi
  000c2	5b		 pop	 ebx
  000c3	8b e5		 mov	 esp, ebp
  000c5	5d		 pop	 ebp
  000c6	c2 08 00	 ret	 8
?lstrcmpiWFake@ATL@@YGHPB_W0@Z ENDP			; ATL::lstrcmpiWFake
_TEXT	ENDS
EXTRN	__imp__lstrcmpiW@8:NEAR
; Function compile flags: /Ogty
;	COMDAT ?lstrcmpiWThunk@ATL@@YGHPB_W0@Z
_TEXT	SEGMENT
_psz1$ = 8						; size = 4
_psz2$ = 12						; size = 4
?lstrcmpiWThunk@ATL@@YGHPB_W0@Z PROC NEAR		; ATL::lstrcmpiWThunk, COMDAT

; 255  : 	_AtlInstallStringThunk(reinterpret_cast<void**>(&_strthunks.pfnlstrcmpiW), lstrcmpiWFake, ::lstrcmpiW);

  00000	f6 05 00 00 00
	00 01		 test	 BYTE PTR ??_B?1??_AtlInstallStringThunk@ATL@@YAXPAPAXPAX1@Z@51, 1
  00007	75 19		 jne	 SHORT $L66333
  00009	83 0d 00 00 00
	00 01		 or	 DWORD PTR ??_B?1??_AtlInstallStringThunk@ATL@@YAXPAPAXPAX1@Z@51, 1
  00010	ff 15 00 00 00
	00		 call	 DWORD PTR __imp__GetVersion@0
  00016	c1 e8 1f	 shr	 eax, 31			; 0000001fH
  00019	24 01		 and	 al, 1
  0001b	a2 00 00 00 00	 mov	 BYTE PTR ?s_bWin9x@?1??_AtlInstallStringThunk@ATL@@YAXPAPAXPAX1@Z@4_NA, al ; `ATL::_AtlInstallStringThunk'::`2'::s_bWin9x
  00020	eb 05		 jmp	 SHORT $L66325
$L66333:
  00022	a0 00 00 00 00	 mov	 al, BYTE PTR ?s_bWin9x@?1??_AtlInstallStringThunk@ATL@@YAXPAPAXPAX1@Z@4_NA ; `ATL::_AtlInstallStringThunk'::`2'::s_bWin9x
$L66325:
  00027	84 c0		 test	 al, al
  00029	b8 00 00 00 00	 mov	 eax, OFFSET FLAT:?lstrcmpiWFake@ATL@@YGHPB_W0@Z ; ATL::lstrcmpiWFake
  0002e	75 05		 jne	 SHORT $L66328
  00030	a1 00 00 00 00	 mov	 eax, DWORD PTR __imp__lstrcmpiW@8
$L66328:
  00035	50		 push	 eax
  00036	68 08 00 00 00	 push	 OFFSET FLAT:?_strthunks@ATL@@3U_AtlStringThunks@1@A+8
  0003b	ff 15 00 00 00
	00		 call	 DWORD PTR __imp__InterlockedExchange@8

; 256  : 
; 257  : 	return _strthunks.pfnlstrcmpiW(psz1, psz2);

  00041	ff 25 08 00 00
	00		 jmp	 DWORD PTR ?_strthunks@ATL@@3U_AtlStringThunks@1@A+8
?lstrcmpiWThunk@ATL@@YGHPB_W0@Z ENDP			; ATL::lstrcmpiWThunk
_TEXT	ENDS
PUBLIC	?CharLowerWFake@ATL@@YGPA_WPA_W@Z		; ATL::CharLowerWFake
EXTRN	__imp__wcscpy:NEAR
EXTRN	__imp__lstrlenA@4:NEAR
EXTRN	__imp__CharLowerA@4:NEAR
; Function compile flags: /Ogty
;	COMDAT ?CharLowerWFake@ATL@@YGPA_WPA_W@Z
_TEXT	SEGMENT
__acp$ = -4						; size = 4
_psz$ = 8						; size = 4
?CharLowerWFake@ATL@@YGPA_WPA_W@Z PROC NEAR		; ATL::CharLowerWFake, COMDAT

; 261  : {

  00000	55		 push	 ebp
  00001	8b ec		 mov	 ebp, esp
  00003	51		 push	 ecx
  00004	53		 push	 ebx
  00005	56		 push	 esi
  00006	57		 push	 edi

; 262  : 	USES_CONVERSION;

  00007	ff 15 00 00 00
	00		 call	 DWORD PTR ?g_pfnGetThreadACP@ATL@@3P6GIXZA ; ATL::g_pfnGetThreadACP

; 263  : 	LPSTR pszA;
; 264  : 
; 265  : 	pszA = W2A(psz);

  0000d	8b 5d 08	 mov	 ebx, DWORD PTR _psz$[ebp]
  00010	85 db		 test	 ebx, ebx
  00012	89 45 fc	 mov	 DWORD PTR __acp$[ebp], eax
  00015	74 40		 je	 SHORT $L66347
  00017	53		 push	 ebx
  00018	ff 15 00 00 00
	00		 call	 DWORD PTR __imp__lstrlenW@4
  0001e	8d 74 00 02	 lea	 esi, DWORD PTR [eax+eax+2]
  00022	8b c6		 mov	 eax, esi
  00024	83 c0 03	 add	 eax, 3
  00027	83 e0 fc	 and	 eax, -4			; fffffffcH
  0002a	e8 00 00 00 00	 call	 __alloca_probe
  0002f	8b fc		 mov	 edi, esp
  00031	85 ff		 test	 edi, edi
  00033	74 22		 je	 SHORT $L66347
  00035	8b 45 fc	 mov	 eax, DWORD PTR __acp$[ebp]
  00038	6a 00		 push	 0
  0003a	6a 00		 push	 0
  0003c	56		 push	 esi
  0003d	57		 push	 edi
  0003e	6a ff		 push	 -1
  00040	53		 push	 ebx
  00041	6a 00		 push	 0
  00043	50		 push	 eax
  00044	c6 07 00	 mov	 BYTE PTR [edi], 0
  00047	ff 15 00 00 00
	00		 call	 DWORD PTR __imp__WideCharToMultiByte@32
  0004d	8b f0		 mov	 esi, eax
  0004f	f7 de		 neg	 esi
  00051	1b f6		 sbb	 esi, esi
  00053	23 f7		 and	 esi, edi
  00055	eb 02		 jmp	 SHORT $L66345
$L66347:
  00057	33 f6		 xor	 esi, esi
$L66345:

; 266  : 	::CharLowerA(pszA);

  00059	56		 push	 esi
  0005a	ff 15 00 00 00
	00		 call	 DWORD PTR __imp__CharLowerA@4

; 267  : 	wcscpy(psz, A2W(pszA));

  00060	85 f6		 test	 esi, esi
  00062	74 42		 je	 SHORT $L66362
  00064	56		 push	 esi
  00065	ff 15 00 00 00
	00		 call	 DWORD PTR __imp__lstrlenA@4
  0006b	8b d8		 mov	 ebx, eax
  0006d	43		 inc	 ebx
  0006e	8d 04 1b	 lea	 eax, DWORD PTR [ebx+ebx]
  00071	83 c0 03	 add	 eax, 3
  00074	83 e0 fc	 and	 eax, -4			; fffffffcH
  00077	e8 00 00 00 00	 call	 __alloca_probe
  0007c	8b fc		 mov	 edi, esp
  0007e	85 ff		 test	 edi, edi
  00080	74 21		 je	 SHORT $L66356
  00082	8b 4d fc	 mov	 ecx, DWORD PTR __acp$[ebp]
  00085	53		 push	 ebx
  00086	57		 push	 edi
  00087	6a ff		 push	 -1
  00089	56		 push	 esi
  0008a	6a 00		 push	 0
  0008c	51		 push	 ecx
  0008d	66 c7 07 00 00	 mov	 WORD PTR [edi], 0
  00092	ff 15 00 00 00
	00		 call	 DWORD PTR __imp__MultiByteToWideChar@24
  00098	8b 5d 08	 mov	 ebx, DWORD PTR _psz$[ebp]
  0009b	f7 d8		 neg	 eax
  0009d	1b c0		 sbb	 eax, eax
  0009f	23 c7		 and	 eax, edi
  000a1	eb 05		 jmp	 SHORT $L66354
$L66356:
  000a3	8b 5d 08	 mov	 ebx, DWORD PTR _psz$[ebp]
$L66362:
  000a6	33 c0		 xor	 eax, eax
$L66354:
  000a8	50		 push	 eax
  000a9	53		 push	 ebx
  000aa	ff 15 00 00 00
	00		 call	 DWORD PTR __imp__wcscpy
  000b0	83 c4 08	 add	 esp, 8

; 268  : 
; 269  : 	return psz;

  000b3	8b c3		 mov	 eax, ebx

; 270  : }

  000b5	8d 65 f0	 lea	 esp, DWORD PTR [ebp-16]
  000b8	5f		 pop	 edi
  000b9	5e		 pop	 esi
  000ba	5b		 pop	 ebx
  000bb	8b e5		 mov	 esp, ebp
  000bd	5d		 pop	 ebp
  000be	c2 04 00	 ret	 4
?CharLowerWFake@ATL@@YGPA_WPA_W@Z ENDP			; ATL::CharLowerWFake
_TEXT	ENDS
EXTRN	__imp__CharLowerW@4:NEAR
; Function compile flags: /Ogty
;	COMDAT ?CharLowerWThunk@ATL@@YGPA_WPA_W@Z
_TEXT	SEGMENT
_psz$ = 8						; size = 4
?CharLowerWThunk@ATL@@YGPA_WPA_W@Z PROC NEAR		; ATL::CharLowerWThunk, COMDAT

; 274  : 	_AtlInstallStringThunk(reinterpret_cast<void**>(&_strthunks.pfnCharLowerW), CharLowerWFake, ::CharLowerW);

  00000	f6 05 00 00 00
	00 01		 test	 BYTE PTR ??_B?1??_AtlInstallStringThunk@ATL@@YAXPAPAXPAX1@Z@51, 1
  00007	75 19		 jne	 SHORT $L66377
  00009	83 0d 00 00 00
	00 01		 or	 DWORD PTR ??_B?1??_AtlInstallStringThunk@ATL@@YAXPAPAXPAX1@Z@51, 1
  00010	ff 15 00 00 00
	00		 call	 DWORD PTR __imp__GetVersion@0
  00016	c1 e8 1f	 shr	 eax, 31			; 0000001fH
  00019	24 01		 and	 al, 1
  0001b	a2 00 00 00 00	 mov	 BYTE PTR ?s_bWin9x@?1??_AtlInstallStringThunk@ATL@@YAXPAPAXPAX1@Z@4_NA, al ; `ATL::_AtlInstallStringThunk'::`2'::s_bWin9x
  00020	eb 05		 jmp	 SHORT $L66369
$L66377:
  00022	a0 00 00 00 00	 mov	 al, BYTE PTR ?s_bWin9x@?1??_AtlInstallStringThunk@ATL@@YAXPAPAXPAX1@Z@4_NA ; `ATL::_AtlInstallStringThunk'::`2'::s_bWin9x
$L66369:
  00027	84 c0		 test	 al, al
  00029	b8 00 00 00 00	 mov	 eax, OFFSET FLAT:?CharLowerWFake@ATL@@YGPA_WPA_W@Z ; ATL::CharLowerWFake
  0002e	75 05		 jne	 SHORT $L66372
  00030	a1 00 00 00 00	 mov	 eax, DWORD PTR __imp__CharLowerW@4
$L66372:
  00035	50		 push	 eax
  00036	68 0c 00 00 00	 push	 OFFSET FLAT:?_strthunks@ATL@@3U_AtlStringThunks@1@A+12
  0003b	ff 15 00 00 00
	00		 call	 DWORD PTR __imp__InterlockedExchange@8

; 275  : 
; 276  : 	return _strthunks.pfnCharLowerW(psz);

  00041	ff 25 0c 00 00
	00		 jmp	 DWORD PTR ?_strthunks@ATL@@3U_AtlStringThunks@1@A+12
?CharLowerWThunk@ATL@@YGPA_WPA_W@Z ENDP			; ATL::CharLowerWThunk
_TEXT	ENDS
PUBLIC	?CharUpperWFake@ATL@@YGPA_WPA_W@Z		; ATL::CharUpperWFake
EXTRN	__imp__CharUpperA@4:NEAR
; Function compile flags: /Ogty
;	COMDAT ?CharUpperWFake@ATL@@YGPA_WPA_W@Z
_TEXT	SEGMENT
__acp$ = -4						; size = 4
_psz$ = 8						; size = 4
?CharUpperWFake@ATL@@YGPA_WPA_W@Z PROC NEAR		; ATL::CharUpperWFake, COMDAT

; 280  : {

  00000	55		 push	 ebp
  00001	8b ec		 mov	 ebp, esp
  00003	51		 push	 ecx
  00004	53		 push	 ebx
  00005	56		 push	 esi
  00006	57		 push	 edi

; 281  : 	USES_CONVERSION;

  00007	ff 15 00 00 00
	00		 call	 DWORD PTR ?g_pfnGetThreadACP@ATL@@3P6GIXZA ; ATL::g_pfnGetThreadACP

; 282  : 	LPSTR pszA;
; 283  : 
; 284  : 	pszA = W2A(psz);

  0000d	8b 5d 08	 mov	 ebx, DWORD PTR _psz$[ebp]
  00010	85 db		 test	 ebx, ebx
  00012	89 45 fc	 mov	 DWORD PTR __acp$[ebp], eax
  00015	74 40		 je	 SHORT $L66391
  00017	53		 push	 ebx
  00018	ff 15 00 00 00
	00		 call	 DWORD PTR __imp__lstrlenW@4
  0001e	8d 74 00 02	 lea	 esi, DWORD PTR [eax+eax+2]
  00022	8b c6		 mov	 eax, esi
  00024	83 c0 03	 add	 eax, 3
  00027	83 e0 fc	 and	 eax, -4			; fffffffcH
  0002a	e8 00 00 00 00	 call	 __alloca_probe
  0002f	8b fc		 mov	 edi, esp
  00031	85 ff		 test	 edi, edi
  00033	74 22		 je	 SHORT $L66391
  00035	8b 45 fc	 mov	 eax, DWORD PTR __acp$[ebp]
  00038	6a 00		 push	 0
  0003a	6a 00		 push	 0
  0003c	56		 push	 esi
  0003d	57		 push	 edi
  0003e	6a ff		 push	 -1
  00040	53		 push	 ebx
  00041	6a 00		 push	 0
  00043	50		 push	 eax
  00044	c6 07 00	 mov	 BYTE PTR [edi], 0
  00047	ff 15 00 00 00
	00		 call	 DWORD PTR __imp__WideCharToMultiByte@32
  0004d	8b f0		 mov	 esi, eax
  0004f	f7 de		 neg	 esi
  00051	1b f6		 sbb	 esi, esi
  00053	23 f7		 and	 esi, edi
  00055	eb 02		 jmp	 SHORT $L66389
$L66391:
  00057	33 f6		 xor	 esi, esi
$L66389:

; 285  : 	::CharUpperA(pszA);

  00059	56		 push	 esi
  0005a	ff 15 00 00 00
	00		 call	 DWORD PTR __imp__CharUpperA@4

; 286  : 	wcscpy(psz, A2W(pszA));

  00060	85 f6		 test	 esi, esi
  00062	74 42		 je	 SHORT $L66406
  00064	56		 push	 esi
  00065	ff 15 00 00 00
	00		 call	 DWORD PTR __imp__lstrlenA@4
  0006b	8b d8		 mov	 ebx, eax
  0006d	43		 inc	 ebx
  0006e	8d 04 1b	 lea	 eax, DWORD PTR [ebx+ebx]
  00071	83 c0 03	 add	 eax, 3
  00074	83 e0 fc	 and	 eax, -4			; fffffffcH
  00077	e8 00 00 00 00	 call	 __alloca_probe
  0007c	8b fc		 mov	 edi, esp
  0007e	85 ff		 test	 edi, edi
  00080	74 21		 je	 SHORT $L66400
  00082	8b 4d fc	 mov	 ecx, DWORD PTR __acp$[ebp]
  00085	53		 push	 ebx
  00086	57		 push	 edi
  00087	6a ff		 push	 -1
  00089	56		 push	 esi
  0008a	6a 00		 push	 0
  0008c	51		 push	 ecx
  0008d	66 c7 07 00 00	 mov	 WORD PTR [edi], 0
  00092	ff 15 00 00 00
	00		 call	 DWORD PTR __imp__MultiByteToWideChar@24
  00098	8b 5d 08	 mov	 ebx, DWORD PTR _psz$[ebp]
  0009b	f7 d8		 neg	 eax
  0009d	1b c0		 sbb	 eax, eax
  0009f	23 c7		 and	 eax, edi
  000a1	eb 05		 jmp	 SHORT $L66398
$L66400:
  000a3	8b 5d 08	 mov	 ebx, DWORD PTR _psz$[ebp]
$L66406:
  000a6	33 c0		 xor	 eax, eax
$L66398:
  000a8	50		 push	 eax
  000a9	53		 push	 ebx
  000aa	ff 15 00 00 00
	00		 call	 DWORD PTR __imp__wcscpy
  000b0	83 c4 08	 add	 esp, 8

; 287  : 
; 288  : 	return psz;

  000b3	8b c3		 mov	 eax, ebx

; 289  : }

  000b5	8d 65 f0	 lea	 esp, DWORD PTR [ebp-16]
  000b8	5f		 pop	 edi
  000b9	5e		 pop	 esi
  000ba	5b		 pop	 ebx
  000bb	8b e5		 mov	 esp, ebp
  000bd	5d		 pop	 ebp
  000be	c2 04 00	 ret	 4
?CharUpperWFake@ATL@@YGPA_WPA_W@Z ENDP			; ATL::CharUpperWFake
_TEXT	ENDS
EXTRN	__imp__CharUpperW@4:NEAR
; Function compile flags: /Ogty
;	COMDAT ?CharUpperWThunk@ATL@@YGPA_WPA_W@Z
_TEXT	SEGMENT
_psz$ = 8						; size = 4
?CharUpperWThunk@ATL@@YGPA_WPA_W@Z PROC NEAR		; ATL::CharUpperWThunk, COMDAT

; 293  : 	_AtlInstallStringThunk(reinterpret_cast<void**>(&_strthunks.pfnCharUpperW), CharUpperWFake, ::CharUpperW);

  00000	f6 05 00 00 00
	00 01		 test	 BYTE PTR ??_B?1??_AtlInstallStringThunk@ATL@@YAXPAPAXPAX1@Z@51, 1
  00007	75 19		 jne	 SHORT $L66421
  00009	83 0d 00 00 00
	00 01		 or	 DWORD PTR ??_B?1??_AtlInstallStringThunk@ATL@@YAXPAPAXPAX1@Z@51, 1
  00010	ff 15 00 00 00
	00		 call	 DWORD PTR __imp__GetVersion@0
  00016	c1 e8 1f	 shr	 eax, 31			; 0000001fH
  00019	24 01		 and	 al, 1
  0001b	a2 00 00 00 00	 mov	 BYTE PTR ?s_bWin9x@?1??_AtlInstallStringThunk@ATL@@YAXPAPAXPAX1@Z@4_NA, al ; `ATL::_AtlInstallStringThunk'::`2'::s_bWin9x
  00020	eb 05		 jmp	 SHORT $L66413
$L66421:
  00022	a0 00 00 00 00	 mov	 al, BYTE PTR ?s_bWin9x@?1??_AtlInstallStringThunk@ATL@@YAXPAPAXPAX1@Z@4_NA ; `ATL::_AtlInstallStringThunk'::`2'::s_bWin9x
$L66413:
  00027	84 c0		 test	 al, al
  00029	b8 00 00 00 00	 mov	 eax, OFFSET FLAT:?CharUpperWFake@ATL@@YGPA_WPA_W@Z ; ATL::CharUpperWFake
  0002e	75 05		 jne	 SHORT $L66416
  00030	a1 00 00 00 00	 mov	 eax, DWORD PTR __imp__CharUpperW@4
$L66416:
  00035	50		 push	 eax
  00036	68 10 00 00 00	 push	 OFFSET FLAT:?_strthunks@ATL@@3U_AtlStringThunks@1@A+16
  0003b	ff 15 00 00 00
	00		 call	 DWORD PTR __imp__InterlockedExchange@8

; 294  : 
; 295  : 	return _strthunks.pfnCharUpperW(psz);

  00041	ff 25 10 00 00
	00		 jmp	 DWORD PTR ?_strthunks@ATL@@3U_AtlStringThunks@1@A+16
?CharUpperWThunk@ATL@@YGPA_WPA_W@Z ENDP			; ATL::CharUpperWThunk
_TEXT	ENDS
PUBLIC	?GetLocalTm@CTime@ATL@@QBEPAUtm@@PAU3@@Z	; ATL::CTime::GetLocalTm
EXTRN	__imp___localtime64:NEAR
; Function compile flags: /Ogty
; File d:\program files\microsoft visual studio .net 2003\vc7\atlmfc\include\atltime.inl
;	COMDAT ?GetLocalTm@CTime@ATL@@QBEPAUtm@@PAU3@@Z
_TEXT	SEGMENT
_ptm$ = 8						; size = 4
?GetLocalTm@CTime@ATL@@QBEPAUtm@@PAU3@@Z PROC NEAR	; ATL::CTime::GetLocalTm, COMDAT
; _this$ = ecx

; 320  : {

  00000	53		 push	 ebx

; 321  : 	if (ptm != NULL)

  00001	8b 5c 24 08	 mov	 ebx, DWORD PTR _ptm$[esp]

; 322  : 	{
; 323  : 		struct tm* ptmTemp = _localtime64(&m_time);

  00005	51		 push	 ecx
  00006	ff 15 00 00 00
	00		 call	 DWORD PTR __imp___localtime64
  0000c	83 c4 04	 add	 esp, 4
  0000f	85 db		 test	 ebx, ebx
  00011	74 19		 je	 SHORT $L29721

; 324  : 		if (ptmTemp == NULL)

  00013	85 c0		 test	 eax, eax
  00015	75 04		 jne	 SHORT $L29720
  00017	5b		 pop	 ebx

; 329  : 	}
; 330  : 	else
; 331  : 		return _localtime64(&m_time);
; 332  : }

  00018	c2 04 00	 ret	 4
$L29720:
  0001b	56		 push	 esi
  0001c	57		 push	 edi

; 325  : 			return NULL;    // indicates the m_time was not initialized!
; 326  : 
; 327  : 		*ptm = *ptmTemp;

  0001d	8b f0		 mov	 esi, eax
  0001f	b9 09 00 00 00	 mov	 ecx, 9
  00024	8b fb		 mov	 edi, ebx
  00026	f3 a5		 rep movsd
  00028	5f		 pop	 edi

; 328  : 		return ptm;

  00029	8b c3		 mov	 eax, ebx
  0002b	5e		 pop	 esi
$L29721:
  0002c	5b		 pop	 ebx

; 329  : 	}
; 330  : 	else
; 331  : 		return _localtime64(&m_time);
; 332  : }

  0002d	c2 04 00	 ret	 4
?GetLocalTm@CTime@ATL@@QBEPAUtm@@PAU3@@Z ENDP		; ATL::CTime::GetLocalTm
_TEXT	ENDS
PUBLIC	?GetYear@CTime@ATL@@QBEHXZ			; ATL::CTime::GetYear
; Function compile flags: /Ogty
;	COMDAT ?GetYear@CTime@ATL@@QBEHXZ
_TEXT	SEGMENT
?GetYear@CTime@ATL@@QBEHXZ PROC NEAR			; ATL::CTime::GetYear, COMDAT
; _this$ = ecx

; 359  : 	struct tm * ptm;
; 360  : 	ptm = GetLocalTm();

  00000	51		 push	 ecx
  00001	ff 15 00 00 00
	00		 call	 DWORD PTR __imp___localtime64
  00007	83 c4 04	 add	 esp, 4

; 361  : 	return ptm ? (ptm->tm_year) + 1900 : 0 ; 

  0000a	85 c0		 test	 eax, eax
  0000c	74 09		 je	 SHORT $L66427
  0000e	8b 40 14	 mov	 eax, DWORD PTR [eax+20]
  00011	05 6c 07 00 00	 add	 eax, 1900		; 0000076cH

; 362  : }

  00016	c3		 ret	 0
$L66427:

; 361  : 	return ptm ? (ptm->tm_year) + 1900 : 0 ; 

  00017	33 c0		 xor	 eax, eax

; 362  : }

  00019	c3		 ret	 0
?GetYear@CTime@ATL@@QBEHXZ ENDP				; ATL::CTime::GetYear
_TEXT	ENDS
PUBLIC	?GetMonth@CTime@ATL@@QBEHXZ			; ATL::CTime::GetMonth
; Function compile flags: /Ogty
;	COMDAT ?GetMonth@CTime@ATL@@QBEHXZ
_TEXT	SEGMENT
?GetMonth@CTime@ATL@@QBEHXZ PROC NEAR			; ATL::CTime::GetMonth, COMDAT
; _this$ = ecx

; 366  : 	struct tm * ptm;
; 367  : 	ptm = GetLocalTm();

  00000	51		 push	 ecx
  00001	ff 15 00 00 00
	00		 call	 DWORD PTR __imp___localtime64
  00007	83 c4 04	 add	 esp, 4

; 368  : 	return ptm ? ptm->tm_mon + 1 : 0;

  0000a	85 c0		 test	 eax, eax
  0000c	74 05		 je	 SHORT $L66439
  0000e	8b 40 10	 mov	 eax, DWORD PTR [eax+16]
  00011	40		 inc	 eax

; 369  : }

  00012	c3		 ret	 0
$L66439:

; 368  : 	return ptm ? ptm->tm_mon + 1 : 0;

  00013	33 c0		 xor	 eax, eax

; 369  : }

  00015	c3		 ret	 0
?GetMonth@CTime@ATL@@QBEHXZ ENDP			; ATL::CTime::GetMonth
_TEXT	ENDS
PUBLIC	?GetDay@CTime@ATL@@QBEHXZ			; ATL::CTime::GetDay
; Function compile flags: /Ogty
;	COMDAT ?GetDay@CTime@ATL@@QBEHXZ
_TEXT	SEGMENT
?GetDay@CTime@ATL@@QBEHXZ PROC NEAR			; ATL::CTime::GetDay, COMDAT
; _this$ = ecx

; 373  : 	struct tm * ptm;
; 374  : 	ptm = GetLocalTm();

  00000	51		 push	 ecx
  00001	ff 15 00 00 00
	00		 call	 DWORD PTR __imp___localtime64
  00007	83 c4 04	 add	 esp, 4

; 375  : 	return ptm ? ptm->tm_mday : 0 ; 

  0000a	85 c0		 test	 eax, eax
  0000c	74 04		 je	 SHORT $L66451
  0000e	8b 40 0c	 mov	 eax, DWORD PTR [eax+12]

; 376  : }

  00011	c3		 ret	 0
$L66451:

; 375  : 	return ptm ? ptm->tm_mday : 0 ; 

  00012	33 c0		 xor	 eax, eax

; 376  : }

  00014	c3		 ret	 0
?GetDay@CTime@ATL@@QBEHXZ ENDP				; ATL::CTime::GetDay
_TEXT	ENDS
PUBLIC	?GetHour@CTime@ATL@@QBEHXZ			; ATL::CTime::GetHour
; Function compile flags: /Ogty
;	COMDAT ?GetHour@CTime@ATL@@QBEHXZ
_TEXT	SEGMENT
?GetHour@CTime@ATL@@QBEHXZ PROC NEAR			; ATL::CTime::GetHour, COMDAT
; _this$ = ecx

; 380  : 	struct tm * ptm;
; 381  : 	ptm = GetLocalTm();

  00000	51		 push	 ecx
  00001	ff 15 00 00 00
	00		 call	 DWORD PTR __imp___localtime64
  00007	83 c4 04	 add	 esp, 4

; 382  : 	return ptm ? ptm->tm_hour : -1 ; 

  0000a	85 c0		 test	 eax, eax
  0000c	74 04		 je	 SHORT $L66463
  0000e	8b 40 08	 mov	 eax, DWORD PTR [eax+8]

; 383  : }

  00011	c3		 ret	 0
$L66463:

; 382  : 	return ptm ? ptm->tm_hour : -1 ; 

  00012	83 c8 ff	 or	 eax, -1

; 383  : }

  00015	c3		 ret	 0
?GetHour@CTime@ATL@@QBEHXZ ENDP				; ATL::CTime::GetHour
_TEXT	ENDS
PUBLIC	?GetMinute@CTime@ATL@@QBEHXZ			; ATL::CTime::GetMinute
; Function compile flags: /Ogty
;	COMDAT ?GetMinute@CTime@ATL@@QBEHXZ
_TEXT	SEGMENT
?GetMinute@CTime@ATL@@QBEHXZ PROC NEAR			; ATL::CTime::GetMinute, COMDAT
; _this$ = ecx

; 387  : 	struct tm * ptm;
; 388  : 	ptm = GetLocalTm();

  00000	51		 push	 ecx
  00001	ff 15 00 00 00
	00		 call	 DWORD PTR __imp___localtime64
  00007	83 c4 04	 add	 esp, 4

; 389  : 	return ptm ? ptm->tm_min : -1 ; 

  0000a	85 c0		 test	 eax, eax
  0000c	74 04		 je	 SHORT $L66475
  0000e	8b 40 04	 mov	 eax, DWORD PTR [eax+4]

; 390  : }

  00011	c3		 ret	 0
$L66475:

; 389  : 	return ptm ? ptm->tm_min : -1 ; 

  00012	83 c8 ff	 or	 eax, -1

; 390  : }

  00015	c3		 ret	 0
?GetMinute@CTime@ATL@@QBEHXZ ENDP			; ATL::CTime::GetMinute
_TEXT	ENDS
PUBLIC	?GetSecond@CTime@ATL@@QBEHXZ			; ATL::CTime::GetSecond
; Function compile flags: /Ogty
;	COMDAT ?GetSecond@CTime@ATL@@QBEHXZ
_TEXT	SEGMENT
?GetSecond@CTime@ATL@@QBEHXZ PROC NEAR			; ATL::CTime::GetSecond, COMDAT
; _this$ = ecx

; 394  : 	struct tm * ptm;
; 395  : 	ptm = GetLocalTm();

  00000	51		 push	 ecx
  00001	ff 15 00 00 00
	00		 call	 DWORD PTR __imp___localtime64
  00007	83 c4 04	 add	 esp, 4

; 396  : 	return ptm ? ptm->tm_sec : -1 ;

  0000a	85 c0		 test	 eax, eax
  0000c	74 03		 je	 SHORT $L66487
  0000e	8b 00		 mov	 eax, DWORD PTR [eax]

; 397  : }

  00010	c3		 ret	 0
$L66487:

; 396  : 	return ptm ? ptm->tm_sec : -1 ;

  00011	83 c8 ff	 or	 eax, -1

; 397  : }

  00014	c3		 ret	 0
?GetSecond@CTime@ATL@@QBEHXZ ENDP			; ATL::CTime::GetSecond
_TEXT	ENDS
PUBLIC	?GetCount@CStringList@@QBEHXZ			; CStringList::GetCount
; Function compile flags: /Ogty
; File d:\program files\microsoft visual studio .net 2003\vc7\atlmfc\include\afxcoll.inl
;	COMDAT ?GetCount@CStringList@@QBEHXZ
_TEXT	SEGMENT
?GetCount@CStringList@@QBEHXZ PROC NEAR			; CStringList::GetCount, COMDAT
; _this$ = ecx

; 481  : 	{ return m_nCount; }

  00000	8b 41 0c	 mov	 eax, DWORD PTR [ecx+12]
  00003	c3		 ret	 0
?GetCount@CStringList@@QBEHXZ ENDP			; CStringList::GetCount
_TEXT	ENDS
PUBLIC	?GetHeadPosition@CStringList@@QBEPAU__POSITION@@XZ ; CStringList::GetHeadPosition
; Function compile flags: /Ogty
;	COMDAT ?GetHeadPosition@CStringList@@QBEPAU__POSITION@@XZ
_TEXT	SEGMENT
?GetHeadPosition@CStringList@@QBEPAU__POSITION@@XZ PROC NEAR ; CStringList::GetHeadPosition, COMDAT
; _this$ = ecx

; 499  : 	{ return (POSITION) m_pNodeHead; }

  00000	8b 41 04	 mov	 eax, DWORD PTR [ecx+4]
  00003	c3		 ret	 0
?GetHeadPosition@CStringList@@QBEPAU__POSITION@@XZ ENDP	; CStringList::GetHeadPosition
_TEXT	ENDS
PUBLIC	?GetNext@CStringList@@QAEAAV?$CStringT@DV?$StrTraitMFC_DLL@DV?$ChTraitsCRT@D@ATL@@@@@ATL@@AAPAU__POSITION@@@Z ; CStringList::GetNext
EXTRN	?AfxThrowInvalidArgException@@YGXXZ:NEAR	; AfxThrowInvalidArgException
; Function compile flags: /Ogty
;	COMDAT ?GetNext@CStringList@@QAEAAV?$CStringT@DV?$StrTraitMFC_DLL@DV?$ChTraitsCRT@D@ATL@@@@@ATL@@AAPAU__POSITION@@@Z
_TEXT	SEGMENT
_rPosition$ = 8						; size = 4
?GetNext@CStringList@@QAEAAV?$CStringT@DV?$StrTraitMFC_DLL@DV?$ChTraitsCRT@D@ATL@@@@@ATL@@AAPAU__POSITION@@@Z PROC NEAR ; CStringList::GetNext, COMDAT
; _this$ = ecx

; 503  : 	{ CNode* pNode = (CNode*) rPosition;

  00000	8b 4c 24 04	 mov	 ecx, DWORD PTR _rPosition$[esp-4]
  00004	8b 01		 mov	 eax, DWORD PTR [ecx]

; 504  : 		ASSERT(AfxIsValidAddress(pNode, sizeof(CNode)));
; 505  : 		if( pNode == NULL )

  00006	85 c0		 test	 eax, eax
  00008	75 05		 jne	 SHORT $L33786

; 506  : 			AfxThrowInvalidArgException();

  0000a	e8 00 00 00 00	 call	 ?AfxThrowInvalidArgException@@YGXXZ ; AfxThrowInvalidArgException
$L33786:

; 507  : 		rPosition = (POSITION) pNode->pNext;

  0000f	8b 10		 mov	 edx, DWORD PTR [eax]
  00011	89 11		 mov	 DWORD PTR [ecx], edx

; 508  : 		return pNode->data; }

  00013	83 c0 08	 add	 eax, 8
  00016	c2 04 00	 ret	 4
$L66503:
?GetNext@CStringList@@QAEAAV?$CStringT@DV?$StrTraitMFC_DLL@DV?$ChTraitsCRT@D@ATL@@@@@ATL@@AAPAU__POSITION@@@Z ENDP ; CStringList::GetNext
_TEXT	ENDS
PUBLIC	?CheckTempPath@@YAXXZ				; CheckTempPath
; Function compile flags: /Ogty
; File d:\siteview\ecc_common\base\funcgeneral.cpp
;	COMDAT ?CheckTempPath@@YAXXZ
_TEXT	SEGMENT
?CheckTempPath@@YAXXZ PROC NEAR				; CheckTempPath, COMDAT

; 24   : }

  00000	c3		 ret	 0
?CheckTempPath@@YAXXZ ENDP				; CheckTempPath
_TEXT	ENDS
PUBLIC	?FuncGetInstallPath@@YA?AV?$CStringT@DV?$StrTraitMFC_DLL@DV?$ChTraitsCRT@D@ATL@@@@@ATL@@XZ ; FuncGetInstallPath
PUBLIC	??_C@_00CNPNBAHC@?$AA@				; `string'
EXTRN	__imp_??0?$CStringT@DV?$StrTraitMFC_DLL@DV?$ChTraitsCRT@D@ATL@@@@@ATL@@QAE@ABV01@@Z:NEAR
EXTRN	__imp_??0?$CStringT@DV?$StrTraitMFC_DLL@DV?$ChTraitsCRT@D@ATL@@@@@ATL@@QAE@PBD@Z:NEAR
EXTRN	__imp_??1?$CStringT@DV?$StrTraitMFC_DLL@DV?$ChTraitsCRT@D@ATL@@@@@ATL@@QAE@XZ:NEAR
EXTRN	__imp_??4?$CStringT@DV?$StrTraitMFC_DLL@DV?$ChTraitsCRT@D@ATL@@@@@ATL@@QAEAAV01@PBD@Z:NEAR
EXTRN	__imp_?GetSiteViewRootPath@@YA?AV?$basic_string@DU?$char_traits@D@std@@V?$allocator@D@2@@std@@XZ:NEAR
EXTRN	__imp_??1?$basic_string@DU?$char_traits@D@std@@V?$allocator@D@2@@std@@QAE@XZ:NEAR
EXTRN	___CxxFrameHandler:NEAR
;	COMDAT xdata$x
; File d:\program files\microsoft visual studio .net 2003\vc7\include\xstring
xdata$x	SEGMENT
$T66534	DD	0ffffffffH
	DD	FLAT:$L66509
	DD	00H
	DD	FLAT:$L66510
$T66532	DD	019930520H
	DD	02H
	DD	FLAT:$T66534
	DD	2 DUP(00H)
	DD	2 DUP(00H)
xdata$x	ENDS
;	COMDAT ??_C@_00CNPNBAHC@?$AA@
CONST	SEGMENT
??_C@_00CNPNBAHC@?$AA@ DB 00H				; `string'
; Function compile flags: /Ogty
; File d:\siteview\ecc_common\base\funcgeneral.cpp
CONST	ENDS
;	COMDAT ?FuncGetInstallPath@@YA?AV?$CStringT@DV?$StrTraitMFC_DLL@DV?$ChTraitsCRT@D@ATL@@@@@ATL@@XZ
_TEXT	SEGMENT
$T66512 = -44						; size = 4
_strRet$ = -44						; size = 4
$T66508 = -40						; size = 28
__$EHRec$ = -12						; size = 12
___$ReturnUdt$ = 8					; size = 4
?FuncGetInstallPath@@YA?AV?$CStringT@DV?$StrTraitMFC_DLL@DV?$ChTraitsCRT@D@ATL@@@@@ATL@@XZ PROC NEAR ; FuncGetInstallPath, COMDAT

; 27   : {

  00000	6a ff		 push	 -1
  00002	68 00 00 00 00	 push	 __ehhandler$?FuncGetInstallPath@@YA?AV?$CStringT@DV?$StrTraitMFC_DLL@DV?$ChTraitsCRT@D@ATL@@@@@ATL@@XZ
  00007	64 a1 00 00 00
	00		 mov	 eax, DWORD PTR fs:__except_list
  0000d	50		 push	 eax
  0000e	64 89 25 00 00
	00 00		 mov	 DWORD PTR fs:__except_list, esp
  00015	83 ec 20	 sub	 esp, 32			; 00000020H

; 28   : 	CString strRet = _T("");

  00018	68 00 00 00 00	 push	 OFFSET FLAT:??_C@_00CNPNBAHC@?$AA@
  0001d	8d 4c 24 04	 lea	 ecx, DWORD PTR _strRet$[esp+48]
  00021	c7 44 24 04 00
	00 00 00	 mov	 DWORD PTR $T66512[esp+48], 0
  00029	ff 15 00 00 00
	00		 call	 DWORD PTR __imp_??0?$CStringT@DV?$StrTraitMFC_DLL@DV?$ChTraitsCRT@D@ATL@@@@@ATL@@QAE@PBD@Z

; 29   : 	strRet= GetSiteViewRootPath().c_str();

  0002f	8d 44 24 04	 lea	 eax, DWORD PTR $T66508[esp+44]
  00033	50		 push	 eax
  00034	c7 44 24 2c 00
	00 00 00	 mov	 DWORD PTR __$EHRec$[esp+56], 0
  0003c	ff 15 00 00 00
	00		 call	 DWORD PTR __imp_?GetSiteViewRootPath@@YA?AV?$basic_string@DU?$char_traits@D@std@@V?$allocator@D@2@@std@@XZ
  00042	83 c4 04	 add	 esp, 4
  00045	83 78 18 10	 cmp	 DWORD PTR [eax+24], 16	; 00000010H
  00049	c6 44 24 28 01	 mov	 BYTE PTR __$EHRec$[esp+52], 1
  0004e	72 05		 jb	 SHORT $L66526
  00050	8b 40 04	 mov	 eax, DWORD PTR [eax+4]
  00053	eb 03		 jmp	 SHORT $L66527
$L66526:
  00055	83 c0 04	 add	 eax, 4
$L66527:
  00058	56		 push	 esi
  00059	50		 push	 eax
  0005a	8d 4c 24 08	 lea	 ecx, DWORD PTR _strRet$[esp+52]
  0005e	ff 15 00 00 00
	00		 call	 DWORD PTR __imp_??4?$CStringT@DV?$StrTraitMFC_DLL@DV?$ChTraitsCRT@D@ATL@@@@@ATL@@QAEAAV01@PBD@Z
  00064	8d 4c 24 08	 lea	 ecx, DWORD PTR $T66508[esp+48]
  00068	c6 44 24 2c 00	 mov	 BYTE PTR __$EHRec$[esp+56], 0
  0006d	ff 15 00 00 00
	00		 call	 DWORD PTR __imp_??1?$basic_string@DU?$char_traits@D@std@@V?$allocator@D@2@@std@@QAE@XZ

; 30   : 	return strRet;

  00073	8b 74 24 34	 mov	 esi, DWORD PTR ___$ReturnUdt$[esp+44]
  00077	8d 4c 24 04	 lea	 ecx, DWORD PTR _strRet$[esp+48]
  0007b	51		 push	 ecx
  0007c	8b ce		 mov	 ecx, esi
  0007e	ff 15 00 00 00
	00		 call	 DWORD PTR __imp_??0?$CStringT@DV?$StrTraitMFC_DLL@DV?$ChTraitsCRT@D@ATL@@@@@ATL@@QAE@ABV01@@Z
  00084	8d 4c 24 04	 lea	 ecx, DWORD PTR _strRet$[esp+48]
  00088	ff 15 00 00 00
	00		 call	 DWORD PTR __imp_??1?$CStringT@DV?$StrTraitMFC_DLL@DV?$ChTraitsCRT@D@ATL@@@@@ATL@@QAE@XZ

; 31   : }

  0008e	8b 4c 24 24	 mov	 ecx, DWORD PTR __$EHRec$[esp+48]
  00092	8b c6		 mov	 eax, esi
  00094	5e		 pop	 esi
  00095	64 89 0d 00 00
	00 00		 mov	 DWORD PTR fs:__except_list, ecx
  0009c	83 c4 2c	 add	 esp, 44			; 0000002cH
  0009f	c3		 ret	 0
_TEXT	ENDS
;	COMDAT text$x
text$x	SEGMENT
$L66509:
  00000	8d 4d d4	 lea	 ecx, DWORD PTR _strRet$[ebp]
  00003	ff 25 00 00 00
	00		 jmp	 DWORD PTR __imp_??1?$CStringT@DV?$StrTraitMFC_DLL@DV?$ChTraitsCRT@D@ATL@@@@@ATL@@QAE@XZ
$L66510:
  00009	8d 4d d8	 lea	 ecx, DWORD PTR $T66508[ebp]
  0000c	ff 25 00 00 00
	00		 jmp	 DWORD PTR __imp_??1?$basic_string@DU?$char_traits@D@std@@V?$allocator@D@2@@std@@QAE@XZ
__ehhandler$?FuncGetInstallPath@@YA?AV?$CStringT@DV?$StrTraitMFC_DLL@DV?$ChTraitsCRT@D@ATL@@@@@ATL@@XZ:
  00012	b8 00 00 00 00	 mov	 eax, OFFSET FLAT:$T66532
  00017	e9 00 00 00 00	 jmp	 ___CxxFrameHandler
text$x	ENDS
?FuncGetInstallPath@@YA?AV?$CStringT@DV?$StrTraitMFC_DLL@DV?$ChTraitsCRT@D@ATL@@@@@ATL@@XZ ENDP ; FuncGetInstallPath
PUBLIC	?FuncGetInstallRootSCPath@@YA?AV?$CStringT@DV?$StrTraitMFC_DLL@DV?$ChTraitsCRT@D@ATL@@@@@ATL@@XZ ; FuncGetInstallRootSCPath
; Function compile flags: /Ogty
;	COMDAT ?FuncGetInstallRootSCPath@@YA?AV?$CStringT@DV?$StrTraitMFC_DLL@DV?$ChTraitsCRT@D@ATL@@@@@ATL@@XZ
_TEXT	SEGMENT
$T66541 = -4						; size = 4
___$ReturnUdt$ = 8					; size = 4
?FuncGetInstallRootSCPath@@YA?AV?$CStringT@DV?$StrTraitMFC_DLL@DV?$ChTraitsCRT@D@ATL@@@@@ATL@@XZ PROC NEAR ; FuncGetInstallRootSCPath, COMDAT

; 34   : {

  00000	51		 push	 ecx
  00001	56		 push	 esi

; 35   : 	return  FuncGetInstallPath();

  00002	8b 74 24 0c	 mov	 esi, DWORD PTR ___$ReturnUdt$[esp+4]
  00006	56		 push	 esi
  00007	c7 44 24 08 00
	00 00 00	 mov	 DWORD PTR $T66541[esp+12], 0
  0000f	e8 00 00 00 00	 call	 ?FuncGetInstallPath@@YA?AV?$CStringT@DV?$StrTraitMFC_DLL@DV?$ChTraitsCRT@D@ATL@@@@@ATL@@XZ ; FuncGetInstallPath
  00014	83 c4 04	 add	 esp, 4
  00017	8b c6		 mov	 eax, esi
  00019	5e		 pop	 esi

; 36   : }

  0001a	59		 pop	 ecx
  0001b	c3		 ret	 0
?FuncGetInstallRootSCPath@@YA?AV?$CStringT@DV?$StrTraitMFC_DLL@DV?$ChTraitsCRT@D@ATL@@@@@ATL@@XZ ENDP ; FuncGetInstallRootSCPath
_TEXT	ENDS
PUBLIC	??_C@_0M@NLJHBKOA@HTTP_COOKIE?$AA@		; `string'
PUBLIC	??_C@_04IEFHJGLE@cid?$DN?$AA@			; `string'
PUBLIC	??_C@_01ICJEACDI@?$DL?$AA@			; `string'
PUBLIC	?GetCIDFromCookie@@YA?AV?$CStringT@DV?$StrTraitMFC_DLL@DV?$ChTraitsCRT@D@ATL@@@@@ATL@@XZ ; GetCIDFromCookie
EXTRN	__imp_??4?$CStringT@DV?$StrTraitMFC_DLL@DV?$ChTraitsCRT@D@ATL@@@@@ATL@@QAEAAV01@ABV01@@Z:NEAR
EXTRN	__imp_?Find@?$CStringT@DV?$StrTraitMFC_DLL@DV?$ChTraitsCRT@D@ATL@@@@@ATL@@QBEHPBDH@Z:NEAR
EXTRN	__imp_?Mid@?$CStringT@DV?$StrTraitMFC_DLL@DV?$ChTraitsCRT@D@ATL@@@@@ATL@@QBE?AV12@HH@Z:NEAR
EXTRN	__imp_?Right@?$CStringT@DV?$StrTraitMFC_DLL@DV?$ChTraitsCRT@D@ATL@@@@@ATL@@QBE?AV12@H@Z:NEAR
EXTRN	__imp__getenv:NEAR
;	COMDAT xdata$x
; File d:\program files\microsoft visual studio .net 2003\vc7\atlmfc\include\atlsimpstr.h
xdata$x	SEGMENT
$T66568	DD	0ffffffffH
	DD	FLAT:$L66546
	DD	00H
	DD	FLAT:$L66550
	DD	01H
	DD	FLAT:$L66551
	DD	01H
	DD	FLAT:$L66552
$T66563	DD	019930520H
	DD	04H
	DD	FLAT:$T66568
	DD	2 DUP(00H)
	DD	2 DUP(00H)
xdata$x	ENDS
;	COMDAT ??_C@_0M@NLJHBKOA@HTTP_COOKIE?$AA@
CONST	SEGMENT
??_C@_0M@NLJHBKOA@HTTP_COOKIE?$AA@ DB 'HTTP_COOKIE', 00H ; `string'
CONST	ENDS
;	COMDAT ??_C@_04IEFHJGLE@cid?$DN?$AA@
CONST	SEGMENT
??_C@_04IEFHJGLE@cid?$DN?$AA@ DB 'cid=', 00H		; `string'
CONST	ENDS
;	COMDAT ??_C@_01ICJEACDI@?$DL?$AA@
CONST	SEGMENT
??_C@_01ICJEACDI@?$DL?$AA@ DB ';', 00H			; `string'
; Function compile flags: /Ogty
; File d:\siteview\ecc_common\base\funcgeneral.cpp
CONST	ENDS
;	COMDAT ?GetCIDFromCookie@@YA?AV?$CStringT@DV?$StrTraitMFC_DLL@DV?$ChTraitsCRT@D@ATL@@@@@ATL@@XZ
_TEXT	SEGMENT
_strCid$ = -28						; size = 4
_strSource$ = -24					; size = 4
$T66548 = -20						; size = 4
_str$ = -20						; size = 4
$T66545 = -16						; size = 4
__$EHRec$ = -12						; size = 12
___$ReturnUdt$ = 8					; size = 4
?GetCIDFromCookie@@YA?AV?$CStringT@DV?$StrTraitMFC_DLL@DV?$ChTraitsCRT@D@ATL@@@@@ATL@@XZ PROC NEAR ; GetCIDFromCookie, COMDAT

; 87   : {

  00000	6a ff		 push	 -1
  00002	68 00 00 00 00	 push	 __ehhandler$?GetCIDFromCookie@@YA?AV?$CStringT@DV?$StrTraitMFC_DLL@DV?$ChTraitsCRT@D@ATL@@@@@ATL@@XZ
  00007	64 a1 00 00 00
	00		 mov	 eax, DWORD PTR fs:__except_list
  0000d	50		 push	 eax
  0000e	64 89 25 00 00
	00 00		 mov	 DWORD PTR fs:__except_list, esp
  00015	83 ec 10	 sub	 esp, 16			; 00000010H
  00018	56		 push	 esi
  00019	33 f6		 xor	 esi, esi

; 88   : 	CString strCid= _T("");

  0001b	68 00 00 00 00	 push	 OFFSET FLAT:??_C@_00CNPNBAHC@?$AA@
  00020	8d 4c 24 08	 lea	 ecx, DWORD PTR _strCid$[esp+36]
  00024	89 74 24 10	 mov	 DWORD PTR $T66548[esp+36], esi
  00028	ff 15 00 00 00
	00		 call	 DWORD PTR __imp_??0?$CStringT@DV?$StrTraitMFC_DLL@DV?$ChTraitsCRT@D@ATL@@@@@ATL@@QAE@PBD@Z

; 89   : 	char *hc=getenv("HTTP_COOKIE"); 

  0002e	68 00 00 00 00	 push	 OFFSET FLAT:??_C@_0M@NLJHBKOA@HTTP_COOKIE?$AA@
  00033	89 74 24 20	 mov	 DWORD PTR __$EHRec$[esp+44], esi
  00037	ff 15 00 00 00
	00		 call	 DWORD PTR __imp__getenv
  0003d	83 c4 04	 add	 esp, 4

; 90   : 	if (hc == NULL) 

  00040	3b c6		 cmp	 eax, esi
  00042	75 16		 jne	 SHORT $L60523

; 91   : 		return strCid;

  00044	8b 74 24 24	 mov	 esi, DWORD PTR ___$ReturnUdt$[esp+28]
  00048	8d 44 24 04	 lea	 eax, DWORD PTR _strCid$[esp+32]
  0004c	50		 push	 eax
  0004d	8b ce		 mov	 ecx, esi
  0004f	ff 15 00 00 00
	00		 call	 DWORD PTR __imp_??0?$CStringT@DV?$StrTraitMFC_DLL@DV?$ChTraitsCRT@D@ATL@@@@@ATL@@QAE@ABV01@@Z
  00055	e9 d8 00 00 00	 jmp	 $L66565
$L60523:

; 92   : 
; 93   : 	CString strSource = hc;

  0005a	50		 push	 eax
  0005b	8d 4c 24 0c	 lea	 ecx, DWORD PTR _strSource$[esp+36]
  0005f	ff 15 00 00 00
	00		 call	 DWORD PTR __imp_??0?$CStringT@DV?$StrTraitMFC_DLL@DV?$ChTraitsCRT@D@ATL@@@@@ATL@@QAE@PBD@Z

; 94   : 
; 95   : 	int nLeftIndex = strSource.Find("cid=", 0);

  00065	56		 push	 esi
  00066	68 00 00 00 00	 push	 OFFSET FLAT:??_C@_04IEFHJGLE@cid?$DN?$AA@
  0006b	8d 4c 24 10	 lea	 ecx, DWORD PTR _strSource$[esp+40]
  0006f	c6 44 24 24 01	 mov	 BYTE PTR __$EHRec$[esp+48], 1
  00074	ff 15 00 00 00
	00		 call	 DWORD PTR __imp_?Find@?$CStringT@DV?$StrTraitMFC_DLL@DV?$ChTraitsCRT@D@ATL@@@@@ATL@@QBEHPBDH@Z
  0007a	8b f0		 mov	 esi, eax

; 96   : 	if (nLeftIndex == -1)

  0007c	83 fe ff	 cmp	 esi, -1

; 97   : 		return strCid;

  0007f	74 50		 je	 SHORT $L66567

; 98   : 
; 99   : 	int nRightIndex = strSource.Find(";", nLeftIndex);

  00081	56		 push	 esi
  00082	68 00 00 00 00	 push	 OFFSET FLAT:??_C@_01ICJEACDI@?$DL?$AA@
  00087	8d 4c 24 10	 lea	 ecx, DWORD PTR _strSource$[esp+40]
  0008b	ff 15 00 00 00
	00		 call	 DWORD PTR __imp_?Find@?$CStringT@DV?$StrTraitMFC_DLL@DV?$ChTraitsCRT@D@ATL@@@@@ATL@@QBEHPBDH@Z

; 100  : 	if (nRightIndex == -1) {// may be only two cookies.

  00091	83 f8 ff	 cmp	 eax, -1

; 101  : 		strCid = strSource.Right(strSource.GetLength() - nLeftIndex - 4);

  00094	8d 4c 24 08	 lea	 ecx, DWORD PTR _strSource$[esp+32]
  00098	75 4a		 jne	 SHORT $L60530
  0009a	8b 54 24 08	 mov	 edx, DWORD PTR _strSource$[esp+32]
  0009e	8b 42 f4	 mov	 eax, DWORD PTR [edx-12]
  000a1	2b c6		 sub	 eax, esi
  000a3	83 e8 04	 sub	 eax, 4
  000a6	50		 push	 eax
  000a7	8d 44 24 14	 lea	 eax, DWORD PTR $T66545[esp+36]
  000ab	50		 push	 eax
  000ac	ff 15 00 00 00
	00		 call	 DWORD PTR __imp_?Right@?$CStringT@DV?$StrTraitMFC_DLL@DV?$ChTraitsCRT@D@ATL@@@@@ATL@@QBE?AV12@H@Z
  000b2	50		 push	 eax
  000b3	8d 4c 24 08	 lea	 ecx, DWORD PTR _strCid$[esp+36]
  000b7	c6 44 24 20 02	 mov	 BYTE PTR __$EHRec$[esp+44], 2
  000bc	ff 15 00 00 00
	00		 call	 DWORD PTR __imp_??4?$CStringT@DV?$StrTraitMFC_DLL@DV?$ChTraitsCRT@D@ATL@@@@@ATL@@QAEAAV01@ABV01@@Z
  000c2	8d 4c 24 10	 lea	 ecx, DWORD PTR $T66545[esp+32]
  000c6	c6 44 24 1c 01	 mov	 BYTE PTR __$EHRec$[esp+40], 1
  000cb	ff 15 00 00 00
	00		 call	 DWORD PTR __imp_??1?$CStringT@DV?$StrTraitMFC_DLL@DV?$ChTraitsCRT@D@ATL@@@@@ATL@@QAE@XZ
$L66567:

; 102  : 		return strCid;

  000d1	8b 74 24 24	 mov	 esi, DWORD PTR ___$ReturnUdt$[esp+28]
  000d5	8d 4c 24 04	 lea	 ecx, DWORD PTR _strCid$[esp+32]
  000d9	51		 push	 ecx
  000da	8b ce		 mov	 ecx, esi
  000dc	ff 15 00 00 00
	00		 call	 DWORD PTR __imp_??0?$CStringT@DV?$StrTraitMFC_DLL@DV?$ChTraitsCRT@D@ATL@@@@@ATL@@QAE@ABV01@@Z
  000e2	eb 44		 jmp	 SHORT $L66566
$L60530:

; 103  : 	}
; 104  : 
; 105  : 	int nLength = static_cast<int>(strlen("cid="));
; 106  : 
; 107  : 	CString str = strSource.Mid(nLeftIndex + nLength , nRightIndex - nLeftIndex - nLength);

  000e4	2b c6		 sub	 eax, esi
  000e6	83 e8 04	 sub	 eax, 4
  000e9	50		 push	 eax
  000ea	83 c6 04	 add	 esi, 4
  000ed	56		 push	 esi
  000ee	8d 54 24 14	 lea	 edx, DWORD PTR _str$[esp+40]
  000f2	52		 push	 edx
  000f3	ff 15 00 00 00
	00		 call	 DWORD PTR __imp_?Mid@?$CStringT@DV?$StrTraitMFC_DLL@DV?$ChTraitsCRT@D@ATL@@@@@ATL@@QBE?AV12@HH@Z

; 108  : 	strCid = str;

  000f9	8d 44 24 0c	 lea	 eax, DWORD PTR _str$[esp+32]
  000fd	50		 push	 eax
  000fe	8d 4c 24 08	 lea	 ecx, DWORD PTR _strCid$[esp+36]
  00102	c6 44 24 20 03	 mov	 BYTE PTR __$EHRec$[esp+44], 3
  00107	ff 15 00 00 00
	00		 call	 DWORD PTR __imp_??4?$CStringT@DV?$StrTraitMFC_DLL@DV?$ChTraitsCRT@D@ATL@@@@@ATL@@QAEAAV01@ABV01@@Z

; 109  : 
; 110  : 	return strCid;

  0010d	8b 74 24 24	 mov	 esi, DWORD PTR ___$ReturnUdt$[esp+28]
  00111	8d 4c 24 04	 lea	 ecx, DWORD PTR _strCid$[esp+32]
  00115	51		 push	 ecx
  00116	8b ce		 mov	 ecx, esi
  00118	ff 15 00 00 00
	00		 call	 DWORD PTR __imp_??0?$CStringT@DV?$StrTraitMFC_DLL@DV?$ChTraitsCRT@D@ATL@@@@@ATL@@QAE@ABV01@@Z
  0011e	8d 4c 24 0c	 lea	 ecx, DWORD PTR _str$[esp+32]
  00122	ff 15 00 00 00
	00		 call	 DWORD PTR __imp_??1?$CStringT@DV?$StrTraitMFC_DLL@DV?$ChTraitsCRT@D@ATL@@@@@ATL@@QAE@XZ
$L66566:
  00128	8d 4c 24 08	 lea	 ecx, DWORD PTR _strSource$[esp+32]
  0012c	ff 15 00 00 00
	00		 call	 DWORD PTR __imp_??1?$CStringT@DV?$StrTraitMFC_DLL@DV?$ChTraitsCRT@D@ATL@@@@@ATL@@QAE@XZ
$L66565:
  00132	8d 4c 24 04	 lea	 ecx, DWORD PTR _strCid$[esp+32]
  00136	ff 15 00 00 00
	00		 call	 DWORD PTR __imp_??1?$CStringT@DV?$StrTraitMFC_DLL@DV?$ChTraitsCRT@D@ATL@@@@@ATL@@QAE@XZ

; 111  : }

  0013c	8b 4c 24 14	 mov	 ecx, DWORD PTR __$EHRec$[esp+32]
  00140	8b c6		 mov	 eax, esi
  00142	5e		 pop	 esi
  00143	64 89 0d 00 00
	00 00		 mov	 DWORD PTR fs:__except_list, ecx
  0014a	83 c4 1c	 add	 esp, 28			; 0000001cH
  0014d	c3		 ret	 0
_TEXT	ENDS
;	COMDAT text$x
text$x	SEGMENT
$L66546:
  00000	8d 4d e4	 lea	 ecx, DWORD PTR _strCid$[ebp]
  00003	ff 25 00 00 00
	00		 jmp	 DWORD PTR __imp_??1?$CStringT@DV?$StrTraitMFC_DLL@DV?$ChTraitsCRT@D@ATL@@@@@ATL@@QAE@XZ
$L66550:
  00009	8d 4d e8	 lea	 ecx, DWORD PTR _strSource$[ebp]
  0000c	ff 25 00 00 00
	00		 jmp	 DWORD PTR __imp_??1?$CStringT@DV?$StrTraitMFC_DLL@DV?$ChTraitsCRT@D@ATL@@@@@ATL@@QAE@XZ
$L66551:
  00012	8d 4d f0	 lea	 ecx, DWORD PTR $T66545[ebp]
  00015	ff 25 00 00 00
	00		 jmp	 DWORD PTR __imp_??1?$CStringT@DV?$StrTraitMFC_DLL@DV?$ChTraitsCRT@D@ATL@@@@@ATL@@QAE@XZ
$L66552:
  0001b	8d 4d ec	 lea	 ecx, DWORD PTR _str$[ebp]
  0001e	ff 25 00 00 00
	00		 jmp	 DWORD PTR __imp_??1?$CStringT@DV?$StrTraitMFC_DLL@DV?$ChTraitsCRT@D@ATL@@@@@ATL@@QAE@XZ
__ehhandler$?GetCIDFromCookie@@YA?AV?$CStringT@DV?$StrTraitMFC_DLL@DV?$ChTraitsCRT@D@ATL@@@@@ATL@@XZ:
  00024	b8 00 00 00 00	 mov	 eax, OFFSET FLAT:$T66563
  00029	e9 00 00 00 00	 jmp	 ___CxxFrameHandler
text$x	ENDS
?GetCIDFromCookie@@YA?AV?$CStringT@DV?$StrTraitMFC_DLL@DV?$ChTraitsCRT@D@ATL@@@@@ATL@@XZ ENDP ; GetCIDFromCookie
PUBLIC	??_C@_02DKCKIIND@?$CFs?$AA@			; `string'
PUBLIC	??_C@_0BO@JOODGAEE@SOFTWARE?2siteview?2siteviewecc?$AA@ ; `string'
PUBLIC	??_C@_0M@KEDFDEMF@root_path_7?$AA@		; `string'
PUBLIC	?FuncGetInstallRootPath@@YA?AV?$CStringT@DV?$StrTraitMFC_DLL@DV?$ChTraitsCRT@D@ATL@@@@@ATL@@XZ ; FuncGetInstallRootPath
EXTRN	__imp_?GetBuffer@?$CSimpleStringT@D$00@ATL@@QAEPADH@Z:NEAR
EXTRN	__imp_?CompareNoCase@?$CStringT@DV?$StrTraitMFC_DLL@DV?$ChTraitsCRT@D@ATL@@@@@ATL@@QBEHPBD@Z:NEAR
EXTRN	__imp_?Format@?$CStringT@DV?$StrTraitMFC_DLL@DV?$ChTraitsCRT@D@ATL@@@@@ATL@@QAAXPBDZZ:NEAR
EXTRN	__imp__RegCloseKey@4:NEAR
EXTRN	__imp__RegEnumValueA@32:NEAR
EXTRN	__imp__RegOpenKeyExA@20:NEAR
;	COMDAT xdata$x
; File d:\program files\microsoft visual studio .net 2003\vc7\atlmfc\include\atlsimpstr.h
xdata$x	SEGMENT
$T66595	DD	0ffffffffH
	DD	FLAT:$L66575
	DD	00H
	DD	FLAT:$L66579
	DD	01H
	DD	FLAT:$L66580
$T66585	DD	019930520H
	DD	03H
	DD	FLAT:$T66595
	DD	2 DUP(00H)
	DD	2 DUP(00H)
xdata$x	ENDS
;	COMDAT ??_C@_0BO@JOODGAEE@SOFTWARE?2siteview?2siteviewecc?$AA@
CONST	SEGMENT
??_C@_0BO@JOODGAEE@SOFTWARE?2siteview?2siteviewecc?$AA@ DB 'SOFTWARE\site'
	DB	'view\siteviewecc', 00H			; `string'
CONST	ENDS
;	COMDAT ??_C@_0M@KEDFDEMF@root_path_7?$AA@
CONST	SEGMENT
??_C@_0M@KEDFDEMF@root_path_7?$AA@ DB 'root_path_7', 00H ; `string'
CONST	ENDS
;	COMDAT ??_C@_02DKCKIIND@?$CFs?$AA@
CONST	SEGMENT
??_C@_02DKCKIIND@?$CFs?$AA@ DB '%s', 00H		; `string'
; Function compile flags: /Ogty
; File d:\siteview\ecc_common\base\funcgeneral.cpp
CONST	ENDS
;	COMDAT ?FuncGetInstallRootPath@@YA?AV?$CStringT@DV?$StrTraitMFC_DLL@DV?$ChTraitsCRT@D@ATL@@@@@ATL@@XZ
_TEXT	SEGMENT
_strRet$ = -312						; size = 4
_strValKey$ = -308					; size = 4
_strSubKey$ = -304					; size = 4
_dwS2$ = -300						; size = 4
_dwS1$ = -296						; size = 4
_hKey$ = -292						; size = 4
_bFindFlag$ = -288					; size = 4
$T66577 = -284						; size = 4
_dwType$ = -284						; size = 4
_szAppRoot$ = -280					; size = 255
__$ArrayPad$ = -20					; size = 4
__$EHRec$ = -12						; size = 12
__$ReturnAddr$ = 4					; size = 4
___$ReturnUdt$ = 8					; size = 4
?FuncGetInstallRootPath@@YA?AV?$CStringT@DV?$StrTraitMFC_DLL@DV?$ChTraitsCRT@D@ATL@@@@@ATL@@XZ PROC NEAR ; FuncGetInstallRootPath, COMDAT

; 114  : {

  00000	55		 push	 ebp
  00001	8b ec		 mov	 ebp, esp
  00003	83 e4 f8	 and	 esp, -8			; fffffff8H
  00006	6a ff		 push	 -1
  00008	68 00 00 00 00	 push	 __ehhandler$?FuncGetInstallRootPath@@YA?AV?$CStringT@DV?$StrTraitMFC_DLL@DV?$ChTraitsCRT@D@ATL@@@@@ATL@@XZ
  0000d	64 a1 00 00 00
	00		 mov	 eax, DWORD PTR fs:__except_list
  00013	50		 push	 eax
  00014	64 89 25 00 00
	00 00		 mov	 DWORD PTR fs:__except_list, esp
  0001b	81 ec 30 01 00
	00		 sub	 esp, 304		; 00000130H
  00021	a1 00 00 00 00	 mov	 eax, DWORD PTR ___security_cookie
  00026	53		 push	 ebx
  00027	56		 push	 esi
  00028	57		 push	 edi

; 132  : 	{
; 133  : 		lpName = strSubKey.GetBuffer(dwS1);

  00029	33 db		 xor	 ebx, ebx
  0002b	68 00 00 00 00	 push	 OFFSET FLAT:??_C@_00CNPNBAHC@?$AA@
  00030	8d 4c 24 14	 lea	 ecx, DWORD PTR _strRet$[esp+332]
  00034	89 84 24 38 01
	00 00		 mov	 DWORD PTR __$ArrayPad$[esp+332], eax
  0003b	89 5c 24 30	 mov	 DWORD PTR $T66577[esp+332], ebx
  0003f	ff 15 00 00 00
	00		 call	 DWORD PTR __imp_??0?$CStringT@DV?$StrTraitMFC_DLL@DV?$ChTraitsCRT@D@ATL@@@@@ATL@@QAE@PBD@Z
  00045	8d 44 24 24	 lea	 eax, DWORD PTR _hKey$[esp+328]
  00049	50		 push	 eax
  0004a	68 19 00 02 00	 push	 131097			; 00020019H
  0004f	53		 push	 ebx
  00050	68 00 00 00 00	 push	 OFFSET FLAT:??_C@_0BO@JOODGAEE@SOFTWARE?2siteview?2siteviewecc?$AA@
  00055	68 02 00 00 80	 push	 -2147483646		; 80000002H
  0005a	89 9c 24 58 01
	00 00		 mov	 DWORD PTR __$EHRec$[esp+356], ebx
  00061	89 5c 24 38	 mov	 DWORD PTR _hKey$[esp+348], ebx
  00065	ff 15 00 00 00
	00		 call	 DWORD PTR __imp__RegOpenKeyExA@20
  0006b	3b c3		 cmp	 eax, ebx
  0006d	74 15		 je	 SHORT $L60546
  0006f	8b 75 08	 mov	 esi, DWORD PTR ___$ReturnUdt$[ebp]
  00072	8d 4c 24 10	 lea	 ecx, DWORD PTR _strRet$[esp+328]
  00076	51		 push	 ecx
  00077	8b ce		 mov	 ecx, esi
  00079	ff 15 00 00 00
	00		 call	 DWORD PTR __imp_??0?$CStringT@DV?$StrTraitMFC_DLL@DV?$ChTraitsCRT@D@ATL@@@@@ATL@@QAE@ABV01@@Z
  0007f	e9 38 01 00 00	 jmp	 $L66594
$L60546:

; 115  : 	CString strRet = _T("");
; 116  : 	HKEY hKey = NULL;
; 117  : 	LONG lRet = RegOpenKeyEx(HKEY_LOCAL_MACHINE,KEY_PATH,0,KEY_READ,&hKey);
; 118  : 	if(lRet != ERROR_SUCCESS)
; 119  : 		return strRet;
; 120  : 	
; 121  : 	LPTSTR  lpName = NULL,
; 122  :  			lpValue = NULL;
; 123  : 	CString strSubKey = _T(""),

  00084	68 00 00 00 00	 push	 OFFSET FLAT:??_C@_00CNPNBAHC@?$AA@
  00089	8d 4c 24 1c	 lea	 ecx, DWORD PTR _strSubKey$[esp+332]
  0008d	ff 15 00 00 00
	00		 call	 DWORD PTR __imp_??0?$CStringT@DV?$StrTraitMFC_DLL@DV?$ChTraitsCRT@D@ATL@@@@@ATL@@QAE@PBD@Z

; 124  :  			strValKey = _T("");

  00093	68 00 00 00 00	 push	 OFFSET FLAT:??_C@_00CNPNBAHC@?$AA@
  00098	8d 4c 24 18	 lea	 ecx, DWORD PTR _strValKey$[esp+332]
  0009c	c6 84 24 48 01
	00 00 01	 mov	 BYTE PTR __$EHRec$[esp+340], 1
  000a4	ff 15 00 00 00
	00		 call	 DWORD PTR __imp_??0?$CStringT@DV?$StrTraitMFC_DLL@DV?$ChTraitsCRT@D@ATL@@@@@ATL@@QAE@PBD@Z

; 125  : 	DWORD   dwIndex = 0,
; 126  : 			dwS1 = 255,

  000aa	b8 ff 00 00 00	 mov	 eax, 255		; 000000ffH
  000af	89 44 24 20	 mov	 DWORD PTR _dwS1$[esp+328], eax

; 127  : 			dwS2 = 255,

  000b3	89 44 24 1c	 mov	 DWORD PTR _dwS2$[esp+328], eax

; 128  : 			dwType = REG_SZ;
; 129  : 	BOOL    bFindFlag = FALSE;
; 130  : 	char szAppRoot[255] = {0};

  000b7	c6 44 24 30 00	 mov	 BYTE PTR _szAppRoot$[esp+328], 0
  000bc	b9 3f 00 00 00	 mov	 ecx, 63			; 0000003fH
  000c1	33 c0		 xor	 eax, eax
  000c3	8d 7c 24 31	 lea	 edi, DWORD PTR _szAppRoot$[esp+329]
  000c7	f3 ab		 rep stosd
  000c9	66 ab		 stosw
  000cb	8b 3d 00 00 00
	00		 mov	 edi, DWORD PTR __imp__RegEnumValueA@32
  000d1	c6 84 24 44 01
	00 00 02	 mov	 BYTE PTR __$EHRec$[esp+336], 2
  000d9	c7 44 24 2c 01
	00 00 00	 mov	 DWORD PTR _dwType$[esp+328], 1
  000e1	89 5c 24 28	 mov	 DWORD PTR _bFindFlag$[esp+328], ebx
$L60558:

; 132  : 	{
; 133  : 		lpName = strSubKey.GetBuffer(dwS1);

  000e5	8b 54 24 20	 mov	 edx, DWORD PTR _dwS1$[esp+328]
  000e9	52		 push	 edx
  000ea	8d 4c 24 1c	 lea	 ecx, DWORD PTR _strSubKey$[esp+332]
  000ee	ff 15 00 00 00
	00		 call	 DWORD PTR __imp_?GetBuffer@?$CSimpleStringT@D$00@ATL@@QAEPADH@Z
  000f4	8b f0		 mov	 esi, eax

; 134  : 		lpValue = strValKey.GetBuffer(dwS2);

  000f6	8b 44 24 1c	 mov	 eax, DWORD PTR _dwS2$[esp+328]
  000fa	50		 push	 eax
  000fb	8d 4c 24 18	 lea	 ecx, DWORD PTR _strValKey$[esp+332]
  000ff	ff 15 00 00 00
	00		 call	 DWORD PTR __imp_?GetBuffer@?$CSimpleStringT@D$00@ATL@@QAEPADH@Z

; 135  : 		lRet = RegEnumValue(hKey, dwIndex++, lpName , &dwS1,NULL, &dwType ,(LPBYTE)lpValue, &dwS2);

  00105	8d 4c 24 1c	 lea	 ecx, DWORD PTR _dwS2$[esp+328]
  00109	51		 push	 ecx
  0010a	8b 4c 24 28	 mov	 ecx, DWORD PTR _hKey$[esp+332]
  0010e	50		 push	 eax
  0010f	8d 54 24 34	 lea	 edx, DWORD PTR _dwType$[esp+336]
  00113	52		 push	 edx
  00114	6a 00		 push	 0
  00116	8d 44 24 30	 lea	 eax, DWORD PTR _dwS1$[esp+344]
  0011a	50		 push	 eax
  0011b	56		 push	 esi
  0011c	53		 push	 ebx
  0011d	51		 push	 ecx
  0011e	ff d7		 call	 edi
  00120	8b f0		 mov	 esi, eax

; 136  : 		dwS1 = 255;

  00122	b8 ff 00 00 00	 mov	 eax, 255		; 000000ffH
  00127	43		 inc	 ebx

; 137  : 		dwS2 = 255;
; 138  : 		if(lRet == ERROR_NO_MORE_ITEMS)

  00128	81 fe 03 01 00
	00		 cmp	 esi, 259		; 00000103H
  0012e	89 44 24 20	 mov	 DWORD PTR _dwS1$[esp+328], eax
  00132	89 44 24 1c	 mov	 DWORD PTR _dwS2$[esp+328], eax
  00136	74 35		 je	 SHORT $L60559

; 139  : 			break;
; 140  : 		if(strSubKey.CompareNoCase(KEY_NAME) == 0)

  00138	68 00 00 00 00	 push	 OFFSET FLAT:??_C@_0M@KEDFDEMF@root_path_7?$AA@
  0013d	8d 4c 24 1c	 lea	 ecx, DWORD PTR _strSubKey$[esp+332]
  00141	ff 15 00 00 00
	00		 call	 DWORD PTR __imp_?CompareNoCase@?$CStringT@DV?$StrTraitMFC_DLL@DV?$ChTraitsCRT@D@ATL@@@@@ATL@@QBEHPBD@Z
  00147	85 c0		 test	 eax, eax
  00149	74 06		 je	 SHORT $L66589

; 131  : 	while(lRet == ERROR_SUCCESS)

  0014b	85 f6		 test	 esi, esi
  0014d	74 96		 je	 SHORT $L60558

; 139  : 			break;
; 140  : 		if(strSubKey.CompareNoCase(KEY_NAME) == 0)

  0014f	eb 1c		 jmp	 SHORT $L60559
$L66589:

; 141  : 		{
; 142  : 			bFindFlag = TRUE;
; 143  : 			strcpy(szAppRoot,strValKey);

  00151	8b 44 24 14	 mov	 eax, DWORD PTR _strValKey$[esp+328]
  00155	8d 54 24 30	 lea	 edx, DWORD PTR _szAppRoot$[esp+328]
  00159	c7 44 24 28 01
	00 00 00	 mov	 DWORD PTR _bFindFlag$[esp+328], 1
  00161	2b d0		 sub	 edx, eax
$L66574:
  00163	8a 08		 mov	 cl, BYTE PTR [eax]
  00165	88 0c 02	 mov	 BYTE PTR [edx+eax], cl
  00168	40		 inc	 eax
  00169	84 c9		 test	 cl, cl
  0016b	75 f6		 jne	 SHORT $L66574
$L60559:

; 144  : 			break;
; 145  : 		}
; 146  : 	}
; 147  : 
; 148  : 	RegCloseKey(hKey);

  0016d	8b 54 24 24	 mov	 edx, DWORD PTR _hKey$[esp+328]
  00171	52		 push	 edx
  00172	ff 15 00 00 00
	00		 call	 DWORD PTR __imp__RegCloseKey@4

; 149  : 	
; 150  : 	if(bFindFlag)

  00178	8b 44 24 28	 mov	 eax, DWORD PTR _bFindFlag$[esp+328]
  0017c	85 c0		 test	 eax, eax
  0017e	74 18		 je	 SHORT $L60564

; 151  : 	{
; 152  : 		strRet.Format("%s",szAppRoot);

  00180	8d 44 24 30	 lea	 eax, DWORD PTR _szAppRoot$[esp+328]
  00184	50		 push	 eax
  00185	8d 4c 24 14	 lea	 ecx, DWORD PTR _strRet$[esp+332]
  00189	68 00 00 00 00	 push	 OFFSET FLAT:??_C@_02DKCKIIND@?$CFs?$AA@
  0018e	51		 push	 ecx
  0018f	ff 15 00 00 00
	00		 call	 DWORD PTR __imp_?Format@?$CStringT@DV?$StrTraitMFC_DLL@DV?$ChTraitsCRT@D@ATL@@@@@ATL@@QAAXPBDZZ
  00195	83 c4 0c	 add	 esp, 12			; 0000000cH
$L60564:

; 153  : 	}
; 154  : 
; 155  : 	return strRet;

  00198	8b 75 08	 mov	 esi, DWORD PTR ___$ReturnUdt$[ebp]
  0019b	8d 54 24 10	 lea	 edx, DWORD PTR _strRet$[esp+328]
  0019f	52		 push	 edx
  001a0	8b ce		 mov	 ecx, esi
  001a2	ff 15 00 00 00
	00		 call	 DWORD PTR __imp_??0?$CStringT@DV?$StrTraitMFC_DLL@DV?$ChTraitsCRT@D@ATL@@@@@ATL@@QAE@ABV01@@Z
  001a8	8d 4c 24 14	 lea	 ecx, DWORD PTR _strValKey$[esp+328]
  001ac	ff 15 00 00 00
	00		 call	 DWORD PTR __imp_??1?$CStringT@DV?$StrTraitMFC_DLL@DV?$ChTraitsCRT@D@ATL@@@@@ATL@@QAE@XZ
  001b2	8d 4c 24 18	 lea	 ecx, DWORD PTR _strSubKey$[esp+328]
  001b6	ff 15 00 00 00
	00		 call	 DWORD PTR __imp_??1?$CStringT@DV?$StrTraitMFC_DLL@DV?$ChTraitsCRT@D@ATL@@@@@ATL@@QAE@XZ
$L66594:
  001bc	8d 4c 24 10	 lea	 ecx, DWORD PTR _strRet$[esp+328]
  001c0	ff 15 00 00 00
	00		 call	 DWORD PTR __imp_??1?$CStringT@DV?$StrTraitMFC_DLL@DV?$ChTraitsCRT@D@ATL@@@@@ATL@@QAE@XZ

; 156  : }

  001c6	8b 8c 24 3c 01
	00 00		 mov	 ecx, DWORD PTR __$EHRec$[esp+328]
  001cd	64 89 0d 00 00
	00 00		 mov	 DWORD PTR fs:__except_list, ecx
  001d4	8b 8c 24 34 01
	00 00		 mov	 ecx, DWORD PTR __$ArrayPad$[esp+328]
  001db	8b c6		 mov	 eax, esi
  001dd	e8 00 00 00 00	 call	 @__security_check_cookie@4
  001e2	5f		 pop	 edi
  001e3	5e		 pop	 esi
  001e4	5b		 pop	 ebx
  001e5	8b e5		 mov	 esp, ebp
  001e7	5d		 pop	 ebp
  001e8	c3		 ret	 0
_TEXT	ENDS
;	COMDAT text$x
text$x	SEGMENT
$L66575:
  00000	8d 8d c8 fe ff
	ff		 lea	 ecx, DWORD PTR _strRet$[ebp]
  00006	ff 25 00 00 00
	00		 jmp	 DWORD PTR __imp_??1?$CStringT@DV?$StrTraitMFC_DLL@DV?$ChTraitsCRT@D@ATL@@@@@ATL@@QAE@XZ
$L66579:
  0000c	8d 8d d0 fe ff
	ff		 lea	 ecx, DWORD PTR _strSubKey$[ebp]
  00012	ff 25 00 00 00
	00		 jmp	 DWORD PTR __imp_??1?$CStringT@DV?$StrTraitMFC_DLL@DV?$ChTraitsCRT@D@ATL@@@@@ATL@@QAE@XZ
$L66580:
  00018	8d 8d cc fe ff
	ff		 lea	 ecx, DWORD PTR _strValKey$[ebp]
  0001e	ff 25 00 00 00
	00		 jmp	 DWORD PTR __imp_??1?$CStringT@DV?$StrTraitMFC_DLL@DV?$ChTraitsCRT@D@ATL@@@@@ATL@@QAE@XZ
__ehhandler$?FuncGetInstallRootPath@@YA?AV?$CStringT@DV?$StrTraitMFC_DLL@DV?$ChTraitsCRT@D@ATL@@@@@ATL@@XZ:
  00024	b8 00 00 00 00	 mov	 eax, OFFSET FLAT:$T66585
  00029	e9 00 00 00 00	 jmp	 ___CxxFrameHandler
text$x	ENDS
?FuncGetInstallRootPath@@YA?AV?$CStringT@DV?$StrTraitMFC_DLL@DV?$ChTraitsCRT@D@ATL@@@@@ATL@@XZ ENDP ; FuncGetInstallRootPath
PUBLIC	?WSA_Init@@YAHXZ				; WSA_Init
EXTRN	__imp__WSAStartup@8:NEAR
EXTRN	__imp__WSACleanup@0:NEAR
; Function compile flags: /Ogty
;	COMDAT ?WSA_Init@@YAHXZ
_TEXT	SEGMENT
_wsaData$ = -404					; size = 400
__$ArrayPad$ = -4					; size = 4
__$ReturnAddr$ = 4					; size = 4
?WSA_Init@@YAHXZ PROC NEAR				; WSA_Init, COMDAT

; 159  : {

  00000	81 ec 94 01 00
	00		 sub	 esp, 404		; 00000194H
  00006	a1 00 00 00 00	 mov	 eax, DWORD PTR ___security_cookie
  0000b	89 84 24 90 01
	00 00		 mov	 DWORD PTR __$ArrayPad$[esp+404], eax

; 160  :     //return 0;
; 161  : 	WORD wVersionRequested;  
; 162  : 	WSADATA wsaData; 
; 163  : 	int err; 
; 164  : 	wVersionRequested = MAKEWORD(1, 1); 
; 165  :     
; 166  : 	err = WSAStartup(wVersionRequested, &wsaData); 

  00012	8d 04 24	 lea	 eax, DWORD PTR _wsaData$[esp+404]
  00015	50		 push	 eax
  00016	68 01 01 00 00	 push	 257			; 00000101H
  0001b	ff 15 00 00 00
	00		 call	 DWORD PTR __imp__WSAStartup@8

; 167  :     
; 168  : 	if (err != 0) 

  00021	85 c0		 test	 eax, eax
  00023	74 16		 je	 SHORT $L60576

; 169  : 		return -1; 

  00025	83 c8 ff	 or	 eax, -1

; 179  : }

  00028	8b 8c 24 90 01
	00 00		 mov	 ecx, DWORD PTR __$ArrayPad$[esp+404]
  0002f	e8 00 00 00 00	 call	 @__security_check_cookie@4
  00034	81 c4 94 01 00
	00		 add	 esp, 404		; 00000194H
  0003a	c3		 ret	 0
$L60576:

; 170  :     
; 171  : 	if ( LOBYTE( wsaData.wVersion ) != 1 || 
; 172  : 		HIBYTE( wsaData.wVersion ) != 1 ) 

  0003b	66 8b 04 24	 mov	 ax, WORD PTR _wsaData$[esp+404]
  0003f	3c 01		 cmp	 al, 1
  00041	75 19		 jne	 SHORT $L60582
  00043	3a e0		 cmp	 ah, al
  00045	75 15		 jne	 SHORT $L60582

; 175  : 		return -2;
; 176  : 	}
; 177  : 	
; 178  : 	return 0;

  00047	33 c0		 xor	 eax, eax

; 179  : }

  00049	8b 8c 24 90 01
	00 00		 mov	 ecx, DWORD PTR __$ArrayPad$[esp+404]
  00050	e8 00 00 00 00	 call	 @__security_check_cookie@4
  00055	81 c4 94 01 00
	00		 add	 esp, 404		; 00000194H
  0005b	c3		 ret	 0
$L60582:

; 173  : 	{ 
; 174  : 		WSACleanup(); 

  0005c	ff 15 00 00 00
	00		 call	 DWORD PTR __imp__WSACleanup@0

; 179  : }

  00062	8b 8c 24 90 01
	00 00		 mov	 ecx, DWORD PTR __$ArrayPad$[esp+404]
  00069	b8 fe ff ff ff	 mov	 eax, -2			; fffffffeH
  0006e	e8 00 00 00 00	 call	 @__security_check_cookie@4
  00073	81 c4 94 01 00
	00		 add	 esp, 404		; 00000194H
  00079	c3		 ret	 0
?WSA_Init@@YAHXZ ENDP					; WSA_Init
_TEXT	ENDS
PUBLIC	?WSA_Free@@YAXXZ				; WSA_Free
; Function compile flags: /Ogty
;	COMDAT ?WSA_Free@@YAXXZ
_TEXT	SEGMENT
?WSA_Free@@YAXXZ PROC NEAR				; WSA_Free, COMDAT

; 183  :     //return;
; 184  : 	WSACleanup();

  00000	ff 25 00 00 00
	00		 jmp	 DWORD PTR __imp__WSACleanup@0
?WSA_Free@@YAXXZ ENDP					; WSA_Free
_TEXT	ENDS
PUBLIC	??_C@_0BG@KFDBAEJB@?$CFs?2data?2TmpIniFile?2?$CFs?$AA@ ; `string'
PUBLIC	??_C@_0M@ELOFBODM@?6info?5path?3?$AA@		; `string'
PUBLIC	??_C@_01EEMJAFIK@?6?$AA@			; `string'
PUBLIC	?DFN_GetPrivateProfileString@@YAKPBD00PADK0@Z	; DFN_GetPrivateProfileString
EXTRN	__imp__GetPrivateProfileStringA@24:NEAR
EXTRN	__imp__sprintf:NEAR
EXTRN	__imp_??$?8DU?$char_traits@D@std@@V?$allocator@D@1@@std@@YA_NABV?$basic_string@DU?$char_traits@D@std@@V?$allocator@D@2@@0@PBD@Z:NEAR
EXTRN	__imp_??0?$basic_string@DU?$char_traits@D@std@@V?$allocator@D@2@@std@@QAE@XZ:NEAR
EXTRN	__imp_??4?$basic_string@DU?$char_traits@D@std@@V?$allocator@D@2@@std@@QAEAAV01@PBD@Z:NEAR
EXTRN	__imp__OutputDebugStringA@4:NEAR
;	COMDAT xdata$x
; File d:\program files\microsoft visual studio .net 2003\vc7\include\xstring
xdata$x	SEGMENT
$T66651	DD	0ffffffffH
	DD	FLAT:$L66608
	DD	00H
	DD	FLAT:$L66609
	DD	01H
	DD	FLAT:$L66610
	DD	02H
	DD	FLAT:$L66611
	DD	03H
	DD	FLAT:$L66612
	DD	04H
	DD	FLAT:$L66613
$T66648	DD	019930520H
	DD	06H
	DD	FLAT:$T66651
	DD	2 DUP(00H)
	DD	2 DUP(00H)
xdata$x	ENDS
;	COMDAT ??_C@_0BG@KFDBAEJB@?$CFs?2data?2TmpIniFile?2?$CFs?$AA@
CONST	SEGMENT
??_C@_0BG@KFDBAEJB@?$CFs?2data?2TmpIniFile?2?$CFs?$AA@ DB '%s\data\TmpIni'
	DB	'File\%s', 00H				; `string'
CONST	ENDS
;	COMDAT ??_C@_0M@ELOFBODM@?6info?5path?3?$AA@
CONST	SEGMENT
??_C@_0M@ELOFBODM@?6info?5path?3?$AA@ DB 0aH, 'info path:', 00H ; `string'
CONST	ENDS
;	COMDAT ??_C@_01EEMJAFIK@?6?$AA@
CONST	SEGMENT
??_C@_01EEMJAFIK@?6?$AA@ DB 0aH, 00H			; `string'
; Function compile flags: /Ogty
; File d:\siteview\ecc_common\base\funcgeneral.cpp
CONST	ENDS
;	COMDAT ?DFN_GetPrivateProfileString@@YAKPBD00PADK0@Z
_TEXT	SEGMENT
$T66606 = -1192						; size = 4
_dfn_File$ = -1188					; size = 28
_dfn_Key$ = -1160					; size = 28
_dfn_Section$ = -1132					; size = 28
_dfn_Default$ = -1104					; size = 28
_dfn_Val$ = -1076					; size = 28
_configpath$ = -1048					; size = 1024
__$ArrayPad$ = -20					; size = 4
__$EHRec$ = -12						; size = 12
__$ReturnAddr$ = 4					; size = 4
_lpAppName$ = 8						; size = 4
_lpKeyName$ = 12					; size = 4
_lpDefault$ = 16					; size = 4
_lpReturnedString$ = 20					; size = 4
_nSize$ = 24						; size = 4
_lpFileName$ = 28					; size = 4
?DFN_GetPrivateProfileString@@YAKPBD00PADK0@Z PROC NEAR	; DFN_GetPrivateProfileString, COMDAT

; 217  : {

  00000	55		 push	 ebp
  00001	8b ec		 mov	 ebp, esp
  00003	83 e4 f8	 and	 esp, -8			; fffffff8H
  00006	6a ff		 push	 -1
  00008	68 00 00 00 00	 push	 __ehhandler$?DFN_GetPrivateProfileString@@YAKPBD00PADK0@Z
  0000d	64 a1 00 00 00
	00		 mov	 eax, DWORD PTR fs:__except_list
  00013	50		 push	 eax
  00014	64 89 25 00 00
	00 00		 mov	 DWORD PTR fs:__except_list, esp
  0001b	81 ec a0 04 00
	00		 sub	 esp, 1184		; 000004a0H
  00021	a1 00 00 00 00	 mov	 eax, DWORD PTR ___security_cookie
  00026	53		 push	 ebx
  00027	56		 push	 esi
  00028	57		 push	 edi

; 218  : 	std::string dfn_Section;

  00029	8d 4c 24 4c	 lea	 ecx, DWORD PTR _dfn_Section$[esp+1208]
  0002d	89 84 24 a4 04
	00 00		 mov	 DWORD PTR __$ArrayPad$[esp+1208], eax
  00034	ff 15 00 00 00
	00		 call	 DWORD PTR __imp_??0?$basic_string@DU?$char_traits@D@std@@V?$allocator@D@2@@std@@QAE@XZ

; 219  : 	std::string dfn_Key;

  0003a	8d 4c 24 30	 lea	 ecx, DWORD PTR _dfn_Key$[esp+1208]
  0003e	c7 84 24 b4 04
	00 00 00 00 00
	00		 mov	 DWORD PTR __$EHRec$[esp+1216], 0
  00049	ff 15 00 00 00
	00		 call	 DWORD PTR __imp_??0?$basic_string@DU?$char_traits@D@std@@V?$allocator@D@2@@std@@QAE@XZ

; 220  : 	std::string dfn_Default;

  0004f	8d 4c 24 68	 lea	 ecx, DWORD PTR _dfn_Default$[esp+1208]
  00053	c6 84 24 b4 04
	00 00 01	 mov	 BYTE PTR __$EHRec$[esp+1216], 1
  0005b	ff 15 00 00 00
	00		 call	 DWORD PTR __imp_??0?$basic_string@DU?$char_traits@D@std@@V?$allocator@D@2@@std@@QAE@XZ

; 221  : 	std::string dfn_File;

  00061	8d 4c 24 14	 lea	 ecx, DWORD PTR _dfn_File$[esp+1208]
  00065	c6 84 24 b4 04
	00 00 02	 mov	 BYTE PTR __$EHRec$[esp+1216], 2
  0006d	ff 15 00 00 00
	00		 call	 DWORD PTR __imp_??0?$basic_string@DU?$char_traits@D@std@@V?$allocator@D@2@@std@@QAE@XZ

; 222  : 	dfn_Section =lpAppName;

  00073	8b 5d 08	 mov	 ebx, DWORD PTR _lpAppName$[ebp]
  00076	53		 push	 ebx
  00077	8d 4c 24 50	 lea	 ecx, DWORD PTR _dfn_Section$[esp+1212]
  0007b	c6 84 24 b8 04
	00 00 03	 mov	 BYTE PTR __$EHRec$[esp+1220], 3
  00083	ff 15 00 00 00
	00		 call	 DWORD PTR __imp_??4?$basic_string@DU?$char_traits@D@std@@V?$allocator@D@2@@std@@QAEAAV01@PBD@Z

; 223  : 	dfn_Key   = lpKeyName;

  00089	8b 45 0c	 mov	 eax, DWORD PTR _lpKeyName$[ebp]
  0008c	50		 push	 eax
  0008d	8d 4c 24 34	 lea	 ecx, DWORD PTR _dfn_Key$[esp+1212]
  00091	ff 15 00 00 00
	00		 call	 DWORD PTR __imp_??4?$basic_string@DU?$char_traits@D@std@@V?$allocator@D@2@@std@@QAEAAV01@PBD@Z

; 224  : 	dfn_Default= lpDefault;

  00097	8b 4d 10	 mov	 ecx, DWORD PTR _lpDefault$[ebp]
  0009a	51		 push	 ecx
  0009b	8d 4c 24 6c	 lea	 ecx, DWORD PTR _dfn_Default$[esp+1212]
  0009f	ff 15 00 00 00
	00		 call	 DWORD PTR __imp_??4?$basic_string@DU?$char_traits@D@std@@V?$allocator@D@2@@std@@QAEAAV01@PBD@Z

; 225  : 	dfn_File = lpFileName;

  000a5	8b 55 1c	 mov	 edx, DWORD PTR _lpFileName$[ebp]
  000a8	52		 push	 edx
  000a9	8d 4c 24 18	 lea	 ecx, DWORD PTR _dfn_File$[esp+1212]
  000ad	ff 15 00 00 00
	00		 call	 DWORD PTR __imp_??4?$basic_string@DU?$char_traits@D@std@@V?$allocator@D@2@@std@@QAEAAV01@PBD@Z

; 226  : 
; 227  : 	std::string dfn_Val;

  000b3	8d 8c 24 84 00
	00 00		 lea	 ecx, DWORD PTR _dfn_Val$[esp+1208]
  000ba	ff 15 00 00 00
	00		 call	 DWORD PTR __imp_??0?$basic_string@DU?$char_traits@D@std@@V?$allocator@D@2@@std@@QAE@XZ

; 228  : 
; 229  : 	if(gRoot_path=="")

  000c0	68 00 00 00 00	 push	 OFFSET FLAT:??_C@_00CNPNBAHC@?$AA@
  000c5	68 00 00 00 00	 push	 OFFSET FLAT:_gRoot_path
  000ca	c6 84 24 bc 04
	00 00 04	 mov	 BYTE PTR __$EHRec$[esp+1224], 4
  000d2	ff 15 00 00 00
	00		 call	 DWORD PTR __imp_??$?8DU?$char_traits@D@std@@V?$allocator@D@1@@std@@YA_NABV?$basic_string@DU?$char_traits@D@std@@V?$allocator@D@2@@0@PBD@Z
  000d8	83 c4 08	 add	 esp, 8
  000db	84 c0		 test	 al, al
  000dd	74 2d		 je	 SHORT $L60609

; 230  : 			gRoot_path =FuncGetInstallPath();

  000df	8d 44 24 10	 lea	 eax, DWORD PTR $T66606[esp+1208]
  000e3	50		 push	 eax
  000e4	e8 00 00 00 00	 call	 ?FuncGetInstallPath@@YA?AV?$CStringT@DV?$StrTraitMFC_DLL@DV?$ChTraitsCRT@D@ATL@@@@@ATL@@XZ ; FuncGetInstallPath
  000e9	83 c4 04	 add	 esp, 4
  000ec	8b 00		 mov	 eax, DWORD PTR [eax]
  000ee	50		 push	 eax
  000ef	b9 00 00 00 00	 mov	 ecx, OFFSET FLAT:_gRoot_path
  000f4	c6 84 24 b8 04
	00 00 05	 mov	 BYTE PTR __$EHRec$[esp+1220], 5
  000fc	ff 15 00 00 00
	00		 call	 DWORD PTR __imp_??4?$basic_string@DU?$char_traits@D@std@@V?$allocator@D@2@@std@@QAEAAV01@PBD@Z
  00102	8d 4c 24 10	 lea	 ecx, DWORD PTR $T66606[esp+1208]
  00106	ff 15 00 00 00
	00		 call	 DWORD PTR __imp_??1?$CStringT@DV?$StrTraitMFC_DLL@DV?$ChTraitsCRT@D@ATL@@@@@ATL@@QAE@XZ
$L60609:

; 231  : 	
; 232  : 	//dfn_Val=GetIniFileString(dfn_Section, dfn_Key,dfn_Default,dfn_File);
; 233  : 
; 234  : 	char configpath[1024]={0};

  0010c	33 c0		 xor	 eax, eax
  0010e	c6 84 24 a0 00
	00 00 00	 mov	 BYTE PTR _configpath$[esp+1208], 0
  00116	b9 ff 00 00 00	 mov	 ecx, 255		; 000000ffH
  0011b	8d bc 24 a1 00
	00 00		 lea	 edi, DWORD PTR _configpath$[esp+1209]
  00122	f3 ab		 rep stosd

; 235  : 
; 236  : 	sprintf(configpath,"%s\\data\\TmpIniFile\\%s",gRoot_path.c_str(),dfn_File.c_str());

  00124	8b 4c 24 2c	 mov	 ecx, DWORD PTR _dfn_File$[esp+1232]
  00128	66 ab		 stosw
  0012a	aa		 stosb
  0012b	b8 10 00 00 00	 mov	 eax, 16			; 00000010H
  00130	3b c8		 cmp	 ecx, eax
  00132	8b 4c 24 18	 mov	 ecx, DWORD PTR _dfn_File$[esp+1212]
  00136	73 04		 jae	 SHORT $L66630
  00138	8d 4c 24 18	 lea	 ecx, DWORD PTR _dfn_File$[esp+1212]
$L66630:
  0013c	39 05 18 00 00
	00		 cmp	 DWORD PTR _gRoot_path+24, eax
  00142	a1 04 00 00 00	 mov	 eax, DWORD PTR _gRoot_path+4
  00147	73 05		 jae	 SHORT $L66645
  00149	b8 04 00 00 00	 mov	 eax, OFFSET FLAT:_gRoot_path+4
$L66645:
  0014e	51		 push	 ecx
  0014f	50		 push	 eax
  00150	8d 8c 24 a8 00
	00 00		 lea	 ecx, DWORD PTR _configpath$[esp+1216]
  00157	68 00 00 00 00	 push	 OFFSET FLAT:??_C@_0BG@KFDBAEJB@?$CFs?2data?2TmpIniFile?2?$CFs?$AA@
  0015c	51		 push	 ecx
  0015d	ff 15 00 00 00
	00		 call	 DWORD PTR __imp__sprintf

; 237  : //	printf("configpath=%s\n",configpath);
; 238  : 
; 239  : 	OutputDebugString("\ninfo path:");

  00163	8b 35 00 00 00
	00		 mov	 esi, DWORD PTR __imp__OutputDebugStringA@4
  00169	83 c4 10	 add	 esp, 16			; 00000010H
  0016c	68 00 00 00 00	 push	 OFFSET FLAT:??_C@_0M@ELOFBODM@?6info?5path?3?$AA@
  00171	ff d6		 call	 esi

; 240  : 	OutputDebugString( configpath );

  00173	8d 94 24 a0 00
	00 00		 lea	 edx, DWORD PTR _configpath$[esp+1208]
  0017a	52		 push	 edx
  0017b	ff d6		 call	 esi

; 241  : 	OutputDebugString("\n");

  0017d	68 00 00 00 00	 push	 OFFSET FLAT:??_C@_01EEMJAFIK@?6?$AA@
  00182	ff d6		 call	 esi

; 242  : 
; 243  : 	//puts(configpath);
; 244  : 	return GetPrivateProfileString(lpAppName,lpKeyName,lpDefault,lpReturnedString,nSize,configpath);

  00184	8b 4d 18	 mov	 ecx, DWORD PTR _nSize$[ebp]
  00187	8b 55 14	 mov	 edx, DWORD PTR _lpReturnedString$[ebp]
  0018a	8d 84 24 a0 00
	00 00		 lea	 eax, DWORD PTR _configpath$[esp+1208]
  00191	50		 push	 eax
  00192	8b 45 10	 mov	 eax, DWORD PTR _lpDefault$[ebp]
  00195	51		 push	 ecx
  00196	8b 4d 0c	 mov	 ecx, DWORD PTR _lpKeyName$[ebp]
  00199	52		 push	 edx
  0019a	50		 push	 eax
  0019b	51		 push	 ecx
  0019c	53		 push	 ebx
  0019d	ff 15 00 00 00
	00		 call	 DWORD PTR __imp__GetPrivateProfileStringA@24
  001a3	8d 8c 24 84 00
	00 00		 lea	 ecx, DWORD PTR _dfn_Val$[esp+1208]
  001aa	8b f0		 mov	 esi, eax
  001ac	c6 84 24 b4 04
	00 00 03	 mov	 BYTE PTR __$EHRec$[esp+1216], 3
  001b4	ff 15 00 00 00
	00		 call	 DWORD PTR __imp_??1?$basic_string@DU?$char_traits@D@std@@V?$allocator@D@2@@std@@QAE@XZ
  001ba	8d 4c 24 14	 lea	 ecx, DWORD PTR _dfn_File$[esp+1208]
  001be	c6 84 24 b4 04
	00 00 02	 mov	 BYTE PTR __$EHRec$[esp+1216], 2
  001c6	ff 15 00 00 00
	00		 call	 DWORD PTR __imp_??1?$basic_string@DU?$char_traits@D@std@@V?$allocator@D@2@@std@@QAE@XZ
  001cc	8d 4c 24 68	 lea	 ecx, DWORD PTR _dfn_Default$[esp+1208]
  001d0	c6 84 24 b4 04
	00 00 01	 mov	 BYTE PTR __$EHRec$[esp+1216], 1
  001d8	ff 15 00 00 00
	00		 call	 DWORD PTR __imp_??1?$basic_string@DU?$char_traits@D@std@@V?$allocator@D@2@@std@@QAE@XZ
  001de	8d 4c 24 30	 lea	 ecx, DWORD PTR _dfn_Key$[esp+1208]
  001e2	c6 84 24 b4 04
	00 00 00	 mov	 BYTE PTR __$EHRec$[esp+1216], 0
  001ea	ff 15 00 00 00
	00		 call	 DWORD PTR __imp_??1?$basic_string@DU?$char_traits@D@std@@V?$allocator@D@2@@std@@QAE@XZ
  001f0	8d 4c 24 4c	 lea	 ecx, DWORD PTR _dfn_Section$[esp+1208]
  001f4	c7 84 24 b4 04
	00 00 ff ff ff
	ff		 mov	 DWORD PTR __$EHRec$[esp+1216], -1
  001ff	ff 15 00 00 00
	00		 call	 DWORD PTR __imp_??1?$basic_string@DU?$char_traits@D@std@@V?$allocator@D@2@@std@@QAE@XZ

; 245  : 
; 246  : }

  00205	8b 8c 24 ac 04
	00 00		 mov	 ecx, DWORD PTR __$EHRec$[esp+1208]
  0020c	64 89 0d 00 00
	00 00		 mov	 DWORD PTR fs:__except_list, ecx
  00213	8b 8c 24 a4 04
	00 00		 mov	 ecx, DWORD PTR __$ArrayPad$[esp+1208]
  0021a	8b c6		 mov	 eax, esi
  0021c	e8 00 00 00 00	 call	 @__security_check_cookie@4
  00221	5f		 pop	 edi
  00222	5e		 pop	 esi
  00223	5b		 pop	 ebx
  00224	8b e5		 mov	 esp, ebp
  00226	5d		 pop	 ebp
  00227	c3		 ret	 0
_TEXT	ENDS
;	COMDAT text$x
text$x	SEGMENT
$L66608:
  00000	8d 8d 94 fb ff
	ff		 lea	 ecx, DWORD PTR _dfn_Section$[ebp]
  00006	ff 25 00 00 00
	00		 jmp	 DWORD PTR __imp_??1?$basic_string@DU?$char_traits@D@std@@V?$allocator@D@2@@std@@QAE@XZ
$L66609:
  0000c	8d 8d 78 fb ff
	ff		 lea	 ecx, DWORD PTR _dfn_Key$[ebp]
  00012	ff 25 00 00 00
	00		 jmp	 DWORD PTR __imp_??1?$basic_string@DU?$char_traits@D@std@@V?$allocator@D@2@@std@@QAE@XZ
$L66610:
  00018	8d 8d b0 fb ff
	ff		 lea	 ecx, DWORD PTR _dfn_Default$[ebp]
  0001e	ff 25 00 00 00
	00		 jmp	 DWORD PTR __imp_??1?$basic_string@DU?$char_traits@D@std@@V?$allocator@D@2@@std@@QAE@XZ
$L66611:
  00024	8d 8d 5c fb ff
	ff		 lea	 ecx, DWORD PTR _dfn_File$[ebp]
  0002a	ff 25 00 00 00
	00		 jmp	 DWORD PTR __imp_??1?$basic_string@DU?$char_traits@D@std@@V?$allocator@D@2@@std@@QAE@XZ
$L66612:
  00030	8d 8d cc fb ff
	ff		 lea	 ecx, DWORD PTR _dfn_Val$[ebp]
  00036	ff 25 00 00 00
	00		 jmp	 DWORD PTR __imp_??1?$basic_string@DU?$char_traits@D@std@@V?$allocator@D@2@@std@@QAE@XZ
$L66613:
  0003c	8d 8d 58 fb ff
	ff		 lea	 ecx, DWORD PTR $T66606[ebp]
  00042	ff 25 00 00 00
	00		 jmp	 DWORD PTR __imp_??1?$CStringT@DV?$StrTraitMFC_DLL@DV?$ChTraitsCRT@D@ATL@@@@@ATL@@QAE@XZ
__ehhandler$?DFN_GetPrivateProfileString@@YAKPBD00PADK0@Z:
  00048	b8 00 00 00 00	 mov	 eax, OFFSET FLAT:$T66648
  0004d	e9 00 00 00 00	 jmp	 ___CxxFrameHandler
text$x	ENDS
?DFN_GetPrivateProfileString@@YAKPBD00PADK0@Z ENDP	; DFN_GetPrivateProfileString
PUBLIC	??_C@_02DPKJAMEF@?$CFd?$AA@			; `string'
PUBLIC	?DFN_GetPrivateProfileInt@@YAHPBD0H0@Z		; DFN_GetPrivateProfileInt
EXTRN	__imp__atoi:NEAR
;	COMDAT ??_C@_02DPKJAMEF@?$CFd?$AA@
CONST	SEGMENT
??_C@_02DPKJAMEF@?$CFd?$AA@ DB '%d', 00H		; `string'
; Function compile flags: /Ogty
CONST	ENDS
;	COMDAT ?DFN_GetPrivateProfileInt@@YAHPBD0H0@Z
_TEXT	SEGMENT
_strDefault$ = -68					; size = 30
_strGet$ = -36						; size = 30
__$ArrayPad$ = -4					; size = 4
__$ReturnAddr$ = 4					; size = 4
_lpAppName$ = 8						; size = 4
_lpKeyName$ = 12					; size = 4
_nDefault$ = 16						; size = 4
_lpFileName$ = 20					; size = 4
?DFN_GetPrivateProfileInt@@YAHPBD0H0@Z PROC NEAR	; DFN_GetPrivateProfileInt, COMDAT

; 267  : {

  00000	83 ec 44	 sub	 esp, 68			; 00000044H
  00003	a1 00 00 00 00	 mov	 eax, DWORD PTR ___security_cookie

; 268  : 	int Result;
; 269  : 	char strDefault[30]={0};

  00008	33 c9		 xor	 ecx, ecx
  0000a	89 4c 24 01	 mov	 DWORD PTR _strDefault$[esp+69], ecx

; 270  : 	char strGet[30]={0};

  0000e	33 d2		 xor	 edx, edx
  00010	89 4c 24 05	 mov	 DWORD PTR _strDefault$[esp+73], ecx
  00014	89 54 24 21	 mov	 DWORD PTR _strGet$[esp+69], edx
  00018	89 4c 24 09	 mov	 DWORD PTR _strDefault$[esp+77], ecx
  0001c	89 54 24 25	 mov	 DWORD PTR _strGet$[esp+73], edx
  00020	89 4c 24 0d	 mov	 DWORD PTR _strDefault$[esp+81], ecx
  00024	89 44 24 40	 mov	 DWORD PTR __$ArrayPad$[esp+68], eax
  00028	89 54 24 29	 mov	 DWORD PTR _strGet$[esp+77], edx
  0002c	32 c0		 xor	 al, al
  0002e	89 4c 24 11	 mov	 DWORD PTR _strDefault$[esp+85], ecx
  00032	89 54 24 2d	 mov	 DWORD PTR _strGet$[esp+81], edx
  00036	89 4c 24 15	 mov	 DWORD PTR _strDefault$[esp+89], ecx
  0003a	88 04 24	 mov	 BYTE PTR _strDefault$[esp+68], al
  0003d	88 44 24 20	 mov	 BYTE PTR _strGet$[esp+68], al

; 271  : 	sprintf(strDefault,"%d",nDefault);

  00041	8b 44 24 50	 mov	 eax, DWORD PTR _nDefault$[esp+64]
  00045	89 4c 24 19	 mov	 DWORD PTR _strDefault$[esp+93], ecx
  00049	89 54 24 31	 mov	 DWORD PTR _strGet$[esp+85], edx
  0004d	50		 push	 eax
  0004e	88 4c 24 21	 mov	 BYTE PTR _strDefault$[esp+101], cl
  00052	89 54 24 39	 mov	 DWORD PTR _strGet$[esp+93], edx
  00056	8d 4c 24 04	 lea	 ecx, DWORD PTR _strDefault$[esp+72]
  0005a	89 54 24 3d	 mov	 DWORD PTR _strGet$[esp+97], edx
  0005e	68 00 00 00 00	 push	 OFFSET FLAT:??_C@_02DPKJAMEF@?$CFd?$AA@
  00063	51		 push	 ecx
  00064	88 54 24 49	 mov	 BYTE PTR _strGet$[esp+109], dl
  00068	ff 15 00 00 00
	00		 call	 DWORD PTR __imp__sprintf

; 272  : 	int nSize;
; 273  : 	nSize =29;
; 274  : 	DFN_GetPrivateProfileString(lpAppName,lpKeyName,strDefault,strGet,nSize,lpFileName);

  0006e	8b 54 24 60	 mov	 edx, DWORD PTR _lpFileName$[esp+76]
  00072	52		 push	 edx
  00073	8b 54 24 5c	 mov	 edx, DWORD PTR _lpKeyName$[esp+80]
  00077	6a 1d		 push	 29			; 0000001dH
  00079	8d 44 24 34	 lea	 eax, DWORD PTR _strGet$[esp+88]
  0007d	50		 push	 eax
  0007e	8b 44 24 60	 mov	 eax, DWORD PTR _lpAppName$[esp+88]
  00082	8d 4c 24 18	 lea	 ecx, DWORD PTR _strDefault$[esp+92]
  00086	51		 push	 ecx
  00087	52		 push	 edx
  00088	50		 push	 eax
  00089	e8 00 00 00 00	 call	 ?DFN_GetPrivateProfileString@@YAKPBD00PADK0@Z ; DFN_GetPrivateProfileString

; 275  : 	if(nSize>-1)
; 276  : 	{
; 277  : 		Result=atoi(strGet);

  0008e	8d 4c 24 44	 lea	 ecx, DWORD PTR _strGet$[esp+104]
  00092	51		 push	 ecx
  00093	ff 15 00 00 00
	00		 call	 DWORD PTR __imp__atoi

; 278  : 	}
; 279  : 	else Result =nDefault;
; 280  : 	
; 281  : 	return Result;
; 282  : }

  00099	8b 4c 24 68	 mov	 ecx, DWORD PTR __$ArrayPad$[esp+108]
  0009d	e8 00 00 00 00	 call	 @__security_check_cookie@4
  000a2	83 c4 6c	 add	 esp, 108		; 0000006cH
  000a5	c3		 ret	 0
?DFN_GetPrivateProfileInt@@YAHPBD0H0@Z ENDP		; DFN_GetPrivateProfileInt
_TEXT	ENDS
PUBLIC	?DFN_WritePrivateProfileString@@YAHPBD000@Z	; DFN_WritePrivateProfileString
EXTRN	__imp__WritePrivateProfileStringA@16:NEAR
;	COMDAT xdata$x
; File d:\program files\microsoft visual studio .net 2003\vc7\include\xstring
xdata$x	SEGMENT
$T66706	DD	0ffffffffH
	DD	FLAT:$L66662
	DD	00H
	DD	FLAT:$L66663
	DD	01H
	DD	FLAT:$L66664
	DD	02H
	DD	FLAT:$L66665
	DD	03H
	DD	FLAT:$L66666
	DD	04H
	DD	FLAT:$L66667
	DD	05H
	DD	FLAT:$L66668
$T66703	DD	019930520H
	DD	07H
	DD	FLAT:$T66706
	DD	2 DUP(00H)
	DD	2 DUP(00H)
; Function compile flags: /Ogty
; File d:\siteview\ecc_common\base\funcgeneral.cpp
xdata$x	ENDS
;	COMDAT ?DFN_WritePrivateProfileString@@YAHPBD000@Z
_TEXT	SEGMENT
$T66660 = -1220						; size = 4
_dfn_File$ = -1216					; size = 28
_dfn_Key$ = -1188					; size = 28
_dfn_Default$ = -1160					; size = 28
_dfn_Section$ = -1132					; size = 28
_strInt$ = -1104					; size = 28
_dfn_Val$ = -1076					; size = 28
_szPath$ = -1048					; size = 1024
__$ArrayPad$ = -20					; size = 4
__$EHRec$ = -12						; size = 12
__$ReturnAddr$ = 4					; size = 4
_lpAppName$ = 8						; size = 4
_lpKeyName$ = 12					; size = 4
_lpString$ = 16						; size = 4
_lpFileName$ = 20					; size = 4
?DFN_WritePrivateProfileString@@YAHPBD000@Z PROC NEAR	; DFN_WritePrivateProfileString, COMDAT

; 292  : {  

  00000	55		 push	 ebp
  00001	8b ec		 mov	 ebp, esp
  00003	83 e4 f8	 and	 esp, -8			; fffffff8H
  00006	6a ff		 push	 -1
  00008	68 00 00 00 00	 push	 __ehhandler$?DFN_WritePrivateProfileString@@YAHPBD000@Z
  0000d	64 a1 00 00 00
	00		 mov	 eax, DWORD PTR fs:__except_list
  00013	50		 push	 eax
  00014	64 89 25 00 00
	00 00		 mov	 DWORD PTR fs:__except_list, esp
  0001b	81 ec b8 04 00
	00		 sub	 esp, 1208		; 000004b8H
  00021	a1 00 00 00 00	 mov	 eax, DWORD PTR ___security_cookie
  00026	53		 push	 ebx
  00027	56		 push	 esi
  00028	57		 push	 edi

; 293  : 	BOOL Result = TRUE;
; 294  : 
; 295  : 	std::string dfn_Section;

  00029	8d 4c 24 64	 lea	 ecx, DWORD PTR _dfn_Section$[esp+1232]
  0002d	89 84 24 bc 04
	00 00		 mov	 DWORD PTR __$ArrayPad$[esp+1232], eax
  00034	ff 15 00 00 00
	00		 call	 DWORD PTR __imp_??0?$basic_string@DU?$char_traits@D@std@@V?$allocator@D@2@@std@@QAE@XZ

; 296  : 	std::string dfn_Key;

  0003a	8d 4c 24 2c	 lea	 ecx, DWORD PTR _dfn_Key$[esp+1232]
  0003e	c7 84 24 cc 04
	00 00 00 00 00
	00		 mov	 DWORD PTR __$EHRec$[esp+1240], 0
  00049	ff 15 00 00 00
	00		 call	 DWORD PTR __imp_??0?$basic_string@DU?$char_traits@D@std@@V?$allocator@D@2@@std@@QAE@XZ

; 297  : 	std::string dfn_Default;

  0004f	8d 4c 24 48	 lea	 ecx, DWORD PTR _dfn_Default$[esp+1232]
  00053	c6 84 24 cc 04
	00 00 01	 mov	 BYTE PTR __$EHRec$[esp+1240], 1
  0005b	ff 15 00 00 00
	00		 call	 DWORD PTR __imp_??0?$basic_string@DU?$char_traits@D@std@@V?$allocator@D@2@@std@@QAE@XZ

; 298  : 	std::string dfn_File;

  00061	8d 4c 24 10	 lea	 ecx, DWORD PTR _dfn_File$[esp+1232]
  00065	c6 84 24 cc 04
	00 00 02	 mov	 BYTE PTR __$EHRec$[esp+1240], 2
  0006d	ff 15 00 00 00
	00		 call	 DWORD PTR __imp_??0?$basic_string@DU?$char_traits@D@std@@V?$allocator@D@2@@std@@QAE@XZ

; 299  : 	dfn_Section =lpAppName;

  00073	8b 75 08	 mov	 esi, DWORD PTR _lpAppName$[ebp]
  00076	56		 push	 esi
  00077	8d 4c 24 68	 lea	 ecx, DWORD PTR _dfn_Section$[esp+1236]
  0007b	c6 84 24 d0 04
	00 00 03	 mov	 BYTE PTR __$EHRec$[esp+1244], 3
  00083	ff 15 00 00 00
	00		 call	 DWORD PTR __imp_??4?$basic_string@DU?$char_traits@D@std@@V?$allocator@D@2@@std@@QAEAAV01@PBD@Z

; 300  : 	dfn_Key   = lpKeyName;

  00089	8b 5d 0c	 mov	 ebx, DWORD PTR _lpKeyName$[ebp]
  0008c	53		 push	 ebx
  0008d	8d 4c 24 30	 lea	 ecx, DWORD PTR _dfn_Key$[esp+1236]
  00091	ff 15 00 00 00
	00		 call	 DWORD PTR __imp_??4?$basic_string@DU?$char_traits@D@std@@V?$allocator@D@2@@std@@QAEAAV01@PBD@Z

; 301  : 	dfn_File = lpFileName;

  00097	8b 45 14	 mov	 eax, DWORD PTR _lpFileName$[ebp]
  0009a	50		 push	 eax
  0009b	8d 4c 24 14	 lea	 ecx, DWORD PTR _dfn_File$[esp+1236]
  0009f	ff 15 00 00 00
	00		 call	 DWORD PTR __imp_??4?$basic_string@DU?$char_traits@D@std@@V?$allocator@D@2@@std@@QAEAAV01@PBD@Z

; 302  : 	dfn_Default = lpString;

  000a5	8b 4d 10	 mov	 ecx, DWORD PTR _lpString$[ebp]
  000a8	51		 push	 ecx
  000a9	8d 4c 24 4c	 lea	 ecx, DWORD PTR _dfn_Default$[esp+1236]
  000ad	ff 15 00 00 00
	00		 call	 DWORD PTR __imp_??4?$basic_string@DU?$char_traits@D@std@@V?$allocator@D@2@@std@@QAEAAV01@PBD@Z

; 303  : 	
; 304  : 	std::string dfn_Val;

  000b3	8d 8c 24 9c 00
	00 00		 lea	 ecx, DWORD PTR _dfn_Val$[esp+1232]
  000ba	ff 15 00 00 00
	00		 call	 DWORD PTR __imp_??0?$basic_string@DU?$char_traits@D@std@@V?$allocator@D@2@@std@@QAE@XZ

; 305  : 	std::string strInt ;

  000c0	8d 8c 24 80 00
	00 00		 lea	 ecx, DWORD PTR _strInt$[esp+1232]
  000c7	c6 84 24 cc 04
	00 00 04	 mov	 BYTE PTR __$EHRec$[esp+1240], 4
  000cf	ff 15 00 00 00
	00		 call	 DWORD PTR __imp_??0?$basic_string@DU?$char_traits@D@std@@V?$allocator@D@2@@std@@QAE@XZ

; 306  : 	if(gRoot_path=="")

  000d5	68 00 00 00 00	 push	 OFFSET FLAT:??_C@_00CNPNBAHC@?$AA@
  000da	68 00 00 00 00	 push	 OFFSET FLAT:_gRoot_path
  000df	c6 84 24 d4 04
	00 00 05	 mov	 BYTE PTR __$EHRec$[esp+1248], 5
  000e7	ff 15 00 00 00
	00		 call	 DWORD PTR __imp_??$?8DU?$char_traits@D@std@@V?$allocator@D@1@@std@@YA_NABV?$basic_string@DU?$char_traits@D@std@@V?$allocator@D@2@@0@PBD@Z
  000ed	83 c4 08	 add	 esp, 8
  000f0	84 c0		 test	 al, al
  000f2	74 2d		 je	 SHORT $L60649

; 307  : 			gRoot_path =FuncGetInstallPath();

  000f4	8d 54 24 0c	 lea	 edx, DWORD PTR $T66660[esp+1232]
  000f8	52		 push	 edx
  000f9	e8 00 00 00 00	 call	 ?FuncGetInstallPath@@YA?AV?$CStringT@DV?$StrTraitMFC_DLL@DV?$ChTraitsCRT@D@ATL@@@@@ATL@@XZ ; FuncGetInstallPath
  000fe	83 c4 04	 add	 esp, 4
  00101	8b 00		 mov	 eax, DWORD PTR [eax]
  00103	50		 push	 eax
  00104	b9 00 00 00 00	 mov	 ecx, OFFSET FLAT:_gRoot_path
  00109	c6 84 24 d0 04
	00 00 06	 mov	 BYTE PTR __$EHRec$[esp+1244], 6
  00111	ff 15 00 00 00
	00		 call	 DWORD PTR __imp_??4?$basic_string@DU?$char_traits@D@std@@V?$allocator@D@2@@std@@QAEAAV01@PBD@Z
  00117	8d 4c 24 0c	 lea	 ecx, DWORD PTR $T66660[esp+1232]
  0011b	ff 15 00 00 00
	00		 call	 DWORD PTR __imp_??1?$CStringT@DV?$StrTraitMFC_DLL@DV?$ChTraitsCRT@D@ATL@@@@@ATL@@QAE@XZ
$L60649:

; 308  : 	char szPath[1024]={0};

  00121	33 c0		 xor	 eax, eax
  00123	c6 84 24 b8 00
	00 00 00	 mov	 BYTE PTR _szPath$[esp+1232], 0
  0012b	b9 ff 00 00 00	 mov	 ecx, 255		; 000000ffH
  00130	8d bc 24 b9 00
	00 00		 lea	 edi, DWORD PTR _szPath$[esp+1233]
  00137	f3 ab		 rep stosd

; 309  : 	sprintf(szPath,"%s\\data\\TmpIniFile\\%s",gRoot_path.c_str(),dfn_File.c_str());

  00139	8b 4c 24 28	 mov	 ecx, DWORD PTR _dfn_File$[esp+1256]
  0013d	66 ab		 stosw
  0013f	aa		 stosb
  00140	b8 10 00 00 00	 mov	 eax, 16			; 00000010H
  00145	3b c8		 cmp	 ecx, eax
  00147	8b 4c 24 14	 mov	 ecx, DWORD PTR _dfn_File$[esp+1236]
  0014b	73 04		 jae	 SHORT $L66686
  0014d	8d 4c 24 14	 lea	 ecx, DWORD PTR _dfn_File$[esp+1236]
$L66686:
  00151	39 05 18 00 00
	00		 cmp	 DWORD PTR _gRoot_path+24, eax
  00157	a1 04 00 00 00	 mov	 eax, DWORD PTR _gRoot_path+4
  0015c	73 05		 jae	 SHORT $L66700
  0015e	b8 04 00 00 00	 mov	 eax, OFFSET FLAT:_gRoot_path+4
$L66700:
  00163	51		 push	 ecx
  00164	50		 push	 eax
  00165	8d 84 24 c0 00
	00 00		 lea	 eax, DWORD PTR _szPath$[esp+1240]
  0016c	68 00 00 00 00	 push	 OFFSET FLAT:??_C@_0BG@KFDBAEJB@?$CFs?2data?2TmpIniFile?2?$CFs?$AA@
  00171	50		 push	 eax
  00172	ff 15 00 00 00
	00		 call	 DWORD PTR __imp__sprintf

; 310  : 	//puts(szPath);
; 311  : 	WritePrivateProfileString(lpAppName,lpKeyName,lpString,szPath);

  00178	8b 55 10	 mov	 edx, DWORD PTR _lpString$[ebp]
  0017b	83 c4 10	 add	 esp, 16			; 00000010H
  0017e	8d 8c 24 b8 00
	00 00		 lea	 ecx, DWORD PTR _szPath$[esp+1232]
  00185	51		 push	 ecx
  00186	52		 push	 edx
  00187	53		 push	 ebx
  00188	56		 push	 esi
  00189	ff 15 00 00 00
	00		 call	 DWORD PTR __imp__WritePrivateProfileStringA@16

; 312  :     return Result;

  0018f	8d 8c 24 80 00
	00 00		 lea	 ecx, DWORD PTR _strInt$[esp+1232]
  00196	c6 84 24 cc 04
	00 00 04	 mov	 BYTE PTR __$EHRec$[esp+1240], 4
  0019e	ff 15 00 00 00
	00		 call	 DWORD PTR __imp_??1?$basic_string@DU?$char_traits@D@std@@V?$allocator@D@2@@std@@QAE@XZ
  001a4	8d 8c 24 9c 00
	00 00		 lea	 ecx, DWORD PTR _dfn_Val$[esp+1232]
  001ab	c6 84 24 cc 04
	00 00 03	 mov	 BYTE PTR __$EHRec$[esp+1240], 3
  001b3	ff 15 00 00 00
	00		 call	 DWORD PTR __imp_??1?$basic_string@DU?$char_traits@D@std@@V?$allocator@D@2@@std@@QAE@XZ
  001b9	8d 4c 24 10	 lea	 ecx, DWORD PTR _dfn_File$[esp+1232]
  001bd	c6 84 24 cc 04
	00 00 02	 mov	 BYTE PTR __$EHRec$[esp+1240], 2
  001c5	ff 15 00 00 00
	00		 call	 DWORD PTR __imp_??1?$basic_string@DU?$char_traits@D@std@@V?$allocator@D@2@@std@@QAE@XZ
  001cb	8d 4c 24 48	 lea	 ecx, DWORD PTR _dfn_Default$[esp+1232]
  001cf	c6 84 24 cc 04
	00 00 01	 mov	 BYTE PTR __$EHRec$[esp+1240], 1
  001d7	ff 15 00 00 00
	00		 call	 DWORD PTR __imp_??1?$basic_string@DU?$char_traits@D@std@@V?$allocator@D@2@@std@@QAE@XZ
  001dd	8d 4c 24 2c	 lea	 ecx, DWORD PTR _dfn_Key$[esp+1232]
  001e1	c6 84 24 cc 04
	00 00 00	 mov	 BYTE PTR __$EHRec$[esp+1240], 0
  001e9	ff 15 00 00 00
	00		 call	 DWORD PTR __imp_??1?$basic_string@DU?$char_traits@D@std@@V?$allocator@D@2@@std@@QAE@XZ
  001ef	8d 4c 24 64	 lea	 ecx, DWORD PTR _dfn_Section$[esp+1232]
  001f3	c7 84 24 cc 04
	00 00 ff ff ff
	ff		 mov	 DWORD PTR __$EHRec$[esp+1240], -1
  001fe	ff 15 00 00 00
	00		 call	 DWORD PTR __imp_??1?$basic_string@DU?$char_traits@D@std@@V?$allocator@D@2@@std@@QAE@XZ

; 313  : }

  00204	8b 8c 24 c4 04
	00 00		 mov	 ecx, DWORD PTR __$EHRec$[esp+1232]
  0020b	64 89 0d 00 00
	00 00		 mov	 DWORD PTR fs:__except_list, ecx
  00212	8b 8c 24 bc 04
	00 00		 mov	 ecx, DWORD PTR __$ArrayPad$[esp+1232]
  00219	b8 01 00 00 00	 mov	 eax, 1
  0021e	e8 00 00 00 00	 call	 @__security_check_cookie@4
  00223	5f		 pop	 edi
  00224	5e		 pop	 esi
  00225	5b		 pop	 ebx
  00226	8b e5		 mov	 esp, ebp
  00228	5d		 pop	 ebp
  00229	c3		 ret	 0
_TEXT	ENDS
;	COMDAT text$x
text$x	SEGMENT
$L66662:
  00000	8d 8d 94 fb ff
	ff		 lea	 ecx, DWORD PTR _dfn_Section$[ebp]
  00006	ff 25 00 00 00
	00		 jmp	 DWORD PTR __imp_??1?$basic_string@DU?$char_traits@D@std@@V?$allocator@D@2@@std@@QAE@XZ
$L66663:
  0000c	8d 8d 5c fb ff
	ff		 lea	 ecx, DWORD PTR _dfn_Key$[ebp]
  00012	ff 25 00 00 00
	00		 jmp	 DWORD PTR __imp_??1?$basic_string@DU?$char_traits@D@std@@V?$allocator@D@2@@std@@QAE@XZ
$L66664:
  00018	8d 8d 78 fb ff
	ff		 lea	 ecx, DWORD PTR _dfn_Default$[ebp]
  0001e	ff 25 00 00 00
	00		 jmp	 DWORD PTR __imp_??1?$basic_string@DU?$char_traits@D@std@@V?$allocator@D@2@@std@@QAE@XZ
$L66665:
  00024	8d 8d 40 fb ff
	ff		 lea	 ecx, DWORD PTR _dfn_File$[ebp]
  0002a	ff 25 00 00 00
	00		 jmp	 DWORD PTR __imp_??1?$basic_string@DU?$char_traits@D@std@@V?$allocator@D@2@@std@@QAE@XZ
$L66666:
  00030	8d 8d cc fb ff
	ff		 lea	 ecx, DWORD PTR _dfn_Val$[ebp]
  00036	ff 25 00 00 00
	00		 jmp	 DWORD PTR __imp_??1?$basic_string@DU?$char_traits@D@std@@V?$allocator@D@2@@std@@QAE@XZ
$L66667:
  0003c	8d 8d b0 fb ff
	ff		 lea	 ecx, DWORD PTR _strInt$[ebp]
  00042	ff 25 00 00 00
	00		 jmp	 DWORD PTR __imp_??1?$basic_string@DU?$char_traits@D@std@@V?$allocator@D@2@@std@@QAE@XZ
$L66668:
  00048	8d 8d 3c fb ff
	ff		 lea	 ecx, DWORD PTR $T66660[ebp]
  0004e	ff 25 00 00 00
	00		 jmp	 DWORD PTR __imp_??1?$CStringT@DV?$StrTraitMFC_DLL@DV?$ChTraitsCRT@D@ATL@@@@@ATL@@QAE@XZ
__ehhandler$?DFN_WritePrivateProfileString@@YAHPBD000@Z:
  00054	b8 00 00 00 00	 mov	 eax, OFFSET FLAT:$T66703
  00059	e9 00 00 00 00	 jmp	 ___CxxFrameHandler
text$x	ENDS
?DFN_WritePrivateProfileString@@YAHPBD000@Z ENDP	; DFN_WritePrivateProfileString
PUBLIC	?FuncGetCountByMark@@YAHV?$CStringT@DV?$StrTraitMFC_DLL@DV?$ChTraitsCRT@D@ATL@@@@@ATL@@0@Z ; FuncGetCountByMark
EXTRN	__imp_?Left@?$CStringT@DV?$StrTraitMFC_DLL@DV?$ChTraitsCRT@D@ATL@@@@@ATL@@QBE?AV12@H@Z:NEAR
;	COMDAT xdata$x
; File d:\program files\microsoft visual studio .net 2003\vc7\atlmfc\include\atlsimpstr.h
xdata$x	SEGMENT
$T66745	DD	0ffffffffH
	DD	FLAT:$L66711
	DD	00H
	DD	FLAT:$L66712
	DD	01H
	DD	FLAT:$L66713
	DD	02H
	DD	FLAT:$L66714
	DD	03H
	DD	FLAT:$L66715
	DD	04H
	DD	FLAT:$L66716
$T66741	DD	019930520H
	DD	06H
	DD	FLAT:$T66745
	DD	2 DUP(00H)
	DD	2 DUP(00H)
; Function compile flags: /Ogty
; File d:\siteview\ecc_common\base\funcgeneral.cpp
xdata$x	ENDS
;	COMDAT ?FuncGetCountByMark@@YAHV?$CStringT@DV?$StrTraitMFC_DLL@DV?$ChTraitsCRT@D@ATL@@@@@ATL@@0@Z
_TEXT	SEGMENT
_strTemp$ = -28						; size = 4
_strRight$60667 = -24					; size = 4
_strLeft$60665 = -20					; size = 4
_strReturn$ = -16					; size = 4
__$EHRec$ = -12						; size = 12
_strWholeString$ = 8					; size = 4
_strMark$ = 12						; size = 4
?FuncGetCountByMark@@YAHV?$CStringT@DV?$StrTraitMFC_DLL@DV?$ChTraitsCRT@D@ATL@@@@@ATL@@0@Z PROC NEAR ; FuncGetCountByMark, COMDAT

; 317  : {

  00000	6a ff		 push	 -1
  00002	68 00 00 00 00	 push	 __ehhandler$?FuncGetCountByMark@@YAHV?$CStringT@DV?$StrTraitMFC_DLL@DV?$ChTraitsCRT@D@ATL@@@@@ATL@@0@Z
  00007	64 a1 00 00 00
	00		 mov	 eax, DWORD PTR fs:__except_list
  0000d	50		 push	 eax
  0000e	64 89 25 00 00
	00 00		 mov	 DWORD PTR fs:__except_list, esp
  00015	83 ec 10	 sub	 esp, 16			; 00000010H
  00018	55		 push	 ebp
  00019	56		 push	 esi
  0001a	57		 push	 edi

; 318  : 	CString strTemp = _T("");

  0001b	68 00 00 00 00	 push	 OFFSET FLAT:??_C@_00CNPNBAHC@?$AA@
  00020	8d 4c 24 10	 lea	 ecx, DWORD PTR _strTemp$[esp+44]
  00024	c7 44 24 28 01
	00 00 00	 mov	 DWORD PTR __$EHRec$[esp+52], 1
  0002c	ff 15 00 00 00
	00		 call	 DWORD PTR __imp_??0?$CStringT@DV?$StrTraitMFC_DLL@DV?$ChTraitsCRT@D@ATL@@@@@ATL@@QAE@PBD@Z

; 319  : 	strTemp = strWholeString;

  00032	8d 44 24 2c	 lea	 eax, DWORD PTR _strWholeString$[esp+36]
  00036	50		 push	 eax
  00037	8d 4c 24 10	 lea	 ecx, DWORD PTR _strTemp$[esp+44]
  0003b	c6 44 24 28 02	 mov	 BYTE PTR __$EHRec$[esp+52], 2
  00040	ff 15 00 00 00
	00		 call	 DWORD PTR __imp_??4?$CStringT@DV?$StrTraitMFC_DLL@DV?$ChTraitsCRT@D@ATL@@@@@ATL@@QAEAAV01@ABV01@@Z

; 320  : 
; 321  : 	int nIndex1 = strTemp.Find(strMark, 0);

  00046	8b 4c 24 30	 mov	 ecx, DWORD PTR _strMark$[esp+36]
  0004a	6a 00		 push	 0
  0004c	51		 push	 ecx
  0004d	8d 4c 24 14	 lea	 ecx, DWORD PTR _strTemp$[esp+48]
  00051	ff 15 00 00 00
	00		 call	 DWORD PTR __imp_?Find@?$CStringT@DV?$StrTraitMFC_DLL@DV?$ChTraitsCRT@D@ATL@@@@@ATL@@QBEHPBDH@Z

; 322  : 	int i = 0;
; 323  : 	CString strReturn = _T("");

  00057	68 00 00 00 00	 push	 OFFSET FLAT:??_C@_00CNPNBAHC@?$AA@
  0005c	8d 4c 24 1c	 lea	 ecx, DWORD PTR _strReturn$[esp+44]
  00060	8b f0		 mov	 esi, eax
  00062	33 ff		 xor	 edi, edi
  00064	ff 15 00 00 00
	00		 call	 DWORD PTR __imp_??0?$CStringT@DV?$StrTraitMFC_DLL@DV?$ChTraitsCRT@D@ATL@@@@@ATL@@QAE@PBD@Z

; 324  : 
; 325  : 	int nMarkByte = 0;
; 326  : 	nMarkByte = strMark.GetLength();
; 327  : 
; 328  : 	while (nIndex1!=-1) 

  0006a	83 fe ff	 cmp	 esi, -1
  0006d	8b 54 24 30	 mov	 edx, DWORD PTR _strMark$[esp+36]
  00071	8b 6a f4	 mov	 ebp, DWORD PTR [edx-12]
  00074	c6 44 24 24 03	 mov	 BYTE PTR __$EHRec$[esp+48], 3
  00079	74 7b		 je	 SHORT $L60664
  0007b	eb 03 8d 49 00	 npad	 5
$L60663:

; 329  : 	{
; 330  : 		i++;
; 331  : 		
; 332  : 		CString strLeft = strTemp.Left(nIndex1);

  00080	56		 push	 esi
  00081	8d 44 24 18	 lea	 eax, DWORD PTR _strLeft$60665[esp+44]
  00085	50		 push	 eax
  00086	8d 4c 24 14	 lea	 ecx, DWORD PTR _strTemp$[esp+48]
  0008a	47		 inc	 edi
  0008b	ff 15 00 00 00
	00		 call	 DWORD PTR __imp_?Left@?$CStringT@DV?$StrTraitMFC_DLL@DV?$ChTraitsCRT@D@ATL@@@@@ATL@@QBE?AV12@H@Z

; 333  : 		CString strRight = strTemp.Right(strTemp.GetLength()-nIndex1-nMarkByte);

  00091	8b 4c 24 0c	 mov	 ecx, DWORD PTR _strTemp$[esp+40]
  00095	8b 41 f4	 mov	 eax, DWORD PTR [ecx-12]
  00098	2b c5		 sub	 eax, ebp
  0009a	2b c6		 sub	 eax, esi
  0009c	50		 push	 eax
  0009d	8d 54 24 14	 lea	 edx, DWORD PTR _strRight$60667[esp+44]
  000a1	52		 push	 edx
  000a2	8d 4c 24 14	 lea	 ecx, DWORD PTR _strTemp$[esp+48]
  000a6	c6 44 24 2c 04	 mov	 BYTE PTR __$EHRec$[esp+56], 4
  000ab	ff 15 00 00 00
	00		 call	 DWORD PTR __imp_?Right@?$CStringT@DV?$StrTraitMFC_DLL@DV?$ChTraitsCRT@D@ATL@@@@@ATL@@QBE?AV12@H@Z

; 334  : 		
; 335  : 		nIndex1 = strRight.Find(strMark, 0);

  000b1	8b 44 24 30	 mov	 eax, DWORD PTR _strMark$[esp+36]
  000b5	6a 00		 push	 0
  000b7	50		 push	 eax
  000b8	8d 4c 24 18	 lea	 ecx, DWORD PTR _strRight$60667[esp+48]
  000bc	c6 44 24 2c 05	 mov	 BYTE PTR __$EHRec$[esp+56], 5
  000c1	ff 15 00 00 00
	00		 call	 DWORD PTR __imp_?Find@?$CStringT@DV?$StrTraitMFC_DLL@DV?$ChTraitsCRT@D@ATL@@@@@ATL@@QBEHPBDH@Z

; 336  : 		strTemp = strRight;	

  000c7	8d 4c 24 10	 lea	 ecx, DWORD PTR _strRight$60667[esp+40]
  000cb	51		 push	 ecx
  000cc	8d 4c 24 10	 lea	 ecx, DWORD PTR _strTemp$[esp+44]
  000d0	8b f0		 mov	 esi, eax
  000d2	ff 15 00 00 00
	00		 call	 DWORD PTR __imp_??4?$CStringT@DV?$StrTraitMFC_DLL@DV?$ChTraitsCRT@D@ATL@@@@@ATL@@QAEAAV01@ABV01@@Z

; 337  : 	}

  000d8	8d 4c 24 10	 lea	 ecx, DWORD PTR _strRight$60667[esp+40]
  000dc	ff 15 00 00 00
	00		 call	 DWORD PTR __imp_??1?$CStringT@DV?$StrTraitMFC_DLL@DV?$ChTraitsCRT@D@ATL@@@@@ATL@@QAE@XZ
  000e2	8d 4c 24 14	 lea	 ecx, DWORD PTR _strLeft$60665[esp+40]
  000e6	c6 44 24 24 03	 mov	 BYTE PTR __$EHRec$[esp+48], 3
  000eb	ff 15 00 00 00
	00		 call	 DWORD PTR __imp_??1?$CStringT@DV?$StrTraitMFC_DLL@DV?$ChTraitsCRT@D@ATL@@@@@ATL@@QAE@XZ
  000f1	83 fe ff	 cmp	 esi, -1
  000f4	75 8a		 jne	 SHORT $L60663
$L60664:

; 338  : 
; 339  : 	return i;

  000f6	8d 4c 24 18	 lea	 ecx, DWORD PTR _strReturn$[esp+40]
  000fa	ff 15 00 00 00
	00		 call	 DWORD PTR __imp_??1?$CStringT@DV?$StrTraitMFC_DLL@DV?$ChTraitsCRT@D@ATL@@@@@ATL@@QAE@XZ
  00100	8d 4c 24 0c	 lea	 ecx, DWORD PTR _strTemp$[esp+40]
  00104	ff 15 00 00 00
	00		 call	 DWORD PTR __imp_??1?$CStringT@DV?$StrTraitMFC_DLL@DV?$ChTraitsCRT@D@ATL@@@@@ATL@@QAE@XZ
  0010a	8d 4c 24 2c	 lea	 ecx, DWORD PTR _strWholeString$[esp+36]
  0010e	ff 15 00 00 00
	00		 call	 DWORD PTR __imp_??1?$CStringT@DV?$StrTraitMFC_DLL@DV?$ChTraitsCRT@D@ATL@@@@@ATL@@QAE@XZ
  00114	8d 4c 24 30	 lea	 ecx, DWORD PTR _strMark$[esp+36]
  00118	ff 15 00 00 00
	00		 call	 DWORD PTR __imp_??1?$CStringT@DV?$StrTraitMFC_DLL@DV?$ChTraitsCRT@D@ATL@@@@@ATL@@QAE@XZ

; 340  : }

  0011e	8b 4c 24 1c	 mov	 ecx, DWORD PTR __$EHRec$[esp+40]
  00122	8b c7		 mov	 eax, edi
  00124	5f		 pop	 edi
  00125	5e		 pop	 esi
  00126	5d		 pop	 ebp
  00127	64 89 0d 00 00
	00 00		 mov	 DWORD PTR fs:__except_list, ecx
  0012e	83 c4 1c	 add	 esp, 28			; 0000001cH
  00131	c3		 ret	 0
_TEXT	ENDS
;	COMDAT text$x
text$x	SEGMENT
$L66711:
  00000	8d 4d 08	 lea	 ecx, DWORD PTR _strMark$[ebp-4]
  00003	ff 25 00 00 00
	00		 jmp	 DWORD PTR __imp_??1?$CStringT@DV?$StrTraitMFC_DLL@DV?$ChTraitsCRT@D@ATL@@@@@ATL@@QAE@XZ
$L66712:
  00009	8d 4d 04	 lea	 ecx, DWORD PTR _strWholeString$[ebp-4]
  0000c	ff 25 00 00 00
	00		 jmp	 DWORD PTR __imp_??1?$CStringT@DV?$StrTraitMFC_DLL@DV?$ChTraitsCRT@D@ATL@@@@@ATL@@QAE@XZ
$L66713:
  00012	8d 4d e4	 lea	 ecx, DWORD PTR _strTemp$[ebp]
  00015	ff 25 00 00 00
	00		 jmp	 DWORD PTR __imp_??1?$CStringT@DV?$StrTraitMFC_DLL@DV?$ChTraitsCRT@D@ATL@@@@@ATL@@QAE@XZ
$L66714:
  0001b	8d 4d f0	 lea	 ecx, DWORD PTR _strReturn$[ebp]
  0001e	ff 25 00 00 00
	00		 jmp	 DWORD PTR __imp_??1?$CStringT@DV?$StrTraitMFC_DLL@DV?$ChTraitsCRT@D@ATL@@@@@ATL@@QAE@XZ
$L66715:
  00024	8d 4d ec	 lea	 ecx, DWORD PTR _strLeft$60665[ebp]
  00027	ff 25 00 00 00
	00		 jmp	 DWORD PTR __imp_??1?$CStringT@DV?$StrTraitMFC_DLL@DV?$ChTraitsCRT@D@ATL@@@@@ATL@@QAE@XZ
$L66716:
  0002d	8d 4d e8	 lea	 ecx, DWORD PTR _strRight$60667[ebp]
  00030	ff 25 00 00 00
	00		 jmp	 DWORD PTR __imp_??1?$CStringT@DV?$StrTraitMFC_DLL@DV?$ChTraitsCRT@D@ATL@@@@@ATL@@QAE@XZ
__ehhandler$?FuncGetCountByMark@@YAHV?$CStringT@DV?$StrTraitMFC_DLL@DV?$ChTraitsCRT@D@ATL@@@@@ATL@@0@Z:
  00036	b8 00 00 00 00	 mov	 eax, OFFSET FLAT:$T66741
  0003b	e9 00 00 00 00	 jmp	 ___CxxFrameHandler
text$x	ENDS
?FuncGetCountByMark@@YAHV?$CStringT@DV?$StrTraitMFC_DLL@DV?$ChTraitsCRT@D@ATL@@@@@ATL@@0@Z ENDP ; FuncGetCountByMark
PUBLIC	?FuncGetProfileIntBy@@YAHV?$CStringT@DV?$StrTraitMFC_DLL@DV?$ChTraitsCRT@D@ATL@@@@@ATL@@00@Z ; FuncGetProfileIntBy
;	COMDAT xdata$x
; File d:\program files\microsoft visual studio .net 2003\vc7\atlmfc\include\atlsimpstr.h
xdata$x	SEGMENT
$T66772	DD	0ffffffffH
	DD	FLAT:$L66752
	DD	00H
	DD	FLAT:$L66753
	DD	01H
	DD	FLAT:$L66754
	DD	02H
	DD	FLAT:$L66755
$T66769	DD	019930520H
	DD	04H
	DD	FLAT:$T66772
	DD	2 DUP(00H)
	DD	2 DUP(00H)
; Function compile flags: /Ogty
; File d:\siteview\ecc_common\base\funcgeneral.cpp
xdata$x	ENDS
;	COMDAT ?FuncGetProfileIntBy@@YAHV?$CStringT@DV?$StrTraitMFC_DLL@DV?$ChTraitsCRT@D@ATL@@@@@ATL@@00@Z
_TEXT	SEGMENT
_strString$ = -532					; size = 4
_buffer$ = -528						; size = 512
__$ArrayPad$ = -16					; size = 4
__$EHRec$ = -12						; size = 12
__$ReturnAddr$ = 4					; size = 4
_strSection$ = 8					; size = 4
_strKey$ = 12						; size = 4
_strFileName$ = 16					; size = 4
?FuncGetProfileIntBy@@YAHV?$CStringT@DV?$StrTraitMFC_DLL@DV?$ChTraitsCRT@D@ATL@@@@@ATL@@00@Z PROC NEAR ; FuncGetProfileIntBy, COMDAT

; 343  : {

  00000	6a ff		 push	 -1
  00002	68 00 00 00 00	 push	 __ehhandler$?FuncGetProfileIntBy@@YAHV?$CStringT@DV?$StrTraitMFC_DLL@DV?$ChTraitsCRT@D@ATL@@@@@ATL@@00@Z
  00007	64 a1 00 00 00
	00		 mov	 eax, DWORD PTR fs:__except_list
  0000d	50		 push	 eax
  0000e	64 89 25 00 00
	00 00		 mov	 DWORD PTR fs:__except_list, esp
  00015	81 ec 08 02 00
	00		 sub	 esp, 520		; 00000208H
  0001b	a1 00 00 00 00	 mov	 eax, DWORD PTR ___security_cookie
  00020	56		 push	 esi
  00021	89 84 24 08 02
	00 00		 mov	 DWORD PTR __$ArrayPad$[esp+536], eax
  00028	57		 push	 edi

; 344  : 	char	buffer[512] = {0};
; 345  : 	DWORD nSize = 256;
; 346  :     DFN_GetPrivateProfileString(strSection, strKey, _T(""), buffer, nSize, strFileName);

  00029	8b 94 24 24 02
	00 00		 mov	 edx, DWORD PTR _strKey$[esp+536]
  00030	33 c0		 xor	 eax, eax
  00032	c6 44 24 0c 00	 mov	 BYTE PTR _buffer$[esp+540], 0
  00037	b9 7f 00 00 00	 mov	 ecx, 127		; 0000007fH
  0003c	8d 7c 24 0d	 lea	 edi, DWORD PTR _buffer$[esp+541]
  00040	f3 ab		 rep stosd
  00042	66 ab		 stosw
  00044	aa		 stosb
  00045	8b 84 24 28 02
	00 00		 mov	 eax, DWORD PTR _strFileName$[esp+536]
  0004c	50		 push	 eax
  0004d	8b 84 24 24 02
	00 00		 mov	 eax, DWORD PTR _strSection$[esp+540]
  00054	68 00 01 00 00	 push	 256			; 00000100H
  00059	8d 4c 24 14	 lea	 ecx, DWORD PTR _buffer$[esp+548]
  0005d	51		 push	 ecx
  0005e	68 00 00 00 00	 push	 OFFSET FLAT:??_C@_00CNPNBAHC@?$AA@
  00063	52		 push	 edx
  00064	50		 push	 eax
  00065	c7 84 24 30 02
	00 00 02 00 00
	00		 mov	 DWORD PTR __$EHRec$[esp+572], 2
  00070	e8 00 00 00 00	 call	 ?DFN_GetPrivateProfileString@@YAKPBD00PADK0@Z ; DFN_GetPrivateProfileString
  00075	83 c4 18	 add	 esp, 24			; 00000018H

; 347  : 
; 348  : 	CString strString = _T("");

  00078	68 00 00 00 00	 push	 OFFSET FLAT:??_C@_00CNPNBAHC@?$AA@
  0007d	8d 4c 24 0c	 lea	 ecx, DWORD PTR _strString$[esp+544]
  00081	ff 15 00 00 00
	00		 call	 DWORD PTR __imp_??0?$CStringT@DV?$StrTraitMFC_DLL@DV?$ChTraitsCRT@D@ATL@@@@@ATL@@QAE@PBD@Z

; 349  : 	strString = buffer;

  00087	8d 4c 24 0c	 lea	 ecx, DWORD PTR _buffer$[esp+540]
  0008b	51		 push	 ecx
  0008c	8d 4c 24 0c	 lea	 ecx, DWORD PTR _strString$[esp+544]
  00090	c6 84 24 1c 02
	00 00 03	 mov	 BYTE PTR __$EHRec$[esp+552], 3
  00098	ff 15 00 00 00
	00		 call	 DWORD PTR __imp_??4?$CStringT@DV?$StrTraitMFC_DLL@DV?$ChTraitsCRT@D@ATL@@@@@ATL@@QAEAAV01@PBD@Z

; 350  : 
; 351  : 	int nReturnValue = atoi(strString);

  0009e	8b 54 24 08	 mov	 edx, DWORD PTR _strString$[esp+540]
  000a2	52		 push	 edx
  000a3	ff 15 00 00 00
	00		 call	 DWORD PTR __imp__atoi
  000a9	83 c4 04	 add	 esp, 4

; 352  : 	return nReturnValue;

  000ac	8d 4c 24 08	 lea	 ecx, DWORD PTR _strString$[esp+540]
  000b0	8b f0		 mov	 esi, eax
  000b2	ff 15 00 00 00
	00		 call	 DWORD PTR __imp_??1?$CStringT@DV?$StrTraitMFC_DLL@DV?$ChTraitsCRT@D@ATL@@@@@ATL@@QAE@XZ
  000b8	8d 8c 24 20 02
	00 00		 lea	 ecx, DWORD PTR _strSection$[esp+536]
  000bf	ff 15 00 00 00
	00		 call	 DWORD PTR __imp_??1?$CStringT@DV?$StrTraitMFC_DLL@DV?$ChTraitsCRT@D@ATL@@@@@ATL@@QAE@XZ
  000c5	8d 8c 24 24 02
	00 00		 lea	 ecx, DWORD PTR _strKey$[esp+536]
  000cc	ff 15 00 00 00
	00		 call	 DWORD PTR __imp_??1?$CStringT@DV?$StrTraitMFC_DLL@DV?$ChTraitsCRT@D@ATL@@@@@ATL@@QAE@XZ
  000d2	8d 8c 24 28 02
	00 00		 lea	 ecx, DWORD PTR _strFileName$[esp+536]
  000d9	ff 15 00 00 00
	00		 call	 DWORD PTR __imp_??1?$CStringT@DV?$StrTraitMFC_DLL@DV?$ChTraitsCRT@D@ATL@@@@@ATL@@QAE@XZ

; 353  : }

  000df	8b 8c 24 10 02
	00 00		 mov	 ecx, DWORD PTR __$EHRec$[esp+540]
  000e6	5f		 pop	 edi
  000e7	64 89 0d 00 00
	00 00		 mov	 DWORD PTR fs:__except_list, ecx
  000ee	8b 8c 24 08 02
	00 00		 mov	 ecx, DWORD PTR __$ArrayPad$[esp+536]
  000f5	8b c6		 mov	 eax, esi
  000f7	5e		 pop	 esi
  000f8	e8 00 00 00 00	 call	 @__security_check_cookie@4
  000fd	81 c4 14 02 00
	00		 add	 esp, 532		; 00000214H
  00103	c3		 ret	 0
_TEXT	ENDS
;	COMDAT text$x
text$x	SEGMENT
$L66752:
  00000	8d 4d 0c	 lea	 ecx, DWORD PTR _strFileName$[ebp-4]
  00003	ff 25 00 00 00
	00		 jmp	 DWORD PTR __imp_??1?$CStringT@DV?$StrTraitMFC_DLL@DV?$ChTraitsCRT@D@ATL@@@@@ATL@@QAE@XZ
$L66753:
  00009	8d 4d 08	 lea	 ecx, DWORD PTR _strKey$[ebp-4]
  0000c	ff 25 00 00 00
	00		 jmp	 DWORD PTR __imp_??1?$CStringT@DV?$StrTraitMFC_DLL@DV?$ChTraitsCRT@D@ATL@@@@@ATL@@QAE@XZ
$L66754:
  00012	8d 4d 04	 lea	 ecx, DWORD PTR _strSection$[ebp-4]
  00015	ff 25 00 00 00
	00		 jmp	 DWORD PTR __imp_??1?$CStringT@DV?$StrTraitMFC_DLL@DV?$ChTraitsCRT@D@ATL@@@@@ATL@@QAE@XZ
$L66755:
  0001b	8d 8d ec fd ff
	ff		 lea	 ecx, DWORD PTR _strString$[ebp]
  00021	ff 25 00 00 00
	00		 jmp	 DWORD PTR __imp_??1?$CStringT@DV?$StrTraitMFC_DLL@DV?$ChTraitsCRT@D@ATL@@@@@ATL@@QAE@XZ
__ehhandler$?FuncGetProfileIntBy@@YAHV?$CStringT@DV?$StrTraitMFC_DLL@DV?$ChTraitsCRT@D@ATL@@@@@ATL@@00@Z:
  00027	b8 00 00 00 00	 mov	 eax, OFFSET FLAT:$T66769
  0002c	e9 00 00 00 00	 jmp	 ___CxxFrameHandler
text$x	ENDS
?FuncGetProfileIntBy@@YAHV?$CStringT@DV?$StrTraitMFC_DLL@DV?$ChTraitsCRT@D@ATL@@@@@ATL@@00@Z ENDP ; FuncGetProfileIntBy
PUBLIC	?FuncGetLeftStringByMark@@YA?AV?$CStringT@DV?$StrTraitMFC_DLL@DV?$ChTraitsCRT@D@ATL@@@@@ATL@@V12@0H@Z ; FuncGetLeftStringByMark
;	COMDAT xdata$x
; File d:\program files\microsoft visual studio .net 2003\vc7\atlmfc\include\atlsimpstr.h
xdata$x	SEGMENT
$T66814	DD	0ffffffffH
	DD	FLAT:$L66777
	DD	00H
	DD	FLAT:$L66778
	DD	01H
	DD	FLAT:$L66779
	DD	02H
	DD	FLAT:$L66780
	DD	03H
	DD	FLAT:$L66781
	DD	04H
	DD	FLAT:$L66782
$T66810	DD	019930520H
	DD	06H
	DD	FLAT:$T66814
	DD	2 DUP(00H)
	DD	2 DUP(00H)
; Function compile flags: /Ogty
; File d:\siteview\ecc_common\base\funcgeneral.cpp
xdata$x	ENDS
;	COMDAT ?FuncGetLeftStringByMark@@YA?AV?$CStringT@DV?$StrTraitMFC_DLL@DV?$ChTraitsCRT@D@ATL@@@@@ATL@@V12@0H@Z
_TEXT	SEGMENT
_strTemp$ = -28						; size = 4
_strRight$60696 = -24					; size = 4
_strReturn$ = -20					; size = 4
$T66784 = -16						; size = 4
_strLeft$60694 = -16					; size = 4
__$EHRec$ = -12						; size = 12
___$ReturnUdt$ = 8					; size = 4
_strWholeString$ = 12					; size = 4
_strMark$ = 16						; size = 4
_nIndex$ = 20						; size = 4
?FuncGetLeftStringByMark@@YA?AV?$CStringT@DV?$StrTraitMFC_DLL@DV?$ChTraitsCRT@D@ATL@@@@@ATL@@V12@0H@Z PROC NEAR ; FuncGetLeftStringByMark, COMDAT

; 356  : {

  00000	6a ff		 push	 -1
  00002	68 00 00 00 00	 push	 __ehhandler$?FuncGetLeftStringByMark@@YA?AV?$CStringT@DV?$StrTraitMFC_DLL@DV?$ChTraitsCRT@D@ATL@@@@@ATL@@V12@0H@Z
  00007	64 a1 00 00 00
	00		 mov	 eax, DWORD PTR fs:__except_list
  0000d	50		 push	 eax
  0000e	64 89 25 00 00
	00 00		 mov	 DWORD PTR fs:__except_list, esp
  00015	83 ec 10	 sub	 esp, 16			; 00000010H
  00018	55		 push	 ebp
  00019	56		 push	 esi
  0001a	57		 push	 edi

; 357  : 	CString strTemp = _T("");
; 358  : 	strTemp = strWholeString;
; 359  : 	
; 360  : 	int nIndex1 = strTemp.Find(strMark, 0);
; 361  : 	int i = 0;
; 362  : 	CString strReturn = _T("");
; 363  : 	int nMarkByte = 0;
; 364  : 	nMarkByte = strMark.GetLength();
; 365  : 
; 366  : 	while (nIndex1!=-1) 
; 367  : 	{
; 368  : 		i++;
; 369  : 		
; 370  : 		CString strLeft = strTemp.Left(nIndex1);
; 371  : 		CString strRight = strTemp.Right(strTemp.GetLength()-nIndex1-nMarkByte);
; 372  : 
; 373  : 		if (i == nIndex)
; 374  : 			strReturn = strLeft;
; 375  : 		
; 376  : 		nIndex1 = strRight.Find(strMark, 0);

  0001b	33 ff		 xor	 edi, edi
  0001d	89 7c 24 18	 mov	 DWORD PTR $T66784[esp+40], edi
  00021	68 00 00 00 00	 push	 OFFSET FLAT:??_C@_00CNPNBAHC@?$AA@
  00026	8d 4c 24 10	 lea	 ecx, DWORD PTR _strTemp$[esp+44]
  0002a	c7 44 24 28 01
	00 00 00	 mov	 DWORD PTR __$EHRec$[esp+52], 1
  00032	ff 15 00 00 00
	00		 call	 DWORD PTR __imp_??0?$CStringT@DV?$StrTraitMFC_DLL@DV?$ChTraitsCRT@D@ATL@@@@@ATL@@QAE@PBD@Z
  00038	8d 44 24 30	 lea	 eax, DWORD PTR _strWholeString$[esp+36]
  0003c	50		 push	 eax
  0003d	8d 4c 24 10	 lea	 ecx, DWORD PTR _strTemp$[esp+44]
  00041	c6 44 24 28 02	 mov	 BYTE PTR __$EHRec$[esp+52], 2
  00046	ff 15 00 00 00
	00		 call	 DWORD PTR __imp_??4?$CStringT@DV?$StrTraitMFC_DLL@DV?$ChTraitsCRT@D@ATL@@@@@ATL@@QAEAAV01@ABV01@@Z
  0004c	8b 4c 24 34	 mov	 ecx, DWORD PTR _strMark$[esp+36]
  00050	57		 push	 edi
  00051	51		 push	 ecx
  00052	8d 4c 24 14	 lea	 ecx, DWORD PTR _strTemp$[esp+48]
  00056	ff 15 00 00 00
	00		 call	 DWORD PTR __imp_?Find@?$CStringT@DV?$StrTraitMFC_DLL@DV?$ChTraitsCRT@D@ATL@@@@@ATL@@QBEHPBDH@Z
  0005c	68 00 00 00 00	 push	 OFFSET FLAT:??_C@_00CNPNBAHC@?$AA@
  00061	8d 4c 24 18	 lea	 ecx, DWORD PTR _strReturn$[esp+44]
  00065	8b f0		 mov	 esi, eax
  00067	ff 15 00 00 00
	00		 call	 DWORD PTR __imp_??0?$CStringT@DV?$StrTraitMFC_DLL@DV?$ChTraitsCRT@D@ATL@@@@@ATL@@QAE@PBD@Z
  0006d	83 fe ff	 cmp	 esi, -1
  00070	8b 54 24 34	 mov	 edx, DWORD PTR _strMark$[esp+36]
  00074	8b 6a f4	 mov	 ebp, DWORD PTR [edx-12]
  00077	c6 44 24 24 03	 mov	 BYTE PTR __$EHRec$[esp+48], 3
  0007c	0f 84 93 00 00
	00		 je	 $L60693
  00082	53		 push	 ebx
